
4G_test.elf:     file format elf32-avr

Sections:
Idx Name          Size      VMA       LMA       File off  Algn
  0 .data         000001ac  00800200  00003004  00003098  2**0
                  CONTENTS, ALLOC, LOAD, DATA
  1 .text         00003004  00000000  00000000  00000094  2**1
                  CONTENTS, ALLOC, LOAD, READONLY, CODE
  2 .bss          000003a9  008003ac  008003ac  00003244  2**0
                  ALLOC
  3 .comment      00000030  00000000  00000000  00003244  2**0
                  CONTENTS, READONLY
  4 .note.gnu.avr.deviceinfo 00000040  00000000  00000000  00003274  2**2
                  CONTENTS, READONLY
  5 .debug_aranges 000008b0  00000000  00000000  000032b4  2**0
                  CONTENTS, READONLY, DEBUGGING
  6 .debug_info   000170f5  00000000  00000000  00003b64  2**0
                  CONTENTS, READONLY, DEBUGGING
  7 .debug_abbrev 00003b93  00000000  00000000  0001ac59  2**0
                  CONTENTS, READONLY, DEBUGGING
  8 .debug_line   00004c10  00000000  00000000  0001e7ec  2**0
                  CONTENTS, READONLY, DEBUGGING
  9 .debug_frame  00001c20  00000000  00000000  000233fc  2**2
                  CONTENTS, READONLY, DEBUGGING
 10 .debug_str    00003e16  00000000  00000000  0002501c  2**0
                  CONTENTS, READONLY, DEBUGGING
 11 .debug_loc    0000a0ab  00000000  00000000  00028e32  2**0
                  CONTENTS, READONLY, DEBUGGING
 12 .debug_ranges 00000898  00000000  00000000  00032edd  2**0
                  CONTENTS, READONLY, DEBUGGING

Disassembly of section .text:

00000000 <__vectors>:
       0:	17 c1       	rjmp	.+558    	; 0x230 <__dtors_end>
       2:	00 00       	nop
       4:	45 c1       	rjmp	.+650    	; 0x290 <__bad_interrupt>
       6:	00 00       	nop
       8:	43 c1       	rjmp	.+646    	; 0x290 <__bad_interrupt>
       a:	00 00       	nop
       c:	41 c1       	rjmp	.+642    	; 0x290 <__bad_interrupt>
       e:	00 00       	nop
      10:	3f c1       	rjmp	.+638    	; 0x290 <__bad_interrupt>
      12:	00 00       	nop
      14:	3d c1       	rjmp	.+634    	; 0x290 <__bad_interrupt>
      16:	00 00       	nop
      18:	3b c1       	rjmp	.+630    	; 0x290 <__bad_interrupt>
      1a:	00 00       	nop
      1c:	39 c1       	rjmp	.+626    	; 0x290 <__bad_interrupt>
      1e:	00 00       	nop
      20:	37 c1       	rjmp	.+622    	; 0x290 <__bad_interrupt>
      22:	00 00       	nop
      24:	0c 94 d6 0d 	jmp	0x1bac	; 0x1bac <__vector_10>
      28:	0c 94 d6 0d 	jmp	0x1bac	; 0x1bac <__vector_10>
      2c:	0c 94 d6 0d 	jmp	0x1bac	; 0x1bac <__vector_10>
      30:	2f c1       	rjmp	.+606    	; 0x290 <__bad_interrupt>
      32:	00 00       	nop
      34:	2d c1       	rjmp	.+602    	; 0x290 <__bad_interrupt>
      36:	00 00       	nop
      38:	2b c1       	rjmp	.+598    	; 0x290 <__bad_interrupt>
      3a:	00 00       	nop
      3c:	29 c1       	rjmp	.+594    	; 0x290 <__bad_interrupt>
      3e:	00 00       	nop
      40:	27 c1       	rjmp	.+590    	; 0x290 <__bad_interrupt>
      42:	00 00       	nop
      44:	25 c1       	rjmp	.+586    	; 0x290 <__bad_interrupt>
      46:	00 00       	nop
      48:	23 c1       	rjmp	.+582    	; 0x290 <__bad_interrupt>
      4a:	00 00       	nop
      4c:	21 c1       	rjmp	.+578    	; 0x290 <__bad_interrupt>
      4e:	00 00       	nop
      50:	1f c1       	rjmp	.+574    	; 0x290 <__bad_interrupt>
      52:	00 00       	nop
      54:	1d c1       	rjmp	.+570    	; 0x290 <__bad_interrupt>
      56:	00 00       	nop
      58:	1b c1       	rjmp	.+566    	; 0x290 <__bad_interrupt>
      5a:	00 00       	nop
      5c:	d4 c6       	rjmp	.+3496   	; 0xe06 <__vector_23>
      5e:	00 00       	nop
      60:	17 c1       	rjmp	.+558    	; 0x290 <__bad_interrupt>
      62:	00 00       	nop
      64:	2d c4       	rjmp	.+2138   	; 0x8c0 <__vector_25>
      66:	00 00       	nop
      68:	61 c4       	rjmp	.+2242   	; 0x92c <__vector_26>
      6a:	00 00       	nop
      6c:	11 c1       	rjmp	.+546    	; 0x290 <__bad_interrupt>
      6e:	00 00       	nop
      70:	0f c1       	rjmp	.+542    	; 0x290 <__bad_interrupt>
      72:	00 00       	nop
      74:	0d c1       	rjmp	.+538    	; 0x290 <__bad_interrupt>
      76:	00 00       	nop
      78:	0b c1       	rjmp	.+534    	; 0x290 <__bad_interrupt>
      7a:	00 00       	nop
      7c:	09 c1       	rjmp	.+530    	; 0x290 <__bad_interrupt>
      7e:	00 00       	nop
      80:	07 c1       	rjmp	.+526    	; 0x290 <__bad_interrupt>
      82:	00 00       	nop
      84:	05 c1       	rjmp	.+522    	; 0x290 <__bad_interrupt>
      86:	00 00       	nop
      88:	03 c1       	rjmp	.+518    	; 0x290 <__bad_interrupt>
      8a:	00 00       	nop
      8c:	01 c1       	rjmp	.+514    	; 0x290 <__bad_interrupt>
      8e:	00 00       	nop
      90:	ff c0       	rjmp	.+510    	; 0x290 <__bad_interrupt>
      92:	00 00       	nop
      94:	fd c0       	rjmp	.+506    	; 0x290 <__bad_interrupt>
      96:	00 00       	nop
      98:	fb c0       	rjmp	.+502    	; 0x290 <__bad_interrupt>
      9a:	00 00       	nop
      9c:	0c 94 e5 11 	jmp	0x23ca	; 0x23ca <__vector_39>
      a0:	f7 c0       	rjmp	.+494    	; 0x290 <__bad_interrupt>
      a2:	00 00       	nop
      a4:	f5 c0       	rjmp	.+490    	; 0x290 <__bad_interrupt>
      a6:	00 00       	nop
      a8:	f3 c0       	rjmp	.+486    	; 0x290 <__bad_interrupt>
      aa:	00 00       	nop
      ac:	f1 c0       	rjmp	.+482    	; 0x290 <__bad_interrupt>
      ae:	00 00       	nop
      b0:	ef c0       	rjmp	.+478    	; 0x290 <__bad_interrupt>
      b2:	00 00       	nop
      b4:	ed c0       	rjmp	.+474    	; 0x290 <__bad_interrupt>
      b6:	00 00       	nop
      b8:	eb c0       	rjmp	.+470    	; 0x290 <__bad_interrupt>
      ba:	00 00       	nop
      bc:	e9 c0       	rjmp	.+466    	; 0x290 <__bad_interrupt>
      be:	00 00       	nop
      c0:	e7 c0       	rjmp	.+462    	; 0x290 <__bad_interrupt>
      c2:	00 00       	nop
      c4:	e5 c0       	rjmp	.+458    	; 0x290 <__bad_interrupt>
      c6:	00 00       	nop
      c8:	e3 c0       	rjmp	.+454    	; 0x290 <__bad_interrupt>
      ca:	00 00       	nop
      cc:	e1 c0       	rjmp	.+450    	; 0x290 <__bad_interrupt>
      ce:	00 00       	nop
      d0:	df c0       	rjmp	.+446    	; 0x290 <__bad_interrupt>
      d2:	00 00       	nop
      d4:	dd c0       	rjmp	.+442    	; 0x290 <__bad_interrupt>
      d6:	00 00       	nop
      d8:	db c0       	rjmp	.+438    	; 0x290 <__bad_interrupt>
      da:	00 00       	nop
      dc:	d9 c0       	rjmp	.+434    	; 0x290 <__bad_interrupt>
      de:	00 00       	nop
      e0:	d7 c0       	rjmp	.+430    	; 0x290 <__bad_interrupt>
      e2:	00 00       	nop
      e4:	40 08       	sbc	r4, r0
      e6:	43 08       	sbc	r4, r3
      e8:	32 08       	sbc	r3, r2
      ea:	36 08       	sbc	r3, r6
      ec:	3c 08       	sbc	r3, r12
      ee:	7a 08       	sbc	r7, r10
      f0:	47 08       	sbc	r4, r7
      f2:	4b 08       	sbc	r4, r11
      f4:	51 08       	sbc	r5, r1
      f6:	55 08       	sbc	r5, r5
      f8:	59 08       	sbc	r5, r9
      fa:	5f 08       	sbc	r5, r15
      fc:	63 08       	sbc	r6, r3
      fe:	67 08       	sbc	r6, r7
     100:	7a 08       	sbc	r7, r10
     102:	6d 08       	sbc	r6, r13
     104:	71 08       	sbc	r7, r1
     106:	75 08       	sbc	r7, r5

00000108 <__trampolines_end>:
     108:	00 00       	nop
     10a:	0a 0b       	sbc	r16, r26
     10c:	02 09       	sbc	r16, r2
     10e:	0c 0d       	add	r16, r12
     110:	0e 08       	sbc	r0, r14
     112:	07 03       	mulsu	r16, r23
     114:	04 01       	movw	r0, r8
	...
     132:	00 00       	nop
     134:	12 11       	cpse	r17, r2
     136:	10 00       	.word	0x0010	; ????
	...

0000014e <digital_pin_to_bit_mask_PGM>:
     14e:	01 02 10 20 20 08 08 10 20 40 10 20 40 80 02 01     ...  ... @. @...
     15e:	02 01 08 04 02 01 01 02 04 08 10 20 40 80 80 40     ........... @..@
     16e:	20 10 08 04 02 01 80 04 02 01 80 40 20 10 08 04      ..........@ ...
     17e:	02 01 08 04 02 01 01 02 04 08 10 20 40 80 01 02     ........... @...
     18e:	04 08 10 20 40 80                                   ... @.

00000194 <digital_pin_to_port_PGM>:
     194:	05 05 05 05 07 05 08 08 08 08 02 02 02 02 0a 0a     ................
     1a4:	08 08 04 04 04 04 01 01 01 01 01 01 01 01 03 03     ................
     1b4:	03 03 03 03 03 03 04 07 07 07 0c 0c 0c 0c 0c 0c     ................
     1c4:	0c 0c 02 02 02 02 06 06 06 06 06 06 06 06 0b 0b     ................
     1d4:	0b 0b 0b 0b 0b 0b                                   ......

000001da <port_to_input_PGM>:
     1da:	00 00 20 00 23 00 26 00 29 00 2c 00 2f 00 32 00     .. .#.&.).,./.2.
     1ea:	00 01 00 00 03 01 06 01 09 01                       ..........

000001f4 <port_to_output_PGM>:
     1f4:	00 00 22 00 25 00 28 00 2b 00 2e 00 31 00 34 00     ..".%.(.+...1.4.
     204:	02 01 00 00 05 01 08 01 0b 01                       ..........

0000020e <port_to_mode_PGM>:
     20e:	00 00 21 00 24 00 27 00 2a 00 2d 00 30 00 33 00     ..!.$.'.*.-.0.3.
     21e:	01 01 00 00 04 01 07 01 0a 01                       ..........

00000228 <__ctors_start>:
     228:	be 01       	movw	r22, r28
     22a:	c8 04       	cpc	r12, r8
     22c:	e3 10       	cpse	r14, r3

0000022e <__ctors_end>:
     22e:	d6 01       	movw	r26, r12

00000230 <__dtors_end>:
     230:	11 24       	eor	r1, r1
     232:	1f be       	out	0x3f, r1	; 63
     234:	cf ef       	ldi	r28, 0xFF	; 255
     236:	d1 e2       	ldi	r29, 0x21	; 33
     238:	de bf       	out	0x3e, r29	; 62
     23a:	cd bf       	out	0x3d, r28	; 61
     23c:	00 e0       	ldi	r16, 0x00	; 0
     23e:	0c bf       	out	0x3c, r16	; 60

00000240 <__do_copy_data>:
     240:	13 e0       	ldi	r17, 0x03	; 3
     242:	a0 e0       	ldi	r26, 0x00	; 0
     244:	b2 e0       	ldi	r27, 0x02	; 2
     246:	e4 e0       	ldi	r30, 0x04	; 4
     248:	f0 e3       	ldi	r31, 0x30	; 48
     24a:	00 e0       	ldi	r16, 0x00	; 0
     24c:	0b bf       	out	0x3b, r16	; 59
     24e:	02 c0       	rjmp	.+4      	; 0x254 <__do_copy_data+0x14>
     250:	07 90       	elpm	r0, Z+
     252:	0d 92       	st	X+, r0
     254:	ac 3a       	cpi	r26, 0xAC	; 172
     256:	b1 07       	cpc	r27, r17
     258:	d9 f7       	brne	.-10     	; 0x250 <__do_copy_data+0x10>

0000025a <__do_clear_bss>:
     25a:	27 e0       	ldi	r18, 0x07	; 7
     25c:	ac ea       	ldi	r26, 0xAC	; 172
     25e:	b3 e0       	ldi	r27, 0x03	; 3
     260:	01 c0       	rjmp	.+2      	; 0x264 <.do_clear_bss_start>

00000262 <.do_clear_bss_loop>:
     262:	1d 92       	st	X+, r1

00000264 <.do_clear_bss_start>:
     264:	a5 35       	cpi	r26, 0x55	; 85
     266:	b2 07       	cpc	r27, r18
     268:	e1 f7       	brne	.-8      	; 0x262 <.do_clear_bss_loop>

0000026a <__do_global_ctors>:
     26a:	11 e0       	ldi	r17, 0x01	; 1
     26c:	c7 e1       	ldi	r28, 0x17	; 23
     26e:	d1 e0       	ldi	r29, 0x01	; 1
     270:	00 e0       	ldi	r16, 0x00	; 0
     272:	06 c0       	rjmp	.+12     	; 0x280 <__do_global_ctors+0x16>
     274:	21 97       	sbiw	r28, 0x01	; 1
     276:	01 09       	sbc	r16, r1
     278:	80 2f       	mov	r24, r16
     27a:	fe 01       	movw	r30, r28
     27c:	0e 94 70 15 	call	0x2ae0	; 0x2ae0 <__tablejump2__>
     280:	c4 31       	cpi	r28, 0x14	; 20
     282:	d1 07       	cpc	r29, r17
     284:	80 e0       	ldi	r24, 0x00	; 0
     286:	08 07       	cpc	r16, r24
     288:	a9 f7       	brne	.-22     	; 0x274 <__do_global_ctors+0xa>
     28a:	b0 d3       	rcall	.+1888   	; 0x9ec <main>
     28c:	0c 94 f1 17 	jmp	0x2fe2	; 0x2fe2 <__do_global_dtors>

00000290 <__bad_interrupt>:
     290:	b7 ce       	rjmp	.-658    	; 0x0 <__vectors>

00000292 <_Z15Enable_pin_initv>:
	return success;
}

void Enable_pin_init(){
	//pinMode(Telecom_enable_pin, OUTPUT);
	pinMode(Ping_PIR_enable_pin, OUTPUT);
     292:	61 e0       	ldi	r22, 0x01	; 1
     294:	8b e0       	ldi	r24, 0x0B	; 11
     296:	2f d7       	rcall	.+3678   	; 0x10f6 <pinMode>
	pinMode(Camera_enable_pin, OUTPUT);
     298:	61 e0       	ldi	r22, 0x01	; 1
     29a:	89 e0       	ldi	r24, 0x09	; 9
     29c:	2c d7       	rcall	.+3672   	; 0x10f6 <pinMode>
	//digitalWrite(Telecom_enable_pin, HIGH);
	digitalWrite(Ping_PIR_enable_pin, LOW);
     29e:	60 e0       	ldi	r22, 0x00	; 0
     2a0:	8b e0       	ldi	r24, 0x0B	; 11
     2a2:	65 d7       	rcall	.+3786   	; 0x116e <digitalWrite>
	digitalWrite(Camera_enable_pin, LOW);
     2a4:	60 e0       	ldi	r22, 0x00	; 0
     2a6:	89 e0       	ldi	r24, 0x09	; 9
     2a8:	62 c7       	rjmp	.+3780   	; 0x116e <digitalWrite>

000002aa <_Z12Camera_setupv>:
     2aa:	61 e0       	ldi	r22, 0x01	; 1
}

void Camera_setup(){
	bool status;
	
	digitalWrite(Camera_enable_pin, HIGH);
     2ac:	89 e0       	ldi	r24, 0x09	; 9
     2ae:	5f d7       	rcall	.+3774   	; 0x116e <digitalWrite>
	delay(100);
     2b0:	64 e6       	ldi	r22, 0x64	; 100
     2b2:	70 e0       	ldi	r23, 0x00	; 0
     2b4:	80 e0       	ldi	r24, 0x00	; 0
     2b6:	90 e0       	ldi	r25, 0x00	; 0
     2b8:	21 d6       	rcall	.+3138   	; 0xefc <delay>
	
	// default settings
	status = amg.begin();
     2ba:	69 e6       	ldi	r22, 0x69	; 105
     2bc:	83 ed       	ldi	r24, 0xD3	; 211
     2be:	94 e0       	ldi	r25, 0x04	; 4
     2c0:	0e 94 58 0b 	call	0x16b0	; 0x16b0 <_ZN16Adafruit_AMG88xx5beginEh>
	if (!status) {
     2c4:	81 11       	cpse	r24, r1
     2c6:	06 c0       	rjmp	.+12     	; 0x2d4 <_Z12Camera_setupv+0x2a>
		Serial.println("Could not find a valid AMG88xx sensor, check wiring!");
     2c8:	66 e0       	ldi	r22, 0x06	; 6
     2ca:	72 e0       	ldi	r23, 0x02	; 2
     2cc:	83 ee       	ldi	r24, 0xE3	; 227
     2ce:	94 e0       	ldi	r25, 0x04	; 4
     2d0:	ff d3       	rcall	.+2046   	; 0xad0 <_ZN5Print7printlnEPKc>
     2d2:	ff cf       	rjmp	.-2      	; 0x2d2 <_Z12Camera_setupv+0x28>
		while (1);
	}
	
	Serial.println("-- Pixels Test --");
     2d4:	6b e3       	ldi	r22, 0x3B	; 59
     2d6:	72 e0       	ldi	r23, 0x02	; 2
     2d8:	83 ee       	ldi	r24, 0xE3	; 227
     2da:	94 e0       	ldi	r25, 0x04	; 4

	Serial.println();
     2dc:	f9 d3       	rcall	.+2034   	; 0xad0 <_ZN5Print7printlnEPKc>
     2de:	83 ee       	ldi	r24, 0xE3	; 227
     2e0:	94 e0       	ldi	r25, 0x04	; 4

	delay(100); // let sensor boot up
     2e2:	e3 d3       	rcall	.+1990   	; 0xaaa <_ZN5Print7printlnEv>
     2e4:	64 e6       	ldi	r22, 0x64	; 100
     2e6:	70 e0       	ldi	r23, 0x00	; 0
     2e8:	80 e0       	ldi	r24, 0x00	; 0
     2ea:	90 e0       	ldi	r25, 0x00	; 0
     2ec:	07 c6       	rjmp	.+3086   	; 0xefc <delay>

000002ee <_Z11Camera_readv>:
}

void Camera_read(){
     2ee:	0f 93       	push	r16
     2f0:	1f 93       	push	r17
     2f2:	cf 93       	push	r28
     2f4:	df 93       	push	r29
	//read all the pixels
	amg.readPixels(pixels);
     2f6:	40 e4       	ldi	r20, 0x40	; 64
     2f8:	63 ed       	ldi	r22, 0xD3	; 211
     2fa:	73 e0       	ldi	r23, 0x03	; 3
     2fc:	83 ed       	ldi	r24, 0xD3	; 211
     2fe:	94 e0       	ldi	r25, 0x04	; 4
     300:	0e 94 cf 0b 	call	0x179e	; 0x179e <_ZN16Adafruit_AMG88xx10readPixelsEPfh>

	Serial.print("[");
     304:	6d e4       	ldi	r22, 0x4D	; 77
     306:	72 e0       	ldi	r23, 0x02	; 2
     308:	83 ee       	ldi	r24, 0xE3	; 227
     30a:	94 e0       	ldi	r25, 0x04	; 4
     30c:	c6 d3       	rcall	.+1932   	; 0xa9a <_ZN5Print5printEPKc>
     30e:	03 ed       	ldi	r16, 0xD3	; 211
     310:	13 e0       	ldi	r17, 0x03	; 3
	for(int i=1; i<=AMG88xx_PIXEL_ARRAY_SIZE; i++){
     312:	c1 e0       	ldi	r28, 0x01	; 1
     314:	d0 e0       	ldi	r29, 0x00	; 0
		Serial.print(pixels[i-1]);
     316:	f8 01       	movw	r30, r16
     318:	41 91       	ld	r20, Z+
     31a:	51 91       	ld	r21, Z+
     31c:	61 91       	ld	r22, Z+
     31e:	71 91       	ld	r23, Z+
     320:	8f 01       	movw	r16, r30
     322:	22 e0       	ldi	r18, 0x02	; 2
     324:	30 e0       	ldi	r19, 0x00	; 0
     326:	83 ee       	ldi	r24, 0xE3	; 227
     328:	94 e0       	ldi	r25, 0x04	; 4
     32a:	6c d5       	rcall	.+2776   	; 0xe04 <_ZN5Print5printEdi>
		Serial.print(", ");
     32c:	6f e4       	ldi	r22, 0x4F	; 79
     32e:	72 e0       	ldi	r23, 0x02	; 2
     330:	83 ee       	ldi	r24, 0xE3	; 227
     332:	94 e0       	ldi	r25, 0x04	; 4
     334:	b2 d3       	rcall	.+1892   	; 0xa9a <_ZN5Print5printEPKc>
		if( i%8 == 0 ) Serial.println();
     336:	ce 01       	movw	r24, r28
     338:	87 70       	andi	r24, 0x07	; 7
     33a:	99 27       	eor	r25, r25
     33c:	89 2b       	or	r24, r25
     33e:	19 f4       	brne	.+6      	; 0x346 <_Z11Camera_readv+0x58>
     340:	83 ee       	ldi	r24, 0xE3	; 227
     342:	94 e0       	ldi	r25, 0x04	; 4
     344:	b2 d3       	rcall	.+1892   	; 0xaaa <_ZN5Print7printlnEv>
void Camera_read(){
	//read all the pixels
	amg.readPixels(pixels);

	Serial.print("[");
	for(int i=1; i<=AMG88xx_PIXEL_ARRAY_SIZE; i++){
     346:	21 96       	adiw	r28, 0x01	; 1
     348:	c1 34       	cpi	r28, 0x41	; 65
     34a:	d1 05       	cpc	r29, r1
     34c:	21 f7       	brne	.-56     	; 0x316 <_Z11Camera_readv+0x28>
		Serial.print(pixels[i-1]);
		Serial.print(", ");
		if( i%8 == 0 ) Serial.println();
	}
	Serial.println("]");
     34e:	62 e5       	ldi	r22, 0x52	; 82
     350:	72 e0       	ldi	r23, 0x02	; 2
     352:	83 ee       	ldi	r24, 0xE3	; 227
     354:	94 e0       	ldi	r25, 0x04	; 4
	Serial.println();
     356:	bc d3       	rcall	.+1912   	; 0xad0 <_ZN5Print7printlnEPKc>
     358:	83 ee       	ldi	r24, 0xE3	; 227
     35a:	94 e0       	ldi	r25, 0x04	; 4
	
	digitalWrite(Camera_enable_pin, LOW);
     35c:	a6 d3       	rcall	.+1868   	; 0xaaa <_ZN5Print7printlnEv>
     35e:	60 e0       	ldi	r22, 0x00	; 0
     360:	89 e0       	ldi	r24, 0x09	; 9
     362:	05 d7       	rcall	.+3594   	; 0x116e <digitalWrite>

	//delay a second
	delay(1000);
     364:	68 ee       	ldi	r22, 0xE8	; 232
     366:	73 e0       	ldi	r23, 0x03	; 3
     368:	80 e0       	ldi	r24, 0x00	; 0
}
     36a:	90 e0       	ldi	r25, 0x00	; 0
     36c:	df 91       	pop	r29
     36e:	cf 91       	pop	r28
     370:	1f 91       	pop	r17
	Serial.println();
	
	digitalWrite(Camera_enable_pin, LOW);

	//delay a second
	delay(1000);
     372:	0f 91       	pop	r16
     374:	c3 c5       	rjmp	.+2950   	; 0xefc <delay>

00000376 <_Z9PIR_setupv>:
}

void PIR_setup(){
	pinMode(PIR_read_pin, INPUT);
     376:	60 e0       	ldi	r22, 0x00	; 0
     378:	8a e0       	ldi	r24, 0x0A	; 10
     37a:	bd c6       	rjmp	.+3450   	; 0x10f6 <pinMode>

0000037c <_GLOBAL__sub_I_amg>:
}
     37c:	0f 93       	push	r16
     37e:	1f 93       	push	r17
//#define Telecom_enable_pin 49
#define Ping_PIR_enable_pin 11
#define Camera_enable_pin 9


SoftwareSerial Telecom_serial(Telecom_RX, Telecom_TX); //set up serial port for telecom module
     380:	20 e0       	ldi	r18, 0x00	; 0
     382:	42 e3       	ldi	r20, 0x32	; 50
     384:	63 e3       	ldi	r22, 0x33	; 51
     386:	84 eb       	ldi	r24, 0xB4	; 180
     388:	93 e0       	ldi	r25, 0x03	; 3
     38a:	0e 94 a6 0e 	call	0x1d4c	; 0x1d4c <_ZN14SoftwareSerialC1Ehhb>
HCSR04 hcsr04(TRIG_PIN, ECHO_PIN, 20, 4000); //setup ping sensor
     38e:	00 ea       	ldi	r16, 0xA0	; 160
     390:	1f e0       	ldi	r17, 0x0F	; 15
     392:	24 e1       	ldi	r18, 0x14	; 20
     394:	30 e0       	ldi	r19, 0x00	; 0
     396:	45 e0       	ldi	r20, 0x05	; 5
     398:	50 e0       	ldi	r21, 0x00	; 0
     39a:	64 e0       	ldi	r22, 0x04	; 4
     39c:	70 e0       	ldi	r23, 0x00	; 0
     39e:	8c ea       	ldi	r24, 0xAC	; 172
     3a0:	93 e0       	ldi	r25, 0x03	; 3
     3a2:	0e 94 3a 0c 	call	0x1874	; 0x1874 <_ZN6HCSR04C1Eiiii>
	delay(1000);
}

void PIR_setup(){
	pinMode(PIR_read_pin, INPUT);
}
     3a6:	1f 91       	pop	r17
     3a8:	0f 91       	pop	r16
     3aa:	08 95       	ret

000003ac <_GLOBAL__sub_D_amg>:
//#define Telecom_enable_pin 49
#define Ping_PIR_enable_pin 11
#define Camera_enable_pin 9


SoftwareSerial Telecom_serial(Telecom_RX, Telecom_TX); //set up serial port for telecom module
     3ac:	84 eb       	ldi	r24, 0xB4	; 180
     3ae:	93 e0       	ldi	r25, 0x03	; 3
     3b0:	0c 94 52 0e 	jmp	0x1ca4	; 0x1ca4 <_ZN14SoftwareSerialD1Ev>

000003b4 <_Z12updateSerialv>:
void Camera_read();
void PIR_setup();
int Setup_4G();

void updateSerial() {
	delay(500);
     3b4:	64 ef       	ldi	r22, 0xF4	; 244
     3b6:	71 e0       	ldi	r23, 0x01	; 1
     3b8:	80 e0       	ldi	r24, 0x00	; 0
     3ba:	90 e0       	ldi	r25, 0x00	; 0
     3bc:	9f d5       	rcall	.+2878   	; 0xefc <delay>
	while (Serial.available()) {
     3be:	83 ee       	ldi	r24, 0xE3	; 227
     3c0:	94 e0       	ldi	r25, 0x04	; 4
     3c2:	0e d1       	rcall	.+540    	; 0x5e0 <_ZN14HardwareSerial9availableEv>
     3c4:	89 2b       	or	r24, r25
     3c6:	51 f0       	breq	.+20     	; 0x3dc <_Z12updateSerialv+0x28>
		Telecom_serial.println(Serial.read());
     3c8:	83 ee       	ldi	r24, 0xE3	; 227
     3ca:	94 e0       	ldi	r25, 0x04	; 4
     3cc:	23 d1       	rcall	.+582    	; 0x614 <_ZN14HardwareSerial4readEv>
     3ce:	4a e0       	ldi	r20, 0x0A	; 10
     3d0:	50 e0       	ldi	r21, 0x00	; 0
     3d2:	bc 01       	movw	r22, r24
     3d4:	84 eb       	ldi	r24, 0xB4	; 180
     3d6:	93 e0       	ldi	r25, 0x03	; 3
     3d8:	2f d4       	rcall	.+2142   	; 0xc38 <_ZN5Print7printlnEii>
void PIR_setup();
int Setup_4G();

void updateSerial() {
	delay(500);
	while (Serial.available()) {
     3da:	f1 cf       	rjmp	.-30     	; 0x3be <_Z12updateSerialv+0xa>
		Telecom_serial.println(Serial.read());
	}
	while (Telecom_serial.available()) {
     3dc:	84 eb       	ldi	r24, 0xB4	; 180
     3de:	93 e0       	ldi	r25, 0x03	; 3
     3e0:	0e 94 87 0d 	call	0x1b0e	; 0x1b0e <_ZN14SoftwareSerial9availableEv>
     3e4:	89 2b       	or	r24, r25
     3e6:	49 f0       	breq	.+18     	; 0x3fa <_Z12updateSerialv+0x46>
		Serial.write(Telecom_serial.read());
     3e8:	84 eb       	ldi	r24, 0xB4	; 180
     3ea:	93 e0       	ldi	r25, 0x03	; 3
     3ec:	0e 94 ff 0c 	call	0x19fe	; 0x19fe <_ZN14SoftwareSerial4readEv>
    virtual void flush(void);
    virtual size_t write(uint8_t);
    inline size_t write(unsigned long n) { return write((uint8_t)n); }
    inline size_t write(long n) { return write((uint8_t)n); }
    inline size_t write(unsigned int n) { return write((uint8_t)n); }
    inline size_t write(int n) { return write((uint8_t)n); }
     3f0:	68 2f       	mov	r22, r24
     3f2:	83 ee       	ldi	r24, 0xE3	; 227
     3f4:	94 e0       	ldi	r25, 0x04	; 4
     3f6:	8f d1       	rcall	.+798    	; 0x716 <_ZN14HardwareSerial5writeEh>
     3f8:	f1 cf       	rjmp	.-30     	; 0x3dc <_Z12updateSerialv+0x28>
     3fa:	08 95       	ret

000003fc <loop>:
	digitalWrite(Ping_PIR_enable_pin, LOW);
}

void loop() {
	// put your main code here, to run repeatedly:
	updateSerial(); //Telecom module read
     3fc:	db cf       	rjmp	.-74     	; 0x3b4 <_Z12updateSerialv>

000003fe <_Z8Setup_4Gv>:
}

int Setup_4G(){
	int success = 0;
	
	Telecom_serial.begin(9600); //setup telecom serial port
     3fe:	40 e8       	ldi	r20, 0x80	; 128
     400:	55 e2       	ldi	r21, 0x25	; 37
     402:	60 e0       	ldi	r22, 0x00	; 0
     404:	70 e0       	ldi	r23, 0x00	; 0
     406:	84 eb       	ldi	r24, 0xB4	; 180
     408:	93 e0       	ldi	r25, 0x03	; 3
     40a:	0e 94 cf 0e 	call	0x1d9e	; 0x1d9e <_ZN14SoftwareSerial5beginEl>

	Serial.println("Initializing..."); //check that USB serial is working and wait for telecom serial port
     40e:	64 e5       	ldi	r22, 0x54	; 84
     410:	72 e0       	ldi	r23, 0x02	; 2
     412:	83 ee       	ldi	r24, 0xE3	; 227
     414:	94 e0       	ldi	r25, 0x04	; 4
     416:	5c d3       	rcall	.+1720   	; 0xad0 <_ZN5Print7printlnEPKc>
	delay(1000);
     418:	68 ee       	ldi	r22, 0xE8	; 232
     41a:	73 e0       	ldi	r23, 0x03	; 3
     41c:	80 e0       	ldi	r24, 0x00	; 0
     41e:	90 e0       	ldi	r25, 0x00	; 0
     420:	6d d5       	rcall	.+2778   	; 0xefc <delay>
	
	pinMode(Power_pin, OUTPUT); //To turn on module, the power pin must be brought low, then high
     422:	61 e0       	ldi	r22, 0x01	; 1
     424:	85 e3       	ldi	r24, 0x35	; 53
     426:	67 d6       	rcall	.+3278   	; 0x10f6 <pinMode>
	digitalWrite(Power_pin, LOW);
     428:	60 e0       	ldi	r22, 0x00	; 0
     42a:	85 e3       	ldi	r24, 0x35	; 53
     42c:	a0 d6       	rcall	.+3392   	; 0x116e <digitalWrite>
     42e:	64 ef       	ldi	r22, 0xF4	; 244
	delay(500);
     430:	71 e0       	ldi	r23, 0x01	; 1
     432:	80 e0       	ldi	r24, 0x00	; 0
     434:	90 e0       	ldi	r25, 0x00	; 0
     436:	62 d5       	rcall	.+2756   	; 0xefc <delay>
	digitalWrite(Power_pin, HIGH);
     438:	61 e0       	ldi	r22, 0x01	; 1
     43a:	85 e3       	ldi	r24, 0x35	; 53
     43c:	98 d6       	rcall	.+3376   	; 0x116e <digitalWrite>
	
	Telecom_serial.println("AT"); //test connection and auto-baud
     43e:	64 e6       	ldi	r22, 0x64	; 100
     440:	72 e0       	ldi	r23, 0x02	; 2
     442:	84 eb       	ldi	r24, 0xB4	; 180
     444:	93 e0       	ldi	r25, 0x03	; 3
     446:	44 d3       	rcall	.+1672   	; 0xad0 <_ZN5Print7printlnEPKc>
	updateSerial();
     448:	b5 df       	rcall	.-150    	; 0x3b4 <_Z12updateSerialv>
     44a:	64 e6       	ldi	r22, 0x64	; 100
	delay(100);
     44c:	70 e0       	ldi	r23, 0x00	; 0
     44e:	80 e0       	ldi	r24, 0x00	; 0
     450:	90 e0       	ldi	r25, 0x00	; 0
     452:	54 d5       	rcall	.+2728   	; 0xefc <delay>
	Telecom_serial.println("ATE1"); //set echo back
     454:	67 e6       	ldi	r22, 0x67	; 103
     456:	72 e0       	ldi	r23, 0x02	; 2
     458:	84 eb       	ldi	r24, 0xB4	; 180
     45a:	93 e0       	ldi	r25, 0x03	; 3
     45c:	39 d3       	rcall	.+1650   	; 0xad0 <_ZN5Print7printlnEPKc>
	updateSerial();
     45e:	aa df       	rcall	.-172    	; 0x3b4 <_Z12updateSerialv>
	delay(100);
     460:	64 e6       	ldi	r22, 0x64	; 100
     462:	70 e0       	ldi	r23, 0x00	; 0
     464:	80 e0       	ldi	r24, 0x00	; 0
     466:	90 e0       	ldi	r25, 0x00	; 0
     468:	49 d5       	rcall	.+2706   	; 0xefc <delay>
	Telecom_serial.println("ATI"); //print module info
     46a:	6c e6       	ldi	r22, 0x6C	; 108
     46c:	72 e0       	ldi	r23, 0x02	; 2
     46e:	84 eb       	ldi	r24, 0xB4	; 180
     470:	93 e0       	ldi	r25, 0x03	; 3
	updateSerial();
     472:	2e d3       	rcall	.+1628   	; 0xad0 <_ZN5Print7printlnEPKc>
     474:	9f df       	rcall	.-194    	; 0x3b4 <_Z12updateSerialv>
	delay(100);
     476:	64 e6       	ldi	r22, 0x64	; 100
     478:	70 e0       	ldi	r23, 0x00	; 0
     47a:	80 e0       	ldi	r24, 0x00	; 0
     47c:	90 e0       	ldi	r25, 0x00	; 0
     47e:	3e d5       	rcall	.+2684   	; 0xefc <delay>
	Telecom_serial.println("AT+CSQ");//check connection quality
     480:	60 e7       	ldi	r22, 0x70	; 112
     482:	72 e0       	ldi	r23, 0x02	; 2
     484:	84 eb       	ldi	r24, 0xB4	; 180
     486:	93 e0       	ldi	r25, 0x03	; 3
	updateSerial();
     488:	23 d3       	rcall	.+1606   	; 0xad0 <_ZN5Print7printlnEPKc>
	delay(100);
     48a:	94 df       	rcall	.-216    	; 0x3b4 <_Z12updateSerialv>
     48c:	64 e6       	ldi	r22, 0x64	; 100
     48e:	70 e0       	ldi	r23, 0x00	; 0
     490:	80 e0       	ldi	r24, 0x00	; 0
	Telecom_serial.println("AT+CREG?");//check network connection
     492:	90 e0       	ldi	r25, 0x00	; 0
     494:	33 d5       	rcall	.+2662   	; 0xefc <delay>
     496:	67 e7       	ldi	r22, 0x77	; 119
     498:	72 e0       	ldi	r23, 0x02	; 2
     49a:	84 eb       	ldi	r24, 0xB4	; 180
	updateSerial();
     49c:	93 e0       	ldi	r25, 0x03	; 3
     49e:	18 d3       	rcall	.+1584   	; 0xad0 <_ZN5Print7printlnEPKc>
	delay(100);
     4a0:	89 df       	rcall	.-238    	; 0x3b4 <_Z12updateSerialv>
     4a2:	64 e6       	ldi	r22, 0x64	; 100
     4a4:	70 e0       	ldi	r23, 0x00	; 0
     4a6:	80 e0       	ldi	r24, 0x00	; 0
	Telecom_serial.println("AT+CICCID");//Read SIM ID
     4a8:	90 e0       	ldi	r25, 0x00	; 0
     4aa:	28 d5       	rcall	.+2640   	; 0xefc <delay>
     4ac:	60 e8       	ldi	r22, 0x80	; 128
     4ae:	72 e0       	ldi	r23, 0x02	; 2
     4b0:	84 eb       	ldi	r24, 0xB4	; 180
	updateSerial();
     4b2:	93 e0       	ldi	r25, 0x03	; 3
	delay(100);
     4b4:	0d d3       	rcall	.+1562   	; 0xad0 <_ZN5Print7printlnEPKc>
     4b6:	7e df       	rcall	.-260    	; 0x3b4 <_Z12updateSerialv>
     4b8:	64 e6       	ldi	r22, 0x64	; 100
     4ba:	70 e0       	ldi	r23, 0x00	; 0
     4bc:	80 e0       	ldi	r24, 0x00	; 0
	Telecom_serial.println("AT+CSMS?");//check available devices
     4be:	90 e0       	ldi	r25, 0x00	; 0
     4c0:	1d d5       	rcall	.+2618   	; 0xefc <delay>
     4c2:	6a e8       	ldi	r22, 0x8A	; 138
     4c4:	72 e0       	ldi	r23, 0x02	; 2
	updateSerial();
     4c6:	84 eb       	ldi	r24, 0xB4	; 180
     4c8:	93 e0       	ldi	r25, 0x03	; 3
	delay(100);
     4ca:	02 d3       	rcall	.+1540   	; 0xad0 <_ZN5Print7printlnEPKc>
     4cc:	73 df       	rcall	.-282    	; 0x3b4 <_Z12updateSerialv>
     4ce:	64 e6       	ldi	r22, 0x64	; 100
     4d0:	70 e0       	ldi	r23, 0x00	; 0
	Telecom_serial.println("AT+CMGF=1");//set module to text mode, set 0 for PDU mode
     4d2:	80 e0       	ldi	r24, 0x00	; 0
     4d4:	90 e0       	ldi	r25, 0x00	; 0
     4d6:	12 d5       	rcall	.+2596   	; 0xefc <delay>
     4d8:	63 e9       	ldi	r22, 0x93	; 147
     4da:	72 e0       	ldi	r23, 0x02	; 2
     4dc:	84 eb       	ldi	r24, 0xB4	; 180
	updateSerial();
     4de:	93 e0       	ldi	r25, 0x03	; 3
     4e0:	f7 d2       	rcall	.+1518   	; 0xad0 <_ZN5Print7printlnEPKc>
	delay(100);
     4e2:	68 df       	rcall	.-304    	; 0x3b4 <_Z12updateSerialv>
     4e4:	64 e6       	ldi	r22, 0x64	; 100
     4e6:	70 e0       	ldi	r23, 0x00	; 0
     4e8:	80 e0       	ldi	r24, 0x00	; 0
     4ea:	90 e0       	ldi	r25, 0x00	; 0
     4ec:	07 d5       	rcall	.+2574   	; 0xefc <delay>
	Telecom_serial.println("AT+CNMI=1,2,0,0,0"); //recieved texts are forwarded to the TE
     4ee:	6d e9       	ldi	r22, 0x9D	; 157
     4f0:	72 e0       	ldi	r23, 0x02	; 2
     4f2:	84 eb       	ldi	r24, 0xB4	; 180
     4f4:	93 e0       	ldi	r25, 0x03	; 3
     4f6:	ec d2       	rcall	.+1496   	; 0xad0 <_ZN5Print7printlnEPKc>
     4f8:	5d df       	rcall	.-326    	; 0x3b4 <_Z12updateSerialv>
	updateSerial();
     4fa:	6f ea       	ldi	r22, 0xAF	; 175
     4fc:	72 e0       	ldi	r23, 0x02	; 2
	
	Telecom_serial.println("AT+CGPS = 1");
     4fe:	84 eb       	ldi	r24, 0xB4	; 180
     500:	93 e0       	ldi	r25, 0x03	; 3
     502:	e6 d2       	rcall	.+1484   	; 0xad0 <_ZN5Print7printlnEPKc>
     504:	57 df       	rcall	.-338    	; 0x3b4 <_Z12updateSerialv>
     506:	80 e0       	ldi	r24, 0x00	; 0
     508:	90 e0       	ldi	r25, 0x00	; 0
	updateSerial();
     50a:	08 95       	ret

0000050c <setup>:
     50c:	8f 92       	push	r8
	//Telecom_serial.print("Arduino texting you");
	//updateSerial();
	//Telecom_serial.write(26); //send ctrl-z to terminate text and send
	
	return success;
}
     50e:	9f 92       	push	r9
     510:	af 92       	push	r10
     512:	bf 92       	push	r11
	while (Telecom_serial.available()) {
		Serial.write(Telecom_serial.read());
	}
}

void setup() {
     514:	cf 92       	push	r12
     516:	df 92       	push	r13
     518:	ef 92       	push	r14
     51a:	ff 92       	push	r15
     51c:	cf 93       	push	r28
     51e:	df 93       	push	r29
     520:	00 d0       	rcall	.+0      	; 0x522 <setup+0x16>
     522:	00 d0       	rcall	.+0      	; 0x524 <setup+0x18>
     524:	cd b7       	in	r28, 0x3d	; 61
     526:	de b7       	in	r29, 0x3e	; 62
	// put your setup code here, to run once:
	int Initial_time = millis();
     528:	b8 d4       	rcall	.+2416   	; 0xe9a <millis>
     52a:	4b 01       	movw	r8, r22
     52c:	5c 01       	movw	r10, r24
  public:
    inline HardwareSerial(
      volatile uint8_t *ubrrh, volatile uint8_t *ubrrl,
      volatile uint8_t *ucsra, volatile uint8_t *ucsrb,
      volatile uint8_t *ucsrc, volatile uint8_t *udr);
    void begin(unsigned long baud) { begin(baud, SERIAL_8N1); }
     52e:	26 e0       	ldi	r18, 0x06	; 6
     530:	40 e8       	ldi	r20, 0x80	; 128
     532:	55 e2       	ldi	r21, 0x25	; 37
     534:	60 e0       	ldi	r22, 0x00	; 0
     536:	70 e0       	ldi	r23, 0x00	; 0
     538:	83 ee       	ldi	r24, 0xE3	; 227
     53a:	94 e0       	ldi	r25, 0x04	; 4
	
	Serial.begin(9600); //setup USB
	while (!Serial);
	
	Enable_pin_init();
     53c:	59 d1       	rcall	.+690    	; 0x7f0 <_ZN14HardwareSerial5beginEmh>
	
	Setup_4G(); //setup telecom unit
     53e:	a9 de       	rcall	.-686    	; 0x292 <_Z15Enable_pin_initv>
     540:	5e df       	rcall	.-324    	; 0x3fe <_Z8Setup_4Gv>
	
	Camera_setup(); //setup IR camera
     542:	b3 de       	rcall	.-666    	; 0x2aa <_Z12Camera_setupv>
     544:	18 df       	rcall	.-464    	; 0x376 <_Z9PIR_setupv>
	
	PIR_setup(); //setup PIR pin
     546:	64 e6       	ldi	r22, 0x64	; 100
	
	delay (100);
     548:	70 e0       	ldi	r23, 0x00	; 0
     54a:	80 e0       	ldi	r24, 0x00	; 0
     54c:	90 e0       	ldi	r25, 0x00	; 0
     54e:	d6 d4       	rcall	.+2476   	; 0xefc <delay>
     550:	ce de       	rcall	.-612    	; 0x2ee <_Z11Camera_readv>
	
	Camera_read(); //IR camera read
     552:	61 e0       	ldi	r22, 0x01	; 1
	
	digitalWrite(Ping_PIR_enable_pin, HIGH); //turn on sensors for read
     554:	8b e0       	ldi	r24, 0x0B	; 11
     556:	0b d6       	rcall	.+3094   	; 0x116e <digitalWrite>
     558:	64 e6       	ldi	r22, 0x64	; 100
     55a:	70 e0       	ldi	r23, 0x00	; 0
	delay(100);
     55c:	80 e0       	ldi	r24, 0x00	; 0
     55e:	90 e0       	ldi	r25, 0x00	; 0
     560:	cd d4       	rcall	.+2458   	; 0xefc <delay>
     562:	6c ea       	ldi	r22, 0xAC	; 172
     564:	73 e0       	ldi	r23, 0x03	; 3
     566:	ce 01       	movw	r24, r28
	Serial.println(hcsr04.ToString()); //read ping sensor
     568:	01 96       	adiw	r24, 0x01	; 1
     56a:	0e 94 c4 0c 	call	0x1988	; 0x1988 <_ZN6HCSR048ToStringEv>
     56e:	be 01       	movw	r22, r28
     570:	6f 5f       	subi	r22, 0xFF	; 255
     572:	7f 4f       	sbci	r23, 0xFF	; 255
     574:	83 ee       	ldi	r24, 0xE3	; 227
     576:	94 e0       	ldi	r25, 0x04	; 4
     578:	9b d2       	rcall	.+1334   	; 0xab0 <_ZN5Print7printlnERK6String>
     57a:	ce 01       	movw	r24, r28
     57c:	01 96       	adiw	r24, 0x01	; 1
     57e:	4d d6       	rcall	.+3226   	; 0x121a <_ZN6StringD1Ev>
     580:	8a e0       	ldi	r24, 0x0A	; 10
     582:	23 d6       	rcall	.+3142   	; 0x11ca <digitalRead>
	if( digitalRead(PIR_read_pin) != 0){ //read PIR sensor
     584:	89 2b       	or	r24, r25
     586:	19 f0       	breq	.+6      	; 0x58e <setup+0x82>
     588:	6b eb       	ldi	r22, 0xBB	; 187
     58a:	72 e0       	ldi	r23, 0x02	; 2
		Serial.println("PIR positive detect");
     58c:	02 c0       	rjmp	.+4      	; 0x592 <setup+0x86>
     58e:	6f ec       	ldi	r22, 0xCF	; 207
	}
	else {
		Serial.println("PIR negative detect");
     590:	72 e0       	ldi	r23, 0x02	; 2
     592:	83 ee       	ldi	r24, 0xE3	; 227
     594:	94 e0       	ldi	r25, 0x04	; 4
     596:	9c d2       	rcall	.+1336   	; 0xad0 <_ZN5Print7printlnEPKc>
     598:	80 d4       	rcall	.+2304   	; 0xe9a <millis>
     59a:	6b 01       	movw	r12, r22
	}
	
	int Setup_time = millis() - Initial_time;
     59c:	7c 01       	movw	r14, r24
     59e:	63 ee       	ldi	r22, 0xE3	; 227
     5a0:	72 e0       	ldi	r23, 0x02	; 2
	
	Serial.print("Setup time: ");
     5a2:	83 ee       	ldi	r24, 0xE3	; 227
     5a4:	94 e0       	ldi	r25, 0x04	; 4
     5a6:	79 d2       	rcall	.+1266   	; 0xa9a <_ZN5Print5printEPKc>
     5a8:	b6 01       	movw	r22, r12
     5aa:	68 19       	sub	r22, r8
	Serial.println(Setup_time);
     5ac:	79 09       	sbc	r23, r9
     5ae:	4a e0       	ldi	r20, 0x0A	; 10
     5b0:	50 e0       	ldi	r21, 0x00	; 0
     5b2:	83 ee       	ldi	r24, 0xE3	; 227
     5b4:	94 e0       	ldi	r25, 0x04	; 4
     5b6:	40 d3       	rcall	.+1664   	; 0xc38 <_ZN5Print7printlnEii>
     5b8:	60 e0       	ldi	r22, 0x00	; 0
     5ba:	8b e0       	ldi	r24, 0x0B	; 11
     5bc:	d8 d5       	rcall	.+2992   	; 0x116e <digitalWrite>
	
	digitalWrite(Ping_PIR_enable_pin, LOW);
     5be:	26 96       	adiw	r28, 0x06	; 6
     5c0:	0f b6       	in	r0, 0x3f	; 63
     5c2:	f8 94       	cli
     5c4:	de bf       	out	0x3e, r29	; 62
}
     5c6:	0f be       	out	0x3f, r0	; 63
     5c8:	cd bf       	out	0x3d, r28	; 61
     5ca:	df 91       	pop	r29
     5cc:	cf 91       	pop	r28
     5ce:	ff 90       	pop	r15
     5d0:	ef 90       	pop	r14
     5d2:	df 90       	pop	r13
     5d4:	cf 90       	pop	r12
     5d6:	bf 90       	pop	r11
     5d8:	af 90       	pop	r10
     5da:	9f 90       	pop	r9
     5dc:	8f 90       	pop	r8
     5de:	08 95       	ret

000005e0 <_ZN14HardwareSerial9availableEv>:
     5e0:	fc 01       	movw	r30, r24
     5e2:	91 8d       	ldd	r25, Z+25	; 0x19
     5e4:	22 8d       	ldd	r18, Z+26	; 0x1a
     5e6:	89 2f       	mov	r24, r25
     5e8:	90 e0       	ldi	r25, 0x00	; 0
     5ea:	80 5c       	subi	r24, 0xC0	; 192
     5ec:	9f 4f       	sbci	r25, 0xFF	; 255
     5ee:	82 1b       	sub	r24, r18
     5f0:	91 09       	sbc	r25, r1
     5f2:	8f 73       	andi	r24, 0x3F	; 63
     5f4:	99 27       	eor	r25, r25
     5f6:	08 95       	ret

000005f8 <_ZN14HardwareSerial4peekEv>:
     5f8:	fc 01       	movw	r30, r24
     5fa:	91 8d       	ldd	r25, Z+25	; 0x19
     5fc:	82 8d       	ldd	r24, Z+26	; 0x1a
     5fe:	98 17       	cp	r25, r24
     600:	31 f0       	breq	.+12     	; 0x60e <_ZN14HardwareSerial4peekEv+0x16>
     602:	82 8d       	ldd	r24, Z+26	; 0x1a
     604:	e8 0f       	add	r30, r24
     606:	f1 1d       	adc	r31, r1
     608:	85 8d       	ldd	r24, Z+29	; 0x1d
     60a:	90 e0       	ldi	r25, 0x00	; 0
     60c:	08 95       	ret
     60e:	8f ef       	ldi	r24, 0xFF	; 255
     610:	9f ef       	ldi	r25, 0xFF	; 255
     612:	08 95       	ret

00000614 <_ZN14HardwareSerial4readEv>:
     614:	fc 01       	movw	r30, r24
     616:	91 8d       	ldd	r25, Z+25	; 0x19
     618:	82 8d       	ldd	r24, Z+26	; 0x1a
     61a:	98 17       	cp	r25, r24
     61c:	61 f0       	breq	.+24     	; 0x636 <_ZN14HardwareSerial4readEv+0x22>
     61e:	82 8d       	ldd	r24, Z+26	; 0x1a
     620:	df 01       	movw	r26, r30
     622:	a8 0f       	add	r26, r24
     624:	b1 1d       	adc	r27, r1
     626:	5d 96       	adiw	r26, 0x1d	; 29
     628:	8c 91       	ld	r24, X
     62a:	92 8d       	ldd	r25, Z+26	; 0x1a
     62c:	9f 5f       	subi	r25, 0xFF	; 255
     62e:	9f 73       	andi	r25, 0x3F	; 63
     630:	92 8f       	std	Z+26, r25	; 0x1a
     632:	90 e0       	ldi	r25, 0x00	; 0
     634:	08 95       	ret
     636:	8f ef       	ldi	r24, 0xFF	; 255
     638:	9f ef       	ldi	r25, 0xFF	; 255
     63a:	08 95       	ret

0000063c <_ZN14HardwareSerial17availableForWriteEv>:
     63c:	fc 01       	movw	r30, r24
     63e:	53 8d       	ldd	r21, Z+27	; 0x1b
     640:	44 8d       	ldd	r20, Z+28	; 0x1c
     642:	25 2f       	mov	r18, r21
     644:	30 e0       	ldi	r19, 0x00	; 0
     646:	84 2f       	mov	r24, r20
     648:	90 e0       	ldi	r25, 0x00	; 0
     64a:	82 1b       	sub	r24, r18
     64c:	93 0b       	sbc	r25, r19
     64e:	54 17       	cp	r21, r20
     650:	10 f0       	brcs	.+4      	; 0x656 <_ZN14HardwareSerial17availableForWriteEv+0x1a>
     652:	cf 96       	adiw	r24, 0x3f	; 63
     654:	08 95       	ret
     656:	01 97       	sbiw	r24, 0x01	; 1
     658:	08 95       	ret

0000065a <_Z14serialEventRunv>:
     65a:	8f eb       	ldi	r24, 0xBF	; 191
     65c:	94 e0       	ldi	r25, 0x04	; 4
     65e:	89 2b       	or	r24, r25
     660:	39 f0       	breq	.+14     	; 0x670 <_Z14serialEventRunv+0x16>
     662:	80 e0       	ldi	r24, 0x00	; 0
     664:	90 e0       	ldi	r25, 0x00	; 0
     666:	89 2b       	or	r24, r25
     668:	19 f0       	breq	.+6      	; 0x670 <_Z14serialEventRunv+0x16>
     66a:	89 d1       	rcall	.+786    	; 0x97e <_Z17Serial0_availablev>
     66c:	81 11       	cpse	r24, r1
     66e:	25 c0       	rjmp	.+74     	; 0x6ba <_Z14serialEventRunv+0x60>
     670:	80 e0       	ldi	r24, 0x00	; 0
     672:	90 e0       	ldi	r25, 0x00	; 0
     674:	89 2b       	or	r24, r25
     676:	41 f0       	breq	.+16     	; 0x688 <_Z14serialEventRunv+0x2e>
     678:	80 e0       	ldi	r24, 0x00	; 0
     67a:	90 e0       	ldi	r25, 0x00	; 0
     67c:	89 2b       	or	r24, r25
     67e:	21 f0       	breq	.+8      	; 0x688 <_Z14serialEventRunv+0x2e>
     680:	0e 94 00 00 	call	0	; 0x0 <__vectors>
     684:	81 11       	cpse	r24, r1
     686:	1c c0       	rjmp	.+56     	; 0x6c0 <_Z14serialEventRunv+0x66>
     688:	80 e0       	ldi	r24, 0x00	; 0
     68a:	90 e0       	ldi	r25, 0x00	; 0
     68c:	89 2b       	or	r24, r25
     68e:	41 f0       	breq	.+16     	; 0x6a0 <_Z14serialEventRunv+0x46>
     690:	80 e0       	ldi	r24, 0x00	; 0
     692:	90 e0       	ldi	r25, 0x00	; 0
     694:	89 2b       	or	r24, r25
     696:	21 f0       	breq	.+8      	; 0x6a0 <_Z14serialEventRunv+0x46>
     698:	0e 94 00 00 	call	0	; 0x0 <__vectors>
     69c:	81 11       	cpse	r24, r1
     69e:	13 c0       	rjmp	.+38     	; 0x6c6 <_Z14serialEventRunv+0x6c>
     6a0:	80 e0       	ldi	r24, 0x00	; 0
     6a2:	90 e0       	ldi	r25, 0x00	; 0
     6a4:	89 2b       	or	r24, r25
     6a6:	a1 f0       	breq	.+40     	; 0x6d0 <_Z14serialEventRunv+0x76>
     6a8:	80 e0       	ldi	r24, 0x00	; 0
     6aa:	90 e0       	ldi	r25, 0x00	; 0
     6ac:	89 2b       	or	r24, r25
     6ae:	81 f0       	breq	.+32     	; 0x6d0 <_Z14serialEventRunv+0x76>
     6b0:	0e 94 00 00 	call	0	; 0x0 <__vectors>
     6b4:	81 11       	cpse	r24, r1
     6b6:	0a c0       	rjmp	.+20     	; 0x6cc <_Z14serialEventRunv+0x72>
     6b8:	08 95       	ret
     6ba:	0e 94 00 00 	call	0	; 0x0 <__vectors>
     6be:	d8 cf       	rjmp	.-80     	; 0x670 <_Z14serialEventRunv+0x16>
     6c0:	0e 94 00 00 	call	0	; 0x0 <__vectors>
     6c4:	e1 cf       	rjmp	.-62     	; 0x688 <_Z14serialEventRunv+0x2e>
     6c6:	0e 94 00 00 	call	0	; 0x0 <__vectors>
     6ca:	ea cf       	rjmp	.-44     	; 0x6a0 <_Z14serialEventRunv+0x46>
     6cc:	0c 94 00 00 	jmp	0	; 0x0 <__vectors>
     6d0:	08 95       	ret

000006d2 <_ZN14HardwareSerial17_tx_udr_empty_irqEv>:
     6d2:	fc 01       	movw	r30, r24
     6d4:	84 8d       	ldd	r24, Z+28	; 0x1c
     6d6:	df 01       	movw	r26, r30
     6d8:	a8 0f       	add	r26, r24
     6da:	b1 1d       	adc	r27, r1
     6dc:	a3 5a       	subi	r26, 0xA3	; 163
     6de:	bf 4f       	sbci	r27, 0xFF	; 255
     6e0:	2c 91       	ld	r18, X
     6e2:	84 8d       	ldd	r24, Z+28	; 0x1c
     6e4:	90 e0       	ldi	r25, 0x00	; 0
     6e6:	01 96       	adiw	r24, 0x01	; 1
     6e8:	8f 73       	andi	r24, 0x3F	; 63
     6ea:	99 27       	eor	r25, r25
     6ec:	84 8f       	std	Z+28, r24	; 0x1c
     6ee:	a6 89       	ldd	r26, Z+22	; 0x16
     6f0:	b7 89       	ldd	r27, Z+23	; 0x17
     6f2:	2c 93       	st	X, r18
     6f4:	a0 89       	ldd	r26, Z+16	; 0x10
     6f6:	b1 89       	ldd	r27, Z+17	; 0x11
     6f8:	8c 91       	ld	r24, X
     6fa:	83 70       	andi	r24, 0x03	; 3
     6fc:	80 64       	ori	r24, 0x40	; 64
     6fe:	8c 93       	st	X, r24
     700:	93 8d       	ldd	r25, Z+27	; 0x1b
     702:	84 8d       	ldd	r24, Z+28	; 0x1c
     704:	98 13       	cpse	r25, r24
     706:	06 c0       	rjmp	.+12     	; 0x714 <_ZN14HardwareSerial17_tx_udr_empty_irqEv+0x42>
     708:	02 88       	ldd	r0, Z+18	; 0x12
     70a:	f3 89       	ldd	r31, Z+19	; 0x13
     70c:	e0 2d       	mov	r30, r0
     70e:	80 81       	ld	r24, Z
     710:	8f 7d       	andi	r24, 0xDF	; 223
     712:	80 83       	st	Z, r24
     714:	08 95       	ret

00000716 <_ZN14HardwareSerial5writeEh>:
     716:	ef 92       	push	r14
     718:	ff 92       	push	r15
     71a:	0f 93       	push	r16
     71c:	1f 93       	push	r17
     71e:	cf 93       	push	r28
     720:	df 93       	push	r29
     722:	ec 01       	movw	r28, r24
     724:	81 e0       	ldi	r24, 0x01	; 1
     726:	88 8f       	std	Y+24, r24	; 0x18
     728:	9b 8d       	ldd	r25, Y+27	; 0x1b
     72a:	8c 8d       	ldd	r24, Y+28	; 0x1c
     72c:	98 13       	cpse	r25, r24
     72e:	05 c0       	rjmp	.+10     	; 0x73a <_ZN14HardwareSerial5writeEh+0x24>
     730:	e8 89       	ldd	r30, Y+16	; 0x10
     732:	f9 89       	ldd	r31, Y+17	; 0x11
     734:	80 81       	ld	r24, Z
     736:	85 fd       	sbrc	r24, 5
     738:	25 c0       	rjmp	.+74     	; 0x784 <_ZN14HardwareSerial5writeEh+0x6e>
     73a:	f6 2e       	mov	r15, r22
     73c:	0b 8d       	ldd	r16, Y+27	; 0x1b
     73e:	10 e0       	ldi	r17, 0x00	; 0
     740:	0f 5f       	subi	r16, 0xFF	; 255
     742:	1f 4f       	sbci	r17, 0xFF	; 255
     744:	0f 73       	andi	r16, 0x3F	; 63
     746:	11 27       	eor	r17, r17
     748:	e0 2e       	mov	r14, r16
     74a:	8c 8d       	ldd	r24, Y+28	; 0x1c
     74c:	e8 12       	cpse	r14, r24
     74e:	0b c0       	rjmp	.+22     	; 0x766 <_ZN14HardwareSerial5writeEh+0x50>
     750:	0f b6       	in	r0, 0x3f	; 63
     752:	07 fc       	sbrc	r0, 7
     754:	fa cf       	rjmp	.-12     	; 0x74a <_ZN14HardwareSerial5writeEh+0x34>
     756:	e8 89       	ldd	r30, Y+16	; 0x10
     758:	f9 89       	ldd	r31, Y+17	; 0x11
     75a:	80 81       	ld	r24, Z
     75c:	85 ff       	sbrs	r24, 5
     75e:	f5 cf       	rjmp	.-22     	; 0x74a <_ZN14HardwareSerial5writeEh+0x34>
     760:	ce 01       	movw	r24, r28
     762:	b7 df       	rcall	.-146    	; 0x6d2 <_ZN14HardwareSerial17_tx_udr_empty_irqEv>
     764:	f2 cf       	rjmp	.-28     	; 0x74a <_ZN14HardwareSerial5writeEh+0x34>
     766:	8b 8d       	ldd	r24, Y+27	; 0x1b
     768:	fe 01       	movw	r30, r28
     76a:	e8 0f       	add	r30, r24
     76c:	f1 1d       	adc	r31, r1
     76e:	e3 5a       	subi	r30, 0xA3	; 163
     770:	ff 4f       	sbci	r31, 0xFF	; 255
     772:	f0 82       	st	Z, r15
     774:	9f b7       	in	r25, 0x3f	; 63
    return 1;
}

static __inline__ uint8_t __iCliRetVal(void)
{
    cli();
     776:	f8 94       	cli
     778:	0b 8f       	std	Y+27, r16	; 0x1b
     77a:	ea 89       	ldd	r30, Y+18	; 0x12
     77c:	fb 89       	ldd	r31, Y+19	; 0x13
     77e:	80 81       	ld	r24, Z
     780:	80 62       	ori	r24, 0x20	; 32
     782:	0a c0       	rjmp	.+20     	; 0x798 <_ZN14HardwareSerial5writeEh+0x82>
     784:	9f b7       	in	r25, 0x3f	; 63
     786:	f8 94       	cli
     788:	ee 89       	ldd	r30, Y+22	; 0x16
     78a:	ff 89       	ldd	r31, Y+23	; 0x17
     78c:	60 83       	st	Z, r22
     78e:	e8 89       	ldd	r30, Y+16	; 0x10
     790:	f9 89       	ldd	r31, Y+17	; 0x11
     792:	80 81       	ld	r24, Z
     794:	83 70       	andi	r24, 0x03	; 3
     796:	80 64       	ori	r24, 0x40	; 64
     798:	80 83       	st	Z, r24
    (void)__s;
}

static __inline__ void __iRestore(const  uint8_t *__s)
{
    SREG = *__s;
     79a:	9f bf       	out	0x3f, r25	; 63
     79c:	81 e0       	ldi	r24, 0x01	; 1
     79e:	90 e0       	ldi	r25, 0x00	; 0
     7a0:	df 91       	pop	r29
     7a2:	cf 91       	pop	r28
     7a4:	1f 91       	pop	r17
     7a6:	0f 91       	pop	r16
     7a8:	ff 90       	pop	r15
     7aa:	ef 90       	pop	r14
     7ac:	08 95       	ret

000007ae <_ZN14HardwareSerial5flushEv>:
     7ae:	cf 93       	push	r28
     7b0:	df 93       	push	r29
     7b2:	ec 01       	movw	r28, r24
     7b4:	88 8d       	ldd	r24, Y+24	; 0x18
     7b6:	88 23       	and	r24, r24
     7b8:	c1 f0       	breq	.+48     	; 0x7ea <_ZN14HardwareSerial5flushEv+0x3c>
     7ba:	ea 89       	ldd	r30, Y+18	; 0x12
     7bc:	fb 89       	ldd	r31, Y+19	; 0x13
     7be:	80 81       	ld	r24, Z
     7c0:	85 fd       	sbrc	r24, 5
     7c2:	05 c0       	rjmp	.+10     	; 0x7ce <_ZN14HardwareSerial5flushEv+0x20>
     7c4:	a8 89       	ldd	r26, Y+16	; 0x10
     7c6:	b9 89       	ldd	r27, Y+17	; 0x11
     7c8:	8c 91       	ld	r24, X
     7ca:	86 fd       	sbrc	r24, 6
     7cc:	0e c0       	rjmp	.+28     	; 0x7ea <_ZN14HardwareSerial5flushEv+0x3c>
     7ce:	0f b6       	in	r0, 0x3f	; 63
     7d0:	07 fc       	sbrc	r0, 7
     7d2:	f5 cf       	rjmp	.-22     	; 0x7be <_ZN14HardwareSerial5flushEv+0x10>
     7d4:	80 81       	ld	r24, Z
     7d6:	85 ff       	sbrs	r24, 5
     7d8:	f2 cf       	rjmp	.-28     	; 0x7be <_ZN14HardwareSerial5flushEv+0x10>
     7da:	a8 89       	ldd	r26, Y+16	; 0x10
     7dc:	b9 89       	ldd	r27, Y+17	; 0x11
     7de:	8c 91       	ld	r24, X
     7e0:	85 ff       	sbrs	r24, 5
     7e2:	ed cf       	rjmp	.-38     	; 0x7be <_ZN14HardwareSerial5flushEv+0x10>
     7e4:	ce 01       	movw	r24, r28
     7e6:	75 df       	rcall	.-278    	; 0x6d2 <_ZN14HardwareSerial17_tx_udr_empty_irqEv>
     7e8:	e8 cf       	rjmp	.-48     	; 0x7ba <_ZN14HardwareSerial5flushEv+0xc>
     7ea:	df 91       	pop	r29
     7ec:	cf 91       	pop	r28
     7ee:	08 95       	ret

000007f0 <_ZN14HardwareSerial5beginEmh>:
     7f0:	cf 92       	push	r12
     7f2:	df 92       	push	r13
     7f4:	ef 92       	push	r14
     7f6:	ff 92       	push	r15
     7f8:	1f 93       	push	r17
     7fa:	cf 93       	push	r28
     7fc:	df 93       	push	r29
     7fe:	ec 01       	movw	r28, r24
     800:	6a 01       	movw	r12, r20
     802:	7b 01       	movw	r14, r22
     804:	12 2f       	mov	r17, r18
     806:	e8 89       	ldd	r30, Y+16	; 0x10
     808:	f9 89       	ldd	r31, Y+17	; 0x11
     80a:	82 e0       	ldi	r24, 0x02	; 2
     80c:	80 83       	st	Z, r24
     80e:	41 15       	cp	r20, r1
     810:	51 4e       	sbci	r21, 0xE1	; 225
     812:	61 05       	cpc	r22, r1
     814:	71 05       	cpc	r23, r1
     816:	b1 f0       	breq	.+44     	; 0x844 <_ZN14HardwareSerial5beginEmh+0x54>
     818:	60 e0       	ldi	r22, 0x00	; 0
     81a:	79 e0       	ldi	r23, 0x09	; 9
     81c:	8d e3       	ldi	r24, 0x3D	; 61
     81e:	90 e0       	ldi	r25, 0x00	; 0
     820:	a7 01       	movw	r20, r14
     822:	96 01       	movw	r18, r12
     824:	0e 94 32 15 	call	0x2a64	; 0x2a64 <__udivmodsi4>
     828:	da 01       	movw	r26, r20
     82a:	c9 01       	movw	r24, r18
     82c:	01 97       	sbiw	r24, 0x01	; 1
     82e:	a1 09       	sbc	r26, r1
     830:	b1 09       	sbc	r27, r1
     832:	b6 95       	lsr	r27
     834:	a7 95       	ror	r26
     836:	97 95       	ror	r25
     838:	87 95       	ror	r24
     83a:	9c 01       	movw	r18, r24
     83c:	21 15       	cp	r18, r1
     83e:	80 e1       	ldi	r24, 0x10	; 16
     840:	38 07       	cpc	r19, r24
     842:	a8 f0       	brcs	.+42     	; 0x86e <_ZN14HardwareSerial5beginEmh+0x7e>
     844:	e8 89       	ldd	r30, Y+16	; 0x10
     846:	f9 89       	ldd	r31, Y+17	; 0x11
     848:	10 82       	st	Z, r1
     84a:	60 e8       	ldi	r22, 0x80	; 128
     84c:	74 e8       	ldi	r23, 0x84	; 132
     84e:	8e e1       	ldi	r24, 0x1E	; 30
     850:	90 e0       	ldi	r25, 0x00	; 0
     852:	a7 01       	movw	r20, r14
     854:	96 01       	movw	r18, r12
     856:	0e 94 32 15 	call	0x2a64	; 0x2a64 <__udivmodsi4>
     85a:	da 01       	movw	r26, r20
     85c:	c9 01       	movw	r24, r18
     85e:	01 97       	sbiw	r24, 0x01	; 1
     860:	a1 09       	sbc	r26, r1
     862:	b1 09       	sbc	r27, r1
     864:	b6 95       	lsr	r27
     866:	a7 95       	ror	r26
     868:	97 95       	ror	r25
     86a:	87 95       	ror	r24
     86c:	9c 01       	movw	r18, r24
     86e:	ec 85       	ldd	r30, Y+12	; 0x0c
     870:	fd 85       	ldd	r31, Y+13	; 0x0d
     872:	30 83       	st	Z, r19
     874:	ee 85       	ldd	r30, Y+14	; 0x0e
     876:	ff 85       	ldd	r31, Y+15	; 0x0f
     878:	20 83       	st	Z, r18
     87a:	18 8e       	std	Y+24, r1	; 0x18
     87c:	ec 89       	ldd	r30, Y+20	; 0x14
     87e:	fd 89       	ldd	r31, Y+21	; 0x15
     880:	10 83       	st	Z, r17
     882:	ea 89       	ldd	r30, Y+18	; 0x12
     884:	fb 89       	ldd	r31, Y+19	; 0x13
     886:	80 81       	ld	r24, Z
     888:	80 61       	ori	r24, 0x10	; 16
     88a:	80 83       	st	Z, r24
     88c:	ea 89       	ldd	r30, Y+18	; 0x12
     88e:	fb 89       	ldd	r31, Y+19	; 0x13
     890:	80 81       	ld	r24, Z
     892:	88 60       	ori	r24, 0x08	; 8
     894:	80 83       	st	Z, r24
     896:	ea 89       	ldd	r30, Y+18	; 0x12
     898:	fb 89       	ldd	r31, Y+19	; 0x13
     89a:	80 81       	ld	r24, Z
     89c:	80 68       	ori	r24, 0x80	; 128
     89e:	80 83       	st	Z, r24
     8a0:	ea 89       	ldd	r30, Y+18	; 0x12
     8a2:	fb 89       	ldd	r31, Y+19	; 0x13
     8a4:	80 81       	ld	r24, Z
     8a6:	8f 7d       	andi	r24, 0xDF	; 223
     8a8:	80 83       	st	Z, r24
     8aa:	df 91       	pop	r29
     8ac:	cf 91       	pop	r28
     8ae:	1f 91       	pop	r17
     8b0:	ff 90       	pop	r15
     8b2:	ef 90       	pop	r14
     8b4:	df 90       	pop	r13
     8b6:	cf 90       	pop	r12
     8b8:	08 95       	ret

000008ba <_ZN5Print17availableForWriteEv>:
     8ba:	80 e0       	ldi	r24, 0x00	; 0
     8bc:	90 e0       	ldi	r25, 0x00	; 0
     8be:	08 95       	ret

000008c0 <__vector_25>:
     8c0:	1f 92       	push	r1
     8c2:	0f 92       	push	r0
     8c4:	0f b6       	in	r0, 0x3f	; 63
     8c6:	0f 92       	push	r0
     8c8:	11 24       	eor	r1, r1
     8ca:	0b b6       	in	r0, 0x3b	; 59
     8cc:	0f 92       	push	r0
     8ce:	2f 93       	push	r18
     8d0:	8f 93       	push	r24
     8d2:	9f 93       	push	r25
     8d4:	ef 93       	push	r30
     8d6:	ff 93       	push	r31
     8d8:	e0 91 f3 04 	lds	r30, 0x04F3	; 0x8004f3 <Serial+0x10>
     8dc:	f0 91 f4 04 	lds	r31, 0x04F4	; 0x8004f4 <Serial+0x11>
     8e0:	80 81       	ld	r24, Z
     8e2:	e0 91 f9 04 	lds	r30, 0x04F9	; 0x8004f9 <Serial+0x16>
     8e6:	f0 91 fa 04 	lds	r31, 0x04FA	; 0x8004fa <Serial+0x17>
     8ea:	82 fd       	sbrc	r24, 2
     8ec:	12 c0       	rjmp	.+36     	; 0x912 <__vector_25+0x52>
     8ee:	90 81       	ld	r25, Z
     8f0:	80 91 fc 04 	lds	r24, 0x04FC	; 0x8004fc <Serial+0x19>
     8f4:	8f 5f       	subi	r24, 0xFF	; 255
     8f6:	8f 73       	andi	r24, 0x3F	; 63
     8f8:	20 91 fd 04 	lds	r18, 0x04FD	; 0x8004fd <Serial+0x1a>
     8fc:	82 17       	cp	r24, r18
     8fe:	51 f0       	breq	.+20     	; 0x914 <__vector_25+0x54>
     900:	e0 91 fc 04 	lds	r30, 0x04FC	; 0x8004fc <Serial+0x19>
     904:	f0 e0       	ldi	r31, 0x00	; 0
     906:	ed 51       	subi	r30, 0x1D	; 29
     908:	fb 4f       	sbci	r31, 0xFB	; 251
     90a:	95 8f       	std	Z+29, r25	; 0x1d
     90c:	80 93 fc 04 	sts	0x04FC, r24	; 0x8004fc <Serial+0x19>
     910:	01 c0       	rjmp	.+2      	; 0x914 <__vector_25+0x54>
     912:	80 81       	ld	r24, Z
     914:	ff 91       	pop	r31
     916:	ef 91       	pop	r30
     918:	9f 91       	pop	r25
     91a:	8f 91       	pop	r24
     91c:	2f 91       	pop	r18
     91e:	0f 90       	pop	r0
     920:	0b be       	out	0x3b, r0	; 59
     922:	0f 90       	pop	r0
     924:	0f be       	out	0x3f, r0	; 63
     926:	0f 90       	pop	r0
     928:	1f 90       	pop	r1
     92a:	18 95       	reti

0000092c <__vector_26>:
     92c:	1f 92       	push	r1
     92e:	0f 92       	push	r0
     930:	0f b6       	in	r0, 0x3f	; 63
     932:	0f 92       	push	r0
     934:	11 24       	eor	r1, r1
     936:	0b b6       	in	r0, 0x3b	; 59
     938:	0f 92       	push	r0
     93a:	2f 93       	push	r18
     93c:	3f 93       	push	r19
     93e:	4f 93       	push	r20
     940:	5f 93       	push	r21
     942:	6f 93       	push	r22
     944:	7f 93       	push	r23
     946:	8f 93       	push	r24
     948:	9f 93       	push	r25
     94a:	af 93       	push	r26
     94c:	bf 93       	push	r27
     94e:	ef 93       	push	r30
     950:	ff 93       	push	r31
     952:	83 ee       	ldi	r24, 0xE3	; 227
     954:	94 e0       	ldi	r25, 0x04	; 4
     956:	bd de       	rcall	.-646    	; 0x6d2 <_ZN14HardwareSerial17_tx_udr_empty_irqEv>
     958:	ff 91       	pop	r31
     95a:	ef 91       	pop	r30
     95c:	bf 91       	pop	r27
     95e:	af 91       	pop	r26
     960:	9f 91       	pop	r25
     962:	8f 91       	pop	r24
     964:	7f 91       	pop	r23
     966:	6f 91       	pop	r22
     968:	5f 91       	pop	r21
     96a:	4f 91       	pop	r20
     96c:	3f 91       	pop	r19
     96e:	2f 91       	pop	r18
     970:	0f 90       	pop	r0
     972:	0b be       	out	0x3b, r0	; 59
     974:	0f 90       	pop	r0
     976:	0f be       	out	0x3f, r0	; 63
     978:	0f 90       	pop	r0
     97a:	1f 90       	pop	r1
     97c:	18 95       	reti

0000097e <_Z17Serial0_availablev>:
     97e:	83 ee       	ldi	r24, 0xE3	; 227
     980:	94 e0       	ldi	r25, 0x04	; 4
     982:	2e de       	rcall	.-932    	; 0x5e0 <_ZN14HardwareSerial9availableEv>
     984:	21 e0       	ldi	r18, 0x01	; 1
     986:	89 2b       	or	r24, r25
     988:	09 f4       	brne	.+2      	; 0x98c <_Z17Serial0_availablev+0xe>
     98a:	20 e0       	ldi	r18, 0x00	; 0
     98c:	82 2f       	mov	r24, r18
     98e:	08 95       	ret

00000990 <_GLOBAL__sub_I___vector_25>:
     990:	e3 ee       	ldi	r30, 0xE3	; 227
     992:	f4 e0       	ldi	r31, 0x04	; 4
     994:	13 82       	std	Z+3, r1	; 0x03
     996:	12 82       	std	Z+2, r1	; 0x02
     998:	88 ee       	ldi	r24, 0xE8	; 232
     99a:	93 e0       	ldi	r25, 0x03	; 3
     99c:	a0 e0       	ldi	r26, 0x00	; 0
     99e:	b0 e0       	ldi	r27, 0x00	; 0
     9a0:	84 83       	std	Z+4, r24	; 0x04
     9a2:	95 83       	std	Z+5, r25	; 0x05
     9a4:	a6 83       	std	Z+6, r26	; 0x06
     9a6:	b7 83       	std	Z+7, r27	; 0x07
     9a8:	84 ef       	ldi	r24, 0xF4	; 244
     9aa:	92 e0       	ldi	r25, 0x02	; 2
     9ac:	91 83       	std	Z+1, r25	; 0x01
     9ae:	80 83       	st	Z, r24
     9b0:	85 ec       	ldi	r24, 0xC5	; 197
     9b2:	90 e0       	ldi	r25, 0x00	; 0
     9b4:	95 87       	std	Z+13, r25	; 0x0d
     9b6:	84 87       	std	Z+12, r24	; 0x0c
     9b8:	84 ec       	ldi	r24, 0xC4	; 196
     9ba:	90 e0       	ldi	r25, 0x00	; 0
     9bc:	97 87       	std	Z+15, r25	; 0x0f
     9be:	86 87       	std	Z+14, r24	; 0x0e
     9c0:	80 ec       	ldi	r24, 0xC0	; 192
     9c2:	90 e0       	ldi	r25, 0x00	; 0
     9c4:	91 8b       	std	Z+17, r25	; 0x11
     9c6:	80 8b       	std	Z+16, r24	; 0x10
     9c8:	81 ec       	ldi	r24, 0xC1	; 193
     9ca:	90 e0       	ldi	r25, 0x00	; 0
     9cc:	93 8b       	std	Z+19, r25	; 0x13
     9ce:	82 8b       	std	Z+18, r24	; 0x12
     9d0:	82 ec       	ldi	r24, 0xC2	; 194
     9d2:	90 e0       	ldi	r25, 0x00	; 0
     9d4:	95 8b       	std	Z+21, r25	; 0x15
     9d6:	84 8b       	std	Z+20, r24	; 0x14
     9d8:	86 ec       	ldi	r24, 0xC6	; 198
     9da:	90 e0       	ldi	r25, 0x00	; 0
     9dc:	97 8b       	std	Z+23, r25	; 0x17
     9de:	86 8b       	std	Z+22, r24	; 0x16
     9e0:	11 8e       	std	Z+25, r1	; 0x19
     9e2:	12 8e       	std	Z+26, r1	; 0x1a
     9e4:	13 8e       	std	Z+27, r1	; 0x1b
     9e6:	14 8e       	std	Z+28, r1	; 0x1c
     9e8:	08 95       	ret

000009ea <initVariant>:
     9ea:	08 95       	ret

000009ec <main>:
     9ec:	cc d2       	rcall	.+1432   	; 0xf86 <init>
     9ee:	fd df       	rcall	.-6      	; 0x9ea <initVariant>
     9f0:	8d dd       	rcall	.-1254   	; 0x50c <setup>
     9f2:	cd e2       	ldi	r28, 0x2D	; 45
     9f4:	d3 e0       	ldi	r29, 0x03	; 3
     9f6:	02 dd       	rcall	.-1532   	; 0x3fc <loop>
     9f8:	20 97       	sbiw	r28, 0x00	; 0
     9fa:	e9 f3       	breq	.-6      	; 0x9f6 <main+0xa>
     9fc:	2e de       	rcall	.-932    	; 0x65a <_Z14serialEventRunv>
     9fe:	fb cf       	rjmp	.-10     	; 0x9f6 <main+0xa>

00000a00 <_ZN5Print5writeEPKhj>:
     a00:	cf 92       	push	r12
     a02:	df 92       	push	r13
     a04:	ef 92       	push	r14
     a06:	ff 92       	push	r15
     a08:	0f 93       	push	r16
     a0a:	1f 93       	push	r17
     a0c:	cf 93       	push	r28
     a0e:	df 93       	push	r29
     a10:	6c 01       	movw	r12, r24
     a12:	7a 01       	movw	r14, r20
     a14:	8b 01       	movw	r16, r22
     a16:	c0 e0       	ldi	r28, 0x00	; 0
     a18:	d0 e0       	ldi	r29, 0x00	; 0
     a1a:	ce 15       	cp	r28, r14
     a1c:	df 05       	cpc	r29, r15
     a1e:	81 f0       	breq	.+32     	; 0xa40 <_ZN5Print5writeEPKhj+0x40>
     a20:	d8 01       	movw	r26, r16
     a22:	6d 91       	ld	r22, X+
     a24:	8d 01       	movw	r16, r26
     a26:	d6 01       	movw	r26, r12
     a28:	ed 91       	ld	r30, X+
     a2a:	fc 91       	ld	r31, X
     a2c:	01 90       	ld	r0, Z+
     a2e:	f0 81       	ld	r31, Z
     a30:	e0 2d       	mov	r30, r0
     a32:	c6 01       	movw	r24, r12
     a34:	19 95       	eicall
     a36:	89 2b       	or	r24, r25
     a38:	11 f0       	breq	.+4      	; 0xa3e <_ZN5Print5writeEPKhj+0x3e>
     a3a:	21 96       	adiw	r28, 0x01	; 1
     a3c:	ee cf       	rjmp	.-36     	; 0xa1a <_ZN5Print5writeEPKhj+0x1a>
     a3e:	7e 01       	movw	r14, r28
     a40:	c7 01       	movw	r24, r14
     a42:	df 91       	pop	r29
     a44:	cf 91       	pop	r28
     a46:	1f 91       	pop	r17
     a48:	0f 91       	pop	r16
     a4a:	ff 90       	pop	r15
     a4c:	ef 90       	pop	r14
     a4e:	df 90       	pop	r13
     a50:	cf 90       	pop	r12
     a52:	08 95       	ret

00000a54 <_ZN5Print5writeEPKc>:
     a54:	61 15       	cp	r22, r1
     a56:	71 05       	cpc	r23, r1
     a58:	79 f0       	breq	.+30     	; 0xa78 <_ZN5Print5writeEPKc+0x24>
     a5a:	fb 01       	movw	r30, r22
     a5c:	01 90       	ld	r0, Z+
     a5e:	00 20       	and	r0, r0
     a60:	e9 f7       	brne	.-6      	; 0xa5c <_ZN5Print5writeEPKc+0x8>
     a62:	31 97       	sbiw	r30, 0x01	; 1
     a64:	af 01       	movw	r20, r30
     a66:	46 1b       	sub	r20, r22
     a68:	57 0b       	sbc	r21, r23
     a6a:	dc 01       	movw	r26, r24
     a6c:	ed 91       	ld	r30, X+
     a6e:	fc 91       	ld	r31, X
     a70:	02 80       	ldd	r0, Z+2	; 0x02
     a72:	f3 81       	ldd	r31, Z+3	; 0x03
     a74:	e0 2d       	mov	r30, r0
     a76:	19 94       	eijmp
     a78:	80 e0       	ldi	r24, 0x00	; 0
     a7a:	90 e0       	ldi	r25, 0x00	; 0
     a7c:	08 95       	ret

00000a7e <_ZN5Print5printERK6String>:
     a7e:	db 01       	movw	r26, r22
     a80:	14 96       	adiw	r26, 0x04	; 4
     a82:	4d 91       	ld	r20, X+
     a84:	5c 91       	ld	r21, X
     a86:	15 97       	sbiw	r26, 0x05	; 5
     a88:	6d 91       	ld	r22, X+
     a8a:	7c 91       	ld	r23, X
     a8c:	dc 01       	movw	r26, r24
     a8e:	ed 91       	ld	r30, X+
     a90:	fc 91       	ld	r31, X
     a92:	02 80       	ldd	r0, Z+2	; 0x02
     a94:	f3 81       	ldd	r31, Z+3	; 0x03
     a96:	e0 2d       	mov	r30, r0
     a98:	19 94       	eijmp

00000a9a <_ZN5Print5printEPKc>:
     a9a:	dc cf       	rjmp	.-72     	; 0xa54 <_ZN5Print5writeEPKc>

00000a9c <_ZN5Print5printEc>:
     a9c:	dc 01       	movw	r26, r24
     a9e:	ed 91       	ld	r30, X+
     aa0:	fc 91       	ld	r31, X
     aa2:	01 90       	ld	r0, Z+
     aa4:	f0 81       	ld	r31, Z
     aa6:	e0 2d       	mov	r30, r0
     aa8:	19 94       	eijmp

00000aaa <_ZN5Print7printlnEv>:
     aaa:	62 e0       	ldi	r22, 0x02	; 2
     aac:	73 e0       	ldi	r23, 0x03	; 3
     aae:	d2 cf       	rjmp	.-92     	; 0xa54 <_ZN5Print5writeEPKc>

00000ab0 <_ZN5Print7printlnERK6String>:
     ab0:	0f 93       	push	r16
     ab2:	1f 93       	push	r17
     ab4:	cf 93       	push	r28
     ab6:	df 93       	push	r29
     ab8:	ec 01       	movw	r28, r24
     aba:	e1 df       	rcall	.-62     	; 0xa7e <_ZN5Print5printERK6String>
     abc:	8c 01       	movw	r16, r24
     abe:	ce 01       	movw	r24, r28
     ac0:	f4 df       	rcall	.-24     	; 0xaaa <_ZN5Print7printlnEv>
     ac2:	80 0f       	add	r24, r16
     ac4:	91 1f       	adc	r25, r17
     ac6:	df 91       	pop	r29
     ac8:	cf 91       	pop	r28
     aca:	1f 91       	pop	r17
     acc:	0f 91       	pop	r16
     ace:	08 95       	ret

00000ad0 <_ZN5Print7printlnEPKc>:
     ad0:	0f 93       	push	r16
     ad2:	1f 93       	push	r17
     ad4:	cf 93       	push	r28
     ad6:	df 93       	push	r29
     ad8:	ec 01       	movw	r28, r24
     ada:	bc df       	rcall	.-136    	; 0xa54 <_ZN5Print5writeEPKc>
     adc:	8c 01       	movw	r16, r24
     ade:	ce 01       	movw	r24, r28
     ae0:	e4 df       	rcall	.-56     	; 0xaaa <_ZN5Print7printlnEv>
     ae2:	80 0f       	add	r24, r16
     ae4:	91 1f       	adc	r25, r17
     ae6:	df 91       	pop	r29
     ae8:	cf 91       	pop	r28
     aea:	1f 91       	pop	r17
     aec:	0f 91       	pop	r16
     aee:	08 95       	ret

00000af0 <_ZN5Print11printNumberEmh>:
     af0:	8f 92       	push	r8
     af2:	9f 92       	push	r9
     af4:	af 92       	push	r10
     af6:	bf 92       	push	r11
     af8:	ef 92       	push	r14
     afa:	ff 92       	push	r15
     afc:	0f 93       	push	r16
     afe:	1f 93       	push	r17
     b00:	cf 93       	push	r28
     b02:	df 93       	push	r29
     b04:	cd b7       	in	r28, 0x3d	; 61
     b06:	de b7       	in	r29, 0x3e	; 62
     b08:	a1 97       	sbiw	r28, 0x21	; 33
     b0a:	0f b6       	in	r0, 0x3f	; 63
     b0c:	f8 94       	cli
     b0e:	de bf       	out	0x3e, r29	; 62
     b10:	0f be       	out	0x3f, r0	; 63
     b12:	cd bf       	out	0x3d, r28	; 61
     b14:	7c 01       	movw	r14, r24
     b16:	fa 01       	movw	r30, r20
     b18:	cb 01       	movw	r24, r22
     b1a:	19 a2       	std	Y+33, r1	; 0x21
     b1c:	22 30       	cpi	r18, 0x02	; 2
     b1e:	08 f4       	brcc	.+2      	; 0xb22 <_ZN5Print11printNumberEmh+0x32>
     b20:	2a e0       	ldi	r18, 0x0A	; 10
     b22:	8e 01       	movw	r16, r28
     b24:	0f 5d       	subi	r16, 0xDF	; 223
     b26:	1f 4f       	sbci	r17, 0xFF	; 255
     b28:	82 2e       	mov	r8, r18
     b2a:	91 2c       	mov	r9, r1
     b2c:	a1 2c       	mov	r10, r1
     b2e:	b1 2c       	mov	r11, r1
     b30:	bf 01       	movw	r22, r30
     b32:	a5 01       	movw	r20, r10
     b34:	94 01       	movw	r18, r8
     b36:	0e 94 32 15 	call	0x2a64	; 0x2a64 <__udivmodsi4>
     b3a:	f9 01       	movw	r30, r18
     b3c:	ca 01       	movw	r24, r20
     b3e:	01 50       	subi	r16, 0x01	; 1
     b40:	11 09       	sbc	r17, r1
     b42:	6a 30       	cpi	r22, 0x0A	; 10
     b44:	10 f4       	brcc	.+4      	; 0xb4a <_ZN5Print11printNumberEmh+0x5a>
     b46:	60 5d       	subi	r22, 0xD0	; 208
     b48:	01 c0       	rjmp	.+2      	; 0xb4c <_ZN5Print11printNumberEmh+0x5c>
     b4a:	69 5c       	subi	r22, 0xC9	; 201
     b4c:	d8 01       	movw	r26, r16
     b4e:	6c 93       	st	X, r22
     b50:	23 2b       	or	r18, r19
     b52:	24 2b       	or	r18, r20
     b54:	25 2b       	or	r18, r21
     b56:	61 f7       	brne	.-40     	; 0xb30 <_ZN5Print11printNumberEmh+0x40>
     b58:	b8 01       	movw	r22, r16
     b5a:	c7 01       	movw	r24, r14
     b5c:	7b df       	rcall	.-266    	; 0xa54 <_ZN5Print5writeEPKc>
     b5e:	a1 96       	adiw	r28, 0x21	; 33
     b60:	0f b6       	in	r0, 0x3f	; 63
     b62:	f8 94       	cli
     b64:	de bf       	out	0x3e, r29	; 62
     b66:	0f be       	out	0x3f, r0	; 63
     b68:	cd bf       	out	0x3d, r28	; 61
     b6a:	df 91       	pop	r29
     b6c:	cf 91       	pop	r28
     b6e:	1f 91       	pop	r17
     b70:	0f 91       	pop	r16
     b72:	ff 90       	pop	r15
     b74:	ef 90       	pop	r14
     b76:	bf 90       	pop	r11
     b78:	af 90       	pop	r10
     b7a:	9f 90       	pop	r9
     b7c:	8f 90       	pop	r8
     b7e:	08 95       	ret

00000b80 <_ZN5Print5printEmi>:
     b80:	21 15       	cp	r18, r1
     b82:	31 05       	cpc	r19, r1
     b84:	41 f4       	brne	.+16     	; 0xb96 <_ZN5Print5printEmi+0x16>
     b86:	dc 01       	movw	r26, r24
     b88:	ed 91       	ld	r30, X+
     b8a:	fc 91       	ld	r31, X
     b8c:	01 90       	ld	r0, Z+
     b8e:	f0 81       	ld	r31, Z
     b90:	e0 2d       	mov	r30, r0
     b92:	64 2f       	mov	r22, r20
     b94:	19 94       	eijmp
     b96:	ac cf       	rjmp	.-168    	; 0xaf0 <_ZN5Print11printNumberEmh>

00000b98 <_ZN5Print5printEji>:
     b98:	9a 01       	movw	r18, r20
     b9a:	ab 01       	movw	r20, r22
     b9c:	60 e0       	ldi	r22, 0x00	; 0
     b9e:	70 e0       	ldi	r23, 0x00	; 0
     ba0:	ef cf       	rjmp	.-34     	; 0xb80 <_ZN5Print5printEmi>

00000ba2 <_ZN5Print5printEli>:
     ba2:	cf 92       	push	r12
     ba4:	df 92       	push	r13
     ba6:	ef 92       	push	r14
     ba8:	ff 92       	push	r15
     baa:	0f 93       	push	r16
     bac:	1f 93       	push	r17
     bae:	cf 93       	push	r28
     bb0:	df 93       	push	r29
     bb2:	21 15       	cp	r18, r1
     bb4:	31 05       	cpc	r19, r1
     bb6:	81 f4       	brne	.+32     	; 0xbd8 <_ZN5Print5printEli+0x36>
     bb8:	dc 01       	movw	r26, r24
     bba:	ed 91       	ld	r30, X+
     bbc:	fc 91       	ld	r31, X
     bbe:	01 90       	ld	r0, Z+
     bc0:	f0 81       	ld	r31, Z
     bc2:	e0 2d       	mov	r30, r0
     bc4:	64 2f       	mov	r22, r20
     bc6:	df 91       	pop	r29
     bc8:	cf 91       	pop	r28
     bca:	1f 91       	pop	r17
     bcc:	0f 91       	pop	r16
     bce:	ff 90       	pop	r15
     bd0:	ef 90       	pop	r14
     bd2:	df 90       	pop	r13
     bd4:	cf 90       	pop	r12
     bd6:	19 94       	eijmp
     bd8:	2a 30       	cpi	r18, 0x0A	; 10
     bda:	31 05       	cpc	r19, r1
     bdc:	f1 f4       	brne	.+60     	; 0xc1a <_ZN5Print5printEli+0x78>
     bde:	77 ff       	sbrs	r23, 7
     be0:	1b c0       	rjmp	.+54     	; 0xc18 <_ZN5Print5printEli+0x76>
     be2:	6a 01       	movw	r12, r20
     be4:	7b 01       	movw	r14, r22
     be6:	ec 01       	movw	r28, r24
     be8:	6d e2       	ldi	r22, 0x2D	; 45
     bea:	58 df       	rcall	.-336    	; 0xa9c <_ZN5Print5printEc>
     bec:	8c 01       	movw	r16, r24
     bee:	44 27       	eor	r20, r20
     bf0:	55 27       	eor	r21, r21
     bf2:	ba 01       	movw	r22, r20
     bf4:	4c 19       	sub	r20, r12
     bf6:	5d 09       	sbc	r21, r13
     bf8:	6e 09       	sbc	r22, r14
     bfa:	7f 09       	sbc	r23, r15
     bfc:	2a e0       	ldi	r18, 0x0A	; 10
     bfe:	ce 01       	movw	r24, r28
     c00:	77 df       	rcall	.-274    	; 0xaf0 <_ZN5Print11printNumberEmh>
     c02:	80 0f       	add	r24, r16
     c04:	91 1f       	adc	r25, r17
     c06:	df 91       	pop	r29
     c08:	cf 91       	pop	r28
     c0a:	1f 91       	pop	r17
     c0c:	0f 91       	pop	r16
     c0e:	ff 90       	pop	r15
     c10:	ef 90       	pop	r14
     c12:	df 90       	pop	r13
     c14:	cf 90       	pop	r12
     c16:	08 95       	ret
     c18:	2a e0       	ldi	r18, 0x0A	; 10
     c1a:	df 91       	pop	r29
     c1c:	cf 91       	pop	r28
     c1e:	1f 91       	pop	r17
     c20:	0f 91       	pop	r16
     c22:	ff 90       	pop	r15
     c24:	ef 90       	pop	r14
     c26:	df 90       	pop	r13
     c28:	cf 90       	pop	r12
     c2a:	62 cf       	rjmp	.-316    	; 0xaf0 <_ZN5Print11printNumberEmh>

00000c2c <_ZN5Print5printEii>:
     c2c:	9a 01       	movw	r18, r20
     c2e:	ab 01       	movw	r20, r22
     c30:	77 0f       	add	r23, r23
     c32:	66 0b       	sbc	r22, r22
     c34:	77 0b       	sbc	r23, r23
     c36:	b5 cf       	rjmp	.-150    	; 0xba2 <_ZN5Print5printEli>

00000c38 <_ZN5Print7printlnEii>:
     c38:	0f 93       	push	r16
     c3a:	1f 93       	push	r17
     c3c:	cf 93       	push	r28
     c3e:	df 93       	push	r29
     c40:	ec 01       	movw	r28, r24
     c42:	f4 df       	rcall	.-24     	; 0xc2c <_ZN5Print5printEii>
     c44:	8c 01       	movw	r16, r24
     c46:	ce 01       	movw	r24, r28
     c48:	30 df       	rcall	.-416    	; 0xaaa <_ZN5Print7printlnEv>
     c4a:	80 0f       	add	r24, r16
     c4c:	91 1f       	adc	r25, r17
     c4e:	df 91       	pop	r29
     c50:	cf 91       	pop	r28
     c52:	1f 91       	pop	r17
     c54:	0f 91       	pop	r16
     c56:	08 95       	ret

00000c58 <_ZN5Print10printFloatEdh>:
     c58:	7f 92       	push	r7
     c5a:	8f 92       	push	r8
     c5c:	9f 92       	push	r9
     c5e:	af 92       	push	r10
     c60:	bf 92       	push	r11
     c62:	cf 92       	push	r12
     c64:	df 92       	push	r13
     c66:	ef 92       	push	r14
     c68:	ff 92       	push	r15
     c6a:	0f 93       	push	r16
     c6c:	1f 93       	push	r17
     c6e:	cf 93       	push	r28
     c70:	df 93       	push	r29
     c72:	8c 01       	movw	r16, r24
     c74:	6a 01       	movw	r12, r20
     c76:	7b 01       	movw	r14, r22
     c78:	72 2e       	mov	r7, r18
     c7a:	9a 01       	movw	r18, r20
     c7c:	ab 01       	movw	r20, r22
     c7e:	c7 01       	movw	r24, r14
     c80:	b6 01       	movw	r22, r12
     c82:	0e 94 2e 15 	call	0x2a5c	; 0x2a5c <__unordsf2>
     c86:	88 23       	and	r24, r24
     c88:	19 f0       	breq	.+6      	; 0xc90 <_ZN5Print10printFloatEdh+0x38>
     c8a:	65 e0       	ldi	r22, 0x05	; 5
     c8c:	73 e0       	ldi	r23, 0x03	; 3
     c8e:	27 c0       	rjmp	.+78     	; 0xcde <_ZN5Print10printFloatEdh+0x86>
     c90:	46 01       	movw	r8, r12
     c92:	57 01       	movw	r10, r14
     c94:	e8 94       	clt
     c96:	b7 f8       	bld	r11, 7
     c98:	2f ef       	ldi	r18, 0xFF	; 255
     c9a:	3f ef       	ldi	r19, 0xFF	; 255
     c9c:	4f e7       	ldi	r20, 0x7F	; 127
     c9e:	5f e7       	ldi	r21, 0x7F	; 127
     ca0:	c5 01       	movw	r24, r10
     ca2:	b4 01       	movw	r22, r8
     ca4:	0e 94 2e 15 	call	0x2a5c	; 0x2a5c <__unordsf2>
     ca8:	81 11       	cpse	r24, r1
     caa:	0d c0       	rjmp	.+26     	; 0xcc6 <_ZN5Print10printFloatEdh+0x6e>
     cac:	2f ef       	ldi	r18, 0xFF	; 255
     cae:	3f ef       	ldi	r19, 0xFF	; 255
     cb0:	4f e7       	ldi	r20, 0x7F	; 127
     cb2:	5f e7       	ldi	r21, 0x7F	; 127
     cb4:	c5 01       	movw	r24, r10
     cb6:	b4 01       	movw	r22, r8
     cb8:	0e 94 78 13 	call	0x26f0	; 0x26f0 <__cmpsf2>
     cbc:	18 16       	cp	r1, r24
     cbe:	1c f4       	brge	.+6      	; 0xcc6 <_ZN5Print10printFloatEdh+0x6e>
     cc0:	69 e0       	ldi	r22, 0x09	; 9
     cc2:	73 e0       	ldi	r23, 0x03	; 3
     cc4:	0c c0       	rjmp	.+24     	; 0xcde <_ZN5Print10printFloatEdh+0x86>
     cc6:	2f ef       	ldi	r18, 0xFF	; 255
     cc8:	3f ef       	ldi	r19, 0xFF	; 255
     cca:	4f e7       	ldi	r20, 0x7F	; 127
     ccc:	5f e4       	ldi	r21, 0x4F	; 79
     cce:	c7 01       	movw	r24, r14
     cd0:	b6 01       	movw	r22, r12
     cd2:	0e 94 c7 14 	call	0x298e	; 0x298e <__gesf2>
     cd6:	18 16       	cp	r1, r24
     cd8:	8c f4       	brge	.+34     	; 0xcfc <_ZN5Print10printFloatEdh+0xa4>
     cda:	6d e0       	ldi	r22, 0x0D	; 13
     cdc:	73 e0       	ldi	r23, 0x03	; 3
     cde:	c8 01       	movw	r24, r16
     ce0:	df 91       	pop	r29
     ce2:	cf 91       	pop	r28
     ce4:	1f 91       	pop	r17
     ce6:	0f 91       	pop	r16
     ce8:	ff 90       	pop	r15
     cea:	ef 90       	pop	r14
     cec:	df 90       	pop	r13
     cee:	cf 90       	pop	r12
     cf0:	bf 90       	pop	r11
     cf2:	af 90       	pop	r10
     cf4:	9f 90       	pop	r9
     cf6:	8f 90       	pop	r8
     cf8:	7f 90       	pop	r7
     cfa:	ac ce       	rjmp	.-680    	; 0xa54 <_ZN5Print5writeEPKc>
     cfc:	2f ef       	ldi	r18, 0xFF	; 255
     cfe:	3f ef       	ldi	r19, 0xFF	; 255
     d00:	4f e7       	ldi	r20, 0x7F	; 127
     d02:	5f ec       	ldi	r21, 0xCF	; 207
     d04:	c7 01       	movw	r24, r14
     d06:	b6 01       	movw	r22, r12
     d08:	0e 94 78 13 	call	0x26f0	; 0x26f0 <__cmpsf2>
     d0c:	87 fd       	sbrc	r24, 7
     d0e:	e5 cf       	rjmp	.-54     	; 0xcda <_ZN5Print10printFloatEdh+0x82>
     d10:	20 e0       	ldi	r18, 0x00	; 0
     d12:	30 e0       	ldi	r19, 0x00	; 0
     d14:	a9 01       	movw	r20, r18
     d16:	c7 01       	movw	r24, r14
     d18:	b6 01       	movw	r22, r12
     d1a:	0e 94 78 13 	call	0x26f0	; 0x26f0 <__cmpsf2>
     d1e:	87 ff       	sbrs	r24, 7
     d20:	09 c0       	rjmp	.+18     	; 0xd34 <_ZN5Print10printFloatEdh+0xdc>
     d22:	6d e2       	ldi	r22, 0x2D	; 45
     d24:	c8 01       	movw	r24, r16
     d26:	ba de       	rcall	.-652    	; 0xa9c <_ZN5Print5printEc>
     d28:	ec 01       	movw	r28, r24
     d2a:	f7 fa       	bst	r15, 7
     d2c:	f0 94       	com	r15
     d2e:	f7 f8       	bld	r15, 7
     d30:	f0 94       	com	r15
     d32:	02 c0       	rjmp	.+4      	; 0xd38 <_ZN5Print10printFloatEdh+0xe0>
     d34:	c0 e0       	ldi	r28, 0x00	; 0
     d36:	d0 e0       	ldi	r29, 0x00	; 0
     d38:	b1 2c       	mov	r11, r1
     d3a:	60 e0       	ldi	r22, 0x00	; 0
     d3c:	70 e0       	ldi	r23, 0x00	; 0
     d3e:	80 e0       	ldi	r24, 0x00	; 0
     d40:	9f e3       	ldi	r25, 0x3F	; 63
     d42:	7b 14       	cp	r7, r11
     d44:	41 f0       	breq	.+16     	; 0xd56 <_ZN5Print10printFloatEdh+0xfe>
     d46:	20 e0       	ldi	r18, 0x00	; 0
     d48:	30 e0       	ldi	r19, 0x00	; 0
     d4a:	40 e2       	ldi	r20, 0x20	; 32
     d4c:	51 e4       	ldi	r21, 0x41	; 65
     d4e:	0e 94 7c 13 	call	0x26f8	; 0x26f8 <__divsf3>
     d52:	b3 94       	inc	r11
     d54:	f6 cf       	rjmp	.-20     	; 0xd42 <_ZN5Print10printFloatEdh+0xea>
     d56:	a7 01       	movw	r20, r14
     d58:	96 01       	movw	r18, r12
     d5a:	0e 94 14 13 	call	0x2628	; 0x2628 <__addsf3>
     d5e:	6b 01       	movw	r12, r22
     d60:	7c 01       	movw	r14, r24
     d62:	0e 94 e9 13 	call	0x27d2	; 0x27d2 <__fixunssfsi>
     d66:	4b 01       	movw	r8, r22
     d68:	5c 01       	movw	r10, r24
     d6a:	2a e0       	ldi	r18, 0x0A	; 10
     d6c:	ab 01       	movw	r20, r22
     d6e:	bc 01       	movw	r22, r24
     d70:	c8 01       	movw	r24, r16
     d72:	be de       	rcall	.-644    	; 0xaf0 <_ZN5Print11printNumberEmh>
     d74:	c8 0f       	add	r28, r24
     d76:	d9 1f       	adc	r29, r25
     d78:	77 20       	and	r7, r7
     d7a:	a9 f1       	breq	.+106    	; 0xde6 <_ZN5Print10printFloatEdh+0x18e>
     d7c:	c5 01       	movw	r24, r10
     d7e:	b4 01       	movw	r22, r8
     d80:	0e 94 15 14 	call	0x282a	; 0x282a <__floatunsisf>
     d84:	9b 01       	movw	r18, r22
     d86:	ac 01       	movw	r20, r24
     d88:	c7 01       	movw	r24, r14
     d8a:	b6 01       	movw	r22, r12
     d8c:	0e 94 13 13 	call	0x2626	; 0x2626 <__subsf3>
     d90:	6b 01       	movw	r12, r22
     d92:	7c 01       	movw	r14, r24
     d94:	6e e2       	ldi	r22, 0x2E	; 46
     d96:	c8 01       	movw	r24, r16
     d98:	81 de       	rcall	.-766    	; 0xa9c <_ZN5Print5printEc>
     d9a:	c8 0f       	add	r28, r24
     d9c:	d9 1f       	adc	r29, r25
     d9e:	20 e0       	ldi	r18, 0x00	; 0
     da0:	30 e0       	ldi	r19, 0x00	; 0
     da2:	40 e2       	ldi	r20, 0x20	; 32
     da4:	51 e4       	ldi	r21, 0x41	; 65
     da6:	c7 01       	movw	r24, r14
     da8:	b6 01       	movw	r22, r12
     daa:	0e 94 cb 14 	call	0x2996	; 0x2996 <__mulsf3>
     dae:	4b 01       	movw	r8, r22
     db0:	5c 01       	movw	r10, r24
     db2:	0e 94 e9 13 	call	0x27d2	; 0x27d2 <__fixunssfsi>
     db6:	6b 01       	movw	r12, r22
     db8:	7c 01       	movw	r14, r24
     dba:	4a e0       	ldi	r20, 0x0A	; 10
     dbc:	50 e0       	ldi	r21, 0x00	; 0
     dbe:	c8 01       	movw	r24, r16
     dc0:	eb de       	rcall	.-554    	; 0xb98 <_ZN5Print5printEji>
     dc2:	c8 0f       	add	r28, r24
     dc4:	d9 1f       	adc	r29, r25
     dc6:	b6 01       	movw	r22, r12
     dc8:	80 e0       	ldi	r24, 0x00	; 0
     dca:	90 e0       	ldi	r25, 0x00	; 0
     dcc:	0e 94 15 14 	call	0x282a	; 0x282a <__floatunsisf>
     dd0:	9b 01       	movw	r18, r22
     dd2:	ac 01       	movw	r20, r24
     dd4:	c5 01       	movw	r24, r10
     dd6:	b4 01       	movw	r22, r8
     dd8:	0e 94 13 13 	call	0x2626	; 0x2626 <__subsf3>
     ddc:	6b 01       	movw	r12, r22
     dde:	7c 01       	movw	r14, r24
     de0:	7a 94       	dec	r7
     de2:	71 10       	cpse	r7, r1
     de4:	dc cf       	rjmp	.-72     	; 0xd9e <_ZN5Print10printFloatEdh+0x146>
     de6:	ce 01       	movw	r24, r28
     de8:	df 91       	pop	r29
     dea:	cf 91       	pop	r28
     dec:	1f 91       	pop	r17
     dee:	0f 91       	pop	r16
     df0:	ff 90       	pop	r15
     df2:	ef 90       	pop	r14
     df4:	df 90       	pop	r13
     df6:	cf 90       	pop	r12
     df8:	bf 90       	pop	r11
     dfa:	af 90       	pop	r10
     dfc:	9f 90       	pop	r9
     dfe:	8f 90       	pop	r8
     e00:	7f 90       	pop	r7
     e02:	08 95       	ret

00000e04 <_ZN5Print5printEdi>:
     e04:	29 cf       	rjmp	.-430    	; 0xc58 <_ZN5Print10printFloatEdh>

00000e06 <__vector_23>:
     e06:	1f 92       	push	r1
     e08:	0f 92       	push	r0
     e0a:	0f b6       	in	r0, 0x3f	; 63
     e0c:	0f 92       	push	r0
     e0e:	11 24       	eor	r1, r1
     e10:	2f 93       	push	r18
     e12:	3f 93       	push	r19
     e14:	8f 93       	push	r24
     e16:	9f 93       	push	r25
     e18:	af 93       	push	r26
     e1a:	bf 93       	push	r27
     e1c:	80 91 81 05 	lds	r24, 0x0581	; 0x800581 <timer0_millis>
     e20:	90 91 82 05 	lds	r25, 0x0582	; 0x800582 <timer0_millis+0x1>
     e24:	a0 91 83 05 	lds	r26, 0x0583	; 0x800583 <timer0_millis+0x2>
     e28:	b0 91 84 05 	lds	r27, 0x0584	; 0x800584 <timer0_millis+0x3>
     e2c:	30 91 80 05 	lds	r19, 0x0580	; 0x800580 <timer0_fract>
     e30:	23 e0       	ldi	r18, 0x03	; 3
     e32:	23 0f       	add	r18, r19
     e34:	2d 37       	cpi	r18, 0x7D	; 125
     e36:	20 f4       	brcc	.+8      	; 0xe40 <__vector_23+0x3a>
     e38:	01 96       	adiw	r24, 0x01	; 1
     e3a:	a1 1d       	adc	r26, r1
     e3c:	b1 1d       	adc	r27, r1
     e3e:	05 c0       	rjmp	.+10     	; 0xe4a <__vector_23+0x44>
     e40:	26 e8       	ldi	r18, 0x86	; 134
     e42:	23 0f       	add	r18, r19
     e44:	02 96       	adiw	r24, 0x02	; 2
     e46:	a1 1d       	adc	r26, r1
     e48:	b1 1d       	adc	r27, r1
     e4a:	20 93 80 05 	sts	0x0580, r18	; 0x800580 <timer0_fract>
     e4e:	80 93 81 05 	sts	0x0581, r24	; 0x800581 <timer0_millis>
     e52:	90 93 82 05 	sts	0x0582, r25	; 0x800582 <timer0_millis+0x1>
     e56:	a0 93 83 05 	sts	0x0583, r26	; 0x800583 <timer0_millis+0x2>
     e5a:	b0 93 84 05 	sts	0x0584, r27	; 0x800584 <timer0_millis+0x3>
     e5e:	80 91 85 05 	lds	r24, 0x0585	; 0x800585 <timer0_overflow_count>
     e62:	90 91 86 05 	lds	r25, 0x0586	; 0x800586 <timer0_overflow_count+0x1>
     e66:	a0 91 87 05 	lds	r26, 0x0587	; 0x800587 <timer0_overflow_count+0x2>
     e6a:	b0 91 88 05 	lds	r27, 0x0588	; 0x800588 <timer0_overflow_count+0x3>
     e6e:	01 96       	adiw	r24, 0x01	; 1
     e70:	a1 1d       	adc	r26, r1
     e72:	b1 1d       	adc	r27, r1
     e74:	80 93 85 05 	sts	0x0585, r24	; 0x800585 <timer0_overflow_count>
     e78:	90 93 86 05 	sts	0x0586, r25	; 0x800586 <timer0_overflow_count+0x1>
     e7c:	a0 93 87 05 	sts	0x0587, r26	; 0x800587 <timer0_overflow_count+0x2>
     e80:	b0 93 88 05 	sts	0x0588, r27	; 0x800588 <timer0_overflow_count+0x3>
     e84:	bf 91       	pop	r27
     e86:	af 91       	pop	r26
     e88:	9f 91       	pop	r25
     e8a:	8f 91       	pop	r24
     e8c:	3f 91       	pop	r19
     e8e:	2f 91       	pop	r18
     e90:	0f 90       	pop	r0
     e92:	0f be       	out	0x3f, r0	; 63
     e94:	0f 90       	pop	r0
     e96:	1f 90       	pop	r1
     e98:	18 95       	reti

00000e9a <millis>:
     e9a:	2f b7       	in	r18, 0x3f	; 63
     e9c:	f8 94       	cli
     e9e:	60 91 81 05 	lds	r22, 0x0581	; 0x800581 <timer0_millis>
     ea2:	70 91 82 05 	lds	r23, 0x0582	; 0x800582 <timer0_millis+0x1>
     ea6:	80 91 83 05 	lds	r24, 0x0583	; 0x800583 <timer0_millis+0x2>
     eaa:	90 91 84 05 	lds	r25, 0x0584	; 0x800584 <timer0_millis+0x3>
     eae:	2f bf       	out	0x3f, r18	; 63
     eb0:	08 95       	ret

00000eb2 <micros>:
     eb2:	3f b7       	in	r19, 0x3f	; 63
     eb4:	f8 94       	cli
     eb6:	80 91 85 05 	lds	r24, 0x0585	; 0x800585 <timer0_overflow_count>
     eba:	90 91 86 05 	lds	r25, 0x0586	; 0x800586 <timer0_overflow_count+0x1>
     ebe:	a0 91 87 05 	lds	r26, 0x0587	; 0x800587 <timer0_overflow_count+0x2>
     ec2:	b0 91 88 05 	lds	r27, 0x0588	; 0x800588 <timer0_overflow_count+0x3>
     ec6:	26 b5       	in	r18, 0x26	; 38
     ec8:	a8 9b       	sbis	0x15, 0	; 21
     eca:	05 c0       	rjmp	.+10     	; 0xed6 <micros+0x24>
     ecc:	2f 3f       	cpi	r18, 0xFF	; 255
     ece:	19 f0       	breq	.+6      	; 0xed6 <micros+0x24>
     ed0:	01 96       	adiw	r24, 0x01	; 1
     ed2:	a1 1d       	adc	r26, r1
     ed4:	b1 1d       	adc	r27, r1
     ed6:	3f bf       	out	0x3f, r19	; 63
     ed8:	ba 2f       	mov	r27, r26
     eda:	a9 2f       	mov	r26, r25
     edc:	98 2f       	mov	r25, r24
     ede:	88 27       	eor	r24, r24
     ee0:	82 0f       	add	r24, r18
     ee2:	91 1d       	adc	r25, r1
     ee4:	a1 1d       	adc	r26, r1
     ee6:	b1 1d       	adc	r27, r1
     ee8:	bc 01       	movw	r22, r24
     eea:	cd 01       	movw	r24, r26
     eec:	42 e0       	ldi	r20, 0x02	; 2
     eee:	66 0f       	add	r22, r22
     ef0:	77 1f       	adc	r23, r23
     ef2:	88 1f       	adc	r24, r24
     ef4:	99 1f       	adc	r25, r25
     ef6:	4a 95       	dec	r20
     ef8:	d1 f7       	brne	.-12     	; 0xeee <micros+0x3c>
     efa:	08 95       	ret

00000efc <delay>:
     efc:	8f 92       	push	r8
     efe:	9f 92       	push	r9
     f00:	af 92       	push	r10
     f02:	bf 92       	push	r11
     f04:	cf 92       	push	r12
     f06:	df 92       	push	r13
     f08:	ef 92       	push	r14
     f0a:	ff 92       	push	r15
     f0c:	6b 01       	movw	r12, r22
     f0e:	7c 01       	movw	r14, r24
     f10:	d0 df       	rcall	.-96     	; 0xeb2 <micros>
     f12:	4b 01       	movw	r8, r22
     f14:	5c 01       	movw	r10, r24
     f16:	c1 14       	cp	r12, r1
     f18:	d1 04       	cpc	r13, r1
     f1a:	e1 04       	cpc	r14, r1
     f1c:	f1 04       	cpc	r15, r1
     f1e:	f9 f0       	breq	.+62     	; 0xf5e <delay+0x62>
     f20:	0e 94 e6 10 	call	0x21cc	; 0x21cc <yield>
     f24:	c6 df       	rcall	.-116    	; 0xeb2 <micros>
     f26:	dc 01       	movw	r26, r24
     f28:	cb 01       	movw	r24, r22
     f2a:	88 19       	sub	r24, r8
     f2c:	99 09       	sbc	r25, r9
     f2e:	aa 09       	sbc	r26, r10
     f30:	bb 09       	sbc	r27, r11
     f32:	88 3e       	cpi	r24, 0xE8	; 232
     f34:	93 40       	sbci	r25, 0x03	; 3
     f36:	a1 05       	cpc	r26, r1
     f38:	b1 05       	cpc	r27, r1
     f3a:	68 f3       	brcs	.-38     	; 0xf16 <delay+0x1a>
     f3c:	21 e0       	ldi	r18, 0x01	; 1
     f3e:	c2 1a       	sub	r12, r18
     f40:	d1 08       	sbc	r13, r1
     f42:	e1 08       	sbc	r14, r1
     f44:	f1 08       	sbc	r15, r1
     f46:	88 ee       	ldi	r24, 0xE8	; 232
     f48:	88 0e       	add	r8, r24
     f4a:	83 e0       	ldi	r24, 0x03	; 3
     f4c:	98 1e       	adc	r9, r24
     f4e:	a1 1c       	adc	r10, r1
     f50:	b1 1c       	adc	r11, r1
     f52:	c1 14       	cp	r12, r1
     f54:	d1 04       	cpc	r13, r1
     f56:	e1 04       	cpc	r14, r1
     f58:	f1 04       	cpc	r15, r1
     f5a:	21 f7       	brne	.-56     	; 0xf24 <delay+0x28>
     f5c:	dc cf       	rjmp	.-72     	; 0xf16 <delay+0x1a>
     f5e:	ff 90       	pop	r15
     f60:	ef 90       	pop	r14
     f62:	df 90       	pop	r13
     f64:	cf 90       	pop	r12
     f66:	bf 90       	pop	r11
     f68:	af 90       	pop	r10
     f6a:	9f 90       	pop	r9
     f6c:	8f 90       	pop	r8
     f6e:	08 95       	ret

00000f70 <delayMicroseconds>:
     f70:	82 30       	cpi	r24, 0x02	; 2
     f72:	91 05       	cpc	r25, r1
     f74:	38 f0       	brcs	.+14     	; 0xf84 <delayMicroseconds+0x14>
     f76:	88 0f       	add	r24, r24
     f78:	99 1f       	adc	r25, r25
     f7a:	88 0f       	add	r24, r24
     f7c:	99 1f       	adc	r25, r25
     f7e:	05 97       	sbiw	r24, 0x05	; 5
     f80:	01 97       	sbiw	r24, 0x01	; 1
     f82:	f1 f7       	brne	.-4      	; 0xf80 <delayMicroseconds+0x10>
     f84:	08 95       	ret

00000f86 <init>:
     f86:	78 94       	sei
     f88:	84 b5       	in	r24, 0x24	; 36
     f8a:	82 60       	ori	r24, 0x02	; 2
     f8c:	84 bd       	out	0x24, r24	; 36
     f8e:	84 b5       	in	r24, 0x24	; 36
     f90:	81 60       	ori	r24, 0x01	; 1
     f92:	84 bd       	out	0x24, r24	; 36
     f94:	85 b5       	in	r24, 0x25	; 37
     f96:	82 60       	ori	r24, 0x02	; 2
     f98:	85 bd       	out	0x25, r24	; 37
     f9a:	85 b5       	in	r24, 0x25	; 37
     f9c:	81 60       	ori	r24, 0x01	; 1
     f9e:	85 bd       	out	0x25, r24	; 37
     fa0:	ee e6       	ldi	r30, 0x6E	; 110
     fa2:	f0 e0       	ldi	r31, 0x00	; 0
     fa4:	80 81       	ld	r24, Z
     fa6:	81 60       	ori	r24, 0x01	; 1
     fa8:	80 83       	st	Z, r24
     faa:	e1 e8       	ldi	r30, 0x81	; 129
     fac:	f0 e0       	ldi	r31, 0x00	; 0
     fae:	10 82       	st	Z, r1
     fb0:	80 81       	ld	r24, Z
     fb2:	82 60       	ori	r24, 0x02	; 2
     fb4:	80 83       	st	Z, r24
     fb6:	80 81       	ld	r24, Z
     fb8:	81 60       	ori	r24, 0x01	; 1
     fba:	80 83       	st	Z, r24
     fbc:	e0 e8       	ldi	r30, 0x80	; 128
     fbe:	f0 e0       	ldi	r31, 0x00	; 0
     fc0:	80 81       	ld	r24, Z
     fc2:	81 60       	ori	r24, 0x01	; 1
     fc4:	80 83       	st	Z, r24
     fc6:	e1 eb       	ldi	r30, 0xB1	; 177
     fc8:	f0 e0       	ldi	r31, 0x00	; 0
     fca:	80 81       	ld	r24, Z
     fcc:	84 60       	ori	r24, 0x04	; 4
     fce:	80 83       	st	Z, r24
     fd0:	e0 eb       	ldi	r30, 0xB0	; 176
     fd2:	f0 e0       	ldi	r31, 0x00	; 0
     fd4:	80 81       	ld	r24, Z
     fd6:	81 60       	ori	r24, 0x01	; 1
     fd8:	80 83       	st	Z, r24
     fda:	e1 e9       	ldi	r30, 0x91	; 145
     fdc:	f0 e0       	ldi	r31, 0x00	; 0
     fde:	80 81       	ld	r24, Z
     fe0:	82 60       	ori	r24, 0x02	; 2
     fe2:	80 83       	st	Z, r24
     fe4:	80 81       	ld	r24, Z
     fe6:	81 60       	ori	r24, 0x01	; 1
     fe8:	80 83       	st	Z, r24
     fea:	e0 e9       	ldi	r30, 0x90	; 144
     fec:	f0 e0       	ldi	r31, 0x00	; 0
     fee:	80 81       	ld	r24, Z
     ff0:	81 60       	ori	r24, 0x01	; 1
     ff2:	80 83       	st	Z, r24
     ff4:	e1 ea       	ldi	r30, 0xA1	; 161
     ff6:	f0 e0       	ldi	r31, 0x00	; 0
     ff8:	80 81       	ld	r24, Z
     ffa:	82 60       	ori	r24, 0x02	; 2
     ffc:	80 83       	st	Z, r24
     ffe:	80 81       	ld	r24, Z
    1000:	81 60       	ori	r24, 0x01	; 1
    1002:	80 83       	st	Z, r24
    1004:	e0 ea       	ldi	r30, 0xA0	; 160
    1006:	f0 e0       	ldi	r31, 0x00	; 0
    1008:	80 81       	ld	r24, Z
    100a:	81 60       	ori	r24, 0x01	; 1
    100c:	80 83       	st	Z, r24
    100e:	e1 e2       	ldi	r30, 0x21	; 33
    1010:	f1 e0       	ldi	r31, 0x01	; 1
    1012:	80 81       	ld	r24, Z
    1014:	82 60       	ori	r24, 0x02	; 2
    1016:	80 83       	st	Z, r24
    1018:	80 81       	ld	r24, Z
    101a:	81 60       	ori	r24, 0x01	; 1
    101c:	80 83       	st	Z, r24
    101e:	e0 e2       	ldi	r30, 0x20	; 32
    1020:	f1 e0       	ldi	r31, 0x01	; 1
    1022:	80 81       	ld	r24, Z
    1024:	81 60       	ori	r24, 0x01	; 1
    1026:	80 83       	st	Z, r24
    1028:	ea e7       	ldi	r30, 0x7A	; 122
    102a:	f0 e0       	ldi	r31, 0x00	; 0
    102c:	80 81       	ld	r24, Z
    102e:	84 60       	ori	r24, 0x04	; 4
    1030:	80 83       	st	Z, r24
    1032:	80 81       	ld	r24, Z
    1034:	82 60       	ori	r24, 0x02	; 2
    1036:	80 83       	st	Z, r24
    1038:	80 81       	ld	r24, Z
    103a:	81 60       	ori	r24, 0x01	; 1
    103c:	80 83       	st	Z, r24
    103e:	80 81       	ld	r24, Z
    1040:	80 68       	ori	r24, 0x80	; 128
    1042:	80 83       	st	Z, r24
    1044:	10 92 c1 00 	sts	0x00C1, r1	; 0x8000c1 <__TEXT_REGION_LENGTH__+0x7000c1>
    1048:	08 95       	ret

0000104a <turnOffPWM>:
    104a:	90 e0       	ldi	r25, 0x00	; 0
    104c:	fc 01       	movw	r30, r24
    104e:	31 97       	sbiw	r30, 0x01	; 1
    1050:	e2 31       	cpi	r30, 0x12	; 18
    1052:	f1 05       	cpc	r31, r1
    1054:	08 f0       	brcs	.+2      	; 0x1058 <turnOffPWM+0xe>
    1056:	4e c0       	rjmp	.+156    	; 0x10f4 <turnOffPWM+0xaa>
    1058:	88 27       	eor	r24, r24
    105a:	ee 58       	subi	r30, 0x8E	; 142
    105c:	ff 4f       	sbci	r31, 0xFF	; 255
    105e:	8f 4f       	sbci	r24, 0xFF	; 255
    1060:	0c 94 70 15 	jmp	0x2ae0	; 0x2ae0 <__tablejump2__>
    1064:	80 91 80 00 	lds	r24, 0x0080	; 0x800080 <__TEXT_REGION_LENGTH__+0x700080>
    1068:	8f 77       	andi	r24, 0x7F	; 127
    106a:	03 c0       	rjmp	.+6      	; 0x1072 <turnOffPWM+0x28>
    106c:	80 91 80 00 	lds	r24, 0x0080	; 0x800080 <__TEXT_REGION_LENGTH__+0x700080>
    1070:	8f 7d       	andi	r24, 0xDF	; 223
    1072:	80 93 80 00 	sts	0x0080, r24	; 0x800080 <__TEXT_REGION_LENGTH__+0x700080>
    1076:	08 95       	ret
    1078:	80 91 80 00 	lds	r24, 0x0080	; 0x800080 <__TEXT_REGION_LENGTH__+0x700080>
    107c:	87 7f       	andi	r24, 0xF7	; 247
    107e:	f9 cf       	rjmp	.-14     	; 0x1072 <turnOffPWM+0x28>
    1080:	84 b5       	in	r24, 0x24	; 36
    1082:	8f 77       	andi	r24, 0x7F	; 127
    1084:	02 c0       	rjmp	.+4      	; 0x108a <turnOffPWM+0x40>
    1086:	84 b5       	in	r24, 0x24	; 36
    1088:	8f 7d       	andi	r24, 0xDF	; 223
    108a:	84 bd       	out	0x24, r24	; 36
    108c:	08 95       	ret
    108e:	80 91 b0 00 	lds	r24, 0x00B0	; 0x8000b0 <__TEXT_REGION_LENGTH__+0x7000b0>
    1092:	8f 77       	andi	r24, 0x7F	; 127
    1094:	03 c0       	rjmp	.+6      	; 0x109c <turnOffPWM+0x52>
    1096:	80 91 b0 00 	lds	r24, 0x00B0	; 0x8000b0 <__TEXT_REGION_LENGTH__+0x7000b0>
    109a:	8f 7d       	andi	r24, 0xDF	; 223
    109c:	80 93 b0 00 	sts	0x00B0, r24	; 0x8000b0 <__TEXT_REGION_LENGTH__+0x7000b0>
    10a0:	08 95       	ret
    10a2:	80 91 90 00 	lds	r24, 0x0090	; 0x800090 <__TEXT_REGION_LENGTH__+0x700090>
    10a6:	8f 77       	andi	r24, 0x7F	; 127
    10a8:	07 c0       	rjmp	.+14     	; 0x10b8 <turnOffPWM+0x6e>
    10aa:	80 91 90 00 	lds	r24, 0x0090	; 0x800090 <__TEXT_REGION_LENGTH__+0x700090>
    10ae:	8f 7d       	andi	r24, 0xDF	; 223
    10b0:	03 c0       	rjmp	.+6      	; 0x10b8 <turnOffPWM+0x6e>
    10b2:	80 91 90 00 	lds	r24, 0x0090	; 0x800090 <__TEXT_REGION_LENGTH__+0x700090>
    10b6:	87 7f       	andi	r24, 0xF7	; 247
    10b8:	80 93 90 00 	sts	0x0090, r24	; 0x800090 <__TEXT_REGION_LENGTH__+0x700090>
    10bc:	08 95       	ret
    10be:	80 91 a0 00 	lds	r24, 0x00A0	; 0x8000a0 <__TEXT_REGION_LENGTH__+0x7000a0>
    10c2:	8f 77       	andi	r24, 0x7F	; 127
    10c4:	07 c0       	rjmp	.+14     	; 0x10d4 <turnOffPWM+0x8a>
    10c6:	80 91 a0 00 	lds	r24, 0x00A0	; 0x8000a0 <__TEXT_REGION_LENGTH__+0x7000a0>
    10ca:	8f 7d       	andi	r24, 0xDF	; 223
    10cc:	03 c0       	rjmp	.+6      	; 0x10d4 <turnOffPWM+0x8a>
    10ce:	80 91 a0 00 	lds	r24, 0x00A0	; 0x8000a0 <__TEXT_REGION_LENGTH__+0x7000a0>
    10d2:	87 7f       	andi	r24, 0xF7	; 247
    10d4:	80 93 a0 00 	sts	0x00A0, r24	; 0x8000a0 <__TEXT_REGION_LENGTH__+0x7000a0>
    10d8:	08 95       	ret
    10da:	80 91 20 01 	lds	r24, 0x0120	; 0x800120 <__TEXT_REGION_LENGTH__+0x700120>
    10de:	8f 77       	andi	r24, 0x7F	; 127
    10e0:	07 c0       	rjmp	.+14     	; 0x10f0 <turnOffPWM+0xa6>
    10e2:	80 91 20 01 	lds	r24, 0x0120	; 0x800120 <__TEXT_REGION_LENGTH__+0x700120>
    10e6:	8f 7d       	andi	r24, 0xDF	; 223
    10e8:	03 c0       	rjmp	.+6      	; 0x10f0 <turnOffPWM+0xa6>
    10ea:	80 91 20 01 	lds	r24, 0x0120	; 0x800120 <__TEXT_REGION_LENGTH__+0x700120>
    10ee:	87 7f       	andi	r24, 0xF7	; 247
    10f0:	80 93 20 01 	sts	0x0120, r24	; 0x800120 <__TEXT_REGION_LENGTH__+0x700120>
    10f4:	08 95       	ret

000010f6 <pinMode>:
    10f6:	cf 93       	push	r28
    10f8:	df 93       	push	r29
    10fa:	90 e0       	ldi	r25, 0x00	; 0
    10fc:	fc 01       	movw	r30, r24
    10fe:	e2 5b       	subi	r30, 0xB2	; 178
    1100:	fe 4f       	sbci	r31, 0xFE	; 254
    1102:	24 91       	lpm	r18, Z
    1104:	fc 01       	movw	r30, r24
    1106:	ec 56       	subi	r30, 0x6C	; 108
    1108:	fe 4f       	sbci	r31, 0xFE	; 254
    110a:	84 91       	lpm	r24, Z
    110c:	88 23       	and	r24, r24
    110e:	61 f1       	breq	.+88     	; 0x1168 <pinMode+0x72>
    1110:	90 e0       	ldi	r25, 0x00	; 0
    1112:	88 0f       	add	r24, r24
    1114:	99 1f       	adc	r25, r25
    1116:	fc 01       	movw	r30, r24
    1118:	e2 5f       	subi	r30, 0xF2	; 242
    111a:	fd 4f       	sbci	r31, 0xFD	; 253
    111c:	c5 91       	lpm	r28, Z+
    111e:	d4 91       	lpm	r29, Z
    1120:	fc 01       	movw	r30, r24
    1122:	ec 50       	subi	r30, 0x0C	; 12
    1124:	fe 4f       	sbci	r31, 0xFE	; 254
    1126:	a5 91       	lpm	r26, Z+
    1128:	b4 91       	lpm	r27, Z
    112a:	61 11       	cpse	r22, r1
    112c:	09 c0       	rjmp	.+18     	; 0x1140 <pinMode+0x4a>
    112e:	9f b7       	in	r25, 0x3f	; 63
    1130:	f8 94       	cli
    1132:	88 81       	ld	r24, Y
    1134:	20 95       	com	r18
    1136:	82 23       	and	r24, r18
    1138:	88 83       	st	Y, r24
    113a:	ec 91       	ld	r30, X
    113c:	2e 23       	and	r18, r30
    113e:	0b c0       	rjmp	.+22     	; 0x1156 <pinMode+0x60>
    1140:	62 30       	cpi	r22, 0x02	; 2
    1142:	61 f4       	brne	.+24     	; 0x115c <pinMode+0x66>
    1144:	9f b7       	in	r25, 0x3f	; 63
    1146:	f8 94       	cli
    1148:	88 81       	ld	r24, Y
    114a:	32 2f       	mov	r19, r18
    114c:	30 95       	com	r19
    114e:	83 23       	and	r24, r19
    1150:	88 83       	st	Y, r24
    1152:	ec 91       	ld	r30, X
    1154:	2e 2b       	or	r18, r30
    1156:	2c 93       	st	X, r18
    1158:	9f bf       	out	0x3f, r25	; 63
    115a:	06 c0       	rjmp	.+12     	; 0x1168 <pinMode+0x72>
    115c:	8f b7       	in	r24, 0x3f	; 63
    115e:	f8 94       	cli
    1160:	e8 81       	ld	r30, Y
    1162:	2e 2b       	or	r18, r30
    1164:	28 83       	st	Y, r18
    1166:	8f bf       	out	0x3f, r24	; 63
    1168:	df 91       	pop	r29
    116a:	cf 91       	pop	r28
    116c:	08 95       	ret

0000116e <digitalWrite>:
    116e:	1f 93       	push	r17
    1170:	cf 93       	push	r28
    1172:	df 93       	push	r29
    1174:	28 2f       	mov	r18, r24
    1176:	30 e0       	ldi	r19, 0x00	; 0
    1178:	f9 01       	movw	r30, r18
    117a:	e8 5f       	subi	r30, 0xF8	; 248
    117c:	fe 4f       	sbci	r31, 0xFE	; 254
    117e:	84 91       	lpm	r24, Z
    1180:	f9 01       	movw	r30, r18
    1182:	e2 5b       	subi	r30, 0xB2	; 178
    1184:	fe 4f       	sbci	r31, 0xFE	; 254
    1186:	d4 91       	lpm	r29, Z
    1188:	f9 01       	movw	r30, r18
    118a:	ec 56       	subi	r30, 0x6C	; 108
    118c:	fe 4f       	sbci	r31, 0xFE	; 254
    118e:	c4 91       	lpm	r28, Z
    1190:	cc 23       	and	r28, r28
    1192:	b9 f0       	breq	.+46     	; 0x11c2 <digitalWrite+0x54>
    1194:	16 2f       	mov	r17, r22
    1196:	81 11       	cpse	r24, r1
    1198:	58 df       	rcall	.-336    	; 0x104a <turnOffPWM>
    119a:	ec 2f       	mov	r30, r28
    119c:	f0 e0       	ldi	r31, 0x00	; 0
    119e:	ee 0f       	add	r30, r30
    11a0:	ff 1f       	adc	r31, r31
    11a2:	ec 50       	subi	r30, 0x0C	; 12
    11a4:	fe 4f       	sbci	r31, 0xFE	; 254
    11a6:	a5 91       	lpm	r26, Z+
    11a8:	b4 91       	lpm	r27, Z
    11aa:	9f b7       	in	r25, 0x3f	; 63
    11ac:	f8 94       	cli
    11ae:	11 11       	cpse	r17, r1
    11b0:	04 c0       	rjmp	.+8      	; 0x11ba <digitalWrite+0x4c>
    11b2:	8c 91       	ld	r24, X
    11b4:	d0 95       	com	r29
    11b6:	d8 23       	and	r29, r24
    11b8:	02 c0       	rjmp	.+4      	; 0x11be <digitalWrite+0x50>
    11ba:	ec 91       	ld	r30, X
    11bc:	de 2b       	or	r29, r30
    11be:	dc 93       	st	X, r29
    11c0:	9f bf       	out	0x3f, r25	; 63
    11c2:	df 91       	pop	r29
    11c4:	cf 91       	pop	r28
    11c6:	1f 91       	pop	r17
    11c8:	08 95       	ret

000011ca <digitalRead>:
    11ca:	cf 93       	push	r28
    11cc:	df 93       	push	r29
    11ce:	28 2f       	mov	r18, r24
    11d0:	30 e0       	ldi	r19, 0x00	; 0
    11d2:	f9 01       	movw	r30, r18
    11d4:	e8 5f       	subi	r30, 0xF8	; 248
    11d6:	fe 4f       	sbci	r31, 0xFE	; 254
    11d8:	84 91       	lpm	r24, Z
    11da:	f9 01       	movw	r30, r18
    11dc:	e2 5b       	subi	r30, 0xB2	; 178
    11de:	fe 4f       	sbci	r31, 0xFE	; 254
    11e0:	d4 91       	lpm	r29, Z
    11e2:	f9 01       	movw	r30, r18
    11e4:	ec 56       	subi	r30, 0x6C	; 108
    11e6:	fe 4f       	sbci	r31, 0xFE	; 254
    11e8:	c4 91       	lpm	r28, Z
    11ea:	cc 23       	and	r28, r28
    11ec:	89 f0       	breq	.+34     	; 0x1210 <digitalRead+0x46>
    11ee:	81 11       	cpse	r24, r1
    11f0:	2c df       	rcall	.-424    	; 0x104a <turnOffPWM>
    11f2:	ec 2f       	mov	r30, r28
    11f4:	f0 e0       	ldi	r31, 0x00	; 0
    11f6:	ee 0f       	add	r30, r30
    11f8:	ff 1f       	adc	r31, r31
    11fa:	e6 52       	subi	r30, 0x26	; 38
    11fc:	fe 4f       	sbci	r31, 0xFE	; 254
    11fe:	a5 91       	lpm	r26, Z+
    1200:	b4 91       	lpm	r27, Z
    1202:	ec 91       	ld	r30, X
    1204:	ed 23       	and	r30, r29
    1206:	81 e0       	ldi	r24, 0x01	; 1
    1208:	90 e0       	ldi	r25, 0x00	; 0
    120a:	21 f4       	brne	.+8      	; 0x1214 <digitalRead+0x4a>
    120c:	80 e0       	ldi	r24, 0x00	; 0
    120e:	02 c0       	rjmp	.+4      	; 0x1214 <digitalRead+0x4a>
    1210:	80 e0       	ldi	r24, 0x00	; 0
    1212:	90 e0       	ldi	r25, 0x00	; 0
    1214:	df 91       	pop	r29
    1216:	cf 91       	pop	r28
    1218:	08 95       	ret

0000121a <_ZN6StringD1Ev>:
    121a:	fc 01       	movw	r30, r24
    121c:	80 81       	ld	r24, Z
    121e:	91 81       	ldd	r25, Z+1	; 0x01
    1220:	00 97       	sbiw	r24, 0x00	; 0
    1222:	11 f0       	breq	.+4      	; 0x1228 <_ZN6StringD1Ev+0xe>
    1224:	0c 94 10 16 	jmp	0x2c20	; 0x2c20 <free>
    1228:	08 95       	ret

0000122a <_ZN6String10invalidateEv>:
    122a:	cf 93       	push	r28
    122c:	df 93       	push	r29
    122e:	ec 01       	movw	r28, r24
    1230:	88 81       	ld	r24, Y
    1232:	99 81       	ldd	r25, Y+1	; 0x01
    1234:	00 97       	sbiw	r24, 0x00	; 0
    1236:	11 f0       	breq	.+4      	; 0x123c <_ZN6String10invalidateEv+0x12>
    1238:	0e 94 10 16 	call	0x2c20	; 0x2c20 <free>
    123c:	19 82       	std	Y+1, r1	; 0x01
    123e:	18 82       	st	Y, r1
    1240:	1d 82       	std	Y+5, r1	; 0x05
    1242:	1c 82       	std	Y+4, r1	; 0x04
    1244:	1b 82       	std	Y+3, r1	; 0x03
    1246:	1a 82       	std	Y+2, r1	; 0x02
    1248:	df 91       	pop	r29
    124a:	cf 91       	pop	r28
    124c:	08 95       	ret

0000124e <_ZN6String12changeBufferEj>:
    124e:	0f 93       	push	r16
    1250:	1f 93       	push	r17
    1252:	cf 93       	push	r28
    1254:	df 93       	push	r29
    1256:	ec 01       	movw	r28, r24
    1258:	8b 01       	movw	r16, r22
    125a:	6f 5f       	subi	r22, 0xFF	; 255
    125c:	7f 4f       	sbci	r23, 0xFF	; 255
    125e:	88 81       	ld	r24, Y
    1260:	99 81       	ldd	r25, Y+1	; 0x01
    1262:	0e 94 99 16 	call	0x2d32	; 0x2d32 <realloc>
    1266:	00 97       	sbiw	r24, 0x00	; 0
    1268:	31 f0       	breq	.+12     	; 0x1276 <_ZN6String12changeBufferEj+0x28>
    126a:	99 83       	std	Y+1, r25	; 0x01
    126c:	88 83       	st	Y, r24
    126e:	1b 83       	std	Y+3, r17	; 0x03
    1270:	0a 83       	std	Y+2, r16	; 0x02
    1272:	81 e0       	ldi	r24, 0x01	; 1
    1274:	01 c0       	rjmp	.+2      	; 0x1278 <_ZN6String12changeBufferEj+0x2a>
    1276:	80 e0       	ldi	r24, 0x00	; 0
    1278:	df 91       	pop	r29
    127a:	cf 91       	pop	r28
    127c:	1f 91       	pop	r17
    127e:	0f 91       	pop	r16
    1280:	08 95       	ret

00001282 <_ZN6String7reserveEj>:
    1282:	cf 93       	push	r28
    1284:	df 93       	push	r29
    1286:	ec 01       	movw	r28, r24
    1288:	88 81       	ld	r24, Y
    128a:	99 81       	ldd	r25, Y+1	; 0x01
    128c:	89 2b       	or	r24, r25
    128e:	29 f0       	breq	.+10     	; 0x129a <_ZN6String7reserveEj+0x18>
    1290:	8a 81       	ldd	r24, Y+2	; 0x02
    1292:	9b 81       	ldd	r25, Y+3	; 0x03
    1294:	86 17       	cp	r24, r22
    1296:	97 07       	cpc	r25, r23
    1298:	58 f4       	brcc	.+22     	; 0x12b0 <_ZN6String7reserveEj+0x2e>
    129a:	ce 01       	movw	r24, r28
    129c:	d8 df       	rcall	.-80     	; 0x124e <_ZN6String12changeBufferEj>
    129e:	88 23       	and	r24, r24
    12a0:	41 f0       	breq	.+16     	; 0x12b2 <_ZN6String7reserveEj+0x30>
    12a2:	8c 81       	ldd	r24, Y+4	; 0x04
    12a4:	9d 81       	ldd	r25, Y+5	; 0x05
    12a6:	89 2b       	or	r24, r25
    12a8:	19 f4       	brne	.+6      	; 0x12b0 <_ZN6String7reserveEj+0x2e>
    12aa:	e8 81       	ld	r30, Y
    12ac:	f9 81       	ldd	r31, Y+1	; 0x01
    12ae:	10 82       	st	Z, r1
    12b0:	81 e0       	ldi	r24, 0x01	; 1
    12b2:	df 91       	pop	r29
    12b4:	cf 91       	pop	r28
    12b6:	08 95       	ret

000012b8 <_ZN6String4copyEPKcj>:
    12b8:	ef 92       	push	r14
    12ba:	ff 92       	push	r15
    12bc:	0f 93       	push	r16
    12be:	1f 93       	push	r17
    12c0:	cf 93       	push	r28
    12c2:	df 93       	push	r29
    12c4:	ec 01       	movw	r28, r24
    12c6:	7b 01       	movw	r14, r22
    12c8:	8a 01       	movw	r16, r20
    12ca:	ba 01       	movw	r22, r20
    12cc:	da df       	rcall	.-76     	; 0x1282 <_ZN6String7reserveEj>
    12ce:	81 11       	cpse	r24, r1
    12d0:	03 c0       	rjmp	.+6      	; 0x12d8 <_ZN6String4copyEPKcj+0x20>
    12d2:	ce 01       	movw	r24, r28
    12d4:	aa df       	rcall	.-172    	; 0x122a <_ZN6String10invalidateEv>
    12d6:	07 c0       	rjmp	.+14     	; 0x12e6 <_ZN6String4copyEPKcj+0x2e>
    12d8:	1d 83       	std	Y+5, r17	; 0x05
    12da:	0c 83       	std	Y+4, r16	; 0x04
    12dc:	b7 01       	movw	r22, r14
    12de:	88 81       	ld	r24, Y
    12e0:	99 81       	ldd	r25, Y+1	; 0x01
    12e2:	0e 94 93 17 	call	0x2f26	; 0x2f26 <strcpy>
    12e6:	ce 01       	movw	r24, r28
    12e8:	df 91       	pop	r29
    12ea:	cf 91       	pop	r28
    12ec:	1f 91       	pop	r17
    12ee:	0f 91       	pop	r16
    12f0:	ff 90       	pop	r15
    12f2:	ef 90       	pop	r14
    12f4:	08 95       	ret

000012f6 <_ZN6StringC1EPKc>:
    12f6:	fc 01       	movw	r30, r24
    12f8:	11 82       	std	Z+1, r1	; 0x01
    12fa:	10 82       	st	Z, r1
    12fc:	13 82       	std	Z+3, r1	; 0x03
    12fe:	12 82       	std	Z+2, r1	; 0x02
    1300:	15 82       	std	Z+5, r1	; 0x05
    1302:	14 82       	std	Z+4, r1	; 0x04
    1304:	61 15       	cp	r22, r1
    1306:	71 05       	cpc	r23, r1
    1308:	49 f0       	breq	.+18     	; 0x131c <_ZN6StringC1EPKc+0x26>
    130a:	fb 01       	movw	r30, r22
    130c:	01 90       	ld	r0, Z+
    130e:	00 20       	and	r0, r0
    1310:	e9 f7       	brne	.-6      	; 0x130c <_ZN6StringC1EPKc+0x16>
    1312:	31 97       	sbiw	r30, 0x01	; 1
    1314:	af 01       	movw	r20, r30
    1316:	46 1b       	sub	r20, r22
    1318:	57 0b       	sbc	r21, r23
    131a:	ce cf       	rjmp	.-100    	; 0x12b8 <_ZN6String4copyEPKcj>
    131c:	08 95       	ret

0000131e <_ZN6StringaSEPKc>:
    131e:	cf 93       	push	r28
    1320:	df 93       	push	r29
    1322:	ec 01       	movw	r28, r24
    1324:	61 15       	cp	r22, r1
    1326:	71 05       	cpc	r23, r1
    1328:	51 f0       	breq	.+20     	; 0x133e <_ZN6StringaSEPKc+0x20>
    132a:	fb 01       	movw	r30, r22
    132c:	01 90       	ld	r0, Z+
    132e:	00 20       	and	r0, r0
    1330:	e9 f7       	brne	.-6      	; 0x132c <_ZN6StringaSEPKc+0xe>
    1332:	31 97       	sbiw	r30, 0x01	; 1
    1334:	af 01       	movw	r20, r30
    1336:	46 1b       	sub	r20, r22
    1338:	57 0b       	sbc	r21, r23
    133a:	be df       	rcall	.-132    	; 0x12b8 <_ZN6String4copyEPKcj>
    133c:	01 c0       	rjmp	.+2      	; 0x1340 <_ZN6StringaSEPKc+0x22>
    133e:	75 df       	rcall	.-278    	; 0x122a <_ZN6String10invalidateEv>
    1340:	ce 01       	movw	r24, r28
    1342:	df 91       	pop	r29
    1344:	cf 91       	pop	r28
    1346:	08 95       	ret

00001348 <_ZN6StringC1Eih>:
    1348:	0f 93       	push	r16
    134a:	1f 93       	push	r17
    134c:	cf 93       	push	r28
    134e:	df 93       	push	r29
    1350:	cd b7       	in	r28, 0x3d	; 61
    1352:	de b7       	in	r29, 0x3e	; 62
    1354:	62 97       	sbiw	r28, 0x12	; 18
    1356:	0f b6       	in	r0, 0x3f	; 63
    1358:	f8 94       	cli
    135a:	de bf       	out	0x3e, r29	; 62
    135c:	0f be       	out	0x3f, r0	; 63
    135e:	cd bf       	out	0x3d, r28	; 61
    1360:	8c 01       	movw	r16, r24
    1362:	cb 01       	movw	r24, r22
    1364:	f8 01       	movw	r30, r16
    1366:	11 82       	std	Z+1, r1	; 0x01
    1368:	10 82       	st	Z, r1
    136a:	13 82       	std	Z+3, r1	; 0x03
    136c:	12 82       	std	Z+2, r1	; 0x02
    136e:	15 82       	std	Z+5, r1	; 0x05
    1370:	14 82       	std	Z+4, r1	; 0x04
    1372:	50 e0       	ldi	r21, 0x00	; 0
    1374:	be 01       	movw	r22, r28
    1376:	6f 5f       	subi	r22, 0xFF	; 255
    1378:	7f 4f       	sbci	r23, 0xFF	; 255
    137a:	0e 94 b4 17 	call	0x2f68	; 0x2f68 <itoa>
    137e:	be 01       	movw	r22, r28
    1380:	6f 5f       	subi	r22, 0xFF	; 255
    1382:	7f 4f       	sbci	r23, 0xFF	; 255
    1384:	c8 01       	movw	r24, r16
    1386:	cb df       	rcall	.-106    	; 0x131e <_ZN6StringaSEPKc>
    1388:	62 96       	adiw	r28, 0x12	; 18
    138a:	0f b6       	in	r0, 0x3f	; 63
    138c:	f8 94       	cli
    138e:	de bf       	out	0x3e, r29	; 62
    1390:	0f be       	out	0x3f, r0	; 63
    1392:	cd bf       	out	0x3d, r28	; 61
    1394:	df 91       	pop	r29
    1396:	cf 91       	pop	r28
    1398:	1f 91       	pop	r17
    139a:	0f 91       	pop	r16
    139c:	08 95       	ret

0000139e <_ZNK6String11lastIndexOfERKS_j>:
    139e:	af 92       	push	r10
    13a0:	bf 92       	push	r11
    13a2:	cf 92       	push	r12
    13a4:	df 92       	push	r13
    13a6:	ef 92       	push	r14
    13a8:	ff 92       	push	r15
    13aa:	0f 93       	push	r16
    13ac:	1f 93       	push	r17
    13ae:	cf 93       	push	r28
    13b0:	df 93       	push	r29
    13b2:	7b 01       	movw	r14, r22
    13b4:	8a 01       	movw	r16, r20
    13b6:	fb 01       	movw	r30, r22
    13b8:	44 81       	ldd	r20, Z+4	; 0x04
    13ba:	55 81       	ldd	r21, Z+5	; 0x05
    13bc:	41 15       	cp	r20, r1
    13be:	51 05       	cpc	r21, r1
    13c0:	61 f1       	breq	.+88     	; 0x141a <_ZNK6String11lastIndexOfERKS_j+0x7c>
    13c2:	fc 01       	movw	r30, r24
    13c4:	24 81       	ldd	r18, Z+4	; 0x04
    13c6:	35 81       	ldd	r19, Z+5	; 0x05
    13c8:	21 15       	cp	r18, r1
    13ca:	31 05       	cpc	r19, r1
    13cc:	31 f1       	breq	.+76     	; 0x141a <_ZNK6String11lastIndexOfERKS_j+0x7c>
    13ce:	24 17       	cp	r18, r20
    13d0:	35 07       	cpc	r19, r21
    13d2:	18 f1       	brcs	.+70     	; 0x141a <_ZNK6String11lastIndexOfERKS_j+0x7c>
    13d4:	02 17       	cp	r16, r18
    13d6:	13 07       	cpc	r17, r19
    13d8:	18 f0       	brcs	.+6      	; 0x13e0 <_ZNK6String11lastIndexOfERKS_j+0x42>
    13da:	89 01       	movw	r16, r18
    13dc:	01 50       	subi	r16, 0x01	; 1
    13de:	11 09       	sbc	r17, r1
    13e0:	fc 01       	movw	r30, r24
    13e2:	a0 80       	ld	r10, Z
    13e4:	b1 80       	ldd	r11, Z+1	; 0x01
    13e6:	c5 01       	movw	r24, r10
    13e8:	df ef       	ldi	r29, 0xFF	; 255
    13ea:	cf ef       	ldi	r28, 0xFF	; 255
    13ec:	65 01       	movw	r12, r10
    13ee:	c0 0e       	add	r12, r16
    13f0:	d1 1e       	adc	r13, r17
    13f2:	c8 16       	cp	r12, r24
    13f4:	d9 06       	cpc	r13, r25
    13f6:	a0 f0       	brcs	.+40     	; 0x1420 <_ZNK6String11lastIndexOfERKS_j+0x82>
    13f8:	f7 01       	movw	r30, r14
    13fa:	60 81       	ld	r22, Z
    13fc:	71 81       	ldd	r23, Z+1	; 0x01
    13fe:	0e 94 9a 17 	call	0x2f34	; 0x2f34 <strstr>
    1402:	00 97       	sbiw	r24, 0x00	; 0
    1404:	69 f0       	breq	.+26     	; 0x1420 <_ZNK6String11lastIndexOfERKS_j+0x82>
    1406:	9c 01       	movw	r18, r24
    1408:	2a 19       	sub	r18, r10
    140a:	3b 09       	sbc	r19, r11
    140c:	02 17       	cp	r16, r18
    140e:	13 07       	cpc	r17, r19
    1410:	10 f0       	brcs	.+4      	; 0x1416 <_ZNK6String11lastIndexOfERKS_j+0x78>
    1412:	d2 2f       	mov	r29, r18
    1414:	c3 2f       	mov	r28, r19
    1416:	01 96       	adiw	r24, 0x01	; 1
    1418:	ec cf       	rjmp	.-40     	; 0x13f2 <_ZNK6String11lastIndexOfERKS_j+0x54>
    141a:	8f ef       	ldi	r24, 0xFF	; 255
    141c:	9f ef       	ldi	r25, 0xFF	; 255
    141e:	02 c0       	rjmp	.+4      	; 0x1424 <_ZNK6String11lastIndexOfERKS_j+0x86>
    1420:	8d 2f       	mov	r24, r29
    1422:	9c 2f       	mov	r25, r28
    1424:	df 91       	pop	r29
    1426:	cf 91       	pop	r28
    1428:	1f 91       	pop	r17
    142a:	0f 91       	pop	r16
    142c:	ff 90       	pop	r15
    142e:	ef 90       	pop	r14
    1430:	df 90       	pop	r13
    1432:	cf 90       	pop	r12
    1434:	bf 90       	pop	r11
    1436:	af 90       	pop	r10
    1438:	08 95       	ret

0000143a <_ZN6String7replaceERKS_S1_>:
    143a:	2f 92       	push	r2
    143c:	3f 92       	push	r3
    143e:	4f 92       	push	r4
    1440:	5f 92       	push	r5
    1442:	6f 92       	push	r6
    1444:	7f 92       	push	r7
    1446:	8f 92       	push	r8
    1448:	9f 92       	push	r9
    144a:	af 92       	push	r10
    144c:	bf 92       	push	r11
    144e:	cf 92       	push	r12
    1450:	df 92       	push	r13
    1452:	ef 92       	push	r14
    1454:	ff 92       	push	r15
    1456:	0f 93       	push	r16
    1458:	1f 93       	push	r17
    145a:	cf 93       	push	r28
    145c:	df 93       	push	r29
    145e:	fc 01       	movw	r30, r24
    1460:	44 80       	ldd	r4, Z+4	; 0x04
    1462:	55 80       	ldd	r5, Z+5	; 0x05
    1464:	41 14       	cp	r4, r1
    1466:	51 04       	cpc	r5, r1
    1468:	09 f4       	brne	.+2      	; 0x146c <_ZN6String7replaceERKS_S1_+0x32>
    146a:	cc c0       	rjmp	.+408    	; 0x1604 <_ZN6String7replaceERKS_S1_+0x1ca>
    146c:	fb 01       	movw	r30, r22
    146e:	84 80       	ldd	r8, Z+4	; 0x04
    1470:	95 80       	ldd	r9, Z+5	; 0x05
    1472:	81 14       	cp	r8, r1
    1474:	91 04       	cpc	r9, r1
    1476:	09 f4       	brne	.+2      	; 0x147a <_ZN6String7replaceERKS_S1_+0x40>
    1478:	c5 c0       	rjmp	.+394    	; 0x1604 <_ZN6String7replaceERKS_S1_+0x1ca>
    147a:	7a 01       	movw	r14, r20
    147c:	6b 01       	movw	r12, r22
    147e:	8c 01       	movw	r16, r24
    1480:	fa 01       	movw	r30, r20
    1482:	64 80       	ldd	r6, Z+4	; 0x04
    1484:	75 80       	ldd	r7, Z+5	; 0x05
    1486:	68 18       	sub	r6, r8
    1488:	79 08       	sbc	r7, r9
    148a:	fc 01       	movw	r30, r24
    148c:	c0 81       	ld	r28, Z
    148e:	d1 81       	ldd	r29, Z+1	; 0x01
    1490:	61 14       	cp	r6, r1
    1492:	71 04       	cpc	r7, r1
    1494:	b9 f4       	brne	.+46     	; 0x14c4 <_ZN6String7replaceERKS_S1_+0x8a>
    1496:	f6 01       	movw	r30, r12
    1498:	60 81       	ld	r22, Z
    149a:	71 81       	ldd	r23, Z+1	; 0x01
    149c:	ce 01       	movw	r24, r28
    149e:	0e 94 9a 17 	call	0x2f34	; 0x2f34 <strstr>
    14a2:	ec 01       	movw	r28, r24
    14a4:	00 97       	sbiw	r24, 0x00	; 0
    14a6:	09 f4       	brne	.+2      	; 0x14aa <_ZN6String7replaceERKS_S1_+0x70>
    14a8:	ad c0       	rjmp	.+346    	; 0x1604 <_ZN6String7replaceERKS_S1_+0x1ca>
    14aa:	f7 01       	movw	r30, r14
    14ac:	60 81       	ld	r22, Z
    14ae:	71 81       	ldd	r23, Z+1	; 0x01
    14b0:	44 81       	ldd	r20, Z+4	; 0x04
    14b2:	55 81       	ldd	r21, Z+5	; 0x05
    14b4:	0e 94 79 17 	call	0x2ef2	; 0x2ef2 <memcpy>
    14b8:	f7 01       	movw	r30, r14
    14ba:	84 81       	ldd	r24, Z+4	; 0x04
    14bc:	95 81       	ldd	r25, Z+5	; 0x05
    14be:	c8 0f       	add	r28, r24
    14c0:	d9 1f       	adc	r29, r25
    14c2:	e9 cf       	rjmp	.-46     	; 0x1496 <_ZN6String7replaceERKS_S1_+0x5c>
    14c4:	77 fe       	sbrs	r7, 7
    14c6:	44 c0       	rjmp	.+136    	; 0x1550 <_ZN6String7replaceERKS_S1_+0x116>
    14c8:	5e 01       	movw	r10, r28
    14ca:	f6 01       	movw	r30, r12
    14cc:	60 81       	ld	r22, Z
    14ce:	71 81       	ldd	r23, Z+1	; 0x01
    14d0:	c5 01       	movw	r24, r10
    14d2:	0e 94 9a 17 	call	0x2f34	; 0x2f34 <strstr>
    14d6:	2c 01       	movw	r4, r24
    14d8:	00 97       	sbiw	r24, 0x00	; 0
    14da:	21 f1       	breq	.+72     	; 0x1524 <_ZN6String7replaceERKS_S1_+0xea>
    14dc:	4c 01       	movw	r8, r24
    14de:	8a 18       	sub	r8, r10
    14e0:	9b 08       	sbc	r9, r11
    14e2:	a4 01       	movw	r20, r8
    14e4:	b5 01       	movw	r22, r10
    14e6:	ce 01       	movw	r24, r28
    14e8:	0e 94 79 17 	call	0x2ef2	; 0x2ef2 <memcpy>
    14ec:	c8 0d       	add	r28, r8
    14ee:	d9 1d       	adc	r29, r9
    14f0:	f7 01       	movw	r30, r14
    14f2:	60 81       	ld	r22, Z
    14f4:	71 81       	ldd	r23, Z+1	; 0x01
    14f6:	44 81       	ldd	r20, Z+4	; 0x04
    14f8:	55 81       	ldd	r21, Z+5	; 0x05
    14fa:	ce 01       	movw	r24, r28
    14fc:	0e 94 79 17 	call	0x2ef2	; 0x2ef2 <memcpy>
    1500:	f7 01       	movw	r30, r14
    1502:	84 81       	ldd	r24, Z+4	; 0x04
    1504:	95 81       	ldd	r25, Z+5	; 0x05
    1506:	c8 0f       	add	r28, r24
    1508:	d9 1f       	adc	r29, r25
    150a:	f6 01       	movw	r30, r12
    150c:	a4 80       	ldd	r10, Z+4	; 0x04
    150e:	b5 80       	ldd	r11, Z+5	; 0x05
    1510:	a4 0c       	add	r10, r4
    1512:	b5 1c       	adc	r11, r5
    1514:	f8 01       	movw	r30, r16
    1516:	84 81       	ldd	r24, Z+4	; 0x04
    1518:	95 81       	ldd	r25, Z+5	; 0x05
    151a:	86 0d       	add	r24, r6
    151c:	97 1d       	adc	r25, r7
    151e:	95 83       	std	Z+5, r25	; 0x05
    1520:	84 83       	std	Z+4, r24	; 0x04
    1522:	d3 cf       	rjmp	.-90     	; 0x14ca <_ZN6String7replaceERKS_S1_+0x90>
    1524:	b5 01       	movw	r22, r10
    1526:	ce 01       	movw	r24, r28
    1528:	df 91       	pop	r29
    152a:	cf 91       	pop	r28
    152c:	1f 91       	pop	r17
    152e:	0f 91       	pop	r16
    1530:	ff 90       	pop	r15
    1532:	ef 90       	pop	r14
    1534:	df 90       	pop	r13
    1536:	cf 90       	pop	r12
    1538:	bf 90       	pop	r11
    153a:	af 90       	pop	r10
    153c:	9f 90       	pop	r9
    153e:	8f 90       	pop	r8
    1540:	7f 90       	pop	r7
    1542:	6f 90       	pop	r6
    1544:	5f 90       	pop	r5
    1546:	4f 90       	pop	r4
    1548:	3f 90       	pop	r3
    154a:	2f 90       	pop	r2
    154c:	0c 94 93 17 	jmp	0x2f26	; 0x2f26 <strcpy>
    1550:	fb 01       	movw	r30, r22
    1552:	20 80       	ld	r2, Z
    1554:	31 80       	ldd	r3, Z+1	; 0x01
    1556:	52 01       	movw	r10, r4
    1558:	b1 01       	movw	r22, r2
    155a:	ce 01       	movw	r24, r28
    155c:	0e 94 9a 17 	call	0x2f34	; 0x2f34 <strstr>
    1560:	00 97       	sbiw	r24, 0x00	; 0
    1562:	31 f0       	breq	.+12     	; 0x1570 <_ZN6String7replaceERKS_S1_+0x136>
    1564:	ec 01       	movw	r28, r24
    1566:	c8 0d       	add	r28, r8
    1568:	d9 1d       	adc	r29, r9
    156a:	a6 0c       	add	r10, r6
    156c:	b7 1c       	adc	r11, r7
    156e:	f4 cf       	rjmp	.-24     	; 0x1558 <_ZN6String7replaceERKS_S1_+0x11e>
    1570:	a4 14       	cp	r10, r4
    1572:	b5 04       	cpc	r11, r5
    1574:	09 f4       	brne	.+2      	; 0x1578 <_ZN6String7replaceERKS_S1_+0x13e>
    1576:	46 c0       	rjmp	.+140    	; 0x1604 <_ZN6String7replaceERKS_S1_+0x1ca>
    1578:	f8 01       	movw	r30, r16
    157a:	82 81       	ldd	r24, Z+2	; 0x02
    157c:	93 81       	ldd	r25, Z+3	; 0x03
    157e:	8a 15       	cp	r24, r10
    1580:	9b 05       	cpc	r25, r11
    1582:	28 f4       	brcc	.+10     	; 0x158e <_ZN6String7replaceERKS_S1_+0x154>
    1584:	b5 01       	movw	r22, r10
    1586:	c8 01       	movw	r24, r16
    1588:	62 de       	rcall	.-828    	; 0x124e <_ZN6String12changeBufferEj>
    158a:	88 23       	and	r24, r24
    158c:	d9 f1       	breq	.+118    	; 0x1604 <_ZN6String7replaceERKS_S1_+0x1ca>
    158e:	f8 01       	movw	r30, r16
    1590:	44 81       	ldd	r20, Z+4	; 0x04
    1592:	55 81       	ldd	r21, Z+5	; 0x05
    1594:	41 50       	subi	r20, 0x01	; 1
    1596:	51 09       	sbc	r21, r1
    1598:	57 fd       	sbrc	r21, 7
    159a:	34 c0       	rjmp	.+104    	; 0x1604 <_ZN6String7replaceERKS_S1_+0x1ca>
    159c:	b6 01       	movw	r22, r12
    159e:	c8 01       	movw	r24, r16
    15a0:	fe de       	rcall	.-516    	; 0x139e <_ZNK6String11lastIndexOfERKS_j>
    15a2:	ec 01       	movw	r28, r24
    15a4:	97 fd       	sbrc	r25, 7
    15a6:	2e c0       	rjmp	.+92     	; 0x1604 <_ZN6String7replaceERKS_S1_+0x1ca>
    15a8:	f6 01       	movw	r30, r12
    15aa:	24 81       	ldd	r18, Z+4	; 0x04
    15ac:	35 81       	ldd	r19, Z+5	; 0x05
    15ae:	28 0f       	add	r18, r24
    15b0:	39 1f       	adc	r19, r25
    15b2:	f8 01       	movw	r30, r16
    15b4:	80 81       	ld	r24, Z
    15b6:	91 81       	ldd	r25, Z+1	; 0x01
    15b8:	82 0f       	add	r24, r18
    15ba:	93 1f       	adc	r25, r19
    15bc:	44 81       	ldd	r20, Z+4	; 0x04
    15be:	55 81       	ldd	r21, Z+5	; 0x05
    15c0:	42 1b       	sub	r20, r18
    15c2:	53 0b       	sbc	r21, r19
    15c4:	bc 01       	movw	r22, r24
    15c6:	86 0d       	add	r24, r6
    15c8:	97 1d       	adc	r25, r7
    15ca:	0e 94 82 17 	call	0x2f04	; 0x2f04 <memmove>
    15ce:	f8 01       	movw	r30, r16
    15d0:	84 81       	ldd	r24, Z+4	; 0x04
    15d2:	95 81       	ldd	r25, Z+5	; 0x05
    15d4:	86 0d       	add	r24, r6
    15d6:	97 1d       	adc	r25, r7
    15d8:	95 83       	std	Z+5, r25	; 0x05
    15da:	84 83       	std	Z+4, r24	; 0x04
    15dc:	20 81       	ld	r18, Z
    15de:	31 81       	ldd	r19, Z+1	; 0x01
    15e0:	f9 01       	movw	r30, r18
    15e2:	e8 0f       	add	r30, r24
    15e4:	f9 1f       	adc	r31, r25
    15e6:	10 82       	st	Z, r1
    15e8:	f8 01       	movw	r30, r16
    15ea:	80 81       	ld	r24, Z
    15ec:	91 81       	ldd	r25, Z+1	; 0x01
    15ee:	f7 01       	movw	r30, r14
    15f0:	60 81       	ld	r22, Z
    15f2:	71 81       	ldd	r23, Z+1	; 0x01
    15f4:	44 81       	ldd	r20, Z+4	; 0x04
    15f6:	55 81       	ldd	r21, Z+5	; 0x05
    15f8:	8c 0f       	add	r24, r28
    15fa:	9d 1f       	adc	r25, r29
    15fc:	0e 94 79 17 	call	0x2ef2	; 0x2ef2 <memcpy>
    1600:	ae 01       	movw	r20, r28
    1602:	c8 cf       	rjmp	.-112    	; 0x1594 <_ZN6String7replaceERKS_S1_+0x15a>
    1604:	df 91       	pop	r29
    1606:	cf 91       	pop	r28
    1608:	1f 91       	pop	r17
    160a:	0f 91       	pop	r16
    160c:	ff 90       	pop	r15
    160e:	ef 90       	pop	r14
    1610:	df 90       	pop	r13
    1612:	cf 90       	pop	r12
    1614:	bf 90       	pop	r11
    1616:	af 90       	pop	r10
    1618:	9f 90       	pop	r9
    161a:	8f 90       	pop	r8
    161c:	7f 90       	pop	r7
    161e:	6f 90       	pop	r6
    1620:	5f 90       	pop	r5
    1622:	4f 90       	pop	r4
    1624:	3f 90       	pop	r3
    1626:	2f 90       	pop	r2
    1628:	08 95       	ret

0000162a <_ZN16Adafruit_AMG88xx5writeEhPhh>:
    162a:	ef 92       	push	r14
    162c:	ff 92       	push	r15
    162e:	0f 93       	push	r16
    1630:	1f 93       	push	r17
    1632:	cf 93       	push	r28
    1634:	df 93       	push	r29
    1636:	c6 2f       	mov	r28, r22
    1638:	7a 01       	movw	r14, r20
    163a:	02 2f       	mov	r16, r18
    163c:	fc 01       	movw	r30, r24
    163e:	60 81       	ld	r22, Z
    1640:	8d e8       	ldi	r24, 0x8D	; 141
    1642:	96 e0       	ldi	r25, 0x06	; 6
    1644:	40 d5       	rcall	.+2688   	; 0x20c6 <_ZN7TwoWire17beginTransmissionEh>
    1646:	6c 2f       	mov	r22, r28
    1648:	8d e8       	ldi	r24, 0x8D	; 141
    164a:	96 e0       	ldi	r25, 0x06	; 6
    164c:	ef d4       	rcall	.+2526   	; 0x202c <_ZN7TwoWire5writeEh>
    164e:	e7 01       	movw	r28, r14
    1650:	10 e0       	ldi	r17, 0x00	; 0
    1652:	ce 01       	movw	r24, r28
    1654:	8e 19       	sub	r24, r14
    1656:	9f 09       	sbc	r25, r15
    1658:	80 17       	cp	r24, r16
    165a:	91 07       	cpc	r25, r17
    165c:	2c f4       	brge	.+10     	; 0x1668 <_ZN16Adafruit_AMG88xx5writeEhPhh+0x3e>
    165e:	69 91       	ld	r22, Y+
    1660:	8d e8       	ldi	r24, 0x8D	; 141
    1662:	96 e0       	ldi	r25, 0x06	; 6
    1664:	e3 d4       	rcall	.+2502   	; 0x202c <_ZN7TwoWire5writeEh>
    1666:	f5 cf       	rjmp	.-22     	; 0x1652 <_ZN16Adafruit_AMG88xx5writeEhPhh+0x28>
    1668:	8d e8       	ldi	r24, 0x8D	; 141
    166a:	96 e0       	ldi	r25, 0x06	; 6
    166c:	df 91       	pop	r29
    166e:	cf 91       	pop	r28
    1670:	1f 91       	pop	r17
    1672:	0f 91       	pop	r16
    1674:	ff 90       	pop	r15
    1676:	ef 90       	pop	r14
    1678:	a4 c5       	rjmp	.+2888   	; 0x21c2 <_ZN7TwoWire15endTransmissionEv>

0000167a <_ZN16Adafruit_AMG88xx6write8Ehh>:
    167a:	cf 93       	push	r28
    167c:	df 93       	push	r29
    167e:	1f 92       	push	r1
    1680:	cd b7       	in	r28, 0x3d	; 61
    1682:	de b7       	in	r29, 0x3e	; 62
    1684:	49 83       	std	Y+1, r20	; 0x01
    1686:	21 e0       	ldi	r18, 0x01	; 1
    1688:	ae 01       	movw	r20, r28
    168a:	4f 5f       	subi	r20, 0xFF	; 255
    168c:	5f 4f       	sbci	r21, 0xFF	; 255
    168e:	cd df       	rcall	.-102    	; 0x162a <_ZN16Adafruit_AMG88xx5writeEhPhh>
    1690:	0f 90       	pop	r0
    1692:	df 91       	pop	r29
    1694:	cf 91       	pop	r28
    1696:	08 95       	ret

00001698 <_ZN16Adafruit_AMG88xx16disableInterruptEv>:
    1698:	fc 01       	movw	r30, r24
    169a:	24 81       	ldd	r18, Z+4	; 0x04
    169c:	2e 7f       	andi	r18, 0xFE	; 254
    169e:	24 83       	std	Z+4, r18	; 0x04
    16a0:	21 fb       	bst	r18, 1
    16a2:	44 27       	eor	r20, r20
    16a4:	40 f9       	bld	r20, 0
    16a6:	50 e0       	ldi	r21, 0x00	; 0
    16a8:	44 0f       	add	r20, r20
    16aa:	55 1f       	adc	r21, r21
    16ac:	63 e0       	ldi	r22, 0x03	; 3
    16ae:	e5 cf       	rjmp	.-54     	; 0x167a <_ZN16Adafruit_AMG88xx6write8Ehh>

000016b0 <_ZN16Adafruit_AMG88xx5beginEh>:
    16b0:	cf 93       	push	r28
    16b2:	df 93       	push	r29
    16b4:	ec 01       	movw	r28, r24
    16b6:	68 83       	st	Y, r22
    16b8:	8d e8       	ldi	r24, 0x8D	; 141
    16ba:	96 e0       	ldi	r25, 0x06	; 6
    16bc:	f5 d4       	rcall	.+2538   	; 0x20a8 <_ZN7TwoWire5beginEv>
    16be:	19 82       	std	Y+1, r1	; 0x01
    16c0:	40 e0       	ldi	r20, 0x00	; 0
    16c2:	60 e0       	ldi	r22, 0x00	; 0
    16c4:	ce 01       	movw	r24, r28
    16c6:	d9 df       	rcall	.-78     	; 0x167a <_ZN16Adafruit_AMG88xx6write8Ehh>
    16c8:	8f e3       	ldi	r24, 0x3F	; 63
    16ca:	8a 83       	std	Y+2, r24	; 0x02
    16cc:	4f e3       	ldi	r20, 0x3F	; 63
    16ce:	61 e0       	ldi	r22, 0x01	; 1
    16d0:	ce 01       	movw	r24, r28
    16d2:	d3 df       	rcall	.-90     	; 0x167a <_ZN16Adafruit_AMG88xx6write8Ehh>
    16d4:	ce 01       	movw	r24, r28
    16d6:	e0 df       	rcall	.-64     	; 0x1698 <_ZN16Adafruit_AMG88xx16disableInterruptEv>
    16d8:	8b 81       	ldd	r24, Y+3	; 0x03
    16da:	8e 7f       	andi	r24, 0xFE	; 254
    16dc:	8b 83       	std	Y+3, r24	; 0x03
    16de:	40 e0       	ldi	r20, 0x00	; 0
    16e0:	62 e0       	ldi	r22, 0x02	; 2
    16e2:	ce 01       	movw	r24, r28
    16e4:	ca df       	rcall	.-108    	; 0x167a <_ZN16Adafruit_AMG88xx6write8Ehh>
    16e6:	64 e6       	ldi	r22, 0x64	; 100
    16e8:	70 e0       	ldi	r23, 0x00	; 0
    16ea:	80 e0       	ldi	r24, 0x00	; 0
    16ec:	90 e0       	ldi	r25, 0x00	; 0
    16ee:	06 dc       	rcall	.-2036   	; 0xefc <delay>
    16f0:	81 e0       	ldi	r24, 0x01	; 1
    16f2:	df 91       	pop	r29
    16f4:	cf 91       	pop	r28
    16f6:	08 95       	ret

000016f8 <_ZN16Adafruit_AMG88xx4readEhPhh>:
    16f8:	6f 92       	push	r6
    16fa:	7f 92       	push	r7
    16fc:	8f 92       	push	r8
    16fe:	9f 92       	push	r9
    1700:	af 92       	push	r10
    1702:	bf 92       	push	r11
    1704:	cf 92       	push	r12
    1706:	df 92       	push	r13
    1708:	ef 92       	push	r14
    170a:	ff 92       	push	r15
    170c:	0f 93       	push	r16
    170e:	1f 93       	push	r17
    1710:	cf 93       	push	r28
    1712:	df 93       	push	r29
    1714:	8c 01       	movw	r16, r24
    1716:	66 2e       	mov	r6, r22
    1718:	6a 01       	movw	r12, r20
    171a:	72 2e       	mov	r7, r18
    171c:	c0 e0       	ldi	r28, 0x00	; 0
    171e:	c7 15       	cp	r28, r7
    1720:	78 f5       	brcc	.+94     	; 0x1780 <_ZN16Adafruit_AMG88xx4readEhPhh+0x88>
    1722:	d7 2d       	mov	r29, r7
    1724:	dc 1b       	sub	r29, r28
    1726:	d1 32       	cpi	r29, 0x21	; 33
    1728:	08 f0       	brcs	.+2      	; 0x172c <_ZN16Adafruit_AMG88xx4readEhPhh+0x34>
    172a:	d0 e2       	ldi	r29, 0x20	; 32
    172c:	f8 01       	movw	r30, r16
    172e:	60 81       	ld	r22, Z
    1730:	8d e8       	ldi	r24, 0x8D	; 141
    1732:	96 e0       	ldi	r25, 0x06	; 6
    1734:	c8 d4       	rcall	.+2448   	; 0x20c6 <_ZN7TwoWire17beginTransmissionEh>
    1736:	6c 2f       	mov	r22, r28
    1738:	66 0d       	add	r22, r6
    173a:	8d e8       	ldi	r24, 0x8D	; 141
    173c:	96 e0       	ldi	r25, 0x06	; 6
    173e:	76 d4       	rcall	.+2284   	; 0x202c <_ZN7TwoWire5writeEh>
    1740:	8d e8       	ldi	r24, 0x8D	; 141
    1742:	96 e0       	ldi	r25, 0x06	; 6
    1744:	3e d5       	rcall	.+2684   	; 0x21c2 <_ZN7TwoWire15endTransmissionEv>
    1746:	4d 2f       	mov	r20, r29
    1748:	f8 01       	movw	r30, r16
    174a:	60 81       	ld	r22, Z
    174c:	8d e8       	ldi	r24, 0x8D	; 141
    174e:	96 e0       	ldi	r25, 0x06	; 6
    1750:	36 d5       	rcall	.+2668   	; 0x21be <_ZN7TwoWire11requestFromEhh>
    1752:	81 2c       	mov	r8, r1
    1754:	91 2c       	mov	r9, r1
    1756:	ad 2e       	mov	r10, r29
    1758:	b1 2c       	mov	r11, r1
    175a:	8c 2f       	mov	r24, r28
    175c:	88 0d       	add	r24, r8
    175e:	8a 14       	cp	r8, r10
    1760:	9b 04       	cpc	r9, r11
    1762:	14 f0       	brlt	.+4      	; 0x1768 <_ZN16Adafruit_AMG88xx4readEhPhh+0x70>
    1764:	cd 0f       	add	r28, r29
    1766:	db cf       	rjmp	.-74     	; 0x171e <_ZN16Adafruit_AMG88xx4readEhPhh+0x26>
    1768:	76 01       	movw	r14, r12
    176a:	e8 0e       	add	r14, r24
    176c:	f1 1c       	adc	r15, r1
    176e:	8d e8       	ldi	r24, 0x8D	; 141
    1770:	96 e0       	ldi	r25, 0x06	; 6
    1772:	d6 d3       	rcall	.+1964   	; 0x1f20 <_ZN7TwoWire4readEv>
    1774:	f7 01       	movw	r30, r14
    1776:	80 83       	st	Z, r24
    1778:	ff ef       	ldi	r31, 0xFF	; 255
    177a:	8f 1a       	sub	r8, r31
    177c:	9f 0a       	sbc	r9, r31
    177e:	ed cf       	rjmp	.-38     	; 0x175a <_ZN16Adafruit_AMG88xx4readEhPhh+0x62>
    1780:	df 91       	pop	r29
    1782:	cf 91       	pop	r28
    1784:	1f 91       	pop	r17
    1786:	0f 91       	pop	r16
    1788:	ff 90       	pop	r15
    178a:	ef 90       	pop	r14
    178c:	df 90       	pop	r13
    178e:	cf 90       	pop	r12
    1790:	bf 90       	pop	r11
    1792:	af 90       	pop	r10
    1794:	9f 90       	pop	r9
    1796:	8f 90       	pop	r8
    1798:	7f 90       	pop	r7
    179a:	6f 90       	pop	r6
    179c:	08 95       	ret

0000179e <_ZN16Adafruit_AMG88xx10readPixelsEPfh>:
    179e:	8f 92       	push	r8
    17a0:	9f 92       	push	r9
    17a2:	af 92       	push	r10
    17a4:	bf 92       	push	r11
    17a6:	cf 92       	push	r12
    17a8:	df 92       	push	r13
    17aa:	ef 92       	push	r14
    17ac:	ff 92       	push	r15
    17ae:	0f 93       	push	r16
    17b0:	1f 93       	push	r17
    17b2:	cf 93       	push	r28
    17b4:	df 93       	push	r29
    17b6:	cd b7       	in	r28, 0x3d	; 61
    17b8:	de b7       	in	r29, 0x3e	; 62
    17ba:	f6 2e       	mov	r15, r22
    17bc:	17 2f       	mov	r17, r23
    17be:	04 2f       	mov	r16, r20
    17c0:	8d b6       	in	r8, 0x3d	; 61
    17c2:	9e b6       	in	r9, 0x3e	; 62
    17c4:	24 2f       	mov	r18, r20
    17c6:	22 0f       	add	r18, r18
    17c8:	46 fd       	sbrc	r20, 6
    17ca:	20 e8       	ldi	r18, 0x80	; 128
    17cc:	4d b7       	in	r20, 0x3d	; 61
    17ce:	5e b7       	in	r21, 0x3e	; 62
    17d0:	42 1b       	sub	r20, r18
    17d2:	51 09       	sbc	r21, r1
    17d4:	0f b6       	in	r0, 0x3f	; 63
    17d6:	f8 94       	cli
    17d8:	5e bf       	out	0x3e, r21	; 62
    17da:	0f be       	out	0x3f, r0	; 63
    17dc:	4d bf       	out	0x3d, r20	; 61
    17de:	ed b7       	in	r30, 0x3d	; 61
    17e0:	fe b7       	in	r31, 0x3e	; 62
    17e2:	31 96       	adiw	r30, 0x01	; 1
    17e4:	5f 01       	movw	r10, r30
    17e6:	af 01       	movw	r20, r30
    17e8:	60 e8       	ldi	r22, 0x80	; 128
    17ea:	86 df       	rcall	.-244    	; 0x16f8 <_ZN16Adafruit_AMG88xx4readEhPhh>
    17ec:	cf 2c       	mov	r12, r15
    17ee:	d1 2e       	mov	r13, r17
    17f0:	e1 2c       	mov	r14, r1
    17f2:	f1 2c       	mov	r15, r1
    17f4:	10 e0       	ldi	r17, 0x00	; 0
    17f6:	e0 16       	cp	r14, r16
    17f8:	f1 06       	cpc	r15, r17
    17fa:	54 f5       	brge	.+84     	; 0x1850 <_ZN16Adafruit_AMG88xx10readPixelsEPfh+0xb2>
    17fc:	8e 2d       	mov	r24, r14
    17fe:	88 0f       	add	r24, r24
    1800:	f5 01       	movw	r30, r10
    1802:	e8 0f       	add	r30, r24
    1804:	f1 1d       	adc	r31, r1
    1806:	61 81       	ldd	r22, Z+1	; 0x01
    1808:	70 e0       	ldi	r23, 0x00	; 0
    180a:	76 2f       	mov	r23, r22
    180c:	66 27       	eor	r22, r22
    180e:	80 81       	ld	r24, Z
    1810:	68 2b       	or	r22, r24
    1812:	94 e0       	ldi	r25, 0x04	; 4
    1814:	66 0f       	add	r22, r22
    1816:	77 1f       	adc	r23, r23
    1818:	9a 95       	dec	r25
    181a:	e1 f7       	brne	.-8      	; 0x1814 <_ZN16Adafruit_AMG88xx10readPixelsEPfh+0x76>
    181c:	24 e0       	ldi	r18, 0x04	; 4
    181e:	75 95       	asr	r23
    1820:	67 95       	ror	r22
    1822:	2a 95       	dec	r18
    1824:	e1 f7       	brne	.-8      	; 0x181e <_ZN16Adafruit_AMG88xx10readPixelsEPfh+0x80>
    1826:	07 2e       	mov	r0, r23
    1828:	00 0c       	add	r0, r0
    182a:	88 0b       	sbc	r24, r24
    182c:	99 0b       	sbc	r25, r25
    182e:	ff d7       	rcall	.+4094   	; 0x282e <__floatsisf>
    1830:	20 e0       	ldi	r18, 0x00	; 0
    1832:	30 e0       	ldi	r19, 0x00	; 0
    1834:	40 e8       	ldi	r20, 0x80	; 128
    1836:	5e e3       	ldi	r21, 0x3E	; 62
    1838:	0e 94 cb 14 	call	0x2996	; 0x2996 <__mulsf3>
    183c:	f6 01       	movw	r30, r12
    183e:	61 93       	st	Z+, r22
    1840:	71 93       	st	Z+, r23
    1842:	81 93       	st	Z+, r24
    1844:	91 93       	st	Z+, r25
    1846:	6f 01       	movw	r12, r30
    1848:	ff ef       	ldi	r31, 0xFF	; 255
    184a:	ef 1a       	sub	r14, r31
    184c:	ff 0a       	sbc	r15, r31
    184e:	d3 cf       	rjmp	.-90     	; 0x17f6 <_ZN16Adafruit_AMG88xx10readPixelsEPfh+0x58>
    1850:	0f b6       	in	r0, 0x3f	; 63
    1852:	f8 94       	cli
    1854:	9e be       	out	0x3e, r9	; 62
    1856:	0f be       	out	0x3f, r0	; 63
    1858:	8d be       	out	0x3d, r8	; 61
    185a:	df 91       	pop	r29
    185c:	cf 91       	pop	r28
    185e:	1f 91       	pop	r17
    1860:	0f 91       	pop	r16
    1862:	ff 90       	pop	r15
    1864:	ef 90       	pop	r14
    1866:	df 90       	pop	r13
    1868:	cf 90       	pop	r12
    186a:	bf 90       	pop	r11
    186c:	af 90       	pop	r10
    186e:	9f 90       	pop	r9
    1870:	8f 90       	pop	r8
    1872:	08 95       	ret

00001874 <_ZN6HCSR04C1Eiiii>:
    1874:	af 92       	push	r10
    1876:	bf 92       	push	r11
    1878:	cf 92       	push	r12
    187a:	df 92       	push	r13
    187c:	ef 92       	push	r14
    187e:	ff 92       	push	r15
    1880:	0f 93       	push	r16
    1882:	1f 93       	push	r17
    1884:	cf 93       	push	r28
    1886:	df 93       	push	r29
    1888:	ec 01       	movw	r28, r24
    188a:	e6 2e       	mov	r14, r22
    188c:	a7 2e       	mov	r10, r23
    188e:	f4 2e       	mov	r15, r20
    1890:	b5 2e       	mov	r11, r21
    1892:	69 01       	movw	r12, r18
    1894:	8f ef       	ldi	r24, 0xFF	; 255
    1896:	9f ef       	ldi	r25, 0xFF	; 255
    1898:	9d 83       	std	Y+5, r25	; 0x05
    189a:	8c 83       	std	Y+4, r24	; 0x04
    189c:	9f 83       	std	Y+7, r25	; 0x07
    189e:	8e 83       	std	Y+6, r24	; 0x06
    18a0:	61 e0       	ldi	r22, 0x01	; 1
    18a2:	8e 2d       	mov	r24, r14
    18a4:	28 dc       	rcall	.-1968   	; 0x10f6 <pinMode>
    18a6:	60 e0       	ldi	r22, 0x00	; 0
    18a8:	8f 2d       	mov	r24, r15
    18aa:	25 dc       	rcall	.-1974   	; 0x10f6 <pinMode>
    18ac:	e8 82       	st	Y, r14
    18ae:	a9 82       	std	Y+1, r10	; 0x01
    18b0:	fa 82       	std	Y+2, r15	; 0x02
    18b2:	bb 82       	std	Y+3, r11	; 0x03
    18b4:	dd 82       	std	Y+5, r13	; 0x05
    18b6:	cc 82       	std	Y+4, r12	; 0x04
    18b8:	1f 83       	std	Y+7, r17	; 0x07
    18ba:	0e 83       	std	Y+6, r16	; 0x06
    18bc:	df 91       	pop	r29
    18be:	cf 91       	pop	r28
    18c0:	1f 91       	pop	r17
    18c2:	0f 91       	pop	r16
    18c4:	ff 90       	pop	r15
    18c6:	ef 90       	pop	r14
    18c8:	df 90       	pop	r13
    18ca:	cf 90       	pop	r12
    18cc:	bf 90       	pop	r11
    18ce:	af 90       	pop	r10
    18d0:	08 95       	ret

000018d2 <_ZN6HCSR0418echoInMicrosecondsEv>:
    18d2:	cf 92       	push	r12
    18d4:	df 92       	push	r13
    18d6:	ef 92       	push	r14
    18d8:	ff 92       	push	r15
    18da:	cf 93       	push	r28
    18dc:	df 93       	push	r29
    18de:	ec 01       	movw	r28, r24
    18e0:	60 e0       	ldi	r22, 0x00	; 0
    18e2:	88 81       	ld	r24, Y
    18e4:	44 dc       	rcall	.-1912   	; 0x116e <digitalWrite>
    18e6:	85 e0       	ldi	r24, 0x05	; 5
    18e8:	90 e0       	ldi	r25, 0x00	; 0
    18ea:	42 db       	rcall	.-2428   	; 0xf70 <delayMicroseconds>
    18ec:	61 e0       	ldi	r22, 0x01	; 1
    18ee:	88 81       	ld	r24, Y
    18f0:	3e dc       	rcall	.-1924   	; 0x116e <digitalWrite>
    18f2:	8a e0       	ldi	r24, 0x0A	; 10
    18f4:	90 e0       	ldi	r25, 0x00	; 0
    18f6:	3c db       	rcall	.-2440   	; 0xf70 <delayMicroseconds>
    18f8:	60 e0       	ldi	r22, 0x00	; 0
    18fa:	88 81       	ld	r24, Y
    18fc:	38 dc       	rcall	.-1936   	; 0x116e <digitalWrite>
    18fe:	8a 81       	ldd	r24, Y+2	; 0x02
    1900:	64 dc       	rcall	.-1848   	; 0x11ca <digitalRead>
    1902:	89 2b       	or	r24, r25
    1904:	e1 f3       	breq	.-8      	; 0x18fe <_ZN6HCSR0418echoInMicrosecondsEv+0x2c>
    1906:	d5 da       	rcall	.-2646   	; 0xeb2 <micros>
    1908:	6b 01       	movw	r12, r22
    190a:	7c 01       	movw	r14, r24
    190c:	8a 81       	ldd	r24, Y+2	; 0x02
    190e:	5d dc       	rcall	.-1862   	; 0x11ca <digitalRead>
    1910:	01 97       	sbiw	r24, 0x01	; 1
    1912:	e1 f3       	breq	.-8      	; 0x190c <_ZN6HCSR0418echoInMicrosecondsEv+0x3a>
    1914:	ce da       	rcall	.-2660   	; 0xeb2 <micros>
    1916:	cb 01       	movw	r24, r22
    1918:	8c 19       	sub	r24, r12
    191a:	9d 09       	sbc	r25, r13
    191c:	df 91       	pop	r29
    191e:	cf 91       	pop	r28
    1920:	ff 90       	pop	r15
    1922:	ef 90       	pop	r14
    1924:	df 90       	pop	r13
    1926:	cf 90       	pop	r12
    1928:	08 95       	ret

0000192a <_ZN6HCSR0421distanceInMillimetersEv>:
    192a:	cf 93       	push	r28
    192c:	df 93       	push	r29
    192e:	ec 01       	movw	r28, r24
    1930:	d0 df       	rcall	.-96     	; 0x18d2 <_ZN6HCSR0418echoInMicrosecondsEv>
    1932:	97 fd       	sbrc	r25, 7
    1934:	01 96       	adiw	r24, 0x01	; 1
    1936:	bc 01       	movw	r22, r24
    1938:	75 95       	asr	r23
    193a:	67 95       	ror	r22
    193c:	07 2e       	mov	r0, r23
    193e:	00 0c       	add	r0, r0
    1940:	88 0b       	sbc	r24, r24
    1942:	99 0b       	sbc	r25, r25
    1944:	74 d7       	rcall	.+3816   	; 0x282e <__floatsisf>
    1946:	27 ee       	ldi	r18, 0xE7	; 231
    1948:	3b ef       	ldi	r19, 0xFB	; 251
    194a:	49 ea       	ldi	r20, 0xA9	; 169
    194c:	5e e3       	ldi	r21, 0x3E	; 62
    194e:	0e 94 cb 14 	call	0x2996	; 0x2996 <__mulsf3>
    1952:	3a d7       	rcall	.+3700   	; 0x27c8 <__fixsfsi>
    1954:	9b 01       	movw	r18, r22
    1956:	4c 81       	ldd	r20, Y+4	; 0x04
    1958:	5d 81       	ldd	r21, Y+5	; 0x05
    195a:	4f 3f       	cpi	r20, 0xFF	; 255
    195c:	af ef       	ldi	r26, 0xFF	; 255
    195e:	5a 07       	cpc	r21, r26
    1960:	21 f4       	brne	.+8      	; 0x196a <_ZN6HCSR0421distanceInMillimetersEv+0x40>
    1962:	ee 81       	ldd	r30, Y+6	; 0x06
    1964:	ff 81       	ldd	r31, Y+7	; 0x07
    1966:	31 96       	adiw	r30, 0x01	; 1
    1968:	59 f0       	breq	.+22     	; 0x1980 <_ZN6HCSR0421distanceInMillimetersEv+0x56>
    196a:	42 17       	cp	r20, r18
    196c:	53 07       	cpc	r21, r19
    196e:	2c f4       	brge	.+10     	; 0x197a <_ZN6HCSR0421distanceInMillimetersEv+0x50>
    1970:	4e 81       	ldd	r20, Y+6	; 0x06
    1972:	5f 81       	ldd	r21, Y+7	; 0x07
    1974:	24 17       	cp	r18, r20
    1976:	35 07       	cpc	r19, r21
    1978:	1c f0       	brlt	.+6      	; 0x1980 <_ZN6HCSR0421distanceInMillimetersEv+0x56>
    197a:	8f ef       	ldi	r24, 0xFF	; 255
    197c:	9f ef       	ldi	r25, 0xFF	; 255
    197e:	01 c0       	rjmp	.+2      	; 0x1982 <_ZN6HCSR0421distanceInMillimetersEv+0x58>
    1980:	cb 01       	movw	r24, r22
    1982:	df 91       	pop	r29
    1984:	cf 91       	pop	r28
    1986:	08 95       	ret

00001988 <_ZN6HCSR048ToStringEv>:
    1988:	ef 92       	push	r14
    198a:	ff 92       	push	r15
    198c:	0f 93       	push	r16
    198e:	1f 93       	push	r17
    1990:	cf 93       	push	r28
    1992:	df 93       	push	r29
    1994:	cd b7       	in	r28, 0x3d	; 61
    1996:	de b7       	in	r29, 0x3e	; 62
    1998:	2c 97       	sbiw	r28, 0x0c	; 12
    199a:	0f b6       	in	r0, 0x3f	; 63
    199c:	f8 94       	cli
    199e:	de bf       	out	0x3e, r29	; 62
    19a0:	0f be       	out	0x3f, r0	; 63
    19a2:	cd bf       	out	0x3d, r28	; 61
    19a4:	8c 01       	movw	r16, r24
    19a6:	7b 01       	movw	r14, r22
    19a8:	61 e1       	ldi	r22, 0x11	; 17
    19aa:	73 e0       	ldi	r23, 0x03	; 3
    19ac:	a4 dc       	rcall	.-1720   	; 0x12f6 <_ZN6StringC1EPKc>
    19ae:	c7 01       	movw	r24, r14
    19b0:	bc df       	rcall	.-136    	; 0x192a <_ZN6HCSR0421distanceInMillimetersEv>
    19b2:	4a e0       	ldi	r20, 0x0A	; 10
    19b4:	bc 01       	movw	r22, r24
    19b6:	ce 01       	movw	r24, r28
    19b8:	07 96       	adiw	r24, 0x07	; 7
    19ba:	c6 dc       	rcall	.-1652   	; 0x1348 <_ZN6StringC1Eih>
    19bc:	6a e7       	ldi	r22, 0x7A	; 122
    19be:	73 e0       	ldi	r23, 0x03	; 3
    19c0:	ce 01       	movw	r24, r28
    19c2:	01 96       	adiw	r24, 0x01	; 1
    19c4:	98 dc       	rcall	.-1744   	; 0x12f6 <_ZN6StringC1EPKc>
    19c6:	ae 01       	movw	r20, r28
    19c8:	49 5f       	subi	r20, 0xF9	; 249
    19ca:	5f 4f       	sbci	r21, 0xFF	; 255
    19cc:	be 01       	movw	r22, r28
    19ce:	6f 5f       	subi	r22, 0xFF	; 255
    19d0:	7f 4f       	sbci	r23, 0xFF	; 255
    19d2:	c8 01       	movw	r24, r16
    19d4:	32 dd       	rcall	.-1436   	; 0x143a <_ZN6String7replaceERKS_S1_>
    19d6:	ce 01       	movw	r24, r28
    19d8:	01 96       	adiw	r24, 0x01	; 1
    19da:	1f dc       	rcall	.-1986   	; 0x121a <_ZN6StringD1Ev>
    19dc:	ce 01       	movw	r24, r28
    19de:	07 96       	adiw	r24, 0x07	; 7
    19e0:	1c dc       	rcall	.-1992   	; 0x121a <_ZN6StringD1Ev>
    19e2:	c8 01       	movw	r24, r16
    19e4:	2c 96       	adiw	r28, 0x0c	; 12
    19e6:	0f b6       	in	r0, 0x3f	; 63
    19e8:	f8 94       	cli
    19ea:	de bf       	out	0x3e, r29	; 62
    19ec:	0f be       	out	0x3f, r0	; 63
    19ee:	cd bf       	out	0x3d, r28	; 61
    19f0:	df 91       	pop	r29
    19f2:	cf 91       	pop	r28
    19f4:	1f 91       	pop	r17
    19f6:	0f 91       	pop	r16
    19f8:	ff 90       	pop	r15
    19fa:	ef 90       	pop	r14
    19fc:	08 95       	ret

000019fe <_ZN14SoftwareSerial4readEv>:
    19fe:	20 91 8b 06 	lds	r18, 0x068B	; 0x80068b <_ZN14SoftwareSerial13active_objectE>
    1a02:	30 91 8c 06 	lds	r19, 0x068C	; 0x80068c <_ZN14SoftwareSerial13active_objectE+0x1>
    1a06:	28 17       	cp	r18, r24
    1a08:	39 07       	cpc	r19, r25
    1a0a:	a9 f4       	brne	.+42     	; 0x1a36 <_ZN14SoftwareSerial4readEv+0x38>
    1a0c:	90 91 89 05 	lds	r25, 0x0589	; 0x800589 <_ZN14SoftwareSerial20_receive_buffer_headE>
    1a10:	80 91 8a 05 	lds	r24, 0x058A	; 0x80058a <_ZN14SoftwareSerial20_receive_buffer_tailE>
    1a14:	98 17       	cp	r25, r24
    1a16:	79 f0       	breq	.+30     	; 0x1a36 <_ZN14SoftwareSerial4readEv+0x38>
    1a18:	e0 91 89 05 	lds	r30, 0x0589	; 0x800589 <_ZN14SoftwareSerial20_receive_buffer_headE>
    1a1c:	f0 e0       	ldi	r31, 0x00	; 0
    1a1e:	e5 57       	subi	r30, 0x75	; 117
    1a20:	fa 4f       	sbci	r31, 0xFA	; 250
    1a22:	80 81       	ld	r24, Z
    1a24:	20 91 89 05 	lds	r18, 0x0589	; 0x800589 <_ZN14SoftwareSerial20_receive_buffer_headE>
    1a28:	30 e0       	ldi	r19, 0x00	; 0
    1a2a:	2f 5f       	subi	r18, 0xFF	; 255
    1a2c:	3f 4f       	sbci	r19, 0xFF	; 255
    1a2e:	20 93 89 05 	sts	0x0589, r18	; 0x800589 <_ZN14SoftwareSerial20_receive_buffer_headE>
    1a32:	90 e0       	ldi	r25, 0x00	; 0
    1a34:	08 95       	ret
    1a36:	8f ef       	ldi	r24, 0xFF	; 255
    1a38:	9f ef       	ldi	r25, 0xFF	; 255
    1a3a:	08 95       	ret

00001a3c <_ZN14SoftwareSerial5writeEh>:
    1a3c:	1f 93       	push	r17
    1a3e:	cf 93       	push	r28
    1a40:	df 93       	push	r29
    1a42:	dc 01       	movw	r26, r24
    1a44:	5c 96       	adiw	r26, 0x1c	; 28
    1a46:	8d 91       	ld	r24, X+
    1a48:	9c 91       	ld	r25, X
    1a4a:	5d 97       	sbiw	r26, 0x1d	; 29
    1a4c:	00 97       	sbiw	r24, 0x00	; 0
    1a4e:	39 f4       	brne	.+14     	; 0x1a5e <_ZN14SoftwareSerial5writeEh+0x22>
    1a50:	21 e0       	ldi	r18, 0x01	; 1
    1a52:	30 e0       	ldi	r19, 0x00	; 0
    1a54:	13 96       	adiw	r26, 0x03	; 3
    1a56:	3c 93       	st	X, r19
    1a58:	2e 93       	st	-X, r18
    1a5a:	12 97       	sbiw	r26, 0x02	; 2
    1a5c:	3b c0       	rjmp	.+118    	; 0x1ad4 <_ZN14SoftwareSerial5writeEh+0x98>
    1a5e:	51 96       	adiw	r26, 0x11	; 17
    1a60:	ed 91       	ld	r30, X+
    1a62:	fc 91       	ld	r31, X
    1a64:	52 97       	sbiw	r26, 0x12	; 18
    1a66:	50 96       	adiw	r26, 0x10	; 16
    1a68:	2c 91       	ld	r18, X
    1a6a:	50 97       	sbiw	r26, 0x10	; 16
    1a6c:	32 2f       	mov	r19, r18
    1a6e:	30 95       	com	r19
    1a70:	1f b7       	in	r17, 0x3f	; 63
    1a72:	5e 96       	adiw	r26, 0x1e	; 30
    1a74:	4c 91       	ld	r20, X
    1a76:	5e 97       	sbiw	r26, 0x1e	; 30
    1a78:	74 2f       	mov	r23, r20
    1a7a:	72 70       	andi	r23, 0x02	; 2
    1a7c:	41 fd       	sbrc	r20, 1
    1a7e:	60 95       	com	r22
    1a80:	f8 94       	cli
    1a82:	40 81       	ld	r20, Z
    1a84:	77 23       	and	r23, r23
    1a86:	11 f0       	breq	.+4      	; 0x1a8c <_ZN14SoftwareSerial5writeEh+0x50>
    1a88:	42 2b       	or	r20, r18
    1a8a:	01 c0       	rjmp	.+2      	; 0x1a8e <_ZN14SoftwareSerial5writeEh+0x52>
    1a8c:	43 23       	and	r20, r19
    1a8e:	40 83       	st	Z, r20
    1a90:	ec 01       	movw	r28, r24
    1a92:	21 97       	sbiw	r28, 0x01	; 1
    1a94:	f1 f7       	brne	.-4      	; 0x1a92 <_ZN14SoftwareSerial5writeEh+0x56>
    1a96:	48 e0       	ldi	r20, 0x08	; 8
    1a98:	50 81       	ld	r21, Z
    1a9a:	60 ff       	sbrs	r22, 0
    1a9c:	02 c0       	rjmp	.+4      	; 0x1aa2 <_ZN14SoftwareSerial5writeEh+0x66>
    1a9e:	52 2b       	or	r21, r18
    1aa0:	01 c0       	rjmp	.+2      	; 0x1aa4 <_ZN14SoftwareSerial5writeEh+0x68>
    1aa2:	53 23       	and	r21, r19
    1aa4:	50 83       	st	Z, r21
    1aa6:	ec 01       	movw	r28, r24
    1aa8:	21 97       	sbiw	r28, 0x01	; 1
    1aaa:	f1 f7       	brne	.-4      	; 0x1aa8 <_ZN14SoftwareSerial5writeEh+0x6c>
    1aac:	66 95       	lsr	r22
    1aae:	41 50       	subi	r20, 0x01	; 1
    1ab0:	99 f7       	brne	.-26     	; 0x1a98 <_ZN14SoftwareSerial5writeEh+0x5c>
    1ab2:	80 81       	ld	r24, Z
    1ab4:	77 23       	and	r23, r23
    1ab6:	19 f0       	breq	.+6      	; 0x1abe <_ZN14SoftwareSerial5writeEh+0x82>
    1ab8:	83 23       	and	r24, r19
    1aba:	80 83       	st	Z, r24
    1abc:	02 c0       	rjmp	.+4      	; 0x1ac2 <_ZN14SoftwareSerial5writeEh+0x86>
    1abe:	28 2b       	or	r18, r24
    1ac0:	20 83       	st	Z, r18
    1ac2:	1f bf       	out	0x3f, r17	; 63
    1ac4:	5c 96       	adiw	r26, 0x1c	; 28
    1ac6:	8d 91       	ld	r24, X+
    1ac8:	9c 91       	ld	r25, X
    1aca:	5d 97       	sbiw	r26, 0x1d	; 29
    1acc:	01 97       	sbiw	r24, 0x01	; 1
    1ace:	f1 f7       	brne	.-4      	; 0x1acc <_ZN14SoftwareSerial5writeEh+0x90>
    1ad0:	81 e0       	ldi	r24, 0x01	; 1
    1ad2:	90 e0       	ldi	r25, 0x00	; 0
    1ad4:	df 91       	pop	r29
    1ad6:	cf 91       	pop	r28
    1ad8:	1f 91       	pop	r17
    1ada:	08 95       	ret

00001adc <_ZN14SoftwareSerial5flushEv>:
    1adc:	08 95       	ret

00001ade <_ZN14SoftwareSerial4peekEv>:
    1ade:	20 91 8b 06 	lds	r18, 0x068B	; 0x80068b <_ZN14SoftwareSerial13active_objectE>
    1ae2:	30 91 8c 06 	lds	r19, 0x068C	; 0x80068c <_ZN14SoftwareSerial13active_objectE+0x1>
    1ae6:	28 17       	cp	r18, r24
    1ae8:	39 07       	cpc	r19, r25
    1aea:	71 f4       	brne	.+28     	; 0x1b08 <_ZN14SoftwareSerial4peekEv+0x2a>
    1aec:	90 91 89 05 	lds	r25, 0x0589	; 0x800589 <_ZN14SoftwareSerial20_receive_buffer_headE>
    1af0:	80 91 8a 05 	lds	r24, 0x058A	; 0x80058a <_ZN14SoftwareSerial20_receive_buffer_tailE>
    1af4:	98 17       	cp	r25, r24
    1af6:	41 f0       	breq	.+16     	; 0x1b08 <_ZN14SoftwareSerial4peekEv+0x2a>
    1af8:	e0 91 89 05 	lds	r30, 0x0589	; 0x800589 <_ZN14SoftwareSerial20_receive_buffer_headE>
    1afc:	f0 e0       	ldi	r31, 0x00	; 0
    1afe:	e5 57       	subi	r30, 0x75	; 117
    1b00:	fa 4f       	sbci	r31, 0xFA	; 250
    1b02:	80 81       	ld	r24, Z
    1b04:	90 e0       	ldi	r25, 0x00	; 0
    1b06:	08 95       	ret
    1b08:	8f ef       	ldi	r24, 0xFF	; 255
    1b0a:	9f ef       	ldi	r25, 0xFF	; 255
    1b0c:	08 95       	ret

00001b0e <_ZN14SoftwareSerial9availableEv>:
    1b0e:	20 91 8b 06 	lds	r18, 0x068B	; 0x80068b <_ZN14SoftwareSerial13active_objectE>
    1b12:	30 91 8c 06 	lds	r19, 0x068C	; 0x80068c <_ZN14SoftwareSerial13active_objectE+0x1>
    1b16:	28 17       	cp	r18, r24
    1b18:	39 07       	cpc	r19, r25
    1b1a:	39 f4       	brne	.+14     	; 0x1b2a <_ZN14SoftwareSerial9availableEv+0x1c>
    1b1c:	80 91 8a 05 	lds	r24, 0x058A	; 0x80058a <_ZN14SoftwareSerial20_receive_buffer_tailE>
    1b20:	90 91 89 05 	lds	r25, 0x0589	; 0x800589 <_ZN14SoftwareSerial20_receive_buffer_headE>
    1b24:	89 1b       	sub	r24, r25
    1b26:	90 e0       	ldi	r25, 0x00	; 0
    1b28:	08 95       	ret
    1b2a:	80 e0       	ldi	r24, 0x00	; 0
    1b2c:	90 e0       	ldi	r25, 0x00	; 0
    1b2e:	08 95       	ret

00001b30 <_ZN14SoftwareSerial13stopListeningEv>:
    1b30:	e0 91 8b 06 	lds	r30, 0x068B	; 0x80068b <_ZN14SoftwareSerial13active_objectE>
    1b34:	f0 91 8c 06 	lds	r31, 0x068C	; 0x80068c <_ZN14SoftwareSerial13active_objectE+0x1>
    1b38:	e8 17       	cp	r30, r24
    1b3a:	f9 07       	cpc	r31, r25
    1b3c:	69 f4       	brne	.+26     	; 0x1b58 <_ZN14SoftwareSerial13stopListeningEv+0x28>
    1b3e:	a3 89       	ldd	r26, Z+19	; 0x13
    1b40:	b4 89       	ldd	r27, Z+20	; 0x14
    1b42:	9c 91       	ld	r25, X
    1b44:	85 89       	ldd	r24, Z+21	; 0x15
    1b46:	80 95       	com	r24
    1b48:	89 23       	and	r24, r25
    1b4a:	8c 93       	st	X, r24
    1b4c:	10 92 8c 06 	sts	0x068C, r1	; 0x80068c <_ZN14SoftwareSerial13active_objectE+0x1>
    1b50:	10 92 8b 06 	sts	0x068B, r1	; 0x80068b <_ZN14SoftwareSerial13active_objectE>
    1b54:	81 e0       	ldi	r24, 0x01	; 1
    1b56:	08 95       	ret
    1b58:	80 e0       	ldi	r24, 0x00	; 0
    1b5a:	08 95       	ret

00001b5c <_ZN14SoftwareSerial6listenEv>:
    1b5c:	cf 93       	push	r28
    1b5e:	df 93       	push	r29
    1b60:	ec 01       	movw	r28, r24
    1b62:	8a 8d       	ldd	r24, Y+26	; 0x1a
    1b64:	9b 8d       	ldd	r25, Y+27	; 0x1b
    1b66:	89 2b       	or	r24, r25
    1b68:	e9 f0       	breq	.+58     	; 0x1ba4 <_ZN14SoftwareSerial6listenEv+0x48>
    1b6a:	80 91 8b 06 	lds	r24, 0x068B	; 0x80068b <_ZN14SoftwareSerial13active_objectE>
    1b6e:	90 91 8c 06 	lds	r25, 0x068C	; 0x80068c <_ZN14SoftwareSerial13active_objectE+0x1>
    1b72:	c8 17       	cp	r28, r24
    1b74:	d9 07       	cpc	r29, r25
    1b76:	b1 f0       	breq	.+44     	; 0x1ba4 <_ZN14SoftwareSerial6listenEv+0x48>
    1b78:	00 97       	sbiw	r24, 0x00	; 0
    1b7a:	09 f0       	breq	.+2      	; 0x1b7e <_ZN14SoftwareSerial6listenEv+0x22>
    1b7c:	d9 df       	rcall	.-78     	; 0x1b30 <_ZN14SoftwareSerial13stopListeningEv>
    1b7e:	8e 8d       	ldd	r24, Y+30	; 0x1e
    1b80:	8e 7f       	andi	r24, 0xFE	; 254
    1b82:	8e 8f       	std	Y+30, r24	; 0x1e
    1b84:	10 92 8a 05 	sts	0x058A, r1	; 0x80058a <_ZN14SoftwareSerial20_receive_buffer_tailE>
    1b88:	10 92 89 05 	sts	0x0589, r1	; 0x800589 <_ZN14SoftwareSerial20_receive_buffer_headE>
    1b8c:	d0 93 8c 06 	sts	0x068C, r29	; 0x80068c <_ZN14SoftwareSerial13active_objectE+0x1>
    1b90:	c0 93 8b 06 	sts	0x068B, r28	; 0x80068b <_ZN14SoftwareSerial13active_objectE>
    1b94:	eb 89       	ldd	r30, Y+19	; 0x13
    1b96:	fc 89       	ldd	r31, Y+20	; 0x14
    1b98:	90 81       	ld	r25, Z
    1b9a:	8d 89       	ldd	r24, Y+21	; 0x15
    1b9c:	89 2b       	or	r24, r25
    1b9e:	80 83       	st	Z, r24
    1ba0:	81 e0       	ldi	r24, 0x01	; 1
    1ba2:	01 c0       	rjmp	.+2      	; 0x1ba6 <_ZN14SoftwareSerial6listenEv+0x4a>
    1ba4:	80 e0       	ldi	r24, 0x00	; 0
    1ba6:	df 91       	pop	r29
    1ba8:	cf 91       	pop	r28
    1baa:	08 95       	ret

00001bac <__vector_10>:
    1bac:	1f 92       	push	r1
    1bae:	0f 92       	push	r0
    1bb0:	0f b6       	in	r0, 0x3f	; 63
    1bb2:	0f 92       	push	r0
    1bb4:	11 24       	eor	r1, r1
    1bb6:	0b b6       	in	r0, 0x3b	; 59
    1bb8:	0f 92       	push	r0
    1bba:	2f 93       	push	r18
    1bbc:	3f 93       	push	r19
    1bbe:	4f 93       	push	r20
    1bc0:	5f 93       	push	r21
    1bc2:	6f 93       	push	r22
    1bc4:	7f 93       	push	r23
    1bc6:	8f 93       	push	r24
    1bc8:	9f 93       	push	r25
    1bca:	af 93       	push	r26
    1bcc:	bf 93       	push	r27
    1bce:	ef 93       	push	r30
    1bd0:	ff 93       	push	r31
    1bd2:	e0 91 8b 06 	lds	r30, 0x068B	; 0x80068b <_ZN14SoftwareSerial13active_objectE>
    1bd6:	f0 91 8c 06 	lds	r31, 0x068C	; 0x80068c <_ZN14SoftwareSerial13active_objectE+0x1>
    1bda:	30 97       	sbiw	r30, 0x00	; 0
    1bdc:	09 f4       	brne	.+2      	; 0x1be0 <__vector_10+0x34>
    1bde:	4f c0       	rjmp	.+158    	; 0x1c7e <__vector_10+0xd2>
    1be0:	96 8d       	ldd	r25, Z+30	; 0x1e
    1be2:	a6 85       	ldd	r26, Z+14	; 0x0e
    1be4:	b7 85       	ldd	r27, Z+15	; 0x0f
    1be6:	85 85       	ldd	r24, Z+13	; 0x0d
    1be8:	91 ff       	sbrs	r25, 1
    1bea:	04 c0       	rjmp	.+8      	; 0x1bf4 <__vector_10+0x48>
    1bec:	9c 91       	ld	r25, X
    1bee:	89 23       	and	r24, r25
    1bf0:	29 f4       	brne	.+10     	; 0x1bfc <__vector_10+0x50>
    1bf2:	45 c0       	rjmp	.+138    	; 0x1c7e <__vector_10+0xd2>
    1bf4:	9c 91       	ld	r25, X
    1bf6:	89 23       	and	r24, r25
    1bf8:	09 f0       	breq	.+2      	; 0x1bfc <__vector_10+0x50>
    1bfa:	41 c0       	rjmp	.+130    	; 0x1c7e <__vector_10+0xd2>
    1bfc:	a3 89       	ldd	r26, Z+19	; 0x13
    1bfe:	b4 89       	ldd	r27, Z+20	; 0x14
    1c00:	9c 91       	ld	r25, X
    1c02:	85 89       	ldd	r24, Z+21	; 0x15
    1c04:	80 95       	com	r24
    1c06:	89 23       	and	r24, r25
    1c08:	8c 93       	st	X, r24
    1c0a:	86 89       	ldd	r24, Z+22	; 0x16
    1c0c:	97 89       	ldd	r25, Z+23	; 0x17
    1c0e:	01 97       	sbiw	r24, 0x01	; 1
    1c10:	f1 f7       	brne	.-4      	; 0x1c0e <__vector_10+0x62>
    1c12:	60 8d       	ldd	r22, Z+24	; 0x18
    1c14:	71 8d       	ldd	r23, Z+25	; 0x19
    1c16:	a6 85       	ldd	r26, Z+14	; 0x0e
    1c18:	b7 85       	ldd	r27, Z+15	; 0x0f
    1c1a:	55 85       	ldd	r21, Z+13	; 0x0d
    1c1c:	38 e0       	ldi	r19, 0x08	; 8
    1c1e:	20 e0       	ldi	r18, 0x00	; 0
    1c20:	cb 01       	movw	r24, r22
    1c22:	01 97       	sbiw	r24, 0x01	; 1
    1c24:	f1 f7       	brne	.-4      	; 0x1c22 <__vector_10+0x76>
    1c26:	82 2f       	mov	r24, r18
    1c28:	90 e0       	ldi	r25, 0x00	; 0
    1c2a:	95 95       	asr	r25
    1c2c:	87 95       	ror	r24
    1c2e:	28 2f       	mov	r18, r24
    1c30:	4c 91       	ld	r20, X
    1c32:	45 23       	and	r20, r21
    1c34:	09 f0       	breq	.+2      	; 0x1c38 <__vector_10+0x8c>
    1c36:	20 68       	ori	r18, 0x80	; 128
    1c38:	31 50       	subi	r19, 0x01	; 1
    1c3a:	91 f7       	brne	.-28     	; 0x1c20 <__vector_10+0x74>
    1c3c:	86 8d       	ldd	r24, Z+30	; 0x1e
    1c3e:	81 fd       	sbrc	r24, 1
    1c40:	20 95       	com	r18
    1c42:	80 91 8a 05 	lds	r24, 0x058A	; 0x80058a <_ZN14SoftwareSerial20_receive_buffer_tailE>
    1c46:	90 e0       	ldi	r25, 0x00	; 0
    1c48:	01 96       	adiw	r24, 0x01	; 1
    1c4a:	30 91 89 05 	lds	r19, 0x0589	; 0x800589 <_ZN14SoftwareSerial20_receive_buffer_headE>
    1c4e:	38 17       	cp	r19, r24
    1c50:	49 f0       	breq	.+18     	; 0x1c64 <__vector_10+0xb8>
    1c52:	a0 91 8a 05 	lds	r26, 0x058A	; 0x80058a <_ZN14SoftwareSerial20_receive_buffer_tailE>
    1c56:	b0 e0       	ldi	r27, 0x00	; 0
    1c58:	a5 57       	subi	r26, 0x75	; 117
    1c5a:	ba 4f       	sbci	r27, 0xFA	; 250
    1c5c:	2c 93       	st	X, r18
    1c5e:	80 93 8a 05 	sts	0x058A, r24	; 0x80058a <_ZN14SoftwareSerial20_receive_buffer_tailE>
    1c62:	03 c0       	rjmp	.+6      	; 0x1c6a <__vector_10+0xbe>
    1c64:	86 8d       	ldd	r24, Z+30	; 0x1e
    1c66:	81 60       	ori	r24, 0x01	; 1
    1c68:	86 8f       	std	Z+30, r24	; 0x1e
    1c6a:	82 8d       	ldd	r24, Z+26	; 0x1a
    1c6c:	93 8d       	ldd	r25, Z+27	; 0x1b
    1c6e:	01 97       	sbiw	r24, 0x01	; 1
    1c70:	f1 f7       	brne	.-4      	; 0x1c6e <__vector_10+0xc2>
    1c72:	a3 89       	ldd	r26, Z+19	; 0x13
    1c74:	b4 89       	ldd	r27, Z+20	; 0x14
    1c76:	9c 91       	ld	r25, X
    1c78:	85 89       	ldd	r24, Z+21	; 0x15
    1c7a:	89 2b       	or	r24, r25
    1c7c:	8c 93       	st	X, r24
    1c7e:	ff 91       	pop	r31
    1c80:	ef 91       	pop	r30
    1c82:	bf 91       	pop	r27
    1c84:	af 91       	pop	r26
    1c86:	9f 91       	pop	r25
    1c88:	8f 91       	pop	r24
    1c8a:	7f 91       	pop	r23
    1c8c:	6f 91       	pop	r22
    1c8e:	5f 91       	pop	r21
    1c90:	4f 91       	pop	r20
    1c92:	3f 91       	pop	r19
    1c94:	2f 91       	pop	r18
    1c96:	0f 90       	pop	r0
    1c98:	0b be       	out	0x3b, r0	; 59
    1c9a:	0f 90       	pop	r0
    1c9c:	0f be       	out	0x3f, r0	; 63
    1c9e:	0f 90       	pop	r0
    1ca0:	1f 90       	pop	r1
    1ca2:	18 95       	reti

00001ca4 <_ZN14SoftwareSerialD1Ev>:
    1ca4:	2b e8       	ldi	r18, 0x8B	; 139
    1ca6:	33 e0       	ldi	r19, 0x03	; 3
    1ca8:	fc 01       	movw	r30, r24
    1caa:	31 83       	std	Z+1, r19	; 0x01
    1cac:	20 83       	st	Z, r18
    1cae:	40 cf       	rjmp	.-384    	; 0x1b30 <_ZN14SoftwareSerial13stopListeningEv>

00001cb0 <_ZN14SoftwareSerial5setTXEh>:
    1cb0:	1f 93       	push	r17
    1cb2:	cf 93       	push	r28
    1cb4:	df 93       	push	r29
    1cb6:	ec 01       	movw	r28, r24
    1cb8:	16 2f       	mov	r17, r22
    1cba:	6e 8d       	ldd	r22, Y+30	; 0x1e
    1cbc:	66 95       	lsr	r22
    1cbe:	61 70       	andi	r22, 0x01	; 1
    1cc0:	81 e0       	ldi	r24, 0x01	; 1
    1cc2:	68 27       	eor	r22, r24
    1cc4:	81 2f       	mov	r24, r17
    1cc6:	53 da       	rcall	.-2906   	; 0x116e <digitalWrite>
    1cc8:	61 e0       	ldi	r22, 0x01	; 1
    1cca:	81 2f       	mov	r24, r17
    1ccc:	14 da       	rcall	.-3032   	; 0x10f6 <pinMode>
    1cce:	81 2f       	mov	r24, r17
    1cd0:	90 e0       	ldi	r25, 0x00	; 0
    1cd2:	fc 01       	movw	r30, r24
    1cd4:	e2 5b       	subi	r30, 0xB2	; 178
    1cd6:	fe 4f       	sbci	r31, 0xFE	; 254
    1cd8:	e4 91       	lpm	r30, Z
    1cda:	e8 8b       	std	Y+16, r30	; 0x10
    1cdc:	fc 01       	movw	r30, r24
    1cde:	ec 56       	subi	r30, 0x6C	; 108
    1ce0:	fe 4f       	sbci	r31, 0xFE	; 254
    1ce2:	e4 91       	lpm	r30, Z
    1ce4:	f0 e0       	ldi	r31, 0x00	; 0
    1ce6:	ee 0f       	add	r30, r30
    1ce8:	ff 1f       	adc	r31, r31
    1cea:	ec 50       	subi	r30, 0x0C	; 12
    1cec:	fe 4f       	sbci	r31, 0xFE	; 254
    1cee:	85 91       	lpm	r24, Z+
    1cf0:	94 91       	lpm	r25, Z
    1cf2:	9a 8b       	std	Y+18, r25	; 0x12
    1cf4:	89 8b       	std	Y+17, r24	; 0x11
    1cf6:	df 91       	pop	r29
    1cf8:	cf 91       	pop	r28
    1cfa:	1f 91       	pop	r17
    1cfc:	08 95       	ret

00001cfe <_ZN14SoftwareSerial5setRXEh>:
    1cfe:	1f 93       	push	r17
    1d00:	cf 93       	push	r28
    1d02:	df 93       	push	r29
    1d04:	ec 01       	movw	r28, r24
    1d06:	16 2f       	mov	r17, r22
    1d08:	60 e0       	ldi	r22, 0x00	; 0
    1d0a:	81 2f       	mov	r24, r17
    1d0c:	f4 d9       	rcall	.-3096   	; 0x10f6 <pinMode>
    1d0e:	8e 8d       	ldd	r24, Y+30	; 0x1e
    1d10:	81 fd       	sbrc	r24, 1
    1d12:	03 c0       	rjmp	.+6      	; 0x1d1a <_ZN14SoftwareSerial5setRXEh+0x1c>
    1d14:	61 e0       	ldi	r22, 0x01	; 1
    1d16:	81 2f       	mov	r24, r17
    1d18:	2a da       	rcall	.-2988   	; 0x116e <digitalWrite>
    1d1a:	1c 87       	std	Y+12, r17	; 0x0c
    1d1c:	81 2f       	mov	r24, r17
    1d1e:	90 e0       	ldi	r25, 0x00	; 0
    1d20:	fc 01       	movw	r30, r24
    1d22:	e2 5b       	subi	r30, 0xB2	; 178
    1d24:	fe 4f       	sbci	r31, 0xFE	; 254
    1d26:	e4 91       	lpm	r30, Z
    1d28:	ed 87       	std	Y+13, r30	; 0x0d
    1d2a:	fc 01       	movw	r30, r24
    1d2c:	ec 56       	subi	r30, 0x6C	; 108
    1d2e:	fe 4f       	sbci	r31, 0xFE	; 254
    1d30:	e4 91       	lpm	r30, Z
    1d32:	f0 e0       	ldi	r31, 0x00	; 0
    1d34:	ee 0f       	add	r30, r30
    1d36:	ff 1f       	adc	r31, r31
    1d38:	e6 52       	subi	r30, 0x26	; 38
    1d3a:	fe 4f       	sbci	r31, 0xFE	; 254
    1d3c:	85 91       	lpm	r24, Z+
    1d3e:	94 91       	lpm	r25, Z
    1d40:	9f 87       	std	Y+15, r25	; 0x0f
    1d42:	8e 87       	std	Y+14, r24	; 0x0e
    1d44:	df 91       	pop	r29
    1d46:	cf 91       	pop	r28
    1d48:	1f 91       	pop	r17
    1d4a:	08 95       	ret

00001d4c <_ZN14SoftwareSerialC1Ehhb>:
    1d4c:	1f 93       	push	r17
    1d4e:	cf 93       	push	r28
    1d50:	df 93       	push	r29
    1d52:	ec 01       	movw	r28, r24
    1d54:	16 2f       	mov	r17, r22
    1d56:	1b 82       	std	Y+3, r1	; 0x03
    1d58:	1a 82       	std	Y+2, r1	; 0x02
    1d5a:	88 ee       	ldi	r24, 0xE8	; 232
    1d5c:	93 e0       	ldi	r25, 0x03	; 3
    1d5e:	a0 e0       	ldi	r26, 0x00	; 0
    1d60:	b0 e0       	ldi	r27, 0x00	; 0
    1d62:	8c 83       	std	Y+4, r24	; 0x04
    1d64:	9d 83       	std	Y+5, r25	; 0x05
    1d66:	ae 83       	std	Y+6, r26	; 0x06
    1d68:	bf 83       	std	Y+7, r27	; 0x07
    1d6a:	8b e8       	ldi	r24, 0x8B	; 139
    1d6c:	93 e0       	ldi	r25, 0x03	; 3
    1d6e:	99 83       	std	Y+1, r25	; 0x01
    1d70:	88 83       	st	Y, r24
    1d72:	1f 8a       	std	Y+23, r1	; 0x17
    1d74:	1e 8a       	std	Y+22, r1	; 0x16
    1d76:	19 8e       	std	Y+25, r1	; 0x19
    1d78:	18 8e       	std	Y+24, r1	; 0x18
    1d7a:	1b 8e       	std	Y+27, r1	; 0x1b
    1d7c:	1a 8e       	std	Y+26, r1	; 0x1a
    1d7e:	1d 8e       	std	Y+29, r1	; 0x1d
    1d80:	1c 8e       	std	Y+28, r1	; 0x1c
    1d82:	8e 8d       	ldd	r24, Y+30	; 0x1e
    1d84:	8e 7f       	andi	r24, 0xFE	; 254
    1d86:	20 fb       	bst	r18, 0
    1d88:	81 f9       	bld	r24, 1
    1d8a:	8e 8f       	std	Y+30, r24	; 0x1e
    1d8c:	64 2f       	mov	r22, r20
    1d8e:	ce 01       	movw	r24, r28
    1d90:	8f df       	rcall	.-226    	; 0x1cb0 <_ZN14SoftwareSerial5setTXEh>
    1d92:	61 2f       	mov	r22, r17
    1d94:	ce 01       	movw	r24, r28
    1d96:	df 91       	pop	r29
    1d98:	cf 91       	pop	r28
    1d9a:	1f 91       	pop	r17
    1d9c:	b0 cf       	rjmp	.-160    	; 0x1cfe <_ZN14SoftwareSerial5setRXEh>

00001d9e <_ZN14SoftwareSerial5beginEl>:
    1d9e:	cf 93       	push	r28
    1da0:	df 93       	push	r29
    1da2:	ec 01       	movw	r28, r24
    1da4:	9a 01       	movw	r18, r20
    1da6:	ab 01       	movw	r20, r22
    1da8:	1b 8e       	std	Y+27, r1	; 0x1b
    1daa:	1a 8e       	std	Y+26, r1	; 0x1a
    1dac:	19 8e       	std	Y+25, r1	; 0x19
    1dae:	18 8e       	std	Y+24, r1	; 0x18
    1db0:	1f 8a       	std	Y+23, r1	; 0x17
    1db2:	1e 8a       	std	Y+22, r1	; 0x16
    1db4:	60 e0       	ldi	r22, 0x00	; 0
    1db6:	79 e0       	ldi	r23, 0x09	; 9
    1db8:	8d e3       	ldi	r24, 0x3D	; 61
    1dba:	90 e0       	ldi	r25, 0x00	; 0
    1dbc:	75 d6       	rcall	.+3306   	; 0x2aa8 <__divmodsi4>
    1dbe:	f9 01       	movw	r30, r18
    1dc0:	24 30       	cpi	r18, 0x04	; 4
    1dc2:	31 05       	cpc	r19, r1
    1dc4:	18 f0       	brcs	.+6      	; 0x1dcc <_ZN14SoftwareSerial5beginEl+0x2e>
    1dc6:	c9 01       	movw	r24, r18
    1dc8:	03 97       	sbiw	r24, 0x03	; 3
    1dca:	02 c0       	rjmp	.+4      	; 0x1dd0 <_ZN14SoftwareSerial5beginEl+0x32>
    1dcc:	81 e0       	ldi	r24, 0x01	; 1
    1dce:	90 e0       	ldi	r25, 0x00	; 0
    1dd0:	9d 8f       	std	Y+29, r25	; 0x1d
    1dd2:	8c 8f       	std	Y+28, r24	; 0x1c
    1dd4:	8c 85       	ldd	r24, Y+12	; 0x0c
    1dd6:	96 ef       	ldi	r25, 0xF6	; 246
    1dd8:	98 0f       	add	r25, r24
    1dda:	94 30       	cpi	r25, 0x04	; 4
    1ddc:	48 f0       	brcs	.+18     	; 0x1df0 <_ZN14SoftwareSerial5beginEl+0x52>
    1dde:	6e ec       	ldi	r22, 0xCE	; 206
    1de0:	68 0f       	add	r22, r24
    1de2:	64 30       	cpi	r22, 0x04	; 4
    1de4:	28 f0       	brcs	.+10     	; 0x1df0 <_ZN14SoftwareSerial5beginEl+0x52>
    1de6:	62 ec       	ldi	r22, 0xC2	; 194
    1de8:	68 0f       	add	r22, r24
    1dea:	68 30       	cpi	r22, 0x08	; 8
    1dec:	08 f0       	brcs	.+2      	; 0x1df0 <_ZN14SoftwareSerial5beginEl+0x52>
    1dee:	84 c0       	rjmp	.+264    	; 0x1ef8 <_ZN14SoftwareSerial5beginEl+0x15a>
    1df0:	b9 01       	movw	r22, r18
    1df2:	76 95       	lsr	r23
    1df4:	67 95       	ror	r22
    1df6:	64 31       	cpi	r22, 0x14	; 20
    1df8:	71 05       	cpc	r23, r1
    1dfa:	18 f0       	brcs	.+6      	; 0x1e02 <_ZN14SoftwareSerial5beginEl+0x64>
    1dfc:	63 51       	subi	r22, 0x13	; 19
    1dfe:	71 09       	sbc	r23, r1
    1e00:	02 c0       	rjmp	.+4      	; 0x1e06 <_ZN14SoftwareSerial5beginEl+0x68>
    1e02:	61 e0       	ldi	r22, 0x01	; 1
    1e04:	70 e0       	ldi	r23, 0x00	; 0
    1e06:	7f 8b       	std	Y+23, r23	; 0x17
    1e08:	6e 8b       	std	Y+22, r22	; 0x16
    1e0a:	36 97       	sbiw	r30, 0x06	; 6
    1e0c:	20 f0       	brcs	.+8      	; 0x1e16 <_ZN14SoftwareSerial5beginEl+0x78>
    1e0e:	b9 01       	movw	r22, r18
    1e10:	65 50       	subi	r22, 0x05	; 5
    1e12:	71 09       	sbc	r23, r1
    1e14:	02 c0       	rjmp	.+4      	; 0x1e1a <_ZN14SoftwareSerial5beginEl+0x7c>
    1e16:	61 e0       	ldi	r22, 0x01	; 1
    1e18:	70 e0       	ldi	r23, 0x00	; 0
    1e1a:	79 8f       	std	Y+25, r23	; 0x19
    1e1c:	68 8f       	std	Y+24, r22	; 0x18
    1e1e:	b9 01       	movw	r22, r18
    1e20:	66 0f       	add	r22, r22
    1e22:	77 1f       	adc	r23, r23
    1e24:	26 0f       	add	r18, r22
    1e26:	37 1f       	adc	r19, r23
    1e28:	36 95       	lsr	r19
    1e2a:	27 95       	ror	r18
    1e2c:	36 95       	lsr	r19
    1e2e:	27 95       	ror	r18
    1e30:	2d 30       	cpi	r18, 0x0D	; 13
    1e32:	31 05       	cpc	r19, r1
    1e34:	18 f0       	brcs	.+6      	; 0x1e3c <_ZN14SoftwareSerial5beginEl+0x9e>
    1e36:	2c 50       	subi	r18, 0x0C	; 12
    1e38:	31 09       	sbc	r19, r1
    1e3a:	02 c0       	rjmp	.+4      	; 0x1e40 <_ZN14SoftwareSerial5beginEl+0xa2>
    1e3c:	21 e0       	ldi	r18, 0x01	; 1
    1e3e:	30 e0       	ldi	r19, 0x00	; 0
    1e40:	3b 8f       	std	Y+27, r19	; 0x1b
    1e42:	2a 8f       	std	Y+26, r18	; 0x1a
    1e44:	94 30       	cpi	r25, 0x04	; 4
    1e46:	60 f0       	brcs	.+24     	; 0x1e60 <_ZN14SoftwareSerial5beginEl+0xc2>
    1e48:	2e ec       	ldi	r18, 0xCE	; 206
    1e4a:	28 0f       	add	r18, r24
    1e4c:	24 30       	cpi	r18, 0x04	; 4
    1e4e:	40 f0       	brcs	.+16     	; 0x1e60 <_ZN14SoftwareSerial5beginEl+0xc2>
    1e50:	22 ec       	ldi	r18, 0xC2	; 194
    1e52:	28 0f       	add	r18, r24
    1e54:	28 30       	cpi	r18, 0x08	; 8
    1e56:	08 f0       	brcs	.+2      	; 0x1e5a <_ZN14SoftwareSerial5beginEl+0xbc>
    1e58:	53 c0       	rjmp	.+166    	; 0x1f00 <_ZN14SoftwareSerial5beginEl+0x162>
    1e5a:	a8 e6       	ldi	r26, 0x68	; 104
    1e5c:	b0 e0       	ldi	r27, 0x00	; 0
    1e5e:	52 c0       	rjmp	.+164    	; 0x1f04 <_ZN14SoftwareSerial5beginEl+0x166>
    1e60:	a8 e6       	ldi	r26, 0x68	; 104
    1e62:	b0 e0       	ldi	r27, 0x00	; 0
    1e64:	e8 e6       	ldi	r30, 0x68	; 104
    1e66:	f0 e0       	ldi	r31, 0x00	; 0
    1e68:	20 81       	ld	r18, Z
    1e6a:	94 30       	cpi	r25, 0x04	; 4
    1e6c:	48 f0       	brcs	.+18     	; 0x1e80 <_ZN14SoftwareSerial5beginEl+0xe2>
    1e6e:	9e ec       	ldi	r25, 0xCE	; 206
    1e70:	98 0f       	add	r25, r24
    1e72:	94 30       	cpi	r25, 0x04	; 4
    1e74:	28 f0       	brcs	.+10     	; 0x1e80 <_ZN14SoftwareSerial5beginEl+0xe2>
    1e76:	8e 53       	subi	r24, 0x3E	; 62
    1e78:	88 30       	cpi	r24, 0x08	; 8
    1e7a:	10 f4       	brcc	.+4      	; 0x1e80 <_ZN14SoftwareSerial5beginEl+0xe2>
    1e7c:	84 e0       	ldi	r24, 0x04	; 4
    1e7e:	01 c0       	rjmp	.+2      	; 0x1e82 <_ZN14SoftwareSerial5beginEl+0xe4>
    1e80:	81 e0       	ldi	r24, 0x01	; 1
    1e82:	82 2b       	or	r24, r18
    1e84:	8c 93       	st	X, r24
    1e86:	8c 85       	ldd	r24, Y+12	; 0x0c
    1e88:	96 ef       	ldi	r25, 0xF6	; 246
    1e8a:	98 0f       	add	r25, r24
    1e8c:	94 30       	cpi	r25, 0x04	; 4
    1e8e:	58 f0       	brcs	.+22     	; 0x1ea6 <_ZN14SoftwareSerial5beginEl+0x108>
    1e90:	2e ec       	ldi	r18, 0xCE	; 206
    1e92:	28 0f       	add	r18, r24
    1e94:	24 30       	cpi	r18, 0x04	; 4
    1e96:	38 f0       	brcs	.+14     	; 0x1ea6 <_ZN14SoftwareSerial5beginEl+0x108>
    1e98:	22 ec       	ldi	r18, 0xC2	; 194
    1e9a:	28 0f       	add	r18, r24
    1e9c:	28 30       	cpi	r18, 0x08	; 8
    1e9e:	30 f0       	brcs	.+12     	; 0x1eac <_ZN14SoftwareSerial5beginEl+0x10e>
    1ea0:	20 e0       	ldi	r18, 0x00	; 0
    1ea2:	30 e0       	ldi	r19, 0x00	; 0
    1ea4:	05 c0       	rjmp	.+10     	; 0x1eb0 <_ZN14SoftwareSerial5beginEl+0x112>
    1ea6:	2b e6       	ldi	r18, 0x6B	; 107
    1ea8:	30 e0       	ldi	r19, 0x00	; 0
    1eaa:	02 c0       	rjmp	.+4      	; 0x1eb0 <_ZN14SoftwareSerial5beginEl+0x112>
    1eac:	2d e6       	ldi	r18, 0x6D	; 109
    1eae:	30 e0       	ldi	r19, 0x00	; 0
    1eb0:	3c 8b       	std	Y+20, r19	; 0x14
    1eb2:	2b 8b       	std	Y+19, r18	; 0x13
    1eb4:	94 30       	cpi	r25, 0x04	; 4
    1eb6:	10 f4       	brcc	.+4      	; 0x1ebc <_ZN14SoftwareSerial5beginEl+0x11e>
    1eb8:	9a ef       	ldi	r25, 0xFA	; 250
    1eba:	0b c0       	rjmp	.+22     	; 0x1ed2 <_ZN14SoftwareSerial5beginEl+0x134>
    1ebc:	82 33       	cpi	r24, 0x32	; 50
    1ebe:	81 f0       	breq	.+32     	; 0x1ee0 <_ZN14SoftwareSerial5beginEl+0x142>
    1ec0:	83 33       	cpi	r24, 0x33	; 51
    1ec2:	81 f0       	breq	.+32     	; 0x1ee4 <_ZN14SoftwareSerial5beginEl+0x146>
    1ec4:	84 33       	cpi	r24, 0x34	; 52
    1ec6:	81 f0       	breq	.+32     	; 0x1ee8 <_ZN14SoftwareSerial5beginEl+0x14a>
    1ec8:	92 ec       	ldi	r25, 0xC2	; 194
    1eca:	98 0f       	add	r25, r24
    1ecc:	98 30       	cpi	r25, 0x08	; 8
    1ece:	70 f4       	brcc	.+28     	; 0x1eec <_ZN14SoftwareSerial5beginEl+0x14e>
    1ed0:	92 ec       	ldi	r25, 0xC2	; 194
    1ed2:	98 0f       	add	r25, r24
    1ed4:	81 e0       	ldi	r24, 0x01	; 1
    1ed6:	01 c0       	rjmp	.+2      	; 0x1eda <_ZN14SoftwareSerial5beginEl+0x13c>
    1ed8:	88 0f       	add	r24, r24
    1eda:	9a 95       	dec	r25
    1edc:	ea f7       	brpl	.-6      	; 0x1ed8 <_ZN14SoftwareSerial5beginEl+0x13a>
    1ede:	07 c0       	rjmp	.+14     	; 0x1eee <_ZN14SoftwareSerial5beginEl+0x150>
    1ee0:	88 e0       	ldi	r24, 0x08	; 8
    1ee2:	05 c0       	rjmp	.+10     	; 0x1eee <_ZN14SoftwareSerial5beginEl+0x150>
    1ee4:	84 e0       	ldi	r24, 0x04	; 4
    1ee6:	03 c0       	rjmp	.+6      	; 0x1eee <_ZN14SoftwareSerial5beginEl+0x150>
    1ee8:	82 e0       	ldi	r24, 0x02	; 2
    1eea:	01 c0       	rjmp	.+2      	; 0x1eee <_ZN14SoftwareSerial5beginEl+0x150>
    1eec:	81 e0       	ldi	r24, 0x01	; 1
    1eee:	8d 8b       	std	Y+21, r24	; 0x15
	__asm__ volatile (
		"1: sbiw %0,1" "\n\t"
		"brne 1b"
		: "=w" (__count)
		: "0" (__count)
	);
    1ef0:	8c 8d       	ldd	r24, Y+28	; 0x1c
    1ef2:	9d 8d       	ldd	r25, Y+29	; 0x1d
    1ef4:	01 97       	sbiw	r24, 0x01	; 1
    1ef6:	f1 f7       	brne	.-4      	; 0x1ef4 <_ZN14SoftwareSerial5beginEl+0x156>
    1ef8:	ce 01       	movw	r24, r28
    1efa:	df 91       	pop	r29
    1efc:	cf 91       	pop	r28
    1efe:	2e ce       	rjmp	.-932    	; 0x1b5c <_ZN14SoftwareSerial6listenEv>
    1f00:	a0 e0       	ldi	r26, 0x00	; 0
    1f02:	b0 e0       	ldi	r27, 0x00	; 0
    1f04:	28 30       	cpi	r18, 0x08	; 8
    1f06:	08 f4       	brcc	.+2      	; 0x1f0a <_ZN14SoftwareSerial5beginEl+0x16c>
    1f08:	ad cf       	rjmp	.-166    	; 0x1e64 <_ZN14SoftwareSerial5beginEl+0xc6>
    1f0a:	e0 e0       	ldi	r30, 0x00	; 0
    1f0c:	f0 e0       	ldi	r31, 0x00	; 0
    1f0e:	ac cf       	rjmp	.-168    	; 0x1e68 <_ZN14SoftwareSerial5beginEl+0xca>

00001f10 <_ZN7TwoWire9availableEv>:
    1f10:	80 91 c1 06 	lds	r24, 0x06C1	; 0x8006c1 <_ZN7TwoWire14rxBufferLengthE>
    1f14:	90 e0       	ldi	r25, 0x00	; 0
    1f16:	20 91 c2 06 	lds	r18, 0x06C2	; 0x8006c2 <_ZN7TwoWire13rxBufferIndexE>
    1f1a:	82 1b       	sub	r24, r18
    1f1c:	91 09       	sbc	r25, r1
    1f1e:	08 95       	ret

00001f20 <_ZN7TwoWire4readEv>:
    1f20:	90 91 c2 06 	lds	r25, 0x06C2	; 0x8006c2 <_ZN7TwoWire13rxBufferIndexE>
    1f24:	80 91 c1 06 	lds	r24, 0x06C1	; 0x8006c1 <_ZN7TwoWire14rxBufferLengthE>
    1f28:	98 17       	cp	r25, r24
    1f2a:	50 f4       	brcc	.+20     	; 0x1f40 <_ZN7TwoWire4readEv+0x20>
    1f2c:	e9 2f       	mov	r30, r25
    1f2e:	f0 e0       	ldi	r31, 0x00	; 0
    1f30:	ed 53       	subi	r30, 0x3D	; 61
    1f32:	f9 4f       	sbci	r31, 0xF9	; 249
    1f34:	20 81       	ld	r18, Z
    1f36:	30 e0       	ldi	r19, 0x00	; 0
    1f38:	9f 5f       	subi	r25, 0xFF	; 255
    1f3a:	90 93 c2 06 	sts	0x06C2, r25	; 0x8006c2 <_ZN7TwoWire13rxBufferIndexE>
    1f3e:	02 c0       	rjmp	.+4      	; 0x1f44 <_ZN7TwoWire4readEv+0x24>
    1f40:	2f ef       	ldi	r18, 0xFF	; 255
    1f42:	3f ef       	ldi	r19, 0xFF	; 255
    1f44:	c9 01       	movw	r24, r18
    1f46:	08 95       	ret

00001f48 <_ZN7TwoWire4peekEv>:
    1f48:	e0 91 c2 06 	lds	r30, 0x06C2	; 0x8006c2 <_ZN7TwoWire13rxBufferIndexE>
    1f4c:	80 91 c1 06 	lds	r24, 0x06C1	; 0x8006c1 <_ZN7TwoWire14rxBufferLengthE>
    1f50:	e8 17       	cp	r30, r24
    1f52:	30 f4       	brcc	.+12     	; 0x1f60 <_ZN7TwoWire4peekEv+0x18>
    1f54:	f0 e0       	ldi	r31, 0x00	; 0
    1f56:	ed 53       	subi	r30, 0x3D	; 61
    1f58:	f9 4f       	sbci	r31, 0xF9	; 249
    1f5a:	80 81       	ld	r24, Z
    1f5c:	90 e0       	ldi	r25, 0x00	; 0
    1f5e:	08 95       	ret
    1f60:	8f ef       	ldi	r24, 0xFF	; 255
    1f62:	9f ef       	ldi	r25, 0xFF	; 255
    1f64:	08 95       	ret

00001f66 <_ZN7TwoWire5flushEv>:
    1f66:	08 95       	ret

00001f68 <_ZN7TwoWire16onReceiveServiceEPhi>:
    1f68:	cf 93       	push	r28
    1f6a:	df 93       	push	r29
    1f6c:	ec 01       	movw	r28, r24
    1f6e:	e0 91 99 06 	lds	r30, 0x0699	; 0x800699 <_ZN7TwoWire14user_onReceiveE>
    1f72:	f0 91 9a 06 	lds	r31, 0x069A	; 0x80069a <_ZN7TwoWire14user_onReceiveE+0x1>
    1f76:	30 97       	sbiw	r30, 0x00	; 0
    1f78:	f1 f0       	breq	.+60     	; 0x1fb6 <_ZN7TwoWire16onReceiveServiceEPhi+0x4e>
    1f7a:	90 91 c2 06 	lds	r25, 0x06C2	; 0x8006c2 <_ZN7TwoWire13rxBufferIndexE>
    1f7e:	80 91 c1 06 	lds	r24, 0x06C1	; 0x8006c1 <_ZN7TwoWire14rxBufferLengthE>
    1f82:	98 17       	cp	r25, r24
    1f84:	c0 f0       	brcs	.+48     	; 0x1fb6 <_ZN7TwoWire16onReceiveServiceEPhi+0x4e>
    1f86:	90 e0       	ldi	r25, 0x00	; 0
    1f88:	29 2f       	mov	r18, r25
    1f8a:	30 e0       	ldi	r19, 0x00	; 0
    1f8c:	26 17       	cp	r18, r22
    1f8e:	37 07       	cpc	r19, r23
    1f90:	54 f4       	brge	.+20     	; 0x1fa6 <_ZN7TwoWire16onReceiveServiceEPhi+0x3e>
    1f92:	de 01       	movw	r26, r28
    1f94:	a2 0f       	add	r26, r18
    1f96:	b3 1f       	adc	r27, r19
    1f98:	4c 91       	ld	r20, X
    1f9a:	d9 01       	movw	r26, r18
    1f9c:	ad 53       	subi	r26, 0x3D	; 61
    1f9e:	b9 4f       	sbci	r27, 0xF9	; 249
    1fa0:	4c 93       	st	X, r20
    1fa2:	9f 5f       	subi	r25, 0xFF	; 255
    1fa4:	f1 cf       	rjmp	.-30     	; 0x1f88 <_ZN7TwoWire16onReceiveServiceEPhi+0x20>
    1fa6:	10 92 c2 06 	sts	0x06C2, r1	; 0x8006c2 <_ZN7TwoWire13rxBufferIndexE>
    1faa:	60 93 c1 06 	sts	0x06C1, r22	; 0x8006c1 <_ZN7TwoWire14rxBufferLengthE>
    1fae:	cb 01       	movw	r24, r22
    1fb0:	df 91       	pop	r29
    1fb2:	cf 91       	pop	r28
    1fb4:	19 94       	eijmp
    1fb6:	df 91       	pop	r29
    1fb8:	cf 91       	pop	r28
    1fba:	08 95       	ret

00001fbc <_ZN7TwoWire16onRequestServiceEv>:
    1fbc:	e0 91 9b 06 	lds	r30, 0x069B	; 0x80069b <_ZN7TwoWire14user_onRequestE>
    1fc0:	f0 91 9c 06 	lds	r31, 0x069C	; 0x80069c <_ZN7TwoWire14user_onRequestE+0x1>
    1fc4:	30 97       	sbiw	r30, 0x00	; 0
    1fc6:	29 f0       	breq	.+10     	; 0x1fd2 <_ZN7TwoWire16onRequestServiceEv+0x16>
    1fc8:	10 92 9f 06 	sts	0x069F, r1	; 0x80069f <_ZN7TwoWire13txBufferIndexE>
    1fcc:	10 92 9e 06 	sts	0x069E, r1	; 0x80069e <_ZN7TwoWire14txBufferLengthE>
    1fd0:	19 94       	eijmp
    1fd2:	08 95       	ret

00001fd4 <_ZN7TwoWire5writeEPKhj>:
    1fd4:	cf 92       	push	r12
    1fd6:	df 92       	push	r13
    1fd8:	ef 92       	push	r14
    1fda:	ff 92       	push	r15
    1fdc:	0f 93       	push	r16
    1fde:	1f 93       	push	r17
    1fe0:	cf 93       	push	r28
    1fe2:	df 93       	push	r29
    1fe4:	7c 01       	movw	r14, r24
    1fe6:	cb 01       	movw	r24, r22
    1fe8:	8a 01       	movw	r16, r20
    1fea:	20 91 9d 06 	lds	r18, 0x069D	; 0x80069d <_ZN7TwoWire12transmittingE>
    1fee:	22 23       	and	r18, r18
    1ff0:	89 f0       	breq	.+34     	; 0x2014 <_ZN7TwoWire5writeEPKhj+0x40>
    1ff2:	eb 01       	movw	r28, r22
    1ff4:	6b 01       	movw	r12, r22
    1ff6:	c4 0e       	add	r12, r20
    1ff8:	d5 1e       	adc	r13, r21
    1ffa:	cc 15       	cp	r28, r12
    1ffc:	dd 05       	cpc	r29, r13
    1ffe:	61 f0       	breq	.+24     	; 0x2018 <_ZN7TwoWire5writeEPKhj+0x44>
    2000:	69 91       	ld	r22, Y+
    2002:	d7 01       	movw	r26, r14
    2004:	ed 91       	ld	r30, X+
    2006:	fc 91       	ld	r31, X
    2008:	01 90       	ld	r0, Z+
    200a:	f0 81       	ld	r31, Z
    200c:	e0 2d       	mov	r30, r0
    200e:	c7 01       	movw	r24, r14
    2010:	19 95       	eicall
    2012:	f3 cf       	rjmp	.-26     	; 0x1ffa <_ZN7TwoWire5writeEPKhj+0x26>
    2014:	64 2f       	mov	r22, r20
    2016:	97 d1       	rcall	.+814    	; 0x2346 <twi_transmit>
    2018:	c8 01       	movw	r24, r16
    201a:	df 91       	pop	r29
    201c:	cf 91       	pop	r28
    201e:	1f 91       	pop	r17
    2020:	0f 91       	pop	r16
    2022:	ff 90       	pop	r15
    2024:	ef 90       	pop	r14
    2026:	df 90       	pop	r13
    2028:	cf 90       	pop	r12
    202a:	08 95       	ret

0000202c <_ZN7TwoWire5writeEh>:
    202c:	cf 93       	push	r28
    202e:	df 93       	push	r29
    2030:	1f 92       	push	r1
    2032:	cd b7       	in	r28, 0x3d	; 61
    2034:	de b7       	in	r29, 0x3e	; 62
    2036:	69 83       	std	Y+1, r22	; 0x01
    2038:	20 91 9d 06 	lds	r18, 0x069D	; 0x80069d <_ZN7TwoWire12transmittingE>
    203c:	22 23       	and	r18, r18
    203e:	d1 f0       	breq	.+52     	; 0x2074 <_ZN7TwoWire5writeEh+0x48>
    2040:	20 91 9e 06 	lds	r18, 0x069E	; 0x80069e <_ZN7TwoWire14txBufferLengthE>
    2044:	20 32       	cpi	r18, 0x20	; 32
    2046:	40 f0       	brcs	.+16     	; 0x2058 <_ZN7TwoWire5writeEh+0x2c>
    2048:	21 e0       	ldi	r18, 0x01	; 1
    204a:	30 e0       	ldi	r19, 0x00	; 0
    204c:	fc 01       	movw	r30, r24
    204e:	33 83       	std	Z+3, r19	; 0x03
    2050:	22 83       	std	Z+2, r18	; 0x02
    2052:	80 e0       	ldi	r24, 0x00	; 0
    2054:	90 e0       	ldi	r25, 0x00	; 0
    2056:	14 c0       	rjmp	.+40     	; 0x2080 <_ZN7TwoWire5writeEh+0x54>
    2058:	80 91 9f 06 	lds	r24, 0x069F	; 0x80069f <_ZN7TwoWire13txBufferIndexE>
    205c:	e8 2f       	mov	r30, r24
    205e:	f0 e0       	ldi	r31, 0x00	; 0
    2060:	e0 56       	subi	r30, 0x60	; 96
    2062:	f9 4f       	sbci	r31, 0xF9	; 249
    2064:	99 81       	ldd	r25, Y+1	; 0x01
    2066:	90 83       	st	Z, r25
    2068:	8f 5f       	subi	r24, 0xFF	; 255
    206a:	80 93 9f 06 	sts	0x069F, r24	; 0x80069f <_ZN7TwoWire13txBufferIndexE>
    206e:	80 93 9e 06 	sts	0x069E, r24	; 0x80069e <_ZN7TwoWire14txBufferLengthE>
    2072:	04 c0       	rjmp	.+8      	; 0x207c <_ZN7TwoWire5writeEh+0x50>
    2074:	61 e0       	ldi	r22, 0x01	; 1
    2076:	ce 01       	movw	r24, r28
    2078:	01 96       	adiw	r24, 0x01	; 1
    207a:	65 d1       	rcall	.+714    	; 0x2346 <twi_transmit>
    207c:	81 e0       	ldi	r24, 0x01	; 1
    207e:	90 e0       	ldi	r25, 0x00	; 0
    2080:	0f 90       	pop	r0
    2082:	df 91       	pop	r29
    2084:	cf 91       	pop	r28
    2086:	08 95       	ret

00002088 <_ZN7TwoWireC1Ev>:
    2088:	fc 01       	movw	r30, r24
    208a:	13 82       	std	Z+3, r1	; 0x03
    208c:	12 82       	std	Z+2, r1	; 0x02
    208e:	88 ee       	ldi	r24, 0xE8	; 232
    2090:	93 e0       	ldi	r25, 0x03	; 3
    2092:	a0 e0       	ldi	r26, 0x00	; 0
    2094:	b0 e0       	ldi	r27, 0x00	; 0
    2096:	84 83       	std	Z+4, r24	; 0x04
    2098:	95 83       	std	Z+5, r25	; 0x05
    209a:	a6 83       	std	Z+6, r26	; 0x06
    209c:	b7 83       	std	Z+7, r27	; 0x07
    209e:	8d e9       	ldi	r24, 0x9D	; 157
    20a0:	93 e0       	ldi	r25, 0x03	; 3
    20a2:	91 83       	std	Z+1, r25	; 0x01
    20a4:	80 83       	st	Z, r24
    20a6:	08 95       	ret

000020a8 <_ZN7TwoWire5beginEv>:
    20a8:	10 92 c2 06 	sts	0x06C2, r1	; 0x8006c2 <_ZN7TwoWire13rxBufferIndexE>
    20ac:	10 92 c1 06 	sts	0x06C1, r1	; 0x8006c1 <_ZN7TwoWire14rxBufferLengthE>
    20b0:	10 92 9f 06 	sts	0x069F, r1	; 0x80069f <_ZN7TwoWire13txBufferIndexE>
    20b4:	10 92 9e 06 	sts	0x069E, r1	; 0x80069e <_ZN7TwoWire14txBufferLengthE>
    20b8:	8a d0       	rcall	.+276    	; 0x21ce <twi_init>
    20ba:	8e ed       	ldi	r24, 0xDE	; 222
    20bc:	9f e0       	ldi	r25, 0x0F	; 15
    20be:	70 d1       	rcall	.+736    	; 0x23a0 <twi_attachSlaveTxEvent>
    20c0:	84 eb       	ldi	r24, 0xB4	; 180
    20c2:	9f e0       	ldi	r25, 0x0F	; 15
    20c4:	68 c1       	rjmp	.+720    	; 0x2396 <twi_attachSlaveRxEvent>

000020c6 <_ZN7TwoWire17beginTransmissionEh>:
    20c6:	81 e0       	ldi	r24, 0x01	; 1
    20c8:	80 93 9d 06 	sts	0x069D, r24	; 0x80069d <_ZN7TwoWire12transmittingE>
    20cc:	60 93 c0 06 	sts	0x06C0, r22	; 0x8006c0 <_ZN7TwoWire9txAddressE>
    20d0:	10 92 9f 06 	sts	0x069F, r1	; 0x80069f <_ZN7TwoWire13txBufferIndexE>
    20d4:	10 92 9e 06 	sts	0x069E, r1	; 0x80069e <_ZN7TwoWire14txBufferLengthE>
    20d8:	08 95       	ret

000020da <_ZN7TwoWire15endTransmissionEh>:
    20da:	0f 93       	push	r16
    20dc:	06 2f       	mov	r16, r22
    20de:	21 e0       	ldi	r18, 0x01	; 1
    20e0:	40 91 9e 06 	lds	r20, 0x069E	; 0x80069e <_ZN7TwoWire14txBufferLengthE>
    20e4:	60 ea       	ldi	r22, 0xA0	; 160
    20e6:	76 e0       	ldi	r23, 0x06	; 6
    20e8:	80 91 c0 06 	lds	r24, 0x06C0	; 0x8006c0 <_ZN7TwoWire9txAddressE>
    20ec:	d6 d0       	rcall	.+428    	; 0x229a <twi_writeTo>
    20ee:	10 92 9f 06 	sts	0x069F, r1	; 0x80069f <_ZN7TwoWire13txBufferIndexE>
    20f2:	10 92 9e 06 	sts	0x069E, r1	; 0x80069e <_ZN7TwoWire14txBufferLengthE>
    20f6:	10 92 9d 06 	sts	0x069D, r1	; 0x80069d <_ZN7TwoWire12transmittingE>
    20fa:	0f 91       	pop	r16
    20fc:	08 95       	ret

000020fe <_ZN7TwoWire11requestFromEhhmhh>:
    20fe:	4f 92       	push	r4
    2100:	5f 92       	push	r5
    2102:	6f 92       	push	r6
    2104:	7f 92       	push	r7
    2106:	af 92       	push	r10
    2108:	bf 92       	push	r11
    210a:	cf 92       	push	r12
    210c:	ef 92       	push	r14
    210e:	ff 92       	push	r15
    2110:	0f 93       	push	r16
    2112:	1f 93       	push	r17
    2114:	cf 93       	push	r28
    2116:	df 93       	push	r29
    2118:	5c 01       	movw	r10, r24
    211a:	f6 2e       	mov	r15, r22
    211c:	d4 2f       	mov	r29, r20
    211e:	28 01       	movw	r4, r16
    2120:	39 01       	movw	r6, r18
    2122:	ee 20       	and	r14, r14
    2124:	11 f1       	breq	.+68     	; 0x216a <_ZN7TwoWire11requestFromEhhmhh+0x6c>
    2126:	cf df       	rcall	.-98     	; 0x20c6 <_ZN7TwoWire17beginTransmissionEh>
    2128:	ce 2d       	mov	r28, r14
    212a:	c4 30       	cpi	r28, 0x04	; 4
    212c:	08 f0       	brcs	.+2      	; 0x2130 <_ZN7TwoWire11requestFromEhhmhh+0x32>
    212e:	c3 e0       	ldi	r28, 0x03	; 3
    2130:	c1 50       	subi	r28, 0x01	; 1
    2132:	c0 f0       	brcs	.+48     	; 0x2164 <_ZN7TwoWire11requestFromEhhmhh+0x66>
    2134:	28 e0       	ldi	r18, 0x08	; 8
    2136:	c2 9f       	mul	r28, r18
    2138:	c0 01       	movw	r24, r0
    213a:	11 24       	eor	r1, r1
    213c:	a3 01       	movw	r20, r6
    213e:	92 01       	movw	r18, r4
    2140:	04 c0       	rjmp	.+8      	; 0x214a <_ZN7TwoWire11requestFromEhhmhh+0x4c>
    2142:	56 95       	lsr	r21
    2144:	47 95       	ror	r20
    2146:	37 95       	ror	r19
    2148:	27 95       	ror	r18
    214a:	8a 95       	dec	r24
    214c:	d2 f7       	brpl	.-12     	; 0x2142 <_ZN7TwoWire11requestFromEhhmhh+0x44>
    214e:	ca 01       	movw	r24, r20
    2150:	b9 01       	movw	r22, r18
    2152:	d5 01       	movw	r26, r10
    2154:	ed 91       	ld	r30, X+
    2156:	fc 91       	ld	r31, X
    2158:	01 90       	ld	r0, Z+
    215a:	f0 81       	ld	r31, Z
    215c:	e0 2d       	mov	r30, r0
    215e:	c5 01       	movw	r24, r10
    2160:	19 95       	eicall
    2162:	e6 cf       	rjmp	.-52     	; 0x2130 <_ZN7TwoWire11requestFromEhhmhh+0x32>
    2164:	60 e0       	ldi	r22, 0x00	; 0
    2166:	c5 01       	movw	r24, r10
    2168:	b8 df       	rcall	.-144    	; 0x20da <_ZN7TwoWire15endTransmissionEh>
    216a:	4d 2f       	mov	r20, r29
    216c:	d1 32       	cpi	r29, 0x21	; 33
    216e:	08 f0       	brcs	.+2      	; 0x2172 <_ZN7TwoWire11requestFromEhhmhh+0x74>
    2170:	40 e2       	ldi	r20, 0x20	; 32
    2172:	2c 2d       	mov	r18, r12
    2174:	63 ec       	ldi	r22, 0xC3	; 195
    2176:	76 e0       	ldi	r23, 0x06	; 6
    2178:	8f 2d       	mov	r24, r15
    217a:	47 d0       	rcall	.+142    	; 0x220a <twi_readFrom>
    217c:	10 92 c2 06 	sts	0x06C2, r1	; 0x8006c2 <_ZN7TwoWire13rxBufferIndexE>
    2180:	80 93 c1 06 	sts	0x06C1, r24	; 0x8006c1 <_ZN7TwoWire14rxBufferLengthE>
    2184:	df 91       	pop	r29
    2186:	cf 91       	pop	r28
    2188:	1f 91       	pop	r17
    218a:	0f 91       	pop	r16
    218c:	ff 90       	pop	r15
    218e:	ef 90       	pop	r14
    2190:	cf 90       	pop	r12
    2192:	bf 90       	pop	r11
    2194:	af 90       	pop	r10
    2196:	7f 90       	pop	r7
    2198:	6f 90       	pop	r6
    219a:	5f 90       	pop	r5
    219c:	4f 90       	pop	r4
    219e:	08 95       	ret

000021a0 <_ZN7TwoWire11requestFromEhhh>:
    21a0:	cf 92       	push	r12
    21a2:	ef 92       	push	r14
    21a4:	0f 93       	push	r16
    21a6:	1f 93       	push	r17
    21a8:	c2 2e       	mov	r12, r18
    21aa:	e1 2c       	mov	r14, r1
    21ac:	00 e0       	ldi	r16, 0x00	; 0
    21ae:	10 e0       	ldi	r17, 0x00	; 0
    21b0:	98 01       	movw	r18, r16
    21b2:	a5 df       	rcall	.-182    	; 0x20fe <_ZN7TwoWire11requestFromEhhmhh>
    21b4:	1f 91       	pop	r17
    21b6:	0f 91       	pop	r16
    21b8:	ef 90       	pop	r14
    21ba:	cf 90       	pop	r12
    21bc:	08 95       	ret

000021be <_ZN7TwoWire11requestFromEhh>:
    21be:	21 e0       	ldi	r18, 0x01	; 1
    21c0:	ef cf       	rjmp	.-34     	; 0x21a0 <_ZN7TwoWire11requestFromEhhh>

000021c2 <_ZN7TwoWire15endTransmissionEv>:
    21c2:	61 e0       	ldi	r22, 0x01	; 1
    21c4:	8a cf       	rjmp	.-236    	; 0x20da <_ZN7TwoWire15endTransmissionEh>

000021c6 <_GLOBAL__sub_I__ZN7TwoWire8rxBufferE>:
    21c6:	8d e8       	ldi	r24, 0x8D	; 141
    21c8:	96 e0       	ldi	r25, 0x06	; 6
    21ca:	5e cf       	rjmp	.-324    	; 0x2088 <_ZN7TwoWireC1Ev>

000021cc <yield>:
    21cc:	08 95       	ret

000021ce <twi_init>:
    21ce:	10 92 50 07 	sts	0x0750, r1	; 0x800750 <twi_state>
    21d2:	81 e0       	ldi	r24, 0x01	; 1
    21d4:	80 93 4e 07 	sts	0x074E, r24	; 0x80074e <twi_sendStop>
    21d8:	10 92 4d 07 	sts	0x074D, r1	; 0x80074d <twi_inRepStart>
    21dc:	61 e0       	ldi	r22, 0x01	; 1
    21de:	84 e1       	ldi	r24, 0x14	; 20
    21e0:	0e 94 b7 08 	call	0x116e	; 0x116e <digitalWrite>
    21e4:	61 e0       	ldi	r22, 0x01	; 1
    21e6:	85 e1       	ldi	r24, 0x15	; 21
    21e8:	0e 94 b7 08 	call	0x116e	; 0x116e <digitalWrite>
    21ec:	e9 eb       	ldi	r30, 0xB9	; 185
    21ee:	f0 e0       	ldi	r31, 0x00	; 0
    21f0:	80 81       	ld	r24, Z
    21f2:	8e 7f       	andi	r24, 0xFE	; 254
    21f4:	80 83       	st	Z, r24
    21f6:	80 81       	ld	r24, Z
    21f8:	8d 7f       	andi	r24, 0xFD	; 253
    21fa:	80 83       	st	Z, r24
    21fc:	88 e4       	ldi	r24, 0x48	; 72
    21fe:	80 93 b8 00 	sts	0x00B8, r24	; 0x8000b8 <__TEXT_REGION_LENGTH__+0x7000b8>
    2202:	85 e4       	ldi	r24, 0x45	; 69
    2204:	80 93 bc 00 	sts	0x00BC, r24	; 0x8000bc <__TEXT_REGION_LENGTH__+0x7000bc>
    2208:	08 95       	ret

0000220a <twi_readFrom>:
    220a:	41 32       	cpi	r20, 0x21	; 33
    220c:	08 f0       	brcs	.+2      	; 0x2210 <twi_readFrom+0x6>
    220e:	43 c0       	rjmp	.+134    	; 0x2296 <twi_readFrom+0x8c>
    2210:	90 91 50 07 	lds	r25, 0x0750	; 0x800750 <twi_state>
    2214:	91 11       	cpse	r25, r1
    2216:	fc cf       	rjmp	.-8      	; 0x2210 <twi_readFrom+0x6>
    2218:	91 e0       	ldi	r25, 0x01	; 1
    221a:	90 93 50 07 	sts	0x0750, r25	; 0x800750 <twi_state>
    221e:	20 93 4e 07 	sts	0x074E, r18	; 0x80074e <twi_sendStop>
    2222:	2f ef       	ldi	r18, 0xFF	; 255
    2224:	20 93 e3 06 	sts	0x06E3, r18	; 0x8006e3 <twi_error>
    2228:	10 92 28 07 	sts	0x0728, r1	; 0x800728 <twi_masterBufferIndex>
    222c:	24 0f       	add	r18, r20
    222e:	20 93 27 07 	sts	0x0727, r18	; 0x800727 <twi_masterBufferLength>
    2232:	90 93 4f 07 	sts	0x074F, r25	; 0x80074f <twi_slarw>
    2236:	90 91 4f 07 	lds	r25, 0x074F	; 0x80074f <twi_slarw>
    223a:	88 0f       	add	r24, r24
    223c:	89 2b       	or	r24, r25
    223e:	80 93 4f 07 	sts	0x074F, r24	; 0x80074f <twi_slarw>
    2242:	80 91 4d 07 	lds	r24, 0x074D	; 0x80074d <twi_inRepStart>
    2246:	81 30       	cpi	r24, 0x01	; 1
    2248:	61 f4       	brne	.+24     	; 0x2262 <twi_readFrom+0x58>
    224a:	10 92 4d 07 	sts	0x074D, r1	; 0x80074d <twi_inRepStart>
    224e:	80 91 4f 07 	lds	r24, 0x074F	; 0x80074f <twi_slarw>
    2252:	80 93 bb 00 	sts	0x00BB, r24	; 0x8000bb <__TEXT_REGION_LENGTH__+0x7000bb>
    2256:	80 91 bc 00 	lds	r24, 0x00BC	; 0x8000bc <__TEXT_REGION_LENGTH__+0x7000bc>
    225a:	83 fd       	sbrc	r24, 3
    225c:	f8 cf       	rjmp	.-16     	; 0x224e <twi_readFrom+0x44>
    225e:	85 ec       	ldi	r24, 0xC5	; 197
    2260:	01 c0       	rjmp	.+2      	; 0x2264 <twi_readFrom+0x5a>
    2262:	85 ee       	ldi	r24, 0xE5	; 229
    2264:	80 93 bc 00 	sts	0x00BC, r24	; 0x8000bc <__TEXT_REGION_LENGTH__+0x7000bc>
    2268:	80 91 50 07 	lds	r24, 0x0750	; 0x800750 <twi_state>
    226c:	81 30       	cpi	r24, 0x01	; 1
    226e:	e1 f3       	breq	.-8      	; 0x2268 <twi_readFrom+0x5e>
    2270:	80 91 28 07 	lds	r24, 0x0728	; 0x800728 <twi_masterBufferIndex>
    2274:	84 17       	cp	r24, r20
    2276:	10 f4       	brcc	.+4      	; 0x227c <twi_readFrom+0x72>
    2278:	40 91 28 07 	lds	r20, 0x0728	; 0x800728 <twi_masterBufferIndex>
    227c:	a9 e2       	ldi	r26, 0x29	; 41
    227e:	b7 e0       	ldi	r27, 0x07	; 7
    2280:	96 2f       	mov	r25, r22
    2282:	fb 01       	movw	r30, r22
    2284:	8e 2f       	mov	r24, r30
    2286:	89 1b       	sub	r24, r25
    2288:	84 17       	cp	r24, r20
    228a:	18 f4       	brcc	.+6      	; 0x2292 <twi_readFrom+0x88>
    228c:	8d 91       	ld	r24, X+
    228e:	81 93       	st	Z+, r24
    2290:	f9 cf       	rjmp	.-14     	; 0x2284 <twi_readFrom+0x7a>
    2292:	84 2f       	mov	r24, r20
    2294:	08 95       	ret
    2296:	80 e0       	ldi	r24, 0x00	; 0
    2298:	08 95       	ret

0000229a <twi_writeTo>:
    229a:	0f 93       	push	r16
    229c:	41 32       	cpi	r20, 0x21	; 33
    229e:	08 f0       	brcs	.+2      	; 0x22a2 <twi_writeTo+0x8>
    22a0:	4a c0       	rjmp	.+148    	; 0x2336 <twi_writeTo+0x9c>
    22a2:	90 91 50 07 	lds	r25, 0x0750	; 0x800750 <twi_state>
    22a6:	91 11       	cpse	r25, r1
    22a8:	fc cf       	rjmp	.-8      	; 0x22a2 <twi_writeTo+0x8>
    22aa:	32 e0       	ldi	r19, 0x02	; 2
    22ac:	30 93 50 07 	sts	0x0750, r19	; 0x800750 <twi_state>
    22b0:	00 93 4e 07 	sts	0x074E, r16	; 0x80074e <twi_sendStop>
    22b4:	3f ef       	ldi	r19, 0xFF	; 255
    22b6:	30 93 e3 06 	sts	0x06E3, r19	; 0x8006e3 <twi_error>
    22ba:	10 92 28 07 	sts	0x0728, r1	; 0x800728 <twi_masterBufferIndex>
    22be:	40 93 27 07 	sts	0x0727, r20	; 0x800727 <twi_masterBufferLength>
    22c2:	56 2f       	mov	r21, r22
    22c4:	a9 e2       	ldi	r26, 0x29	; 41
    22c6:	b7 e0       	ldi	r27, 0x07	; 7
    22c8:	fb 01       	movw	r30, r22
    22ca:	3e 2f       	mov	r19, r30
    22cc:	35 1b       	sub	r19, r21
    22ce:	34 17       	cp	r19, r20
    22d0:	18 f4       	brcc	.+6      	; 0x22d8 <twi_writeTo+0x3e>
    22d2:	31 91       	ld	r19, Z+
    22d4:	3d 93       	st	X+, r19
    22d6:	f9 cf       	rjmp	.-14     	; 0x22ca <twi_writeTo+0x30>
    22d8:	10 92 4f 07 	sts	0x074F, r1	; 0x80074f <twi_slarw>
    22dc:	30 91 4f 07 	lds	r19, 0x074F	; 0x80074f <twi_slarw>
    22e0:	88 0f       	add	r24, r24
    22e2:	83 2b       	or	r24, r19
    22e4:	80 93 4f 07 	sts	0x074F, r24	; 0x80074f <twi_slarw>
    22e8:	80 91 4d 07 	lds	r24, 0x074D	; 0x80074d <twi_inRepStart>
    22ec:	81 30       	cpi	r24, 0x01	; 1
    22ee:	61 f4       	brne	.+24     	; 0x2308 <twi_writeTo+0x6e>
    22f0:	10 92 4d 07 	sts	0x074D, r1	; 0x80074d <twi_inRepStart>
    22f4:	80 91 4f 07 	lds	r24, 0x074F	; 0x80074f <twi_slarw>
    22f8:	80 93 bb 00 	sts	0x00BB, r24	; 0x8000bb <__TEXT_REGION_LENGTH__+0x7000bb>
    22fc:	80 91 bc 00 	lds	r24, 0x00BC	; 0x8000bc <__TEXT_REGION_LENGTH__+0x7000bc>
    2300:	83 fd       	sbrc	r24, 3
    2302:	f8 cf       	rjmp	.-16     	; 0x22f4 <twi_writeTo+0x5a>
    2304:	85 ec       	ldi	r24, 0xC5	; 197
    2306:	01 c0       	rjmp	.+2      	; 0x230a <twi_writeTo+0x70>
    2308:	85 ee       	ldi	r24, 0xE5	; 229
    230a:	80 93 bc 00 	sts	0x00BC, r24	; 0x8000bc <__TEXT_REGION_LENGTH__+0x7000bc>
    230e:	22 23       	and	r18, r18
    2310:	21 f0       	breq	.+8      	; 0x231a <twi_writeTo+0x80>
    2312:	80 91 50 07 	lds	r24, 0x0750	; 0x800750 <twi_state>
    2316:	82 30       	cpi	r24, 0x02	; 2
    2318:	d1 f3       	breq	.-12     	; 0x230e <twi_writeTo+0x74>
    231a:	80 91 e3 06 	lds	r24, 0x06E3	; 0x8006e3 <twi_error>
    231e:	8f 3f       	cpi	r24, 0xFF	; 255
    2320:	79 f0       	breq	.+30     	; 0x2340 <twi_writeTo+0xa6>
    2322:	80 91 e3 06 	lds	r24, 0x06E3	; 0x8006e3 <twi_error>
    2326:	80 32       	cpi	r24, 0x20	; 32
    2328:	41 f0       	breq	.+16     	; 0x233a <twi_writeTo+0xa0>
    232a:	80 91 e3 06 	lds	r24, 0x06E3	; 0x8006e3 <twi_error>
    232e:	80 33       	cpi	r24, 0x30	; 48
    2330:	31 f0       	breq	.+12     	; 0x233e <twi_writeTo+0xa4>
    2332:	94 e0       	ldi	r25, 0x04	; 4
    2334:	05 c0       	rjmp	.+10     	; 0x2340 <twi_writeTo+0xa6>
    2336:	91 e0       	ldi	r25, 0x01	; 1
    2338:	03 c0       	rjmp	.+6      	; 0x2340 <twi_writeTo+0xa6>
    233a:	92 e0       	ldi	r25, 0x02	; 2
    233c:	01 c0       	rjmp	.+2      	; 0x2340 <twi_writeTo+0xa6>
    233e:	93 e0       	ldi	r25, 0x03	; 3
    2340:	89 2f       	mov	r24, r25
    2342:	0f 91       	pop	r16
    2344:	08 95       	ret

00002346 <twi_transmit>:
    2346:	40 91 05 07 	lds	r20, 0x0705	; 0x800705 <twi_txBufferLength>
    234a:	26 2f       	mov	r18, r22
    234c:	30 e0       	ldi	r19, 0x00	; 0
    234e:	24 0f       	add	r18, r20
    2350:	31 1d       	adc	r19, r1
    2352:	21 32       	cpi	r18, 0x21	; 33
    2354:	31 05       	cpc	r19, r1
    2356:	dc f4       	brge	.+54     	; 0x238e <twi_transmit+0x48>
    2358:	20 91 50 07 	lds	r18, 0x0750	; 0x800750 <twi_state>
    235c:	24 30       	cpi	r18, 0x04	; 4
    235e:	c9 f4       	brne	.+50     	; 0x2392 <twi_transmit+0x4c>
    2360:	fc 01       	movw	r30, r24
    2362:	80 e0       	ldi	r24, 0x00	; 0
    2364:	90 e0       	ldi	r25, 0x00	; 0
    2366:	86 17       	cp	r24, r22
    2368:	58 f4       	brcc	.+22     	; 0x2380 <twi_transmit+0x3a>
    236a:	30 91 05 07 	lds	r19, 0x0705	; 0x800705 <twi_txBufferLength>
    236e:	21 91       	ld	r18, Z+
    2370:	dc 01       	movw	r26, r24
    2372:	a9 5f       	subi	r26, 0xF9	; 249
    2374:	b8 4f       	sbci	r27, 0xF8	; 248
    2376:	a3 0f       	add	r26, r19
    2378:	b1 1d       	adc	r27, r1
    237a:	2c 93       	st	X, r18
    237c:	01 96       	adiw	r24, 0x01	; 1
    237e:	f3 cf       	rjmp	.-26     	; 0x2366 <twi_transmit+0x20>
    2380:	80 91 05 07 	lds	r24, 0x0705	; 0x800705 <twi_txBufferLength>
    2384:	68 0f       	add	r22, r24
    2386:	60 93 05 07 	sts	0x0705, r22	; 0x800705 <twi_txBufferLength>
    238a:	80 e0       	ldi	r24, 0x00	; 0
    238c:	08 95       	ret
    238e:	81 e0       	ldi	r24, 0x01	; 1
    2390:	08 95       	ret
    2392:	82 e0       	ldi	r24, 0x02	; 2
    2394:	08 95       	ret

00002396 <twi_attachSlaveRxEvent>:
    2396:	90 93 4a 07 	sts	0x074A, r25	; 0x80074a <twi_onSlaveReceive+0x1>
    239a:	80 93 49 07 	sts	0x0749, r24	; 0x800749 <twi_onSlaveReceive>
    239e:	08 95       	ret

000023a0 <twi_attachSlaveTxEvent>:
    23a0:	90 93 4c 07 	sts	0x074C, r25	; 0x80074c <twi_onSlaveTransmit+0x1>
    23a4:	80 93 4b 07 	sts	0x074B, r24	; 0x80074b <twi_onSlaveTransmit>
    23a8:	08 95       	ret

000023aa <twi_stop>:
    23aa:	85 ed       	ldi	r24, 0xD5	; 213
    23ac:	80 93 bc 00 	sts	0x00BC, r24	; 0x8000bc <__TEXT_REGION_LENGTH__+0x7000bc>
    23b0:	80 91 bc 00 	lds	r24, 0x00BC	; 0x8000bc <__TEXT_REGION_LENGTH__+0x7000bc>
    23b4:	84 fd       	sbrc	r24, 4
    23b6:	fc cf       	rjmp	.-8      	; 0x23b0 <twi_stop+0x6>
    23b8:	10 92 50 07 	sts	0x0750, r1	; 0x800750 <twi_state>
    23bc:	08 95       	ret

000023be <twi_releaseBus>:
    23be:	85 ec       	ldi	r24, 0xC5	; 197
    23c0:	80 93 bc 00 	sts	0x00BC, r24	; 0x8000bc <__TEXT_REGION_LENGTH__+0x7000bc>
    23c4:	10 92 50 07 	sts	0x0750, r1	; 0x800750 <twi_state>
    23c8:	08 95       	ret

000023ca <__vector_39>:
    23ca:	1f 92       	push	r1
    23cc:	0f 92       	push	r0
    23ce:	0f b6       	in	r0, 0x3f	; 63
    23d0:	0f 92       	push	r0
    23d2:	11 24       	eor	r1, r1
    23d4:	0b b6       	in	r0, 0x3b	; 59
    23d6:	0f 92       	push	r0
    23d8:	2f 93       	push	r18
    23da:	3f 93       	push	r19
    23dc:	4f 93       	push	r20
    23de:	5f 93       	push	r21
    23e0:	6f 93       	push	r22
    23e2:	7f 93       	push	r23
    23e4:	8f 93       	push	r24
    23e6:	9f 93       	push	r25
    23e8:	af 93       	push	r26
    23ea:	bf 93       	push	r27
    23ec:	ef 93       	push	r30
    23ee:	ff 93       	push	r31
    23f0:	80 91 b9 00 	lds	r24, 0x00B9	; 0x8000b9 <__TEXT_REGION_LENGTH__+0x7000b9>
    23f4:	88 7f       	andi	r24, 0xF8	; 248
    23f6:	80 36       	cpi	r24, 0x60	; 96
    23f8:	09 f4       	brne	.+2      	; 0x23fc <__vector_39+0x32>
    23fa:	9d c0       	rjmp	.+314    	; 0x2536 <__vector_39+0x16c>
    23fc:	70 f5       	brcc	.+92     	; 0x245a <__vector_39+0x90>
    23fe:	88 32       	cpi	r24, 0x28	; 40
    2400:	09 f4       	brne	.+2      	; 0x2404 <__vector_39+0x3a>
    2402:	5c c0       	rjmp	.+184    	; 0x24bc <__vector_39+0xf2>
    2404:	90 f4       	brcc	.+36     	; 0x242a <__vector_39+0x60>
    2406:	80 31       	cpi	r24, 0x10	; 16
    2408:	09 f4       	brne	.+2      	; 0x240c <__vector_39+0x42>
    240a:	55 c0       	rjmp	.+170    	; 0x24b6 <__vector_39+0xec>
    240c:	38 f4       	brcc	.+14     	; 0x241c <__vector_39+0x52>
    240e:	88 23       	and	r24, r24
    2410:	09 f4       	brne	.+2      	; 0x2414 <__vector_39+0x4a>
    2412:	f3 c0       	rjmp	.+486    	; 0x25fa <__vector_39+0x230>
    2414:	88 30       	cpi	r24, 0x08	; 8
    2416:	09 f4       	brne	.+2      	; 0x241a <__vector_39+0x50>
    2418:	4e c0       	rjmp	.+156    	; 0x24b6 <__vector_39+0xec>
    241a:	f2 c0       	rjmp	.+484    	; 0x2600 <__vector_39+0x236>
    241c:	88 31       	cpi	r24, 0x18	; 24
    241e:	09 f4       	brne	.+2      	; 0x2422 <__vector_39+0x58>
    2420:	4d c0       	rjmp	.+154    	; 0x24bc <__vector_39+0xf2>
    2422:	80 32       	cpi	r24, 0x20	; 32
    2424:	09 f4       	brne	.+2      	; 0x2428 <__vector_39+0x5e>
    2426:	5e c0       	rjmp	.+188    	; 0x24e4 <__vector_39+0x11a>
    2428:	eb c0       	rjmp	.+470    	; 0x2600 <__vector_39+0x236>
    242a:	80 34       	cpi	r24, 0x40	; 64
    242c:	09 f4       	brne	.+2      	; 0x2430 <__vector_39+0x66>
    242e:	69 c0       	rjmp	.+210    	; 0x2502 <__vector_39+0x138>
    2430:	50 f4       	brcc	.+20     	; 0x2446 <__vector_39+0x7c>
    2432:	80 33       	cpi	r24, 0x30	; 48
    2434:	09 f4       	brne	.+2      	; 0x2438 <__vector_39+0x6e>
    2436:	56 c0       	rjmp	.+172    	; 0x24e4 <__vector_39+0x11a>
    2438:	88 33       	cpi	r24, 0x38	; 56
    243a:	09 f0       	breq	.+2      	; 0x243e <__vector_39+0x74>
    243c:	e1 c0       	rjmp	.+450    	; 0x2600 <__vector_39+0x236>
    243e:	80 93 e3 06 	sts	0x06E3, r24	; 0x8006e3 <twi_error>
    2442:	bd df       	rcall	.-134    	; 0x23be <twi_releaseBus>
    2444:	dd c0       	rjmp	.+442    	; 0x2600 <__vector_39+0x236>
    2446:	80 35       	cpi	r24, 0x50	; 80
    2448:	09 f4       	brne	.+2      	; 0x244c <__vector_39+0x82>
    244a:	4f c0       	rjmp	.+158    	; 0x24ea <__vector_39+0x120>
    244c:	88 35       	cpi	r24, 0x58	; 88
    244e:	09 f4       	brne	.+2      	; 0x2452 <__vector_39+0x88>
    2450:	5d c0       	rjmp	.+186    	; 0x250c <__vector_39+0x142>
    2452:	88 34       	cpi	r24, 0x48	; 72
    2454:	09 f0       	breq	.+2      	; 0x2458 <__vector_39+0x8e>
    2456:	d4 c0       	rjmp	.+424    	; 0x2600 <__vector_39+0x236>
    2458:	d2 c0       	rjmp	.+420    	; 0x25fe <__vector_39+0x234>
    245a:	88 39       	cpi	r24, 0x98	; 152
    245c:	09 f4       	brne	.+2      	; 0x2460 <__vector_39+0x96>
    245e:	c3 c0       	rjmp	.+390    	; 0x25e6 <__vector_39+0x21c>
    2460:	a8 f4       	brcc	.+42     	; 0x248c <__vector_39+0xc2>
    2462:	88 37       	cpi	r24, 0x78	; 120
    2464:	09 f4       	brne	.+2      	; 0x2468 <__vector_39+0x9e>
    2466:	67 c0       	rjmp	.+206    	; 0x2536 <__vector_39+0x16c>
    2468:	38 f4       	brcc	.+14     	; 0x2478 <__vector_39+0xae>
    246a:	88 36       	cpi	r24, 0x68	; 104
    246c:	09 f4       	brne	.+2      	; 0x2470 <__vector_39+0xa6>
    246e:	63 c0       	rjmp	.+198    	; 0x2536 <__vector_39+0x16c>
    2470:	80 37       	cpi	r24, 0x70	; 112
    2472:	09 f4       	brne	.+2      	; 0x2476 <__vector_39+0xac>
    2474:	60 c0       	rjmp	.+192    	; 0x2536 <__vector_39+0x16c>
    2476:	c4 c0       	rjmp	.+392    	; 0x2600 <__vector_39+0x236>
    2478:	88 38       	cpi	r24, 0x88	; 136
    247a:	09 f4       	brne	.+2      	; 0x247e <__vector_39+0xb4>
    247c:	b4 c0       	rjmp	.+360    	; 0x25e6 <__vector_39+0x21c>
    247e:	80 39       	cpi	r24, 0x90	; 144
    2480:	09 f4       	brne	.+2      	; 0x2484 <__vector_39+0xba>
    2482:	5f c0       	rjmp	.+190    	; 0x2542 <__vector_39+0x178>
    2484:	80 38       	cpi	r24, 0x80	; 128
    2486:	09 f0       	breq	.+2      	; 0x248a <__vector_39+0xc0>
    2488:	bb c0       	rjmp	.+374    	; 0x2600 <__vector_39+0x236>
    248a:	5b c0       	rjmp	.+182    	; 0x2542 <__vector_39+0x178>
    248c:	80 3b       	cpi	r24, 0xB0	; 176
    248e:	09 f4       	brne	.+2      	; 0x2492 <__vector_39+0xc8>
    2490:	82 c0       	rjmp	.+260    	; 0x2596 <__vector_39+0x1cc>
    2492:	38 f4       	brcc	.+14     	; 0x24a2 <__vector_39+0xd8>
    2494:	80 3a       	cpi	r24, 0xA0	; 160
    2496:	09 f4       	brne	.+2      	; 0x249a <__vector_39+0xd0>
    2498:	66 c0       	rjmp	.+204    	; 0x2566 <__vector_39+0x19c>
    249a:	88 3a       	cpi	r24, 0xA8	; 168
    249c:	09 f4       	brne	.+2      	; 0x24a0 <__vector_39+0xd6>
    249e:	7b c0       	rjmp	.+246    	; 0x2596 <__vector_39+0x1cc>
    24a0:	af c0       	rjmp	.+350    	; 0x2600 <__vector_39+0x236>
    24a2:	80 3c       	cpi	r24, 0xC0	; 192
    24a4:	09 f4       	brne	.+2      	; 0x24a8 <__vector_39+0xde>
    24a6:	a3 c0       	rjmp	.+326    	; 0x25ee <__vector_39+0x224>
    24a8:	88 3c       	cpi	r24, 0xC8	; 200
    24aa:	09 f4       	brne	.+2      	; 0x24ae <__vector_39+0xe4>
    24ac:	a0 c0       	rjmp	.+320    	; 0x25ee <__vector_39+0x224>
    24ae:	88 3b       	cpi	r24, 0xB8	; 184
    24b0:	09 f4       	brne	.+2      	; 0x24b4 <__vector_39+0xea>
    24b2:	86 c0       	rjmp	.+268    	; 0x25c0 <__vector_39+0x1f6>
    24b4:	a5 c0       	rjmp	.+330    	; 0x2600 <__vector_39+0x236>
    24b6:	80 91 4f 07 	lds	r24, 0x074F	; 0x80074f <twi_slarw>
    24ba:	10 c0       	rjmp	.+32     	; 0x24dc <__vector_39+0x112>
    24bc:	90 91 28 07 	lds	r25, 0x0728	; 0x800728 <twi_masterBufferIndex>
    24c0:	80 91 27 07 	lds	r24, 0x0727	; 0x800727 <twi_masterBufferLength>
    24c4:	98 17       	cp	r25, r24
    24c6:	70 f5       	brcc	.+92     	; 0x2524 <__vector_39+0x15a>
    24c8:	e0 91 28 07 	lds	r30, 0x0728	; 0x800728 <twi_masterBufferIndex>
    24cc:	81 e0       	ldi	r24, 0x01	; 1
    24ce:	8e 0f       	add	r24, r30
    24d0:	80 93 28 07 	sts	0x0728, r24	; 0x800728 <twi_masterBufferIndex>
    24d4:	f0 e0       	ldi	r31, 0x00	; 0
    24d6:	e7 5d       	subi	r30, 0xD7	; 215
    24d8:	f8 4f       	sbci	r31, 0xF8	; 248
    24da:	80 81       	ld	r24, Z
    24dc:	80 93 bb 00 	sts	0x00BB, r24	; 0x8000bb <__TEXT_REGION_LENGTH__+0x7000bb>
    24e0:	85 ec       	ldi	r24, 0xC5	; 197
    24e2:	82 c0       	rjmp	.+260    	; 0x25e8 <__vector_39+0x21e>
    24e4:	80 93 e3 06 	sts	0x06E3, r24	; 0x8006e3 <twi_error>
    24e8:	8a c0       	rjmp	.+276    	; 0x25fe <__vector_39+0x234>
    24ea:	e0 91 28 07 	lds	r30, 0x0728	; 0x800728 <twi_masterBufferIndex>
    24ee:	81 e0       	ldi	r24, 0x01	; 1
    24f0:	8e 0f       	add	r24, r30
    24f2:	80 93 28 07 	sts	0x0728, r24	; 0x800728 <twi_masterBufferIndex>
    24f6:	80 91 bb 00 	lds	r24, 0x00BB	; 0x8000bb <__TEXT_REGION_LENGTH__+0x7000bb>
    24fa:	f0 e0       	ldi	r31, 0x00	; 0
    24fc:	e7 5d       	subi	r30, 0xD7	; 215
    24fe:	f8 4f       	sbci	r31, 0xF8	; 248
    2500:	80 83       	st	Z, r24
    2502:	90 91 28 07 	lds	r25, 0x0728	; 0x800728 <twi_masterBufferIndex>
    2506:	80 91 27 07 	lds	r24, 0x0727	; 0x800727 <twi_masterBufferLength>
    250a:	6a c0       	rjmp	.+212    	; 0x25e0 <__vector_39+0x216>
    250c:	e0 91 28 07 	lds	r30, 0x0728	; 0x800728 <twi_masterBufferIndex>
    2510:	81 e0       	ldi	r24, 0x01	; 1
    2512:	8e 0f       	add	r24, r30
    2514:	80 93 28 07 	sts	0x0728, r24	; 0x800728 <twi_masterBufferIndex>
    2518:	80 91 bb 00 	lds	r24, 0x00BB	; 0x8000bb <__TEXT_REGION_LENGTH__+0x7000bb>
    251c:	f0 e0       	ldi	r31, 0x00	; 0
    251e:	e7 5d       	subi	r30, 0xD7	; 215
    2520:	f8 4f       	sbci	r31, 0xF8	; 248
    2522:	80 83       	st	Z, r24
    2524:	80 91 4e 07 	lds	r24, 0x074E	; 0x80074e <twi_sendStop>
    2528:	81 11       	cpse	r24, r1
    252a:	69 c0       	rjmp	.+210    	; 0x25fe <__vector_39+0x234>
    252c:	81 e0       	ldi	r24, 0x01	; 1
    252e:	80 93 4d 07 	sts	0x074D, r24	; 0x80074d <twi_inRepStart>
    2532:	84 ea       	ldi	r24, 0xA4	; 164
    2534:	5d c0       	rjmp	.+186    	; 0x25f0 <__vector_39+0x226>
    2536:	83 e0       	ldi	r24, 0x03	; 3
    2538:	80 93 50 07 	sts	0x0750, r24	; 0x800750 <twi_state>
    253c:	10 92 e4 06 	sts	0x06E4, r1	; 0x8006e4 <twi_rxBufferIndex>
    2540:	cf cf       	rjmp	.-98     	; 0x24e0 <__vector_39+0x116>
    2542:	80 91 e4 06 	lds	r24, 0x06E4	; 0x8006e4 <twi_rxBufferIndex>
    2546:	80 32       	cpi	r24, 0x20	; 32
    2548:	08 f0       	brcs	.+2      	; 0x254c <__vector_39+0x182>
    254a:	4d c0       	rjmp	.+154    	; 0x25e6 <__vector_39+0x21c>
    254c:	e0 91 e4 06 	lds	r30, 0x06E4	; 0x8006e4 <twi_rxBufferIndex>
    2550:	81 e0       	ldi	r24, 0x01	; 1
    2552:	8e 0f       	add	r24, r30
    2554:	80 93 e4 06 	sts	0x06E4, r24	; 0x8006e4 <twi_rxBufferIndex>
    2558:	80 91 bb 00 	lds	r24, 0x00BB	; 0x8000bb <__TEXT_REGION_LENGTH__+0x7000bb>
    255c:	f0 e0       	ldi	r31, 0x00	; 0
    255e:	eb 51       	subi	r30, 0x1B	; 27
    2560:	f9 4f       	sbci	r31, 0xF9	; 249
    2562:	80 83       	st	Z, r24
    2564:	bd cf       	rjmp	.-134    	; 0x24e0 <__vector_39+0x116>
    2566:	2b df       	rcall	.-426    	; 0x23be <twi_releaseBus>
    2568:	80 91 e4 06 	lds	r24, 0x06E4	; 0x8006e4 <twi_rxBufferIndex>
    256c:	80 32       	cpi	r24, 0x20	; 32
    256e:	30 f4       	brcc	.+12     	; 0x257c <__vector_39+0x1b2>
    2570:	e0 91 e4 06 	lds	r30, 0x06E4	; 0x8006e4 <twi_rxBufferIndex>
    2574:	f0 e0       	ldi	r31, 0x00	; 0
    2576:	eb 51       	subi	r30, 0x1B	; 27
    2578:	f9 4f       	sbci	r31, 0xF9	; 249
    257a:	10 82       	st	Z, r1
    257c:	60 91 e4 06 	lds	r22, 0x06E4	; 0x8006e4 <twi_rxBufferIndex>
    2580:	70 e0       	ldi	r23, 0x00	; 0
    2582:	e0 91 49 07 	lds	r30, 0x0749	; 0x800749 <twi_onSlaveReceive>
    2586:	f0 91 4a 07 	lds	r31, 0x074A	; 0x80074a <twi_onSlaveReceive+0x1>
    258a:	85 ee       	ldi	r24, 0xE5	; 229
    258c:	96 e0       	ldi	r25, 0x06	; 6
    258e:	19 95       	eicall
    2590:	10 92 e4 06 	sts	0x06E4, r1	; 0x8006e4 <twi_rxBufferIndex>
    2594:	35 c0       	rjmp	.+106    	; 0x2600 <__vector_39+0x236>
    2596:	84 e0       	ldi	r24, 0x04	; 4
    2598:	80 93 50 07 	sts	0x0750, r24	; 0x800750 <twi_state>
    259c:	10 92 06 07 	sts	0x0706, r1	; 0x800706 <twi_txBufferIndex>
    25a0:	10 92 05 07 	sts	0x0705, r1	; 0x800705 <twi_txBufferLength>
    25a4:	e0 91 4b 07 	lds	r30, 0x074B	; 0x80074b <twi_onSlaveTransmit>
    25a8:	f0 91 4c 07 	lds	r31, 0x074C	; 0x80074c <twi_onSlaveTransmit+0x1>
    25ac:	19 95       	eicall
    25ae:	80 91 05 07 	lds	r24, 0x0705	; 0x800705 <twi_txBufferLength>
    25b2:	81 11       	cpse	r24, r1
    25b4:	05 c0       	rjmp	.+10     	; 0x25c0 <__vector_39+0x1f6>
    25b6:	81 e0       	ldi	r24, 0x01	; 1
    25b8:	80 93 05 07 	sts	0x0705, r24	; 0x800705 <twi_txBufferLength>
    25bc:	10 92 07 07 	sts	0x0707, r1	; 0x800707 <twi_txBuffer>
    25c0:	e0 91 06 07 	lds	r30, 0x0706	; 0x800706 <twi_txBufferIndex>
    25c4:	81 e0       	ldi	r24, 0x01	; 1
    25c6:	8e 0f       	add	r24, r30
    25c8:	80 93 06 07 	sts	0x0706, r24	; 0x800706 <twi_txBufferIndex>
    25cc:	f0 e0       	ldi	r31, 0x00	; 0
    25ce:	e9 5f       	subi	r30, 0xF9	; 249
    25d0:	f8 4f       	sbci	r31, 0xF8	; 248
    25d2:	80 81       	ld	r24, Z
    25d4:	80 93 bb 00 	sts	0x00BB, r24	; 0x8000bb <__TEXT_REGION_LENGTH__+0x7000bb>
    25d8:	90 91 06 07 	lds	r25, 0x0706	; 0x800706 <twi_txBufferIndex>
    25dc:	80 91 05 07 	lds	r24, 0x0705	; 0x800705 <twi_txBufferLength>
    25e0:	98 17       	cp	r25, r24
    25e2:	08 f4       	brcc	.+2      	; 0x25e6 <__vector_39+0x21c>
    25e4:	7d cf       	rjmp	.-262    	; 0x24e0 <__vector_39+0x116>
    25e6:	85 e8       	ldi	r24, 0x85	; 133
    25e8:	80 93 bc 00 	sts	0x00BC, r24	; 0x8000bc <__TEXT_REGION_LENGTH__+0x7000bc>
    25ec:	09 c0       	rjmp	.+18     	; 0x2600 <__vector_39+0x236>
    25ee:	85 ec       	ldi	r24, 0xC5	; 197
    25f0:	80 93 bc 00 	sts	0x00BC, r24	; 0x8000bc <__TEXT_REGION_LENGTH__+0x7000bc>
    25f4:	10 92 50 07 	sts	0x0750, r1	; 0x800750 <twi_state>
    25f8:	03 c0       	rjmp	.+6      	; 0x2600 <__vector_39+0x236>
    25fa:	10 92 e3 06 	sts	0x06E3, r1	; 0x8006e3 <twi_error>
    25fe:	d5 de       	rcall	.-598    	; 0x23aa <twi_stop>
    2600:	ff 91       	pop	r31
    2602:	ef 91       	pop	r30
    2604:	bf 91       	pop	r27
    2606:	af 91       	pop	r26
    2608:	9f 91       	pop	r25
    260a:	8f 91       	pop	r24
    260c:	7f 91       	pop	r23
    260e:	6f 91       	pop	r22
    2610:	5f 91       	pop	r21
    2612:	4f 91       	pop	r20
    2614:	3f 91       	pop	r19
    2616:	2f 91       	pop	r18
    2618:	0f 90       	pop	r0
    261a:	0b be       	out	0x3b, r0	; 59
    261c:	0f 90       	pop	r0
    261e:	0f be       	out	0x3f, r0	; 63
    2620:	0f 90       	pop	r0
    2622:	1f 90       	pop	r1
    2624:	18 95       	reti

00002626 <__subsf3>:
    2626:	50 58       	subi	r21, 0x80	; 128

00002628 <__addsf3>:
    2628:	bb 27       	eor	r27, r27
    262a:	aa 27       	eor	r26, r26
    262c:	0e d0       	rcall	.+28     	; 0x264a <__addsf3x>
    262e:	75 c1       	rjmp	.+746    	; 0x291a <__fp_round>
    2630:	66 d1       	rcall	.+716    	; 0x28fe <__fp_pscA>
    2632:	30 f0       	brcs	.+12     	; 0x2640 <__addsf3+0x18>
    2634:	6b d1       	rcall	.+726    	; 0x290c <__fp_pscB>
    2636:	20 f0       	brcs	.+8      	; 0x2640 <__addsf3+0x18>
    2638:	31 f4       	brne	.+12     	; 0x2646 <__addsf3+0x1e>
    263a:	9f 3f       	cpi	r25, 0xFF	; 255
    263c:	11 f4       	brne	.+4      	; 0x2642 <__addsf3+0x1a>
    263e:	1e f4       	brtc	.+6      	; 0x2646 <__addsf3+0x1e>
    2640:	5b c1       	rjmp	.+694    	; 0x28f8 <__fp_nan>
    2642:	0e f4       	brtc	.+2      	; 0x2646 <__addsf3+0x1e>
    2644:	e0 95       	com	r30
    2646:	e7 fb       	bst	r30, 7
    2648:	51 c1       	rjmp	.+674    	; 0x28ec <__fp_inf>

0000264a <__addsf3x>:
    264a:	e9 2f       	mov	r30, r25
    264c:	77 d1       	rcall	.+750    	; 0x293c <__fp_split3>
    264e:	80 f3       	brcs	.-32     	; 0x2630 <__addsf3+0x8>
    2650:	ba 17       	cp	r27, r26
    2652:	62 07       	cpc	r22, r18
    2654:	73 07       	cpc	r23, r19
    2656:	84 07       	cpc	r24, r20
    2658:	95 07       	cpc	r25, r21
    265a:	18 f0       	brcs	.+6      	; 0x2662 <__addsf3x+0x18>
    265c:	71 f4       	brne	.+28     	; 0x267a <__addsf3x+0x30>
    265e:	9e f5       	brtc	.+102    	; 0x26c6 <__addsf3x+0x7c>
    2660:	8f c1       	rjmp	.+798    	; 0x2980 <__fp_zero>
    2662:	0e f4       	brtc	.+2      	; 0x2666 <__addsf3x+0x1c>
    2664:	e0 95       	com	r30
    2666:	0b 2e       	mov	r0, r27
    2668:	ba 2f       	mov	r27, r26
    266a:	a0 2d       	mov	r26, r0
    266c:	0b 01       	movw	r0, r22
    266e:	b9 01       	movw	r22, r18
    2670:	90 01       	movw	r18, r0
    2672:	0c 01       	movw	r0, r24
    2674:	ca 01       	movw	r24, r20
    2676:	a0 01       	movw	r20, r0
    2678:	11 24       	eor	r1, r1
    267a:	ff 27       	eor	r31, r31
    267c:	59 1b       	sub	r21, r25
    267e:	99 f0       	breq	.+38     	; 0x26a6 <__addsf3x+0x5c>
    2680:	59 3f       	cpi	r21, 0xF9	; 249
    2682:	50 f4       	brcc	.+20     	; 0x2698 <__addsf3x+0x4e>
    2684:	50 3e       	cpi	r21, 0xE0	; 224
    2686:	68 f1       	brcs	.+90     	; 0x26e2 <__addsf3x+0x98>
    2688:	1a 16       	cp	r1, r26
    268a:	f0 40       	sbci	r31, 0x00	; 0
    268c:	a2 2f       	mov	r26, r18
    268e:	23 2f       	mov	r18, r19
    2690:	34 2f       	mov	r19, r20
    2692:	44 27       	eor	r20, r20
    2694:	58 5f       	subi	r21, 0xF8	; 248
    2696:	f3 cf       	rjmp	.-26     	; 0x267e <__addsf3x+0x34>
    2698:	46 95       	lsr	r20
    269a:	37 95       	ror	r19
    269c:	27 95       	ror	r18
    269e:	a7 95       	ror	r26
    26a0:	f0 40       	sbci	r31, 0x00	; 0
    26a2:	53 95       	inc	r21
    26a4:	c9 f7       	brne	.-14     	; 0x2698 <__addsf3x+0x4e>
    26a6:	7e f4       	brtc	.+30     	; 0x26c6 <__addsf3x+0x7c>
    26a8:	1f 16       	cp	r1, r31
    26aa:	ba 0b       	sbc	r27, r26
    26ac:	62 0b       	sbc	r22, r18
    26ae:	73 0b       	sbc	r23, r19
    26b0:	84 0b       	sbc	r24, r20
    26b2:	ba f0       	brmi	.+46     	; 0x26e2 <__addsf3x+0x98>
    26b4:	91 50       	subi	r25, 0x01	; 1
    26b6:	a1 f0       	breq	.+40     	; 0x26e0 <__addsf3x+0x96>
    26b8:	ff 0f       	add	r31, r31
    26ba:	bb 1f       	adc	r27, r27
    26bc:	66 1f       	adc	r22, r22
    26be:	77 1f       	adc	r23, r23
    26c0:	88 1f       	adc	r24, r24
    26c2:	c2 f7       	brpl	.-16     	; 0x26b4 <__addsf3x+0x6a>
    26c4:	0e c0       	rjmp	.+28     	; 0x26e2 <__addsf3x+0x98>
    26c6:	ba 0f       	add	r27, r26
    26c8:	62 1f       	adc	r22, r18
    26ca:	73 1f       	adc	r23, r19
    26cc:	84 1f       	adc	r24, r20
    26ce:	48 f4       	brcc	.+18     	; 0x26e2 <__addsf3x+0x98>
    26d0:	87 95       	ror	r24
    26d2:	77 95       	ror	r23
    26d4:	67 95       	ror	r22
    26d6:	b7 95       	ror	r27
    26d8:	f7 95       	ror	r31
    26da:	9e 3f       	cpi	r25, 0xFE	; 254
    26dc:	08 f0       	brcs	.+2      	; 0x26e0 <__addsf3x+0x96>
    26de:	b3 cf       	rjmp	.-154    	; 0x2646 <__addsf3+0x1e>
    26e0:	93 95       	inc	r25
    26e2:	88 0f       	add	r24, r24
    26e4:	08 f0       	brcs	.+2      	; 0x26e8 <__addsf3x+0x9e>
    26e6:	99 27       	eor	r25, r25
    26e8:	ee 0f       	add	r30, r30
    26ea:	97 95       	ror	r25
    26ec:	87 95       	ror	r24
    26ee:	08 95       	ret

000026f0 <__cmpsf2>:
    26f0:	d9 d0       	rcall	.+434    	; 0x28a4 <__fp_cmp>
    26f2:	08 f4       	brcc	.+2      	; 0x26f6 <__cmpsf2+0x6>
    26f4:	81 e0       	ldi	r24, 0x01	; 1
    26f6:	08 95       	ret

000026f8 <__divsf3>:
    26f8:	0c d0       	rcall	.+24     	; 0x2712 <__divsf3x>
    26fa:	0f c1       	rjmp	.+542    	; 0x291a <__fp_round>
    26fc:	07 d1       	rcall	.+526    	; 0x290c <__fp_pscB>
    26fe:	40 f0       	brcs	.+16     	; 0x2710 <__divsf3+0x18>
    2700:	fe d0       	rcall	.+508    	; 0x28fe <__fp_pscA>
    2702:	30 f0       	brcs	.+12     	; 0x2710 <__divsf3+0x18>
    2704:	21 f4       	brne	.+8      	; 0x270e <__divsf3+0x16>
    2706:	5f 3f       	cpi	r21, 0xFF	; 255
    2708:	19 f0       	breq	.+6      	; 0x2710 <__divsf3+0x18>
    270a:	f0 c0       	rjmp	.+480    	; 0x28ec <__fp_inf>
    270c:	51 11       	cpse	r21, r1
    270e:	39 c1       	rjmp	.+626    	; 0x2982 <__fp_szero>
    2710:	f3 c0       	rjmp	.+486    	; 0x28f8 <__fp_nan>

00002712 <__divsf3x>:
    2712:	14 d1       	rcall	.+552    	; 0x293c <__fp_split3>
    2714:	98 f3       	brcs	.-26     	; 0x26fc <__divsf3+0x4>

00002716 <__divsf3_pse>:
    2716:	99 23       	and	r25, r25
    2718:	c9 f3       	breq	.-14     	; 0x270c <__divsf3+0x14>
    271a:	55 23       	and	r21, r21
    271c:	b1 f3       	breq	.-20     	; 0x270a <__divsf3+0x12>
    271e:	95 1b       	sub	r25, r21
    2720:	55 0b       	sbc	r21, r21
    2722:	bb 27       	eor	r27, r27
    2724:	aa 27       	eor	r26, r26
    2726:	62 17       	cp	r22, r18
    2728:	73 07       	cpc	r23, r19
    272a:	84 07       	cpc	r24, r20
    272c:	38 f0       	brcs	.+14     	; 0x273c <__divsf3_pse+0x26>
    272e:	9f 5f       	subi	r25, 0xFF	; 255
    2730:	5f 4f       	sbci	r21, 0xFF	; 255
    2732:	22 0f       	add	r18, r18
    2734:	33 1f       	adc	r19, r19
    2736:	44 1f       	adc	r20, r20
    2738:	aa 1f       	adc	r26, r26
    273a:	a9 f3       	breq	.-22     	; 0x2726 <__divsf3_pse+0x10>
    273c:	33 d0       	rcall	.+102    	; 0x27a4 <__divsf3_pse+0x8e>
    273e:	0e 2e       	mov	r0, r30
    2740:	3a f0       	brmi	.+14     	; 0x2750 <__divsf3_pse+0x3a>
    2742:	e0 e8       	ldi	r30, 0x80	; 128
    2744:	30 d0       	rcall	.+96     	; 0x27a6 <__divsf3_pse+0x90>
    2746:	91 50       	subi	r25, 0x01	; 1
    2748:	50 40       	sbci	r21, 0x00	; 0
    274a:	e6 95       	lsr	r30
    274c:	00 1c       	adc	r0, r0
    274e:	ca f7       	brpl	.-14     	; 0x2742 <__divsf3_pse+0x2c>
    2750:	29 d0       	rcall	.+82     	; 0x27a4 <__divsf3_pse+0x8e>
    2752:	fe 2f       	mov	r31, r30
    2754:	27 d0       	rcall	.+78     	; 0x27a4 <__divsf3_pse+0x8e>
    2756:	66 0f       	add	r22, r22
    2758:	77 1f       	adc	r23, r23
    275a:	88 1f       	adc	r24, r24
    275c:	bb 1f       	adc	r27, r27
    275e:	26 17       	cp	r18, r22
    2760:	37 07       	cpc	r19, r23
    2762:	48 07       	cpc	r20, r24
    2764:	ab 07       	cpc	r26, r27
    2766:	b0 e8       	ldi	r27, 0x80	; 128
    2768:	09 f0       	breq	.+2      	; 0x276c <__divsf3_pse+0x56>
    276a:	bb 0b       	sbc	r27, r27
    276c:	80 2d       	mov	r24, r0
    276e:	bf 01       	movw	r22, r30
    2770:	ff 27       	eor	r31, r31
    2772:	93 58       	subi	r25, 0x83	; 131
    2774:	5f 4f       	sbci	r21, 0xFF	; 255
    2776:	2a f0       	brmi	.+10     	; 0x2782 <__divsf3_pse+0x6c>
    2778:	9e 3f       	cpi	r25, 0xFE	; 254
    277a:	51 05       	cpc	r21, r1
    277c:	68 f0       	brcs	.+26     	; 0x2798 <__divsf3_pse+0x82>
    277e:	b6 c0       	rjmp	.+364    	; 0x28ec <__fp_inf>
    2780:	00 c1       	rjmp	.+512    	; 0x2982 <__fp_szero>
    2782:	5f 3f       	cpi	r21, 0xFF	; 255
    2784:	ec f3       	brlt	.-6      	; 0x2780 <__divsf3_pse+0x6a>
    2786:	98 3e       	cpi	r25, 0xE8	; 232
    2788:	dc f3       	brlt	.-10     	; 0x2780 <__divsf3_pse+0x6a>
    278a:	86 95       	lsr	r24
    278c:	77 95       	ror	r23
    278e:	67 95       	ror	r22
    2790:	b7 95       	ror	r27
    2792:	f7 95       	ror	r31
    2794:	9f 5f       	subi	r25, 0xFF	; 255
    2796:	c9 f7       	brne	.-14     	; 0x278a <__divsf3_pse+0x74>
    2798:	88 0f       	add	r24, r24
    279a:	91 1d       	adc	r25, r1
    279c:	96 95       	lsr	r25
    279e:	87 95       	ror	r24
    27a0:	97 f9       	bld	r25, 7
    27a2:	08 95       	ret
    27a4:	e1 e0       	ldi	r30, 0x01	; 1
    27a6:	66 0f       	add	r22, r22
    27a8:	77 1f       	adc	r23, r23
    27aa:	88 1f       	adc	r24, r24
    27ac:	bb 1f       	adc	r27, r27
    27ae:	62 17       	cp	r22, r18
    27b0:	73 07       	cpc	r23, r19
    27b2:	84 07       	cpc	r24, r20
    27b4:	ba 07       	cpc	r27, r26
    27b6:	20 f0       	brcs	.+8      	; 0x27c0 <__divsf3_pse+0xaa>
    27b8:	62 1b       	sub	r22, r18
    27ba:	73 0b       	sbc	r23, r19
    27bc:	84 0b       	sbc	r24, r20
    27be:	ba 0b       	sbc	r27, r26
    27c0:	ee 1f       	adc	r30, r30
    27c2:	88 f7       	brcc	.-30     	; 0x27a6 <__divsf3_pse+0x90>
    27c4:	e0 95       	com	r30
    27c6:	08 95       	ret

000027c8 <__fixsfsi>:
    27c8:	04 d0       	rcall	.+8      	; 0x27d2 <__fixunssfsi>
    27ca:	68 94       	set
    27cc:	b1 11       	cpse	r27, r1
    27ce:	d9 c0       	rjmp	.+434    	; 0x2982 <__fp_szero>
    27d0:	08 95       	ret

000027d2 <__fixunssfsi>:
    27d2:	bc d0       	rcall	.+376    	; 0x294c <__fp_splitA>
    27d4:	88 f0       	brcs	.+34     	; 0x27f8 <__fixunssfsi+0x26>
    27d6:	9f 57       	subi	r25, 0x7F	; 127
    27d8:	90 f0       	brcs	.+36     	; 0x27fe <__fixunssfsi+0x2c>
    27da:	b9 2f       	mov	r27, r25
    27dc:	99 27       	eor	r25, r25
    27de:	b7 51       	subi	r27, 0x17	; 23
    27e0:	a0 f0       	brcs	.+40     	; 0x280a <__fixunssfsi+0x38>
    27e2:	d1 f0       	breq	.+52     	; 0x2818 <__fixunssfsi+0x46>
    27e4:	66 0f       	add	r22, r22
    27e6:	77 1f       	adc	r23, r23
    27e8:	88 1f       	adc	r24, r24
    27ea:	99 1f       	adc	r25, r25
    27ec:	1a f0       	brmi	.+6      	; 0x27f4 <__fixunssfsi+0x22>
    27ee:	ba 95       	dec	r27
    27f0:	c9 f7       	brne	.-14     	; 0x27e4 <__fixunssfsi+0x12>
    27f2:	12 c0       	rjmp	.+36     	; 0x2818 <__fixunssfsi+0x46>
    27f4:	b1 30       	cpi	r27, 0x01	; 1
    27f6:	81 f0       	breq	.+32     	; 0x2818 <__fixunssfsi+0x46>
    27f8:	c3 d0       	rcall	.+390    	; 0x2980 <__fp_zero>
    27fa:	b1 e0       	ldi	r27, 0x01	; 1
    27fc:	08 95       	ret
    27fe:	c0 c0       	rjmp	.+384    	; 0x2980 <__fp_zero>
    2800:	67 2f       	mov	r22, r23
    2802:	78 2f       	mov	r23, r24
    2804:	88 27       	eor	r24, r24
    2806:	b8 5f       	subi	r27, 0xF8	; 248
    2808:	39 f0       	breq	.+14     	; 0x2818 <__fixunssfsi+0x46>
    280a:	b9 3f       	cpi	r27, 0xF9	; 249
    280c:	cc f3       	brlt	.-14     	; 0x2800 <__fixunssfsi+0x2e>
    280e:	86 95       	lsr	r24
    2810:	77 95       	ror	r23
    2812:	67 95       	ror	r22
    2814:	b3 95       	inc	r27
    2816:	d9 f7       	brne	.-10     	; 0x280e <__fixunssfsi+0x3c>
    2818:	3e f4       	brtc	.+14     	; 0x2828 <__fixunssfsi+0x56>
    281a:	90 95       	com	r25
    281c:	80 95       	com	r24
    281e:	70 95       	com	r23
    2820:	61 95       	neg	r22
    2822:	7f 4f       	sbci	r23, 0xFF	; 255
    2824:	8f 4f       	sbci	r24, 0xFF	; 255
    2826:	9f 4f       	sbci	r25, 0xFF	; 255
    2828:	08 95       	ret

0000282a <__floatunsisf>:
    282a:	e8 94       	clt
    282c:	09 c0       	rjmp	.+18     	; 0x2840 <__floatsisf+0x12>

0000282e <__floatsisf>:
    282e:	97 fb       	bst	r25, 7
    2830:	3e f4       	brtc	.+14     	; 0x2840 <__floatsisf+0x12>
    2832:	90 95       	com	r25
    2834:	80 95       	com	r24
    2836:	70 95       	com	r23
    2838:	61 95       	neg	r22
    283a:	7f 4f       	sbci	r23, 0xFF	; 255
    283c:	8f 4f       	sbci	r24, 0xFF	; 255
    283e:	9f 4f       	sbci	r25, 0xFF	; 255
    2840:	99 23       	and	r25, r25
    2842:	a9 f0       	breq	.+42     	; 0x286e <__floatsisf+0x40>
    2844:	f9 2f       	mov	r31, r25
    2846:	96 e9       	ldi	r25, 0x96	; 150
    2848:	bb 27       	eor	r27, r27
    284a:	93 95       	inc	r25
    284c:	f6 95       	lsr	r31
    284e:	87 95       	ror	r24
    2850:	77 95       	ror	r23
    2852:	67 95       	ror	r22
    2854:	b7 95       	ror	r27
    2856:	f1 11       	cpse	r31, r1
    2858:	f8 cf       	rjmp	.-16     	; 0x284a <__floatsisf+0x1c>
    285a:	fa f4       	brpl	.+62     	; 0x289a <__floatsisf+0x6c>
    285c:	bb 0f       	add	r27, r27
    285e:	11 f4       	brne	.+4      	; 0x2864 <__floatsisf+0x36>
    2860:	60 ff       	sbrs	r22, 0
    2862:	1b c0       	rjmp	.+54     	; 0x289a <__floatsisf+0x6c>
    2864:	6f 5f       	subi	r22, 0xFF	; 255
    2866:	7f 4f       	sbci	r23, 0xFF	; 255
    2868:	8f 4f       	sbci	r24, 0xFF	; 255
    286a:	9f 4f       	sbci	r25, 0xFF	; 255
    286c:	16 c0       	rjmp	.+44     	; 0x289a <__floatsisf+0x6c>
    286e:	88 23       	and	r24, r24
    2870:	11 f0       	breq	.+4      	; 0x2876 <__floatsisf+0x48>
    2872:	96 e9       	ldi	r25, 0x96	; 150
    2874:	11 c0       	rjmp	.+34     	; 0x2898 <__floatsisf+0x6a>
    2876:	77 23       	and	r23, r23
    2878:	21 f0       	breq	.+8      	; 0x2882 <__floatsisf+0x54>
    287a:	9e e8       	ldi	r25, 0x8E	; 142
    287c:	87 2f       	mov	r24, r23
    287e:	76 2f       	mov	r23, r22
    2880:	05 c0       	rjmp	.+10     	; 0x288c <__floatsisf+0x5e>
    2882:	66 23       	and	r22, r22
    2884:	71 f0       	breq	.+28     	; 0x28a2 <__floatsisf+0x74>
    2886:	96 e8       	ldi	r25, 0x86	; 134
    2888:	86 2f       	mov	r24, r22
    288a:	70 e0       	ldi	r23, 0x00	; 0
    288c:	60 e0       	ldi	r22, 0x00	; 0
    288e:	2a f0       	brmi	.+10     	; 0x289a <__floatsisf+0x6c>
    2890:	9a 95       	dec	r25
    2892:	66 0f       	add	r22, r22
    2894:	77 1f       	adc	r23, r23
    2896:	88 1f       	adc	r24, r24
    2898:	da f7       	brpl	.-10     	; 0x2890 <__floatsisf+0x62>
    289a:	88 0f       	add	r24, r24
    289c:	96 95       	lsr	r25
    289e:	87 95       	ror	r24
    28a0:	97 f9       	bld	r25, 7
    28a2:	08 95       	ret

000028a4 <__fp_cmp>:
    28a4:	99 0f       	add	r25, r25
    28a6:	00 08       	sbc	r0, r0
    28a8:	55 0f       	add	r21, r21
    28aa:	aa 0b       	sbc	r26, r26
    28ac:	e0 e8       	ldi	r30, 0x80	; 128
    28ae:	fe ef       	ldi	r31, 0xFE	; 254
    28b0:	16 16       	cp	r1, r22
    28b2:	17 06       	cpc	r1, r23
    28b4:	e8 07       	cpc	r30, r24
    28b6:	f9 07       	cpc	r31, r25
    28b8:	c0 f0       	brcs	.+48     	; 0x28ea <__fp_cmp+0x46>
    28ba:	12 16       	cp	r1, r18
    28bc:	13 06       	cpc	r1, r19
    28be:	e4 07       	cpc	r30, r20
    28c0:	f5 07       	cpc	r31, r21
    28c2:	98 f0       	brcs	.+38     	; 0x28ea <__fp_cmp+0x46>
    28c4:	62 1b       	sub	r22, r18
    28c6:	73 0b       	sbc	r23, r19
    28c8:	84 0b       	sbc	r24, r20
    28ca:	95 0b       	sbc	r25, r21
    28cc:	39 f4       	brne	.+14     	; 0x28dc <__fp_cmp+0x38>
    28ce:	0a 26       	eor	r0, r26
    28d0:	61 f0       	breq	.+24     	; 0x28ea <__fp_cmp+0x46>
    28d2:	23 2b       	or	r18, r19
    28d4:	24 2b       	or	r18, r20
    28d6:	25 2b       	or	r18, r21
    28d8:	21 f4       	brne	.+8      	; 0x28e2 <__fp_cmp+0x3e>
    28da:	08 95       	ret
    28dc:	0a 26       	eor	r0, r26
    28de:	09 f4       	brne	.+2      	; 0x28e2 <__fp_cmp+0x3e>
    28e0:	a1 40       	sbci	r26, 0x01	; 1
    28e2:	a6 95       	lsr	r26
    28e4:	8f ef       	ldi	r24, 0xFF	; 255
    28e6:	81 1d       	adc	r24, r1
    28e8:	81 1d       	adc	r24, r1
    28ea:	08 95       	ret

000028ec <__fp_inf>:
    28ec:	97 f9       	bld	r25, 7
    28ee:	9f 67       	ori	r25, 0x7F	; 127
    28f0:	80 e8       	ldi	r24, 0x80	; 128
    28f2:	70 e0       	ldi	r23, 0x00	; 0
    28f4:	60 e0       	ldi	r22, 0x00	; 0
    28f6:	08 95       	ret

000028f8 <__fp_nan>:
    28f8:	9f ef       	ldi	r25, 0xFF	; 255
    28fa:	80 ec       	ldi	r24, 0xC0	; 192
    28fc:	08 95       	ret

000028fe <__fp_pscA>:
    28fe:	00 24       	eor	r0, r0
    2900:	0a 94       	dec	r0
    2902:	16 16       	cp	r1, r22
    2904:	17 06       	cpc	r1, r23
    2906:	18 06       	cpc	r1, r24
    2908:	09 06       	cpc	r0, r25
    290a:	08 95       	ret

0000290c <__fp_pscB>:
    290c:	00 24       	eor	r0, r0
    290e:	0a 94       	dec	r0
    2910:	12 16       	cp	r1, r18
    2912:	13 06       	cpc	r1, r19
    2914:	14 06       	cpc	r1, r20
    2916:	05 06       	cpc	r0, r21
    2918:	08 95       	ret

0000291a <__fp_round>:
    291a:	09 2e       	mov	r0, r25
    291c:	03 94       	inc	r0
    291e:	00 0c       	add	r0, r0
    2920:	11 f4       	brne	.+4      	; 0x2926 <__fp_round+0xc>
    2922:	88 23       	and	r24, r24
    2924:	52 f0       	brmi	.+20     	; 0x293a <__fp_round+0x20>
    2926:	bb 0f       	add	r27, r27
    2928:	40 f4       	brcc	.+16     	; 0x293a <__fp_round+0x20>
    292a:	bf 2b       	or	r27, r31
    292c:	11 f4       	brne	.+4      	; 0x2932 <__fp_round+0x18>
    292e:	60 ff       	sbrs	r22, 0
    2930:	04 c0       	rjmp	.+8      	; 0x293a <__fp_round+0x20>
    2932:	6f 5f       	subi	r22, 0xFF	; 255
    2934:	7f 4f       	sbci	r23, 0xFF	; 255
    2936:	8f 4f       	sbci	r24, 0xFF	; 255
    2938:	9f 4f       	sbci	r25, 0xFF	; 255
    293a:	08 95       	ret

0000293c <__fp_split3>:
    293c:	57 fd       	sbrc	r21, 7
    293e:	90 58       	subi	r25, 0x80	; 128
    2940:	44 0f       	add	r20, r20
    2942:	55 1f       	adc	r21, r21
    2944:	59 f0       	breq	.+22     	; 0x295c <__fp_splitA+0x10>
    2946:	5f 3f       	cpi	r21, 0xFF	; 255
    2948:	71 f0       	breq	.+28     	; 0x2966 <__fp_splitA+0x1a>
    294a:	47 95       	ror	r20

0000294c <__fp_splitA>:
    294c:	88 0f       	add	r24, r24
    294e:	97 fb       	bst	r25, 7
    2950:	99 1f       	adc	r25, r25
    2952:	61 f0       	breq	.+24     	; 0x296c <__fp_splitA+0x20>
    2954:	9f 3f       	cpi	r25, 0xFF	; 255
    2956:	79 f0       	breq	.+30     	; 0x2976 <__fp_splitA+0x2a>
    2958:	87 95       	ror	r24
    295a:	08 95       	ret
    295c:	12 16       	cp	r1, r18
    295e:	13 06       	cpc	r1, r19
    2960:	14 06       	cpc	r1, r20
    2962:	55 1f       	adc	r21, r21
    2964:	f2 cf       	rjmp	.-28     	; 0x294a <__fp_split3+0xe>
    2966:	46 95       	lsr	r20
    2968:	f1 df       	rcall	.-30     	; 0x294c <__fp_splitA>
    296a:	08 c0       	rjmp	.+16     	; 0x297c <__fp_splitA+0x30>
    296c:	16 16       	cp	r1, r22
    296e:	17 06       	cpc	r1, r23
    2970:	18 06       	cpc	r1, r24
    2972:	99 1f       	adc	r25, r25
    2974:	f1 cf       	rjmp	.-30     	; 0x2958 <__fp_splitA+0xc>
    2976:	86 95       	lsr	r24
    2978:	71 05       	cpc	r23, r1
    297a:	61 05       	cpc	r22, r1
    297c:	08 94       	sec
    297e:	08 95       	ret

00002980 <__fp_zero>:
    2980:	e8 94       	clt

00002982 <__fp_szero>:
    2982:	bb 27       	eor	r27, r27
    2984:	66 27       	eor	r22, r22
    2986:	77 27       	eor	r23, r23
    2988:	cb 01       	movw	r24, r22
    298a:	97 f9       	bld	r25, 7
    298c:	08 95       	ret

0000298e <__gesf2>:
    298e:	8a df       	rcall	.-236    	; 0x28a4 <__fp_cmp>
    2990:	08 f4       	brcc	.+2      	; 0x2994 <__gesf2+0x6>
    2992:	8f ef       	ldi	r24, 0xFF	; 255
    2994:	08 95       	ret

00002996 <__mulsf3>:
    2996:	0b d0       	rcall	.+22     	; 0x29ae <__mulsf3x>
    2998:	c0 cf       	rjmp	.-128    	; 0x291a <__fp_round>
    299a:	b1 df       	rcall	.-158    	; 0x28fe <__fp_pscA>
    299c:	28 f0       	brcs	.+10     	; 0x29a8 <__mulsf3+0x12>
    299e:	b6 df       	rcall	.-148    	; 0x290c <__fp_pscB>
    29a0:	18 f0       	brcs	.+6      	; 0x29a8 <__mulsf3+0x12>
    29a2:	95 23       	and	r25, r21
    29a4:	09 f0       	breq	.+2      	; 0x29a8 <__mulsf3+0x12>
    29a6:	a2 cf       	rjmp	.-188    	; 0x28ec <__fp_inf>
    29a8:	a7 cf       	rjmp	.-178    	; 0x28f8 <__fp_nan>
    29aa:	11 24       	eor	r1, r1
    29ac:	ea cf       	rjmp	.-44     	; 0x2982 <__fp_szero>

000029ae <__mulsf3x>:
    29ae:	c6 df       	rcall	.-116    	; 0x293c <__fp_split3>
    29b0:	a0 f3       	brcs	.-24     	; 0x299a <__mulsf3+0x4>

000029b2 <__mulsf3_pse>:
    29b2:	95 9f       	mul	r25, r21
    29b4:	d1 f3       	breq	.-12     	; 0x29aa <__mulsf3+0x14>
    29b6:	95 0f       	add	r25, r21
    29b8:	50 e0       	ldi	r21, 0x00	; 0
    29ba:	55 1f       	adc	r21, r21
    29bc:	62 9f       	mul	r22, r18
    29be:	f0 01       	movw	r30, r0
    29c0:	72 9f       	mul	r23, r18
    29c2:	bb 27       	eor	r27, r27
    29c4:	f0 0d       	add	r31, r0
    29c6:	b1 1d       	adc	r27, r1
    29c8:	63 9f       	mul	r22, r19
    29ca:	aa 27       	eor	r26, r26
    29cc:	f0 0d       	add	r31, r0
    29ce:	b1 1d       	adc	r27, r1
    29d0:	aa 1f       	adc	r26, r26
    29d2:	64 9f       	mul	r22, r20
    29d4:	66 27       	eor	r22, r22
    29d6:	b0 0d       	add	r27, r0
    29d8:	a1 1d       	adc	r26, r1
    29da:	66 1f       	adc	r22, r22
    29dc:	82 9f       	mul	r24, r18
    29de:	22 27       	eor	r18, r18
    29e0:	b0 0d       	add	r27, r0
    29e2:	a1 1d       	adc	r26, r1
    29e4:	62 1f       	adc	r22, r18
    29e6:	73 9f       	mul	r23, r19
    29e8:	b0 0d       	add	r27, r0
    29ea:	a1 1d       	adc	r26, r1
    29ec:	62 1f       	adc	r22, r18
    29ee:	83 9f       	mul	r24, r19
    29f0:	a0 0d       	add	r26, r0
    29f2:	61 1d       	adc	r22, r1
    29f4:	22 1f       	adc	r18, r18
    29f6:	74 9f       	mul	r23, r20
    29f8:	33 27       	eor	r19, r19
    29fa:	a0 0d       	add	r26, r0
    29fc:	61 1d       	adc	r22, r1
    29fe:	23 1f       	adc	r18, r19
    2a00:	84 9f       	mul	r24, r20
    2a02:	60 0d       	add	r22, r0
    2a04:	21 1d       	adc	r18, r1
    2a06:	82 2f       	mov	r24, r18
    2a08:	76 2f       	mov	r23, r22
    2a0a:	6a 2f       	mov	r22, r26
    2a0c:	11 24       	eor	r1, r1
    2a0e:	9f 57       	subi	r25, 0x7F	; 127
    2a10:	50 40       	sbci	r21, 0x00	; 0
    2a12:	8a f0       	brmi	.+34     	; 0x2a36 <__mulsf3_pse+0x84>
    2a14:	e1 f0       	breq	.+56     	; 0x2a4e <__mulsf3_pse+0x9c>
    2a16:	88 23       	and	r24, r24
    2a18:	4a f0       	brmi	.+18     	; 0x2a2c <__mulsf3_pse+0x7a>
    2a1a:	ee 0f       	add	r30, r30
    2a1c:	ff 1f       	adc	r31, r31
    2a1e:	bb 1f       	adc	r27, r27
    2a20:	66 1f       	adc	r22, r22
    2a22:	77 1f       	adc	r23, r23
    2a24:	88 1f       	adc	r24, r24
    2a26:	91 50       	subi	r25, 0x01	; 1
    2a28:	50 40       	sbci	r21, 0x00	; 0
    2a2a:	a9 f7       	brne	.-22     	; 0x2a16 <__mulsf3_pse+0x64>
    2a2c:	9e 3f       	cpi	r25, 0xFE	; 254
    2a2e:	51 05       	cpc	r21, r1
    2a30:	70 f0       	brcs	.+28     	; 0x2a4e <__mulsf3_pse+0x9c>
    2a32:	5c cf       	rjmp	.-328    	; 0x28ec <__fp_inf>
    2a34:	a6 cf       	rjmp	.-180    	; 0x2982 <__fp_szero>
    2a36:	5f 3f       	cpi	r21, 0xFF	; 255
    2a38:	ec f3       	brlt	.-6      	; 0x2a34 <__mulsf3_pse+0x82>
    2a3a:	98 3e       	cpi	r25, 0xE8	; 232
    2a3c:	dc f3       	brlt	.-10     	; 0x2a34 <__mulsf3_pse+0x82>
    2a3e:	86 95       	lsr	r24
    2a40:	77 95       	ror	r23
    2a42:	67 95       	ror	r22
    2a44:	b7 95       	ror	r27
    2a46:	f7 95       	ror	r31
    2a48:	e7 95       	ror	r30
    2a4a:	9f 5f       	subi	r25, 0xFF	; 255
    2a4c:	c1 f7       	brne	.-16     	; 0x2a3e <__mulsf3_pse+0x8c>
    2a4e:	fe 2b       	or	r31, r30
    2a50:	88 0f       	add	r24, r24
    2a52:	91 1d       	adc	r25, r1
    2a54:	96 95       	lsr	r25
    2a56:	87 95       	ror	r24
    2a58:	97 f9       	bld	r25, 7
    2a5a:	08 95       	ret

00002a5c <__unordsf2>:
    2a5c:	23 df       	rcall	.-442    	; 0x28a4 <__fp_cmp>
    2a5e:	88 0b       	sbc	r24, r24
    2a60:	99 0b       	sbc	r25, r25
    2a62:	08 95       	ret

00002a64 <__udivmodsi4>:
    2a64:	a1 e2       	ldi	r26, 0x21	; 33
    2a66:	1a 2e       	mov	r1, r26
    2a68:	aa 1b       	sub	r26, r26
    2a6a:	bb 1b       	sub	r27, r27
    2a6c:	fd 01       	movw	r30, r26
    2a6e:	0d c0       	rjmp	.+26     	; 0x2a8a <__udivmodsi4_ep>

00002a70 <__udivmodsi4_loop>:
    2a70:	aa 1f       	adc	r26, r26
    2a72:	bb 1f       	adc	r27, r27
    2a74:	ee 1f       	adc	r30, r30
    2a76:	ff 1f       	adc	r31, r31
    2a78:	a2 17       	cp	r26, r18
    2a7a:	b3 07       	cpc	r27, r19
    2a7c:	e4 07       	cpc	r30, r20
    2a7e:	f5 07       	cpc	r31, r21
    2a80:	20 f0       	brcs	.+8      	; 0x2a8a <__udivmodsi4_ep>
    2a82:	a2 1b       	sub	r26, r18
    2a84:	b3 0b       	sbc	r27, r19
    2a86:	e4 0b       	sbc	r30, r20
    2a88:	f5 0b       	sbc	r31, r21

00002a8a <__udivmodsi4_ep>:
    2a8a:	66 1f       	adc	r22, r22
    2a8c:	77 1f       	adc	r23, r23
    2a8e:	88 1f       	adc	r24, r24
    2a90:	99 1f       	adc	r25, r25
    2a92:	1a 94       	dec	r1
    2a94:	69 f7       	brne	.-38     	; 0x2a70 <__udivmodsi4_loop>
    2a96:	60 95       	com	r22
    2a98:	70 95       	com	r23
    2a9a:	80 95       	com	r24
    2a9c:	90 95       	com	r25
    2a9e:	9b 01       	movw	r18, r22
    2aa0:	ac 01       	movw	r20, r24
    2aa2:	bd 01       	movw	r22, r26
    2aa4:	cf 01       	movw	r24, r30
    2aa6:	08 95       	ret

00002aa8 <__divmodsi4>:
    2aa8:	05 2e       	mov	r0, r21
    2aaa:	97 fb       	bst	r25, 7
    2aac:	16 f4       	brtc	.+4      	; 0x2ab2 <__divmodsi4+0xa>
    2aae:	00 94       	com	r0
    2ab0:	0f d0       	rcall	.+30     	; 0x2ad0 <__negsi2>
    2ab2:	57 fd       	sbrc	r21, 7
    2ab4:	05 d0       	rcall	.+10     	; 0x2ac0 <__divmodsi4_neg2>
    2ab6:	d6 df       	rcall	.-84     	; 0x2a64 <__udivmodsi4>
    2ab8:	07 fc       	sbrc	r0, 7
    2aba:	02 d0       	rcall	.+4      	; 0x2ac0 <__divmodsi4_neg2>
    2abc:	46 f4       	brtc	.+16     	; 0x2ace <__divmodsi4_exit>
    2abe:	08 c0       	rjmp	.+16     	; 0x2ad0 <__negsi2>

00002ac0 <__divmodsi4_neg2>:
    2ac0:	50 95       	com	r21
    2ac2:	40 95       	com	r20
    2ac4:	30 95       	com	r19
    2ac6:	21 95       	neg	r18
    2ac8:	3f 4f       	sbci	r19, 0xFF	; 255
    2aca:	4f 4f       	sbci	r20, 0xFF	; 255
    2acc:	5f 4f       	sbci	r21, 0xFF	; 255

00002ace <__divmodsi4_exit>:
    2ace:	08 95       	ret

00002ad0 <__negsi2>:
    2ad0:	90 95       	com	r25
    2ad2:	80 95       	com	r24
    2ad4:	70 95       	com	r23
    2ad6:	61 95       	neg	r22
    2ad8:	7f 4f       	sbci	r23, 0xFF	; 255
    2ada:	8f 4f       	sbci	r24, 0xFF	; 255
    2adc:	9f 4f       	sbci	r25, 0xFF	; 255
    2ade:	08 95       	ret

00002ae0 <__tablejump2__>:
    2ae0:	ee 0f       	add	r30, r30
    2ae2:	ff 1f       	adc	r31, r31
    2ae4:	88 1f       	adc	r24, r24
    2ae6:	8b bf       	out	0x3b, r24	; 59
    2ae8:	07 90       	elpm	r0, Z+
    2aea:	f6 91       	elpm	r31, Z
    2aec:	e0 2d       	mov	r30, r0
    2aee:	19 94       	eijmp

00002af0 <malloc>:
    2af0:	0f 93       	push	r16
    2af2:	1f 93       	push	r17
    2af4:	cf 93       	push	r28
    2af6:	df 93       	push	r29
    2af8:	82 30       	cpi	r24, 0x02	; 2
    2afa:	91 05       	cpc	r25, r1
    2afc:	10 f4       	brcc	.+4      	; 0x2b02 <malloc+0x12>
    2afe:	82 e0       	ldi	r24, 0x02	; 2
    2b00:	90 e0       	ldi	r25, 0x00	; 0
    2b02:	e0 91 53 07 	lds	r30, 0x0753	; 0x800753 <__flp>
    2b06:	f0 91 54 07 	lds	r31, 0x0754	; 0x800754 <__flp+0x1>
    2b0a:	20 e0       	ldi	r18, 0x00	; 0
    2b0c:	30 e0       	ldi	r19, 0x00	; 0
    2b0e:	a0 e0       	ldi	r26, 0x00	; 0
    2b10:	b0 e0       	ldi	r27, 0x00	; 0
    2b12:	30 97       	sbiw	r30, 0x00	; 0
    2b14:	19 f1       	breq	.+70     	; 0x2b5c <malloc+0x6c>
    2b16:	40 81       	ld	r20, Z
    2b18:	51 81       	ldd	r21, Z+1	; 0x01
    2b1a:	02 81       	ldd	r16, Z+2	; 0x02
    2b1c:	13 81       	ldd	r17, Z+3	; 0x03
    2b1e:	48 17       	cp	r20, r24
    2b20:	59 07       	cpc	r21, r25
    2b22:	c8 f0       	brcs	.+50     	; 0x2b56 <malloc+0x66>
    2b24:	84 17       	cp	r24, r20
    2b26:	95 07       	cpc	r25, r21
    2b28:	69 f4       	brne	.+26     	; 0x2b44 <malloc+0x54>
    2b2a:	10 97       	sbiw	r26, 0x00	; 0
    2b2c:	31 f0       	breq	.+12     	; 0x2b3a <malloc+0x4a>
    2b2e:	12 96       	adiw	r26, 0x02	; 2
    2b30:	0c 93       	st	X, r16
    2b32:	12 97       	sbiw	r26, 0x02	; 2
    2b34:	13 96       	adiw	r26, 0x03	; 3
    2b36:	1c 93       	st	X, r17
    2b38:	27 c0       	rjmp	.+78     	; 0x2b88 <malloc+0x98>
    2b3a:	00 93 53 07 	sts	0x0753, r16	; 0x800753 <__flp>
    2b3e:	10 93 54 07 	sts	0x0754, r17	; 0x800754 <__flp+0x1>
    2b42:	22 c0       	rjmp	.+68     	; 0x2b88 <malloc+0x98>
    2b44:	21 15       	cp	r18, r1
    2b46:	31 05       	cpc	r19, r1
    2b48:	19 f0       	breq	.+6      	; 0x2b50 <malloc+0x60>
    2b4a:	42 17       	cp	r20, r18
    2b4c:	53 07       	cpc	r21, r19
    2b4e:	18 f4       	brcc	.+6      	; 0x2b56 <malloc+0x66>
    2b50:	9a 01       	movw	r18, r20
    2b52:	bd 01       	movw	r22, r26
    2b54:	ef 01       	movw	r28, r30
    2b56:	df 01       	movw	r26, r30
    2b58:	f8 01       	movw	r30, r16
    2b5a:	db cf       	rjmp	.-74     	; 0x2b12 <malloc+0x22>
    2b5c:	21 15       	cp	r18, r1
    2b5e:	31 05       	cpc	r19, r1
    2b60:	f9 f0       	breq	.+62     	; 0x2ba0 <malloc+0xb0>
    2b62:	28 1b       	sub	r18, r24
    2b64:	39 0b       	sbc	r19, r25
    2b66:	24 30       	cpi	r18, 0x04	; 4
    2b68:	31 05       	cpc	r19, r1
    2b6a:	80 f4       	brcc	.+32     	; 0x2b8c <malloc+0x9c>
    2b6c:	8a 81       	ldd	r24, Y+2	; 0x02
    2b6e:	9b 81       	ldd	r25, Y+3	; 0x03
    2b70:	61 15       	cp	r22, r1
    2b72:	71 05       	cpc	r23, r1
    2b74:	21 f0       	breq	.+8      	; 0x2b7e <malloc+0x8e>
    2b76:	fb 01       	movw	r30, r22
    2b78:	93 83       	std	Z+3, r25	; 0x03
    2b7a:	82 83       	std	Z+2, r24	; 0x02
    2b7c:	04 c0       	rjmp	.+8      	; 0x2b86 <malloc+0x96>
    2b7e:	90 93 54 07 	sts	0x0754, r25	; 0x800754 <__flp+0x1>
    2b82:	80 93 53 07 	sts	0x0753, r24	; 0x800753 <__flp>
    2b86:	fe 01       	movw	r30, r28
    2b88:	32 96       	adiw	r30, 0x02	; 2
    2b8a:	44 c0       	rjmp	.+136    	; 0x2c14 <malloc+0x124>
    2b8c:	fe 01       	movw	r30, r28
    2b8e:	e2 0f       	add	r30, r18
    2b90:	f3 1f       	adc	r31, r19
    2b92:	81 93       	st	Z+, r24
    2b94:	91 93       	st	Z+, r25
    2b96:	22 50       	subi	r18, 0x02	; 2
    2b98:	31 09       	sbc	r19, r1
    2b9a:	39 83       	std	Y+1, r19	; 0x01
    2b9c:	28 83       	st	Y, r18
    2b9e:	3a c0       	rjmp	.+116    	; 0x2c14 <malloc+0x124>
    2ba0:	20 91 51 07 	lds	r18, 0x0751	; 0x800751 <__brkval>
    2ba4:	30 91 52 07 	lds	r19, 0x0752	; 0x800752 <__brkval+0x1>
    2ba8:	23 2b       	or	r18, r19
    2baa:	41 f4       	brne	.+16     	; 0x2bbc <malloc+0xcc>
    2bac:	20 91 02 02 	lds	r18, 0x0202	; 0x800202 <__malloc_heap_start>
    2bb0:	30 91 03 02 	lds	r19, 0x0203	; 0x800203 <__malloc_heap_start+0x1>
    2bb4:	30 93 52 07 	sts	0x0752, r19	; 0x800752 <__brkval+0x1>
    2bb8:	20 93 51 07 	sts	0x0751, r18	; 0x800751 <__brkval>
    2bbc:	20 91 00 02 	lds	r18, 0x0200	; 0x800200 <__DATA_REGION_ORIGIN__>
    2bc0:	30 91 01 02 	lds	r19, 0x0201	; 0x800201 <__DATA_REGION_ORIGIN__+0x1>
    2bc4:	21 15       	cp	r18, r1
    2bc6:	31 05       	cpc	r19, r1
    2bc8:	41 f4       	brne	.+16     	; 0x2bda <malloc+0xea>
    2bca:	2d b7       	in	r18, 0x3d	; 61
    2bcc:	3e b7       	in	r19, 0x3e	; 62
    2bce:	40 91 04 02 	lds	r20, 0x0204	; 0x800204 <__malloc_margin>
    2bd2:	50 91 05 02 	lds	r21, 0x0205	; 0x800205 <__malloc_margin+0x1>
    2bd6:	24 1b       	sub	r18, r20
    2bd8:	35 0b       	sbc	r19, r21
    2bda:	e0 91 51 07 	lds	r30, 0x0751	; 0x800751 <__brkval>
    2bde:	f0 91 52 07 	lds	r31, 0x0752	; 0x800752 <__brkval+0x1>
    2be2:	e2 17       	cp	r30, r18
    2be4:	f3 07       	cpc	r31, r19
    2be6:	a0 f4       	brcc	.+40     	; 0x2c10 <malloc+0x120>
    2be8:	2e 1b       	sub	r18, r30
    2bea:	3f 0b       	sbc	r19, r31
    2bec:	28 17       	cp	r18, r24
    2bee:	39 07       	cpc	r19, r25
    2bf0:	78 f0       	brcs	.+30     	; 0x2c10 <malloc+0x120>
    2bf2:	ac 01       	movw	r20, r24
    2bf4:	4e 5f       	subi	r20, 0xFE	; 254
    2bf6:	5f 4f       	sbci	r21, 0xFF	; 255
    2bf8:	24 17       	cp	r18, r20
    2bfa:	35 07       	cpc	r19, r21
    2bfc:	48 f0       	brcs	.+18     	; 0x2c10 <malloc+0x120>
    2bfe:	4e 0f       	add	r20, r30
    2c00:	5f 1f       	adc	r21, r31
    2c02:	50 93 52 07 	sts	0x0752, r21	; 0x800752 <__brkval+0x1>
    2c06:	40 93 51 07 	sts	0x0751, r20	; 0x800751 <__brkval>
    2c0a:	81 93       	st	Z+, r24
    2c0c:	91 93       	st	Z+, r25
    2c0e:	02 c0       	rjmp	.+4      	; 0x2c14 <malloc+0x124>
    2c10:	e0 e0       	ldi	r30, 0x00	; 0
    2c12:	f0 e0       	ldi	r31, 0x00	; 0
    2c14:	cf 01       	movw	r24, r30
    2c16:	df 91       	pop	r29
    2c18:	cf 91       	pop	r28
    2c1a:	1f 91       	pop	r17
    2c1c:	0f 91       	pop	r16
    2c1e:	08 95       	ret

00002c20 <free>:
    2c20:	cf 93       	push	r28
    2c22:	df 93       	push	r29
    2c24:	00 97       	sbiw	r24, 0x00	; 0
    2c26:	09 f4       	brne	.+2      	; 0x2c2a <free+0xa>
    2c28:	81 c0       	rjmp	.+258    	; 0x2d2c <free+0x10c>
    2c2a:	fc 01       	movw	r30, r24
    2c2c:	32 97       	sbiw	r30, 0x02	; 2
    2c2e:	13 82       	std	Z+3, r1	; 0x03
    2c30:	12 82       	std	Z+2, r1	; 0x02
    2c32:	a0 91 53 07 	lds	r26, 0x0753	; 0x800753 <__flp>
    2c36:	b0 91 54 07 	lds	r27, 0x0754	; 0x800754 <__flp+0x1>
    2c3a:	10 97       	sbiw	r26, 0x00	; 0
    2c3c:	81 f4       	brne	.+32     	; 0x2c5e <free+0x3e>
    2c3e:	20 81       	ld	r18, Z
    2c40:	31 81       	ldd	r19, Z+1	; 0x01
    2c42:	82 0f       	add	r24, r18
    2c44:	93 1f       	adc	r25, r19
    2c46:	20 91 51 07 	lds	r18, 0x0751	; 0x800751 <__brkval>
    2c4a:	30 91 52 07 	lds	r19, 0x0752	; 0x800752 <__brkval+0x1>
    2c4e:	28 17       	cp	r18, r24
    2c50:	39 07       	cpc	r19, r25
    2c52:	51 f5       	brne	.+84     	; 0x2ca8 <free+0x88>
    2c54:	f0 93 52 07 	sts	0x0752, r31	; 0x800752 <__brkval+0x1>
    2c58:	e0 93 51 07 	sts	0x0751, r30	; 0x800751 <__brkval>
    2c5c:	67 c0       	rjmp	.+206    	; 0x2d2c <free+0x10c>
    2c5e:	ed 01       	movw	r28, r26
    2c60:	20 e0       	ldi	r18, 0x00	; 0
    2c62:	30 e0       	ldi	r19, 0x00	; 0
    2c64:	ce 17       	cp	r28, r30
    2c66:	df 07       	cpc	r29, r31
    2c68:	40 f4       	brcc	.+16     	; 0x2c7a <free+0x5a>
    2c6a:	4a 81       	ldd	r20, Y+2	; 0x02
    2c6c:	5b 81       	ldd	r21, Y+3	; 0x03
    2c6e:	9e 01       	movw	r18, r28
    2c70:	41 15       	cp	r20, r1
    2c72:	51 05       	cpc	r21, r1
    2c74:	f1 f0       	breq	.+60     	; 0x2cb2 <free+0x92>
    2c76:	ea 01       	movw	r28, r20
    2c78:	f5 cf       	rjmp	.-22     	; 0x2c64 <free+0x44>
    2c7a:	d3 83       	std	Z+3, r29	; 0x03
    2c7c:	c2 83       	std	Z+2, r28	; 0x02
    2c7e:	40 81       	ld	r20, Z
    2c80:	51 81       	ldd	r21, Z+1	; 0x01
    2c82:	84 0f       	add	r24, r20
    2c84:	95 1f       	adc	r25, r21
    2c86:	c8 17       	cp	r28, r24
    2c88:	d9 07       	cpc	r29, r25
    2c8a:	59 f4       	brne	.+22     	; 0x2ca2 <free+0x82>
    2c8c:	88 81       	ld	r24, Y
    2c8e:	99 81       	ldd	r25, Y+1	; 0x01
    2c90:	84 0f       	add	r24, r20
    2c92:	95 1f       	adc	r25, r21
    2c94:	02 96       	adiw	r24, 0x02	; 2
    2c96:	91 83       	std	Z+1, r25	; 0x01
    2c98:	80 83       	st	Z, r24
    2c9a:	8a 81       	ldd	r24, Y+2	; 0x02
    2c9c:	9b 81       	ldd	r25, Y+3	; 0x03
    2c9e:	93 83       	std	Z+3, r25	; 0x03
    2ca0:	82 83       	std	Z+2, r24	; 0x02
    2ca2:	21 15       	cp	r18, r1
    2ca4:	31 05       	cpc	r19, r1
    2ca6:	29 f4       	brne	.+10     	; 0x2cb2 <free+0x92>
    2ca8:	f0 93 54 07 	sts	0x0754, r31	; 0x800754 <__flp+0x1>
    2cac:	e0 93 53 07 	sts	0x0753, r30	; 0x800753 <__flp>
    2cb0:	3d c0       	rjmp	.+122    	; 0x2d2c <free+0x10c>
    2cb2:	e9 01       	movw	r28, r18
    2cb4:	fb 83       	std	Y+3, r31	; 0x03
    2cb6:	ea 83       	std	Y+2, r30	; 0x02
    2cb8:	49 91       	ld	r20, Y+
    2cba:	59 91       	ld	r21, Y+
    2cbc:	c4 0f       	add	r28, r20
    2cbe:	d5 1f       	adc	r29, r21
    2cc0:	ec 17       	cp	r30, r28
    2cc2:	fd 07       	cpc	r31, r29
    2cc4:	61 f4       	brne	.+24     	; 0x2cde <free+0xbe>
    2cc6:	80 81       	ld	r24, Z
    2cc8:	91 81       	ldd	r25, Z+1	; 0x01
    2cca:	84 0f       	add	r24, r20
    2ccc:	95 1f       	adc	r25, r21
    2cce:	02 96       	adiw	r24, 0x02	; 2
    2cd0:	e9 01       	movw	r28, r18
    2cd2:	99 83       	std	Y+1, r25	; 0x01
    2cd4:	88 83       	st	Y, r24
    2cd6:	82 81       	ldd	r24, Z+2	; 0x02
    2cd8:	93 81       	ldd	r25, Z+3	; 0x03
    2cda:	9b 83       	std	Y+3, r25	; 0x03
    2cdc:	8a 83       	std	Y+2, r24	; 0x02
    2cde:	e0 e0       	ldi	r30, 0x00	; 0
    2ce0:	f0 e0       	ldi	r31, 0x00	; 0
    2ce2:	12 96       	adiw	r26, 0x02	; 2
    2ce4:	8d 91       	ld	r24, X+
    2ce6:	9c 91       	ld	r25, X
    2ce8:	13 97       	sbiw	r26, 0x03	; 3
    2cea:	00 97       	sbiw	r24, 0x00	; 0
    2cec:	19 f0       	breq	.+6      	; 0x2cf4 <free+0xd4>
    2cee:	fd 01       	movw	r30, r26
    2cf0:	dc 01       	movw	r26, r24
    2cf2:	f7 cf       	rjmp	.-18     	; 0x2ce2 <free+0xc2>
    2cf4:	8d 91       	ld	r24, X+
    2cf6:	9c 91       	ld	r25, X
    2cf8:	11 97       	sbiw	r26, 0x01	; 1
    2cfa:	9d 01       	movw	r18, r26
    2cfc:	2e 5f       	subi	r18, 0xFE	; 254
    2cfe:	3f 4f       	sbci	r19, 0xFF	; 255
    2d00:	82 0f       	add	r24, r18
    2d02:	93 1f       	adc	r25, r19
    2d04:	20 91 51 07 	lds	r18, 0x0751	; 0x800751 <__brkval>
    2d08:	30 91 52 07 	lds	r19, 0x0752	; 0x800752 <__brkval+0x1>
    2d0c:	28 17       	cp	r18, r24
    2d0e:	39 07       	cpc	r19, r25
    2d10:	69 f4       	brne	.+26     	; 0x2d2c <free+0x10c>
    2d12:	30 97       	sbiw	r30, 0x00	; 0
    2d14:	29 f4       	brne	.+10     	; 0x2d20 <free+0x100>
    2d16:	10 92 54 07 	sts	0x0754, r1	; 0x800754 <__flp+0x1>
    2d1a:	10 92 53 07 	sts	0x0753, r1	; 0x800753 <__flp>
    2d1e:	02 c0       	rjmp	.+4      	; 0x2d24 <free+0x104>
    2d20:	13 82       	std	Z+3, r1	; 0x03
    2d22:	12 82       	std	Z+2, r1	; 0x02
    2d24:	b0 93 52 07 	sts	0x0752, r27	; 0x800752 <__brkval+0x1>
    2d28:	a0 93 51 07 	sts	0x0751, r26	; 0x800751 <__brkval>
    2d2c:	df 91       	pop	r29
    2d2e:	cf 91       	pop	r28
    2d30:	08 95       	ret

00002d32 <realloc>:
    2d32:	6f 92       	push	r6
    2d34:	7f 92       	push	r7
    2d36:	8f 92       	push	r8
    2d38:	9f 92       	push	r9
    2d3a:	af 92       	push	r10
    2d3c:	bf 92       	push	r11
    2d3e:	cf 92       	push	r12
    2d40:	df 92       	push	r13
    2d42:	ef 92       	push	r14
    2d44:	ff 92       	push	r15
    2d46:	0f 93       	push	r16
    2d48:	1f 93       	push	r17
    2d4a:	cf 93       	push	r28
    2d4c:	df 93       	push	r29
    2d4e:	00 97       	sbiw	r24, 0x00	; 0
    2d50:	81 f4       	brne	.+32     	; 0x2d72 <realloc+0x40>
    2d52:	cb 01       	movw	r24, r22
    2d54:	df 91       	pop	r29
    2d56:	cf 91       	pop	r28
    2d58:	1f 91       	pop	r17
    2d5a:	0f 91       	pop	r16
    2d5c:	ff 90       	pop	r15
    2d5e:	ef 90       	pop	r14
    2d60:	df 90       	pop	r13
    2d62:	cf 90       	pop	r12
    2d64:	bf 90       	pop	r11
    2d66:	af 90       	pop	r10
    2d68:	9f 90       	pop	r9
    2d6a:	8f 90       	pop	r8
    2d6c:	7f 90       	pop	r7
    2d6e:	6f 90       	pop	r6
    2d70:	bf ce       	rjmp	.-642    	; 0x2af0 <malloc>
    2d72:	fc 01       	movw	r30, r24
    2d74:	e6 0f       	add	r30, r22
    2d76:	f7 1f       	adc	r31, r23
    2d78:	9c 01       	movw	r18, r24
    2d7a:	22 50       	subi	r18, 0x02	; 2
    2d7c:	31 09       	sbc	r19, r1
    2d7e:	e2 17       	cp	r30, r18
    2d80:	f3 07       	cpc	r31, r19
    2d82:	08 f4       	brcc	.+2      	; 0x2d86 <realloc+0x54>
    2d84:	a5 c0       	rjmp	.+330    	; 0x2ed0 <realloc+0x19e>
    2d86:	ec 01       	movw	r28, r24
    2d88:	d9 01       	movw	r26, r18
    2d8a:	0d 91       	ld	r16, X+
    2d8c:	1c 91       	ld	r17, X
    2d8e:	11 97       	sbiw	r26, 0x01	; 1
    2d90:	06 17       	cp	r16, r22
    2d92:	17 07       	cpc	r17, r23
    2d94:	a8 f0       	brcs	.+42     	; 0x2dc0 <realloc+0x8e>
    2d96:	05 30       	cpi	r16, 0x05	; 5
    2d98:	11 05       	cpc	r17, r1
    2d9a:	08 f4       	brcc	.+2      	; 0x2d9e <realloc+0x6c>
    2d9c:	97 c0       	rjmp	.+302    	; 0x2ecc <realloc+0x19a>
    2d9e:	c8 01       	movw	r24, r16
    2da0:	04 97       	sbiw	r24, 0x04	; 4
    2da2:	86 17       	cp	r24, r22
    2da4:	97 07       	cpc	r25, r23
    2da6:	08 f4       	brcc	.+2      	; 0x2daa <realloc+0x78>
    2da8:	91 c0       	rjmp	.+290    	; 0x2ecc <realloc+0x19a>
    2daa:	02 50       	subi	r16, 0x02	; 2
    2dac:	11 09       	sbc	r17, r1
    2dae:	06 1b       	sub	r16, r22
    2db0:	17 0b       	sbc	r17, r23
    2db2:	01 93       	st	Z+, r16
    2db4:	11 93       	st	Z+, r17
    2db6:	6d 93       	st	X+, r22
    2db8:	7c 93       	st	X, r23
    2dba:	cf 01       	movw	r24, r30
    2dbc:	31 df       	rcall	.-414    	; 0x2c20 <free>
    2dbe:	86 c0       	rjmp	.+268    	; 0x2ecc <realloc+0x19a>
    2dc0:	5b 01       	movw	r10, r22
    2dc2:	a0 1a       	sub	r10, r16
    2dc4:	b1 0a       	sbc	r11, r17
    2dc6:	4c 01       	movw	r8, r24
    2dc8:	80 0e       	add	r8, r16
    2dca:	91 1e       	adc	r9, r17
    2dcc:	a0 91 53 07 	lds	r26, 0x0753	; 0x800753 <__flp>
    2dd0:	b0 91 54 07 	lds	r27, 0x0754	; 0x800754 <__flp+0x1>
    2dd4:	61 2c       	mov	r6, r1
    2dd6:	71 2c       	mov	r7, r1
    2dd8:	e1 2c       	mov	r14, r1
    2dda:	f1 2c       	mov	r15, r1
    2ddc:	10 97       	sbiw	r26, 0x00	; 0
    2dde:	09 f4       	brne	.+2      	; 0x2de2 <realloc+0xb0>
    2de0:	46 c0       	rjmp	.+140    	; 0x2e6e <realloc+0x13c>
    2de2:	8d 91       	ld	r24, X+
    2de4:	9c 91       	ld	r25, X
    2de6:	11 97       	sbiw	r26, 0x01	; 1
    2de8:	a8 15       	cp	r26, r8
    2dea:	b9 05       	cpc	r27, r9
    2dec:	b1 f5       	brne	.+108    	; 0x2e5a <realloc+0x128>
    2dee:	6c 01       	movw	r12, r24
    2df0:	42 e0       	ldi	r20, 0x02	; 2
    2df2:	c4 0e       	add	r12, r20
    2df4:	d1 1c       	adc	r13, r1
    2df6:	ca 14       	cp	r12, r10
    2df8:	db 04       	cpc	r13, r11
    2dfa:	78 f1       	brcs	.+94     	; 0x2e5a <realloc+0x128>
    2dfc:	4c 01       	movw	r8, r24
    2dfe:	8a 18       	sub	r8, r10
    2e00:	9b 08       	sbc	r9, r11
    2e02:	64 01       	movw	r12, r8
    2e04:	42 e0       	ldi	r20, 0x02	; 2
    2e06:	c4 0e       	add	r12, r20
    2e08:	d1 1c       	adc	r13, r1
    2e0a:	12 96       	adiw	r26, 0x02	; 2
    2e0c:	bc 90       	ld	r11, X
    2e0e:	12 97       	sbiw	r26, 0x02	; 2
    2e10:	13 96       	adiw	r26, 0x03	; 3
    2e12:	ac 91       	ld	r26, X
    2e14:	b5 e0       	ldi	r27, 0x05	; 5
    2e16:	cb 16       	cp	r12, r27
    2e18:	d1 04       	cpc	r13, r1
    2e1a:	40 f0       	brcs	.+16     	; 0x2e2c <realloc+0xfa>
    2e1c:	b2 82       	std	Z+2, r11	; 0x02
    2e1e:	a3 83       	std	Z+3, r26	; 0x03
    2e20:	91 82       	std	Z+1, r9	; 0x01
    2e22:	80 82       	st	Z, r8
    2e24:	d9 01       	movw	r26, r18
    2e26:	6d 93       	st	X+, r22
    2e28:	7c 93       	st	X, r23
    2e2a:	09 c0       	rjmp	.+18     	; 0x2e3e <realloc+0x10c>
    2e2c:	0e 5f       	subi	r16, 0xFE	; 254
    2e2e:	1f 4f       	sbci	r17, 0xFF	; 255
    2e30:	80 0f       	add	r24, r16
    2e32:	91 1f       	adc	r25, r17
    2e34:	f9 01       	movw	r30, r18
    2e36:	91 83       	std	Z+1, r25	; 0x01
    2e38:	80 83       	st	Z, r24
    2e3a:	eb 2d       	mov	r30, r11
    2e3c:	fa 2f       	mov	r31, r26
    2e3e:	e1 14       	cp	r14, r1
    2e40:	f1 04       	cpc	r15, r1
    2e42:	31 f0       	breq	.+12     	; 0x2e50 <realloc+0x11e>
    2e44:	d7 01       	movw	r26, r14
    2e46:	13 96       	adiw	r26, 0x03	; 3
    2e48:	fc 93       	st	X, r31
    2e4a:	ee 93       	st	-X, r30
    2e4c:	12 97       	sbiw	r26, 0x02	; 2
    2e4e:	3e c0       	rjmp	.+124    	; 0x2ecc <realloc+0x19a>
    2e50:	f0 93 54 07 	sts	0x0754, r31	; 0x800754 <__flp+0x1>
    2e54:	e0 93 53 07 	sts	0x0753, r30	; 0x800753 <__flp>
    2e58:	39 c0       	rjmp	.+114    	; 0x2ecc <realloc+0x19a>
    2e5a:	68 16       	cp	r6, r24
    2e5c:	79 06       	cpc	r7, r25
    2e5e:	08 f4       	brcc	.+2      	; 0x2e62 <realloc+0x130>
    2e60:	3c 01       	movw	r6, r24
    2e62:	7d 01       	movw	r14, r26
    2e64:	12 96       	adiw	r26, 0x02	; 2
    2e66:	0d 90       	ld	r0, X+
    2e68:	bc 91       	ld	r27, X
    2e6a:	a0 2d       	mov	r26, r0
    2e6c:	b7 cf       	rjmp	.-146    	; 0x2ddc <realloc+0xaa>
    2e6e:	80 91 51 07 	lds	r24, 0x0751	; 0x800751 <__brkval>
    2e72:	90 91 52 07 	lds	r25, 0x0752	; 0x800752 <__brkval+0x1>
    2e76:	88 16       	cp	r8, r24
    2e78:	99 06       	cpc	r9, r25
    2e7a:	e1 f4       	brne	.+56     	; 0x2eb4 <realloc+0x182>
    2e7c:	66 16       	cp	r6, r22
    2e7e:	77 06       	cpc	r7, r23
    2e80:	c8 f4       	brcc	.+50     	; 0x2eb4 <realloc+0x182>
    2e82:	80 91 00 02 	lds	r24, 0x0200	; 0x800200 <__DATA_REGION_ORIGIN__>
    2e86:	90 91 01 02 	lds	r25, 0x0201	; 0x800201 <__DATA_REGION_ORIGIN__+0x1>
    2e8a:	00 97       	sbiw	r24, 0x00	; 0
    2e8c:	41 f4       	brne	.+16     	; 0x2e9e <realloc+0x16c>
    2e8e:	8d b7       	in	r24, 0x3d	; 61
    2e90:	9e b7       	in	r25, 0x3e	; 62
    2e92:	40 91 04 02 	lds	r20, 0x0204	; 0x800204 <__malloc_margin>
    2e96:	50 91 05 02 	lds	r21, 0x0205	; 0x800205 <__malloc_margin+0x1>
    2e9a:	84 1b       	sub	r24, r20
    2e9c:	95 0b       	sbc	r25, r21
    2e9e:	e8 17       	cp	r30, r24
    2ea0:	f9 07       	cpc	r31, r25
    2ea2:	b0 f4       	brcc	.+44     	; 0x2ed0 <realloc+0x19e>
    2ea4:	f0 93 52 07 	sts	0x0752, r31	; 0x800752 <__brkval+0x1>
    2ea8:	e0 93 51 07 	sts	0x0751, r30	; 0x800751 <__brkval>
    2eac:	f9 01       	movw	r30, r18
    2eae:	71 83       	std	Z+1, r23	; 0x01
    2eb0:	60 83       	st	Z, r22
    2eb2:	0c c0       	rjmp	.+24     	; 0x2ecc <realloc+0x19a>
    2eb4:	cb 01       	movw	r24, r22
    2eb6:	1c de       	rcall	.-968    	; 0x2af0 <malloc>
    2eb8:	7c 01       	movw	r14, r24
    2eba:	00 97       	sbiw	r24, 0x00	; 0
    2ebc:	49 f0       	breq	.+18     	; 0x2ed0 <realloc+0x19e>
    2ebe:	a8 01       	movw	r20, r16
    2ec0:	be 01       	movw	r22, r28
    2ec2:	17 d0       	rcall	.+46     	; 0x2ef2 <memcpy>
    2ec4:	ce 01       	movw	r24, r28
    2ec6:	ac de       	rcall	.-680    	; 0x2c20 <free>
    2ec8:	c7 01       	movw	r24, r14
    2eca:	04 c0       	rjmp	.+8      	; 0x2ed4 <realloc+0x1a2>
    2ecc:	ce 01       	movw	r24, r28
    2ece:	02 c0       	rjmp	.+4      	; 0x2ed4 <realloc+0x1a2>
    2ed0:	80 e0       	ldi	r24, 0x00	; 0
    2ed2:	90 e0       	ldi	r25, 0x00	; 0
    2ed4:	df 91       	pop	r29
    2ed6:	cf 91       	pop	r28
    2ed8:	1f 91       	pop	r17
    2eda:	0f 91       	pop	r16
    2edc:	ff 90       	pop	r15
    2ede:	ef 90       	pop	r14
    2ee0:	df 90       	pop	r13
    2ee2:	cf 90       	pop	r12
    2ee4:	bf 90       	pop	r11
    2ee6:	af 90       	pop	r10
    2ee8:	9f 90       	pop	r9
    2eea:	8f 90       	pop	r8
    2eec:	7f 90       	pop	r7
    2eee:	6f 90       	pop	r6
    2ef0:	08 95       	ret

00002ef2 <memcpy>:
    2ef2:	fb 01       	movw	r30, r22
    2ef4:	dc 01       	movw	r26, r24
    2ef6:	02 c0       	rjmp	.+4      	; 0x2efc <memcpy+0xa>
    2ef8:	01 90       	ld	r0, Z+
    2efa:	0d 92       	st	X+, r0
    2efc:	41 50       	subi	r20, 0x01	; 1
    2efe:	50 40       	sbci	r21, 0x00	; 0
    2f00:	d8 f7       	brcc	.-10     	; 0x2ef8 <memcpy+0x6>
    2f02:	08 95       	ret

00002f04 <memmove>:
    2f04:	68 17       	cp	r22, r24
    2f06:	79 07       	cpc	r23, r25
    2f08:	68 f4       	brcc	.+26     	; 0x2f24 <memmove+0x20>
    2f0a:	fb 01       	movw	r30, r22
    2f0c:	dc 01       	movw	r26, r24
    2f0e:	e4 0f       	add	r30, r20
    2f10:	f5 1f       	adc	r31, r21
    2f12:	a4 0f       	add	r26, r20
    2f14:	b5 1f       	adc	r27, r21
    2f16:	02 c0       	rjmp	.+4      	; 0x2f1c <memmove+0x18>
    2f18:	02 90       	ld	r0, -Z
    2f1a:	0e 92       	st	-X, r0
    2f1c:	41 50       	subi	r20, 0x01	; 1
    2f1e:	50 40       	sbci	r21, 0x00	; 0
    2f20:	d8 f7       	brcc	.-10     	; 0x2f18 <memmove+0x14>
    2f22:	08 95       	ret
    2f24:	e6 cf       	rjmp	.-52     	; 0x2ef2 <memcpy>

00002f26 <strcpy>:
    2f26:	fb 01       	movw	r30, r22
    2f28:	dc 01       	movw	r26, r24
    2f2a:	01 90       	ld	r0, Z+
    2f2c:	0d 92       	st	X+, r0
    2f2e:	00 20       	and	r0, r0
    2f30:	e1 f7       	brne	.-8      	; 0x2f2a <strcpy+0x4>
    2f32:	08 95       	ret

00002f34 <strstr>:
    2f34:	fb 01       	movw	r30, r22
    2f36:	51 91       	ld	r21, Z+
    2f38:	55 23       	and	r21, r21
    2f3a:	a9 f0       	breq	.+42     	; 0x2f66 <strstr+0x32>
    2f3c:	bf 01       	movw	r22, r30
    2f3e:	dc 01       	movw	r26, r24
    2f40:	4d 91       	ld	r20, X+
    2f42:	45 17       	cp	r20, r21
    2f44:	41 11       	cpse	r20, r1
    2f46:	e1 f7       	brne	.-8      	; 0x2f40 <strstr+0xc>
    2f48:	59 f4       	brne	.+22     	; 0x2f60 <strstr+0x2c>
    2f4a:	cd 01       	movw	r24, r26
    2f4c:	01 90       	ld	r0, Z+
    2f4e:	00 20       	and	r0, r0
    2f50:	49 f0       	breq	.+18     	; 0x2f64 <strstr+0x30>
    2f52:	4d 91       	ld	r20, X+
    2f54:	40 15       	cp	r20, r0
    2f56:	41 11       	cpse	r20, r1
    2f58:	c9 f3       	breq	.-14     	; 0x2f4c <strstr+0x18>
    2f5a:	fb 01       	movw	r30, r22
    2f5c:	41 11       	cpse	r20, r1
    2f5e:	ef cf       	rjmp	.-34     	; 0x2f3e <strstr+0xa>
    2f60:	81 e0       	ldi	r24, 0x01	; 1
    2f62:	90 e0       	ldi	r25, 0x00	; 0
    2f64:	01 97       	sbiw	r24, 0x01	; 1
    2f66:	08 95       	ret

00002f68 <itoa>:
    2f68:	45 32       	cpi	r20, 0x25	; 37
    2f6a:	51 05       	cpc	r21, r1
    2f6c:	18 f4       	brcc	.+6      	; 0x2f74 <itoa+0xc>
    2f6e:	42 30       	cpi	r20, 0x02	; 2
    2f70:	08 f0       	brcs	.+2      	; 0x2f74 <itoa+0xc>
    2f72:	04 c0       	rjmp	.+8      	; 0x2f7c <__itoa_ncheck>
    2f74:	fb 01       	movw	r30, r22
    2f76:	10 82       	st	Z, r1
    2f78:	cb 01       	movw	r24, r22
    2f7a:	08 95       	ret

00002f7c <__itoa_ncheck>:
    2f7c:	bb 27       	eor	r27, r27
    2f7e:	4a 30       	cpi	r20, 0x0A	; 10
    2f80:	31 f4       	brne	.+12     	; 0x2f8e <__itoa_ncheck+0x12>
    2f82:	99 23       	and	r25, r25
    2f84:	22 f4       	brpl	.+8      	; 0x2f8e <__itoa_ncheck+0x12>
    2f86:	bd e2       	ldi	r27, 0x2D	; 45
    2f88:	90 95       	com	r25
    2f8a:	81 95       	neg	r24
    2f8c:	9f 4f       	sbci	r25, 0xFF	; 255
    2f8e:	01 c0       	rjmp	.+2      	; 0x2f92 <__utoa_common>

00002f90 <__utoa_ncheck>:
    2f90:	bb 27       	eor	r27, r27

00002f92 <__utoa_common>:
    2f92:	fb 01       	movw	r30, r22
    2f94:	55 27       	eor	r21, r21
    2f96:	aa 27       	eor	r26, r26
    2f98:	88 0f       	add	r24, r24
    2f9a:	99 1f       	adc	r25, r25
    2f9c:	aa 1f       	adc	r26, r26
    2f9e:	a4 17       	cp	r26, r20
    2fa0:	10 f0       	brcs	.+4      	; 0x2fa6 <__utoa_common+0x14>
    2fa2:	a4 1b       	sub	r26, r20
    2fa4:	83 95       	inc	r24
    2fa6:	50 51       	subi	r21, 0x10	; 16
    2fa8:	b9 f7       	brne	.-18     	; 0x2f98 <__utoa_common+0x6>
    2faa:	a0 5d       	subi	r26, 0xD0	; 208
    2fac:	aa 33       	cpi	r26, 0x3A	; 58
    2fae:	08 f0       	brcs	.+2      	; 0x2fb2 <__utoa_common+0x20>
    2fb0:	a9 5d       	subi	r26, 0xD9	; 217
    2fb2:	a1 93       	st	Z+, r26
    2fb4:	00 97       	sbiw	r24, 0x00	; 0
    2fb6:	79 f7       	brne	.-34     	; 0x2f96 <__utoa_common+0x4>
    2fb8:	b1 11       	cpse	r27, r1
    2fba:	b1 93       	st	Z+, r27
    2fbc:	11 92       	st	Z+, r1
    2fbe:	cb 01       	movw	r24, r22
    2fc0:	00 c0       	rjmp	.+0      	; 0x2fc2 <strrev>

00002fc2 <strrev>:
    2fc2:	dc 01       	movw	r26, r24
    2fc4:	fc 01       	movw	r30, r24
    2fc6:	67 2f       	mov	r22, r23
    2fc8:	71 91       	ld	r23, Z+
    2fca:	77 23       	and	r23, r23
    2fcc:	e1 f7       	brne	.-8      	; 0x2fc6 <strrev+0x4>
    2fce:	32 97       	sbiw	r30, 0x02	; 2
    2fd0:	04 c0       	rjmp	.+8      	; 0x2fda <strrev+0x18>
    2fd2:	7c 91       	ld	r23, X
    2fd4:	6d 93       	st	X+, r22
    2fd6:	70 83       	st	Z, r23
    2fd8:	62 91       	ld	r22, -Z
    2fda:	ae 17       	cp	r26, r30
    2fdc:	bf 07       	cpc	r27, r31
    2fde:	c8 f3       	brcs	.-14     	; 0x2fd2 <strrev+0x10>
    2fe0:	08 95       	ret

00002fe2 <__do_global_dtors>:
    2fe2:	11 e0       	ldi	r17, 0x01	; 1
    2fe4:	c7 e1       	ldi	r28, 0x17	; 23
    2fe6:	d1 e0       	ldi	r29, 0x01	; 1
    2fe8:	00 e0       	ldi	r16, 0x00	; 0
    2fea:	05 c0       	rjmp	.+10     	; 0x2ff6 <__do_global_dtors+0x14>
    2fec:	80 2f       	mov	r24, r16
    2fee:	fe 01       	movw	r30, r28
    2ff0:	77 dd       	rcall	.-1298   	; 0x2ae0 <__tablejump2__>
    2ff2:	21 96       	adiw	r28, 0x01	; 1
    2ff4:	01 1d       	adc	r16, r1
    2ff6:	c8 31       	cpi	r28, 0x18	; 24
    2ff8:	d1 07       	cpc	r29, r17
    2ffa:	80 e0       	ldi	r24, 0x00	; 0
    2ffc:	08 07       	cpc	r16, r24
    2ffe:	b1 f7       	brne	.-20     	; 0x2fec <__do_global_dtors+0xa>
    3000:	f8 94       	cli

00003002 <__stop_program>:
    3002:	ff cf       	rjmp	.-2      	; 0x3002 <__stop_program>
