
Occupancy_sketch.elf:     file format elf32-avr

Sections:
Idx Name          Size      VMA       LMA       File off  Algn
  0 .data         00000390  00800200  0000491a  000049ae  2**0
                  CONTENTS, ALLOC, LOAD, DATA
  1 .text         0000491a  00000000  00000000  00000094  2**1
                  CONTENTS, ALLOC, LOAD, READONLY, CODE
  2 .bss          000002de  00800590  00800590  00004d3e  2**0
                  ALLOC
  3 .comment      00000030  00000000  00000000  00004d3e  2**0
                  CONTENTS, READONLY
  4 .note.gnu.avr.deviceinfo 00000040  00000000  00000000  00004d70  2**2
                  CONTENTS, READONLY
  5 .debug_aranges 00000ac0  00000000  00000000  00004db0  2**0
                  CONTENTS, READONLY, DEBUGGING
  6 .debug_info   0001eafa  00000000  00000000  00005870  2**0
                  CONTENTS, READONLY, DEBUGGING
  7 .debug_abbrev 00004b3a  00000000  00000000  0002436a  2**0
                  CONTENTS, READONLY, DEBUGGING
  8 .debug_line   0000735d  00000000  00000000  00028ea4  2**0
                  CONTENTS, READONLY, DEBUGGING
  9 .debug_frame  00002ec0  00000000  00000000  00030204  2**2
                  CONTENTS, READONLY, DEBUGGING
 10 .debug_str    00005eb9  00000000  00000000  000330c4  2**0
                  CONTENTS, READONLY, DEBUGGING
 11 .debug_loc    00015de0  00000000  00000000  00038f7d  2**0
                  CONTENTS, READONLY, DEBUGGING
 12 .debug_ranges 00000d40  00000000  00000000  0004ed5d  2**0
                  CONTENTS, READONLY, DEBUGGING

Disassembly of section .text:

00000000 <__vectors>:
       0:	f0 c3       	rjmp	.+2016   	; 0x7e2 <__ctors_end>
       2:	00 00       	nop
       4:	1e c4       	rjmp	.+2108   	; 0x842 <__bad_interrupt>
       6:	00 00       	nop
       8:	1c c4       	rjmp	.+2104   	; 0x842 <__bad_interrupt>
       a:	00 00       	nop
       c:	1a c4       	rjmp	.+2100   	; 0x842 <__bad_interrupt>
       e:	00 00       	nop
      10:	18 c4       	rjmp	.+2096   	; 0x842 <__bad_interrupt>
      12:	00 00       	nop
      14:	16 c4       	rjmp	.+2092   	; 0x842 <__bad_interrupt>
      16:	00 00       	nop
      18:	14 c4       	rjmp	.+2088   	; 0x842 <__bad_interrupt>
      1a:	00 00       	nop
      1c:	12 c4       	rjmp	.+2084   	; 0x842 <__bad_interrupt>
      1e:	00 00       	nop
      20:	10 c4       	rjmp	.+2080   	; 0x842 <__bad_interrupt>
      22:	00 00       	nop
      24:	0e c4       	rjmp	.+2076   	; 0x842 <__bad_interrupt>
      26:	00 00       	nop
      28:	0c c4       	rjmp	.+2072   	; 0x842 <__bad_interrupt>
      2a:	00 00       	nop
      2c:	0a c4       	rjmp	.+2068   	; 0x842 <__bad_interrupt>
      2e:	00 00       	nop
      30:	08 c4       	rjmp	.+2064   	; 0x842 <__bad_interrupt>
      32:	00 00       	nop
      34:	06 c4       	rjmp	.+2060   	; 0x842 <__bad_interrupt>
      36:	00 00       	nop
      38:	04 c4       	rjmp	.+2056   	; 0x842 <__bad_interrupt>
      3a:	00 00       	nop
      3c:	02 c4       	rjmp	.+2052   	; 0x842 <__bad_interrupt>
      3e:	00 00       	nop
      40:	00 c4       	rjmp	.+2048   	; 0x842 <__bad_interrupt>
      42:	00 00       	nop
      44:	fe c3       	rjmp	.+2044   	; 0x842 <__bad_interrupt>
      46:	00 00       	nop
      48:	fc c3       	rjmp	.+2040   	; 0x842 <__bad_interrupt>
      4a:	00 00       	nop
      4c:	fa c3       	rjmp	.+2036   	; 0x842 <__bad_interrupt>
      4e:	00 00       	nop
      50:	f8 c3       	rjmp	.+2032   	; 0x842 <__bad_interrupt>
      52:	00 00       	nop
      54:	f6 c3       	rjmp	.+2028   	; 0x842 <__bad_interrupt>
      56:	00 00       	nop
      58:	f4 c3       	rjmp	.+2024   	; 0x842 <__bad_interrupt>
      5a:	00 00       	nop
      5c:	0c 94 fc 0b 	jmp	0x17f8	; 0x17f8 <__vector_23>
      60:	f0 c3       	rjmp	.+2016   	; 0x842 <__bad_interrupt>
      62:	00 00       	nop
      64:	0c 94 49 09 	jmp	0x1292	; 0x1292 <__vector_25>
      68:	0c 94 7f 09 	jmp	0x12fe	; 0x12fe <__vector_26>
      6c:	ea c3       	rjmp	.+2004   	; 0x842 <__bad_interrupt>
      6e:	00 00       	nop
      70:	e8 c3       	rjmp	.+2000   	; 0x842 <__bad_interrupt>
      72:	00 00       	nop
      74:	e6 c3       	rjmp	.+1996   	; 0x842 <__bad_interrupt>
      76:	00 00       	nop
      78:	e4 c3       	rjmp	.+1992   	; 0x842 <__bad_interrupt>
      7a:	00 00       	nop
      7c:	e2 c3       	rjmp	.+1988   	; 0x842 <__bad_interrupt>
      7e:	00 00       	nop
      80:	e0 c3       	rjmp	.+1984   	; 0x842 <__bad_interrupt>
      82:	00 00       	nop
      84:	de c3       	rjmp	.+1980   	; 0x842 <__bad_interrupt>
      86:	00 00       	nop
      88:	dc c3       	rjmp	.+1976   	; 0x842 <__bad_interrupt>
      8a:	00 00       	nop
      8c:	da c3       	rjmp	.+1972   	; 0x842 <__bad_interrupt>
      8e:	00 00       	nop
      90:	d8 c3       	rjmp	.+1968   	; 0x842 <__bad_interrupt>
      92:	00 00       	nop
      94:	d6 c3       	rjmp	.+1964   	; 0x842 <__bad_interrupt>
      96:	00 00       	nop
      98:	d4 c3       	rjmp	.+1960   	; 0x842 <__bad_interrupt>
      9a:	00 00       	nop
      9c:	0c 94 f8 21 	jmp	0x43f0	; 0x43f0 <__vector_39>
      a0:	d0 c3       	rjmp	.+1952   	; 0x842 <__bad_interrupt>
      a2:	00 00       	nop
      a4:	ce c3       	rjmp	.+1948   	; 0x842 <__bad_interrupt>
      a6:	00 00       	nop
      a8:	cc c3       	rjmp	.+1944   	; 0x842 <__bad_interrupt>
      aa:	00 00       	nop
      ac:	ca c3       	rjmp	.+1940   	; 0x842 <__bad_interrupt>
      ae:	00 00       	nop
      b0:	c8 c3       	rjmp	.+1936   	; 0x842 <__bad_interrupt>
      b2:	00 00       	nop
      b4:	c6 c3       	rjmp	.+1932   	; 0x842 <__bad_interrupt>
      b6:	00 00       	nop
      b8:	c4 c3       	rjmp	.+1928   	; 0x842 <__bad_interrupt>
      ba:	00 00       	nop
      bc:	c2 c3       	rjmp	.+1924   	; 0x842 <__bad_interrupt>
      be:	00 00       	nop
      c0:	c0 c3       	rjmp	.+1920   	; 0x842 <__bad_interrupt>
      c2:	00 00       	nop
      c4:	be c3       	rjmp	.+1916   	; 0x842 <__bad_interrupt>
      c6:	00 00       	nop
      c8:	bc c3       	rjmp	.+1912   	; 0x842 <__bad_interrupt>
      ca:	00 00       	nop
      cc:	ba c3       	rjmp	.+1908   	; 0x842 <__bad_interrupt>
      ce:	00 00       	nop
      d0:	b8 c3       	rjmp	.+1904   	; 0x842 <__bad_interrupt>
      d2:	00 00       	nop
      d4:	b6 c3       	rjmp	.+1900   	; 0x842 <__bad_interrupt>
      d6:	00 00       	nop
      d8:	b4 c3       	rjmp	.+1896   	; 0x842 <__bad_interrupt>
      da:	00 00       	nop
      dc:	b2 c3       	rjmp	.+1892   	; 0x842 <__bad_interrupt>
      de:	00 00       	nop
      e0:	b0 c3       	rjmp	.+1888   	; 0x842 <__bad_interrupt>
      e2:	00 00       	nop
      e4:	2d 0d       	add	r18, r13
      e6:	30 0d       	add	r19, r0
      e8:	1f 0d       	add	r17, r15
      ea:	23 0d       	add	r18, r3
      ec:	29 0d       	add	r18, r9
      ee:	67 0d       	add	r22, r7
      f0:	34 0d       	add	r19, r4
      f2:	38 0d       	add	r19, r8
      f4:	3e 0d       	add	r19, r14
      f6:	42 0d       	add	r20, r2
      f8:	46 0d       	add	r20, r6
      fa:	4c 0d       	add	r20, r12
      fc:	50 0d       	add	r21, r0
      fe:	54 0d       	add	r21, r4
     100:	67 0d       	add	r22, r7
     102:	5a 0d       	add	r21, r10
     104:	5e 0d       	add	r21, r14
     106:	62 0d       	add	r22, r2

00000108 <__trampolines_end>:
     108:	41 4d       	sbci	r20, 0xD1	; 209
     10a:	47 38       	cpi	r20, 0x87	; 135
     10c:	38 78       	andi	r19, 0x88	; 136
     10e:	78 20       	and	r7, r8
     110:	74 68       	ori	r23, 0x84	; 132
     112:	65 72       	andi	r22, 0x25	; 37
     114:	6d 61       	ori	r22, 0x1D	; 29
     116:	6c 20       	and	r6, r12
     118:	63 61       	ori	r22, 0x13	; 19
     11a:	6d 65       	ori	r22, 0x5D	; 93
     11c:	72 61       	ori	r23, 0x12	; 18
     11e:	21 00       	.word	0x0021	; ????

00000120 <digital_pin_to_timer_PGM>:
     120:	00 00 0a 0b 02 09 0c 0d 0e 08 07 03 04 01 00 00     ................
	...
     14c:	12 11 10 00 00 00 00 00 00 00 00 00 00 00 00 00     ................
	...

00000166 <digital_pin_to_bit_mask_PGM>:
     166:	01 02 10 20 20 08 08 10 20 40 10 20 40 80 02 01     ...  ... @. @...
     176:	02 01 08 04 02 01 01 02 04 08 10 20 40 80 80 40     ........... @..@
     186:	20 10 08 04 02 01 80 04 02 01 80 40 20 10 08 04      ..........@ ...
     196:	02 01 08 04 02 01 01 02 04 08 10 20 40 80 01 02     ........... @...
     1a6:	04 08 10 20 40 80                                   ... @.

000001ac <digital_pin_to_port_PGM>:
     1ac:	05 05 05 05 07 05 08 08 08 08 02 02 02 02 0a 0a     ................
     1bc:	08 08 04 04 04 04 01 01 01 01 01 01 01 01 03 03     ................
     1cc:	03 03 03 03 03 03 04 07 07 07 0c 0c 0c 0c 0c 0c     ................
     1dc:	0c 0c 02 02 02 02 06 06 06 06 06 06 06 06 0b 0b     ................
     1ec:	0b 0b 0b 0b 0b 0b                                   ......

000001f2 <port_to_input_PGM>:
     1f2:	00 00 20 00 23 00 26 00 29 00 2c 00 2f 00 32 00     .. .#.&.).,./.2.
     202:	00 01 00 00 03 01 06 01 09 01                       ..........

0000020c <port_to_output_PGM>:
     20c:	00 00 22 00 25 00 28 00 2b 00 2e 00 31 00 34 00     ..".%.(.+...1.4.
     21c:	02 01 00 00 05 01 08 01 0b 01                       ..........

00000226 <port_to_mode_PGM>:
     226:	00 00 21 00 24 00 27 00 2a 00 2d 00 30 00 33 00     ..!.$.'.*.-.0.3.
     236:	01 01 00 00 04 01 07 01 0a 01                       ..........

00000240 <_ZL4font>:
     240:	00 00 00 00 00 3e 5b 4f 5b 3e 3e 6b 4f 6b 3e 1c     .....>[O[>>kOk>.
     250:	3e 7c 3e 1c 18 3c 7e 3c 18 1c 57 7d 57 1c 1c 5e     >|>..<~<..W}W..^
     260:	7f 5e 1c 00 18 3c 18 00 ff e7 c3 e7 ff 00 18 24     .^...<.........$
     270:	18 00 ff e7 db e7 ff 30 48 3a 06 0e 26 29 79 29     .......0H:..&)y)
     280:	26 40 7f 05 05 07 40 7f 05 25 3f 5a 3c e7 3c 5a     &@....@..%?Z<.<Z
     290:	7f 3e 1c 1c 08 08 1c 1c 3e 7f 14 22 7f 22 14 5f     .>......>.."."._
     2a0:	5f 00 5f 5f 06 09 7f 01 7f 00 66 89 95 6a 60 60     _.__......f..j``
     2b0:	60 60 60 94 a2 ff a2 94 08 04 7e 04 08 10 20 7e     ```.......~... ~
     2c0:	20 10 08 08 2a 1c 08 08 1c 2a 08 08 1e 10 10 10      ...*....*......
     2d0:	10 0c 1e 0c 1e 0c 30 38 3e 38 30 06 0e 3e 0e 06     ......08>80..>..
     2e0:	00 00 00 00 00 00 00 5f 00 00 00 07 00 07 00 14     ......._........
     2f0:	7f 14 7f 14 24 2a 7f 2a 12 23 13 08 64 62 36 49     ....$*.*.#..db6I
     300:	56 20 50 00 08 07 03 00 00 1c 22 41 00 00 41 22     V P......."A..A"
     310:	1c 00 2a 1c 7f 1c 2a 08 08 3e 08 08 00 80 70 30     ..*...*..>....p0
     320:	00 08 08 08 08 08 00 00 60 60 00 20 10 08 04 02     ........``. ....
     330:	3e 51 49 45 3e 00 42 7f 40 00 72 49 49 49 46 21     >QIE>.B.@.rIIIF!
     340:	41 49 4d 33 18 14 12 7f 10 27 45 45 45 39 3c 4a     AIM3.....'EEE9<J
     350:	49 49 31 41 21 11 09 07 36 49 49 49 36 46 49 49     II1A!...6III6FII
     360:	29 1e 00 00 14 00 00 00 40 34 00 00 00 08 14 22     ).......@4....."
     370:	41 14 14 14 14 14 00 41 22 14 08 02 01 59 09 06     A......A"....Y..
     380:	3e 41 5d 59 4e 7c 12 11 12 7c 7f 49 49 49 36 3e     >A]YN|...|.III6>
     390:	41 41 41 22 7f 41 41 41 3e 7f 49 49 49 41 7f 09     AAA".AAA>.IIIA..
     3a0:	09 09 01 3e 41 41 51 73 7f 08 08 08 7f 00 41 7f     ...>AAQs......A.
     3b0:	41 00 20 40 41 3f 01 7f 08 14 22 41 7f 40 40 40     A. @A?...."A.@@@
     3c0:	40 7f 02 1c 02 7f 7f 04 08 10 7f 3e 41 41 41 3e     @..........>AAA>
     3d0:	7f 09 09 09 06 3e 41 51 21 5e 7f 09 19 29 46 26     .....>AQ!^...)F&
     3e0:	49 49 49 32 03 01 7f 01 03 3f 40 40 40 3f 1f 20     III2.....?@@@?. 
     3f0:	40 20 1f 3f 40 38 40 3f 63 14 08 14 63 03 04 78     @ .?@8@?c...c..x
     400:	04 03 61 59 49 4d 43 00 7f 41 41 41 02 04 08 10     ..aYIMC..AAA....
     410:	20 00 41 41 41 7f 04 02 01 02 04 40 40 40 40 40      .AAA......@@@@@
     420:	00 03 07 08 00 20 54 54 78 40 7f 28 44 44 38 38     ..... TTx@.(DD88
     430:	44 44 44 28 38 44 44 28 7f 38 54 54 54 18 00 08     DDD(8DD(.8TTT...
     440:	7e 09 02 18 a4 a4 9c 78 7f 08 04 04 78 00 44 7d     ~......x....x.D}
     450:	40 00 20 40 40 3d 00 7f 10 28 44 00 00 41 7f 40     @. @@=...(D..A.@
     460:	00 7c 04 78 04 78 7c 08 04 04 78 38 44 44 44 38     .|.x.x|...x8DDD8
     470:	fc 18 24 24 18 18 24 24 18 fc 7c 08 04 04 08 48     ..$$..$$..|....H
     480:	54 54 54 24 04 04 3f 44 24 3c 40 40 20 7c 1c 20     TTT$..?D$<@@ |. 
     490:	40 20 1c 3c 40 30 40 3c 44 28 10 28 44 4c 90 90     @ .<@0@<D(.(DL..
     4a0:	90 7c 44 64 54 4c 44 00 08 36 41 00 00 00 77 00     .|DdTLD..6A...w.
     4b0:	00 00 41 36 08 00 02 01 02 04 02 3c 26 23 26 3c     ..A6.......<&#&<
     4c0:	1e a1 a1 61 12 3a 40 40 20 7a 38 54 54 55 59 21     ...a.:@@ z8TTUY!
     4d0:	55 55 79 41 22 54 54 78 42 21 55 54 78 40 20 54     UUyA"TTxB!UTx@ T
     4e0:	55 79 40 0c 1e 52 72 12 39 55 55 55 59 39 54 54     Uy@..Rr.9UUUY9TT
     4f0:	54 59 39 55 54 54 58 00 00 45 7c 41 00 02 45 7d     TY9UTTX..E|A..E}
     500:	42 00 01 45 7c 40 7d 12 11 12 7d f0 28 25 28 f0     B..E|@}...}.(%(.
     510:	7c 54 55 45 00 20 54 54 7c 54 7c 0a 09 7f 49 32     |TUE. TT|T|...I2
     520:	49 49 49 32 3a 44 44 44 3a 32 4a 48 48 30 3a 41     III2:DDD:2JHH0:A
     530:	41 21 7a 3a 42 40 20 78 00 9d a0 a0 7d 3d 42 42     A!z:B@ x....}=BB
     540:	42 3d 3d 40 40 40 3d 3c 24 ff 24 24 48 7e 49 43     B==@@@=<$.$$H~IC
     550:	66 2b 2f fc 2f 2b ff 09 29 f6 20 c0 88 7e 09 03     f+/./+..). ..~..
     560:	20 54 54 79 41 00 00 44 7d 41 30 48 48 4a 32 38      TTyA..D}A0HHJ28
     570:	40 40 22 7a 00 7a 0a 0a 72 7d 0d 19 31 7d 26 29     @@"z.z..r}..1}&)
     580:	29 2f 28 26 29 29 29 26 30 48 4d 40 20 38 08 08     )/(&)))&0HM@ 8..
     590:	08 08 08 08 08 08 38 2f 10 c8 ac ba 2f 10 28 34     ......8/..../.(4
     5a0:	fa 00 00 7b 00 00 08 14 2a 14 22 22 14 2a 14 08     ...{....*."".*..
     5b0:	55 00 55 00 55 aa 55 aa 55 aa ff 55 ff 55 ff 00     U.U.U.U.U..U.U..
     5c0:	00 00 ff 00 10 10 10 ff 00 14 14 14 ff 00 10 10     ................
     5d0:	ff 00 ff 10 10 f0 10 f0 14 14 14 fc 00 14 14 f7     ................
     5e0:	00 ff 00 00 ff 00 ff 14 14 f4 04 fc 14 14 17 10     ................
     5f0:	1f 10 10 1f 10 1f 14 14 14 1f 00 10 10 10 f0 00     ................
     600:	00 00 00 1f 10 10 10 10 1f 10 10 10 10 f0 10 00     ................
     610:	00 00 ff 10 10 10 10 10 10 10 10 10 ff 10 00 00     ................
     620:	00 ff 14 00 00 ff 00 ff 00 00 1f 10 17 00 00 fc     ................
     630:	04 f4 14 14 17 10 17 14 14 f4 04 f4 00 00 ff 00     ................
     640:	f7 14 14 14 14 14 14 14 f7 00 f7 14 14 14 17 14     ................
     650:	10 10 1f 10 1f 14 14 14 f4 14 10 10 f0 10 f0 00     ................
     660:	00 1f 10 1f 00 00 00 1f 14 00 00 00 fc 14 00 00     ................
     670:	f0 10 f0 10 10 ff 10 ff 14 14 14 ff 14 10 10 10     ................
     680:	1f 00 00 00 00 f0 10 ff ff ff ff ff f0 f0 f0 f0     ................
     690:	f0 ff ff ff 00 00 00 00 00 ff ff 0f 0f 0f 0f 0f     ................
     6a0:	38 44 44 38 44 fc 4a 4a 4a 34 7e 02 02 06 06 02     8DD8D.JJJ4~.....
     6b0:	7e 02 7e 02 63 55 49 41 63 38 44 44 3c 04 40 7e     ~.~.cUIAc8DD<.@~
     6c0:	20 1e 20 06 02 7e 02 02 99 a5 e7 a5 99 1c 2a 49      . ..~........*I
     6d0:	2a 1c 4c 72 01 72 4c 30 4a 4d 4d 30 30 48 78 48     *.Lr.rL0JMM00HxH
     6e0:	30 bc 62 5a 46 3d 3e 49 49 49 00 7e 01 01 01 7e     0.bZF=>III.~...~
     6f0:	2a 2a 2a 2a 2a 44 44 5f 44 44 40 51 4a 44 40 40     *****DD_DD@QJD@@
     700:	44 4a 51 40 00 00 ff 01 03 e0 80 ff 00 00 08 08     DJQ@............
     710:	6b 6b 08 36 12 36 24 36 06 0f 09 0f 06 00 00 18     kk.6.6$6........
     720:	18 00 00 00 10 10 00 30 40 ff 01 01 00 1f 01 01     .......0@.......
     730:	1e 00 19 1d 17 12 00 3c 3c 3c 3c 00 00 00 00 00     .......<<<<.....

00000740 <_ZL5Rcmd3>:
     740:	04 e0 10 02 1c 07 12 37 32 29 2d 29 25 2b 39 00     .......72)-)%+9.
     750:	01 03 10 e1 10 03 1d 07 06 2e 2c 29 2d 2e 2e 37     ..........,)-..7
     760:	3f 00 00 02 10 13 80 0a 29 80 64                    ?.......).d

0000076b <_ZL16Rcmd2green160x80>:
     76b:	02 2a 04 00 00 00 4f 2b 04 00 00 00 9f              .*....O+.....

00000778 <_ZL13Rcmd2green144>:
     778:	02 2a 04 00 00 00 7f 2b 04 00 00 00 7f              .*.....+.....

00000785 <_ZL8Rcmd2red>:
     785:	02 2a 04 00 00 00 7f 2b 04 00 00 00 9f              .*.....+.....

00000792 <_ZL10Rcmd2green>:
     792:	02 2a 04 00 02 00 81 2b 04 00 01 00 a0              .*.....+.....

0000079f <_ZL5Rcmd1>:
     79f:	0f 01 80 96 11 80 ff b1 03 01 2c 2d b2 03 01 2c     ..........,-...,
     7af:	2d b3 06 01 2c 2d 01 2c 2d b4 01 07 c0 03 a2 02     -...,-.,-.......
     7bf:	84 c1 01 c5 c2 02 0a 00 c3 02 8a 2a c4 02 8a ee     ...........*....
     7cf:	c5 01 0e 20 00 36 01 c8 3a 01 05                    ... .6..:..

000007da <__ctors_start>:
     7da:	a8 04       	cpc	r10, r8
     7dc:	b9 04       	cpc	r11, r9
     7de:	b1 09       	sbc	r27, r1
     7e0:	f5 20       	and	r15, r5

000007e2 <__ctors_end>:
     7e2:	11 24       	eor	r1, r1
     7e4:	1f be       	out	0x3f, r1	; 63
     7e6:	cf ef       	ldi	r28, 0xFF	; 255
     7e8:	d1 e2       	ldi	r29, 0x21	; 33
     7ea:	de bf       	out	0x3e, r29	; 62
     7ec:	cd bf       	out	0x3d, r28	; 61
     7ee:	00 e0       	ldi	r16, 0x00	; 0
     7f0:	0c bf       	out	0x3c, r16	; 60

000007f2 <__do_copy_data>:
     7f2:	15 e0       	ldi	r17, 0x05	; 5
     7f4:	a0 e0       	ldi	r26, 0x00	; 0
     7f6:	b2 e0       	ldi	r27, 0x02	; 2
     7f8:	ea e1       	ldi	r30, 0x1A	; 26
     7fa:	f9 e4       	ldi	r31, 0x49	; 73
     7fc:	00 e0       	ldi	r16, 0x00	; 0
     7fe:	0b bf       	out	0x3b, r16	; 59
     800:	02 c0       	rjmp	.+4      	; 0x806 <__do_copy_data+0x14>
     802:	07 90       	elpm	r0, Z+
     804:	0d 92       	st	X+, r0
     806:	a0 39       	cpi	r26, 0x90	; 144
     808:	b1 07       	cpc	r27, r17
     80a:	d9 f7       	brne	.-10     	; 0x802 <__do_copy_data+0x10>

0000080c <__do_clear_bss>:
     80c:	28 e0       	ldi	r18, 0x08	; 8
     80e:	a0 e9       	ldi	r26, 0x90	; 144
     810:	b5 e0       	ldi	r27, 0x05	; 5
     812:	01 c0       	rjmp	.+2      	; 0x816 <.do_clear_bss_start>

00000814 <.do_clear_bss_loop>:
     814:	1d 92       	st	X+, r1

00000816 <.do_clear_bss_start>:
     816:	ae 36       	cpi	r26, 0x6E	; 110
     818:	b2 07       	cpc	r27, r18
     81a:	e1 f7       	brne	.-8      	; 0x814 <.do_clear_bss_loop>

0000081c <__do_global_ctors>:
     81c:	13 e0       	ldi	r17, 0x03	; 3
     81e:	c1 ef       	ldi	r28, 0xF1	; 241
     820:	d3 e0       	ldi	r29, 0x03	; 3
     822:	00 e0       	ldi	r16, 0x00	; 0
     824:	06 c0       	rjmp	.+12     	; 0x832 <__do_global_ctors+0x16>
     826:	21 97       	sbiw	r28, 0x01	; 1
     828:	01 09       	sbc	r16, r1
     82a:	80 2f       	mov	r24, r16
     82c:	fe 01       	movw	r30, r28
     82e:	0e 94 5a 24 	call	0x48b4	; 0x48b4 <__tablejump2__>
     832:	cd 3e       	cpi	r28, 0xED	; 237
     834:	d1 07       	cpc	r29, r17
     836:	80 e0       	ldi	r24, 0x00	; 0
     838:	08 07       	cpc	r16, r24
     83a:	a9 f7       	brne	.-22     	; 0x826 <__do_global_ctors+0xa>
     83c:	c0 d5       	rcall	.+2944   	; 0x13be <main>
     83e:	0c 94 8b 24 	jmp	0x4916	; 0x4916 <_exit>

00000842 <__bad_interrupt>:
     842:	de cb       	rjmp	.-2116   	; 0x0 <__vectors>

00000844 <setup>:
	// put your setup code here, to run once:

	//Serial.begin(9600);
	//Serial.println(F("AMG88xx thermal camera!"));

	pinMode(PIR_read_pin, INPUT);
     844:	60 e0       	ldi	r22, 0x00	; 0
     846:	8f e1       	ldi	r24, 0x1F	; 31
     848:	0e 94 68 0d 	call	0x1ad0	; 0x1ad0 <pinMode>
  public:
    inline HardwareSerial(
      volatile uint8_t *ubrrh, volatile uint8_t *ubrrl,
      volatile uint8_t *ucsra, volatile uint8_t *ucsrb,
      volatile uint8_t *ucsrc, volatile uint8_t *udr);
    void begin(unsigned long baud) { begin(baud, SERIAL_8N1); }
     84c:	26 e0       	ldi	r18, 0x06	; 6
     84e:	40 e8       	ldi	r20, 0x80	; 128
     850:	55 e2       	ldi	r21, 0x25	; 37
     852:	60 e0       	ldi	r22, 0x00	; 0
     854:	70 e0       	ldi	r23, 0x00	; 0
     856:	8f ef       	ldi	r24, 0xFF	; 255
     858:	96 e0       	ldi	r25, 0x06	; 6
     85a:	b2 d4       	rcall	.+2404   	; 0x11c0 <_ZN14HardwareSerial5beginEmh>
	
	Serial.begin(9600);
	Serial.println(F("AMG88xx thermal camera!"));
     85c:	68 e0       	ldi	r22, 0x08	; 8
     85e:	71 e0       	ldi	r23, 0x01	; 1
     860:	8f ef       	ldi	r24, 0xFF	; 255
     862:	96 e0       	ldi	r25, 0x06	; 6

	Thermal_setup();
     864:	24 d6       	rcall	.+3144   	; 0x14ae <_ZN5Print7printlnEPK19__FlashStringHelper>
     866:	8c c0       	rjmp	.+280    	; 0x980 <_Z13Thermal_setupv>

00000868 <loop>:
int Print_delay = 0;

void loop() {
	// put your main code here, to run repeatedly:

	Print_delay++;
     868:	80 91 90 05 	lds	r24, 0x0590	; 0x800590 <__data_end>
     86c:	90 91 91 05 	lds	r25, 0x0591	; 0x800591 <__data_end+0x1>
     870:	01 96       	adiw	r24, 0x01	; 1
     872:	90 93 91 05 	sts	0x0591, r25	; 0x800591 <__data_end+0x1>
     876:	80 93 90 05 	sts	0x0590, r24	; 0x800590 <__data_end>
	//determine phase, the functions below should be placed in a state machine
	
	Thermal_size_temp_read = Thermal_read(); //the values being returned here need to be determined in testing //returns max temp detected and any number of pixels above 25C -3/7 KF
     87a:	c3 d0       	rcall	.+390    	; 0xa02 <_Z12Thermal_readv>
     87c:	60 93 94 05 	sts	0x0594, r22	; 0x800594 <Thermal_size_temp_read>
     880:	70 93 95 05 	sts	0x0595, r23	; 0x800595 <Thermal_size_temp_read+0x1>
     884:	80 93 96 05 	sts	0x0596, r24	; 0x800596 <Thermal_size_temp_read+0x2>
     888:	90 93 97 05 	sts	0x0597, r25	; 0x800597 <Thermal_size_temp_read+0x3>

	Distance = hcsr04.distanceInMillimeters();
     88c:	88 e9       	ldi	r24, 0x98	; 152
     88e:	95 e0       	ldi	r25, 0x05	; 5
     890:	0e 94 33 1f 	call	0x3e66	; 0x3e66 <_ZN6HCSR0421distanceInMillimetersEv>
     894:	90 93 93 05 	sts	0x0593, r25	; 0x800593 <Distance+0x1>
     898:	80 93 92 05 	sts	0x0592, r24	; 0x800592 <Distance>
	
	if(Print_delay >= 10){
     89c:	80 91 90 05 	lds	r24, 0x0590	; 0x800590 <__data_end>
     8a0:	90 91 91 05 	lds	r25, 0x0591	; 0x800591 <__data_end+0x1>
     8a4:	0a 97       	sbiw	r24, 0x0a	; 10
     8a6:	0c f4       	brge	.+2      	; 0x8aa <loop+0x42>
     8a8:	52 c0       	rjmp	.+164    	; 0x94e <loop+0xe6>
		Print_delay = 0;
     8aa:	10 92 91 05 	sts	0x0591, r1	; 0x800591 <__data_end+0x1>
     8ae:	10 92 90 05 	sts	0x0590, r1	; 0x800590 <__data_end>
		Serial.print("Ping distance: ");
     8b2:	60 e0       	ldi	r22, 0x00	; 0
     8b4:	72 e0       	ldi	r23, 0x02	; 2
     8b6:	8f ef       	ldi	r24, 0xFF	; 255
     8b8:	96 e0       	ldi	r25, 0x06	; 6
     8ba:	ee d5       	rcall	.+3036   	; 0x1498 <_ZN5Print5printEPKc>
		Serial.println(Distance);
     8bc:	60 91 92 05 	lds	r22, 0x0592	; 0x800592 <Distance>
     8c0:	70 91 93 05 	lds	r23, 0x0593	; 0x800593 <Distance+0x1>
     8c4:	4a e0       	ldi	r20, 0x0A	; 10
     8c6:	50 e0       	ldi	r21, 0x00	; 0
     8c8:	8f ef       	ldi	r24, 0xFF	; 255
     8ca:	96 e0       	ldi	r25, 0x06	; 6
     8cc:	b4 d6       	rcall	.+3432   	; 0x1636 <_ZN5Print7printlnEii>

		//digitalRead(PIR_read_pin);
		Serial.print("PIR read: ");
     8ce:	60 e1       	ldi	r22, 0x10	; 16
     8d0:	72 e0       	ldi	r23, 0x02	; 2
     8d2:	8f ef       	ldi	r24, 0xFF	; 255
     8d4:	96 e0       	ldi	r25, 0x06	; 6
     8d6:	e0 d5       	rcall	.+3008   	; 0x1498 <_ZN5Print5printEPKc>
		Serial.println(digitalRead(PIR_read_pin));
     8d8:	8f e1       	ldi	r24, 0x1F	; 31
     8da:	0e 94 d2 0d 	call	0x1ba4	; 0x1ba4 <digitalRead>
     8de:	4a e0       	ldi	r20, 0x0A	; 10
     8e0:	50 e0       	ldi	r21, 0x00	; 0
     8e2:	bc 01       	movw	r22, r24
     8e4:	8f ef       	ldi	r24, 0xFF	; 255
     8e6:	96 e0       	ldi	r25, 0x06	; 6
     8e8:	a6 d6       	rcall	.+3404   	; 0x1636 <_ZN5Print7printlnEii>
		Serial.print("Max Temp Detected: "); Serial.print(Thermal_size_temp_read.max_temp); Serial.print("\n");
     8ea:	6b e1       	ldi	r22, 0x1B	; 27
     8ec:	72 e0       	ldi	r23, 0x02	; 2
     8ee:	8f ef       	ldi	r24, 0xFF	; 255
     8f0:	96 e0       	ldi	r25, 0x06	; 6
     8f2:	d2 d5       	rcall	.+2980   	; 0x1498 <_ZN5Print5printEPKc>
     8f4:	60 91 94 05 	lds	r22, 0x0594	; 0x800594 <Thermal_size_temp_read>
     8f8:	70 91 95 05 	lds	r23, 0x0595	; 0x800595 <Thermal_size_temp_read+0x1>
     8fc:	4a e0       	ldi	r20, 0x0A	; 10
     8fe:	50 e0       	ldi	r21, 0x00	; 0
     900:	8f ef       	ldi	r24, 0xFF	; 255
     902:	96 e0       	ldi	r25, 0x06	; 6
     904:	92 d6       	rcall	.+3364   	; 0x162a <_ZN5Print5printEii>
     906:	68 e4       	ldi	r22, 0x48	; 72
     908:	72 e0       	ldi	r23, 0x02	; 2
     90a:	8f ef       	ldi	r24, 0xFF	; 255
     90c:	96 e0       	ldi	r25, 0x06	; 6
     90e:	c4 d5       	rcall	.+2952   	; 0x1498 <_ZN5Print5printEPKc>
		Serial.print("Number of pixels above "); Serial.print(DETECTEMP ); Serial.print(": " ); Serial.print(Thermal_size_temp_read.size, DEC); Serial.print("\n\n");
     910:	6f e2       	ldi	r22, 0x2F	; 47
     912:	72 e0       	ldi	r23, 0x02	; 2
     914:	8f ef       	ldi	r24, 0xFF	; 255
     916:	96 e0       	ldi	r25, 0x06	; 6
     918:	bf d5       	rcall	.+2942   	; 0x1498 <_ZN5Print5printEPKc>
     91a:	4a e0       	ldi	r20, 0x0A	; 10
     91c:	50 e0       	ldi	r21, 0x00	; 0
     91e:	67 e1       	ldi	r22, 0x17	; 23
     920:	70 e0       	ldi	r23, 0x00	; 0
     922:	8f ef       	ldi	r24, 0xFF	; 255
     924:	96 e0       	ldi	r25, 0x06	; 6
     926:	81 d6       	rcall	.+3330   	; 0x162a <_ZN5Print5printEii>
     928:	68 e1       	ldi	r22, 0x18	; 24
     92a:	72 e0       	ldi	r23, 0x02	; 2
     92c:	8f ef       	ldi	r24, 0xFF	; 255
     92e:	96 e0       	ldi	r25, 0x06	; 6
     930:	b3 d5       	rcall	.+2918   	; 0x1498 <_ZN5Print5printEPKc>
     932:	60 91 96 05 	lds	r22, 0x0596	; 0x800596 <Thermal_size_temp_read+0x2>
     936:	70 91 97 05 	lds	r23, 0x0597	; 0x800597 <Thermal_size_temp_read+0x3>
     93a:	4a e0       	ldi	r20, 0x0A	; 10
     93c:	50 e0       	ldi	r21, 0x00	; 0
     93e:	8f ef       	ldi	r24, 0xFF	; 255
     940:	96 e0       	ldi	r25, 0x06	; 6
     942:	73 d6       	rcall	.+3302   	; 0x162a <_ZN5Print5printEii>
     944:	67 e4       	ldi	r22, 0x47	; 71
     946:	72 e0       	ldi	r23, 0x02	; 2
     948:	8f ef       	ldi	r24, 0xFF	; 255
     94a:	96 e0       	ldi	r25, 0x06	; 6
     94c:	a5 c5       	rjmp	.+2890   	; 0x1498 <_ZN5Print5printEPKc>
     94e:	08 95       	ret

00000950 <_GLOBAL__sub_I_hcsr04>:
     950:	0f 93       	push	r16
	/*
	sleep here with delay
	*/
	//delay(500);
	
     952:	1f 93       	push	r17
#define PIR_read_pin 31
//#define Telecom_enable_pin 49
#define Ping_PIR_enable_pin 33
#define Camera_enable_pin 35

HCSR04 hcsr04(TRIG_PIN, ECHO_PIN, 20, 4000); //setup ping sensor
     954:	00 ea       	ldi	r16, 0xA0	; 160
     956:	1f e0       	ldi	r17, 0x0F	; 15
     958:	24 e1       	ldi	r18, 0x14	; 20
     95a:	30 e0       	ldi	r19, 0x00	; 0
     95c:	4b e1       	ldi	r20, 0x1B	; 27
     95e:	50 e0       	ldi	r21, 0x00	; 0
     960:	6d e1       	ldi	r22, 0x1D	; 29
     962:	70 e0       	ldi	r23, 0x00	; 0
     964:	88 e9       	ldi	r24, 0x98	; 152
     966:	95 e0       	ldi	r25, 0x05	; 5
     968:	0e 94 cd 1e 	call	0x3d9a	; 0x3d9a <_ZN6HCSR04C1Eiiii>
	/*
	sleep here with delay
	*/
	//delay(500);
	
     96c:	1f 91       	pop	r17
     96e:	0f 91       	pop	r16
     970:	08 95       	ret

00000972 <_GLOBAL__sub_I_displayPixelWidth>:
unsigned long delayTime;
/*
Adafruit_ST7735 tft = Adafruit_ST7735(TFT_CS,  TFT_DC, TFT_RST);
*/

Adafruit_ST7735 tft = Adafruit_ST7735(TFT_CS,  TFT_DC, TFT_RST);
     972:	20 e3       	ldi	r18, 0x30	; 48
     974:	41 e3       	ldi	r20, 0x31	; 49
     976:	65 e3       	ldi	r22, 0x35	; 53
     978:	84 eb       	ldi	r24, 0xB4	; 180
     97a:	95 e0       	ldi	r25, 0x05	; 5
     97c:	0c 94 17 1d 	jmp	0x3a2e	; 0x3a2e <_ZN15Adafruit_ST7735C1Eaaa>

00000980 <_Z13Thermal_setupv>:


int Thermal_setup(){
	//Serial.println(F("AMG88xx thermal camera!"));

	tft.initR(INITR_144GREENTAB);   // initialize a ST7735S chip, black tab
     980:	61 e0       	ldi	r22, 0x01	; 1
     982:	84 eb       	ldi	r24, 0xB4	; 180
     984:	95 e0       	ldi	r25, 0x05	; 5
     986:	0e 94 2d 1d 	call	0x3a5a	; 0x3a5a <_ZN15Adafruit_ST77355initREh>
	tft.fillScreen(ST7735_BLACK);
     98a:	60 e0       	ldi	r22, 0x00	; 0
     98c:	70 e0       	ldi	r23, 0x00	; 0
     98e:	84 eb       	ldi	r24, 0xB4	; 180
     990:	95 e0       	ldi	r25, 0x05	; 5
     992:	0e 94 03 11 	call	0x2206	; 0x2206 <_ZN12Adafruit_GFX10fillScreenEj>

	displayPixelWidth = tft.width() / 8;
     996:	80 91 bc 05 	lds	r24, 0x05BC	; 0x8005bc <tft+0x8>
     99a:	90 91 bd 05 	lds	r25, 0x05BD	; 0x8005bd <tft+0x9>
     99e:	97 fd       	sbrc	r25, 7
     9a0:	07 96       	adiw	r24, 0x07	; 7
     9a2:	33 e0       	ldi	r19, 0x03	; 3
     9a4:	95 95       	asr	r25
     9a6:	87 95       	ror	r24
     9a8:	3a 95       	dec	r19
     9aa:	e1 f7       	brne	.-8      	; 0x9a4 <_Z13Thermal_setupv+0x24>
     9ac:	90 93 fe 06 	sts	0x06FE, r25	; 0x8006fe <displayPixelWidth+0x1>
     9b0:	80 93 fd 06 	sts	0x06FD, r24	; 0x8006fd <displayPixelWidth>
	displayPixelHeight = tft.height() / 8;
     9b4:	80 91 be 05 	lds	r24, 0x05BE	; 0x8005be <tft+0xa>
     9b8:	90 91 bf 05 	lds	r25, 0x05BF	; 0x8005bf <tft+0xb>
     9bc:	97 fd       	sbrc	r25, 7
     9be:	07 96       	adiw	r24, 0x07	; 7
     9c0:	23 e0       	ldi	r18, 0x03	; 3
     9c2:	95 95       	asr	r25
     9c4:	87 95       	ror	r24
     9c6:	2a 95       	dec	r18
     9c8:	e1 f7       	brne	.-8      	; 0x9c2 <_Z13Thermal_setupv+0x42>
     9ca:	90 93 fc 06 	sts	0x06FC, r25	; 0x8006fc <displayPixelHeight+0x1>
     9ce:	80 93 fb 06 	sts	0x06FB, r24	; 0x8006fb <displayPixelHeight>
	//tft.setRotation(3);
	
	bool status;
	
	// default settings
	status = amg.begin();
     9d2:	69 e6       	ldi	r22, 0x69	; 105
     9d4:	84 ea       	ldi	r24, 0xA4	; 164
     9d6:	95 e0       	ldi	r25, 0x05	; 5
     9d8:	0e 94 82 0e 	call	0x1d04	; 0x1d04 <_ZN16Adafruit_AMG88xx5beginEh>
	if (!status) {
     9dc:	81 11       	cpse	r24, r1
     9de:	06 c0       	rjmp	.+12     	; 0x9ec <_Z13Thermal_setupv+0x6c>
		Serial.println("Could not find a valid AMG88xx sensor, check wiring!");
     9e0:	6a e4       	ldi	r22, 0x4A	; 74
     9e2:	72 e0       	ldi	r23, 0x02	; 2
     9e4:	8f ef       	ldi	r24, 0xFF	; 255
     9e6:	96 e0       	ldi	r25, 0x06	; 6
     9e8:	72 d5       	rcall	.+2788   	; 0x14ce <_ZN5Print7printlnEPKc>
     9ea:	ff cf       	rjmp	.-2      	; 0x9ea <_Z13Thermal_setupv+0x6a>
		while (1);
	}
	
	Serial.println("-- Thermal Camera Test --");
     9ec:	6f e7       	ldi	r22, 0x7F	; 127
     9ee:	72 e0       	ldi	r23, 0x02	; 2
     9f0:	8f ef       	ldi	r24, 0xFF	; 255
     9f2:	96 e0       	ldi	r25, 0x06	; 6
     9f4:	6c d5       	rcall	.+2776   	; 0x14ce <_ZN5Print7printlnEPKc>
	delay(100); // let sensor boot up
     9f6:	64 e6       	ldi	r22, 0x64	; 100
     9f8:	70 e0       	ldi	r23, 0x00	; 0
     9fa:	80 e0       	ldi	r24, 0x00	; 0
     9fc:	90 e0       	ldi	r25, 0x00	; 0
     9fe:	6b c7       	rjmp	.+3798   	; 0x18d6 <delay>

}
     a00:	08 95       	ret

00000a02 <_Z12Thermal_readv>:

int Print_raw_data = false;
int Temp_print_delay;

Thermal_SizeTemp_Struct Thermal_read(){
     a02:	2f 92       	push	r2
     a04:	3f 92       	push	r3
     a06:	4f 92       	push	r4
     a08:	5f 92       	push	r5
     a0a:	6f 92       	push	r6
     a0c:	7f 92       	push	r7
     a0e:	8f 92       	push	r8
     a10:	9f 92       	push	r9
     a12:	af 92       	push	r10
     a14:	bf 92       	push	r11
     a16:	cf 92       	push	r12
     a18:	df 92       	push	r13
     a1a:	ef 92       	push	r14
     a1c:	ff 92       	push	r15
     a1e:	0f 93       	push	r16
     a20:	1f 93       	push	r17
     a22:	cf 93       	push	r28
     a24:	df 93       	push	r29
     a26:	00 d0       	rcall	.+0      	; 0xa28 <_Z12Thermal_readv+0x26>
     a28:	1f 92       	push	r1
     a2a:	cd b7       	in	r28, 0x3d	; 61
     a2c:	de b7       	in	r29, 0x3e	; 62
	amg.readPixels(pixels);
     a2e:	40 e4       	ldi	r20, 0x40	; 64
     a30:	6b ef       	ldi	r22, 0xFB	; 251
     a32:	75 e0       	ldi	r23, 0x05	; 5
     a34:	84 ea       	ldi	r24, 0xA4	; 164
     a36:	95 e0       	ldi	r25, 0x05	; 5
     a38:	0e 94 ff 0e 	call	0x1dfe	; 0x1dfe <_ZN16Adafruit_AMG88xx10readPixelsEPfh>
	Size_temp_read.max_temp = 0;
	Size_temp_read.size = 0;

	//Parse raw reads for info
	
	Temp_print_delay++;
     a3c:	80 91 a0 05 	lds	r24, 0x05A0	; 0x8005a0 <Temp_print_delay>
     a40:	90 91 a1 05 	lds	r25, 0x05A1	; 0x8005a1 <Temp_print_delay+0x1>
     a44:	01 96       	adiw	r24, 0x01	; 1
     a46:	90 93 a1 05 	sts	0x05A1, r25	; 0x8005a1 <Temp_print_delay+0x1>
     a4a:	80 93 a0 05 	sts	0x05A0, r24	; 0x8005a0 <Temp_print_delay>
	
	if (Temp_print_delay >= 25){
     a4e:	49 97       	sbiw	r24, 0x19	; 25
     a50:	54 f0       	brlt	.+20     	; 0xa66 <_Z12Thermal_readv+0x64>
		Print_raw_data = true;
     a52:	81 e0       	ldi	r24, 0x01	; 1
     a54:	90 e0       	ldi	r25, 0x00	; 0
     a56:	90 93 a3 05 	sts	0x05A3, r25	; 0x8005a3 <Print_raw_data+0x1>
     a5a:	80 93 a2 05 	sts	0x05A2, r24	; 0x8005a2 <Print_raw_data>
		Temp_print_delay = 0;
     a5e:	10 92 a1 05 	sts	0x05A1, r1	; 0x8005a1 <Temp_print_delay+0x1>
     a62:	10 92 a0 05 	sts	0x05A0, r1	; 0x8005a0 <Temp_print_delay>
		} 
		if(Print_raw_data == true) {
     a66:	80 91 a2 05 	lds	r24, 0x05A2	; 0x8005a2 <Print_raw_data>
     a6a:	90 91 a3 05 	lds	r25, 0x05A3	; 0x8005a3 <Print_raw_data+0x1>
     a6e:	01 97       	sbiw	r24, 0x01	; 1
     a70:	c1 f5       	brne	.+112    	; 0xae2 <_Z12Thermal_readv+0xe0>
		Serial.print("[");
     a72:	69 e9       	ldi	r22, 0x99	; 153
     a74:	72 e0       	ldi	r23, 0x02	; 2
     a76:	8f ef       	ldi	r24, 0xFF	; 255
     a78:	96 e0       	ldi	r25, 0x06	; 6
     a7a:	0e d5       	rcall	.+2588   	; 0x1498 <_ZN5Print5printEPKc>
     a7c:	0b ef       	ldi	r16, 0xFB	; 251
     a7e:	15 e0       	ldi	r17, 0x05	; 5
		for(int i=1; i<=AMG88xx_PIXEL_ARRAY_SIZE; i++){
     a80:	81 e0       	ldi	r24, 0x01	; 1
     a82:	90 e0       	ldi	r25, 0x00	; 0
     a84:	9a 83       	std	Y+2, r25	; 0x02
     a86:	89 83       	std	Y+1, r24	; 0x01
			Serial.print(pixels[i-1]);
     a88:	f8 01       	movw	r30, r16
     a8a:	41 91       	ld	r20, Z+
     a8c:	51 91       	ld	r21, Z+
     a8e:	61 91       	ld	r22, Z+
     a90:	71 91       	ld	r23, Z+
     a92:	8f 01       	movw	r16, r30
     a94:	22 e0       	ldi	r18, 0x02	; 2
     a96:	30 e0       	ldi	r19, 0x00	; 0
     a98:	8f ef       	ldi	r24, 0xFF	; 255
     a9a:	96 e0       	ldi	r25, 0x06	; 6
     a9c:	ac d6       	rcall	.+3416   	; 0x17f6 <_ZN5Print5printEdi>
			Serial.print(", ");
     a9e:	6b e9       	ldi	r22, 0x9B	; 155
     aa0:	72 e0       	ldi	r23, 0x02	; 2
     aa2:	8f ef       	ldi	r24, 0xFF	; 255
     aa4:	96 e0       	ldi	r25, 0x06	; 6
     aa6:	f8 d4       	rcall	.+2544   	; 0x1498 <_ZN5Print5printEPKc>
			if( i%8 == 0 ) Serial.println();
     aa8:	89 81       	ldd	r24, Y+1	; 0x01
     aaa:	9a 81       	ldd	r25, Y+2	; 0x02
     aac:	87 70       	andi	r24, 0x07	; 7
     aae:	99 27       	eor	r25, r25
     ab0:	89 2b       	or	r24, r25
     ab2:	19 f4       	brne	.+6      	; 0xaba <_Z12Thermal_readv+0xb8>
     ab4:	8f ef       	ldi	r24, 0xFF	; 255
     ab6:	96 e0       	ldi	r25, 0x06	; 6
     ab8:	f7 d4       	rcall	.+2542   	; 0x14a8 <_ZN5Print7printlnEv>
		Print_raw_data = true;
		Temp_print_delay = 0;
		} 
		if(Print_raw_data == true) {
		Serial.print("[");
		for(int i=1; i<=AMG88xx_PIXEL_ARRAY_SIZE; i++){
     aba:	89 81       	ldd	r24, Y+1	; 0x01
     abc:	9a 81       	ldd	r25, Y+2	; 0x02
     abe:	01 96       	adiw	r24, 0x01	; 1
     ac0:	9a 83       	std	Y+2, r25	; 0x02
     ac2:	89 83       	std	Y+1, r24	; 0x01
     ac4:	81 34       	cpi	r24, 0x41	; 65
     ac6:	91 05       	cpc	r25, r1
     ac8:	f9 f6       	brne	.-66     	; 0xa88 <_Z12Thermal_readv+0x86>
			Serial.print(pixels[i-1]);
			Serial.print(", ");
			if( i%8 == 0 ) Serial.println();
		}
		Serial.println("]");
     aca:	6e e9       	ldi	r22, 0x9E	; 158
     acc:	72 e0       	ldi	r23, 0x02	; 2
     ace:	8f ef       	ldi	r24, 0xFF	; 255
     ad0:	96 e0       	ldi	r25, 0x06	; 6
		Serial.println();
     ad2:	fd d4       	rcall	.+2554   	; 0x14ce <_ZN5Print7printlnEPKc>
     ad4:	8f ef       	ldi	r24, 0xFF	; 255
     ad6:	96 e0       	ldi	r25, 0x06	; 6
     ad8:	e7 d4       	rcall	.+2510   	; 0x14a8 <_ZN5Print7printlnEv>
		Print_raw_data = false;
     ada:	10 92 a3 05 	sts	0x05A3, r1	; 0x8005a3 <Print_raw_data+0x1>
     ade:	10 92 a2 05 	sts	0x05A2, r1	; 0x8005a2 <Print_raw_data>
     ae2:	5b ef       	ldi	r21, 0xFB	; 251
     ae4:	85 2e       	mov	r8, r21
     ae6:	55 e0       	ldi	r21, 0x05	; 5
     ae8:	95 2e       	mov	r9, r21
		Print_raw_data = true;
		Temp_print_delay = 0;
		} 
		if(Print_raw_data == true) {
		Serial.print("[");
		for(int i=1; i<=AMG88xx_PIXEL_ARRAY_SIZE; i++){
     aea:	9c 82       	std	Y+4, r9	; 0x04
     aec:	8b 82       	std	Y+3, r8	; 0x03
     aee:	21 2c       	mov	r2, r1
     af0:	31 2c       	mov	r3, r1
     af2:	1a 82       	std	Y+2, r1	; 0x02
     af4:	19 82       	std	Y+1, r1	; 0x01
		Print_raw_data = false;
	}

	
	for(int i=0; i<AMG88xx_PIXEL_ARRAY_SIZE; i++){
		if(pixels[i] > Size_temp_read.max_temp){
     af6:	eb 81       	ldd	r30, Y+3	; 0x03
     af8:	fc 81       	ldd	r31, Y+4	; 0x04
     afa:	c1 90       	ld	r12, Z+
     afc:	d1 90       	ld	r13, Z+
     afe:	e1 90       	ld	r14, Z+
     b00:	f1 90       	ld	r15, Z+
     b02:	fc 83       	std	Y+4, r31	; 0x04
     b04:	eb 83       	std	Y+3, r30	; 0x03
     b06:	b1 01       	movw	r22, r2
     b08:	03 2c       	mov	r0, r3
     b0a:	00 0c       	add	r0, r0
     b0c:	88 0b       	sbc	r24, r24
     b0e:	99 0b       	sbc	r25, r25
     b10:	e5 d0       	rcall	.+458    	; 0xcdc <__floatsisf>
     b12:	9b 01       	movw	r18, r22
     b14:	ac 01       	movw	r20, r24
     b16:	c7 01       	movw	r24, r14
     b18:	b6 01       	movw	r22, r12
     b1a:	97 d1       	rcall	.+814    	; 0xe4a <__gesf2>
     b1c:	18 16       	cp	r1, r24
			Size_temp_read.max_temp = pixels[i];
     b1e:	24 f4       	brge	.+8      	; 0xb28 <_Z12Thermal_readv+0x126>
     b20:	c7 01       	movw	r24, r14
     b22:	b6 01       	movw	r22, r12
     b24:	a8 d0       	rcall	.+336    	; 0xc76 <__fixsfsi>
		}
		if(pixels[i] >= DETECTEMP){
     b26:	1b 01       	movw	r2, r22
     b28:	20 e0       	ldi	r18, 0x00	; 0
     b2a:	30 e0       	ldi	r19, 0x00	; 0
     b2c:	48 eb       	ldi	r20, 0xB8	; 184
     b2e:	51 e4       	ldi	r21, 0x41	; 65
     b30:	c7 01       	movw	r24, r14
     b32:	b6 01       	movw	r22, r12
     b34:	8a d1       	rcall	.+788    	; 0xe4a <__gesf2>
     b36:	87 fd       	sbrc	r24, 7
     b38:	05 c0       	rjmp	.+10     	; 0xb44 <_Z12Thermal_readv+0x142>
			Size_temp_read.size++;
     b3a:	89 81       	ldd	r24, Y+1	; 0x01
     b3c:	9a 81       	ldd	r25, Y+2	; 0x02
     b3e:	01 96       	adiw	r24, 0x01	; 1
     b40:	9a 83       	std	Y+2, r25	; 0x02
     b42:	89 83       	std	Y+1, r24	; 0x01
		Serial.println();
		Print_raw_data = false;
	}

	
	for(int i=0; i<AMG88xx_PIXEL_ARRAY_SIZE; i++){
     b44:	eb 81       	ldd	r30, Y+3	; 0x03
     b46:	fc 81       	ldd	r31, Y+4	; 0x04
     b48:	eb 5f       	subi	r30, 0xFB	; 251
     b4a:	f6 40       	sbci	r31, 0x06	; 6
     b4c:	a1 f6       	brne	.-88     	; 0xaf6 <_Z12Thermal_readv+0xf4>
     b4e:	1c 82       	std	Y+4, r1	; 0x04
     b50:	1b 82       	std	Y+3, r1	; 0x03
		

	}
	//modify array for display
	for(int i=0; i<AMG88xx_PIXEL_ARRAY_SIZE; i++){
		if(pixels[i] > MAXTEMP){
     b52:	84 01       	movw	r16, r8
     b54:	20 e0       	ldi	r18, 0x00	; 0
     b56:	30 e0       	ldi	r19, 0x00	; 0
     b58:	48 ed       	ldi	r20, 0xD8	; 216
     b5a:	51 e4       	ldi	r21, 0x41	; 65
     b5c:	f4 01       	movw	r30, r8
     b5e:	60 81       	ld	r22, Z
     b60:	71 81       	ldd	r23, Z+1	; 0x01
     b62:	82 81       	ldd	r24, Z+2	; 0x02
     b64:	93 81       	ldd	r25, Z+3	; 0x03
     b66:	71 d1       	rcall	.+738    	; 0xe4a <__gesf2>
     b68:	18 16       	cp	r1, r24
     b6a:	4c f4       	brge	.+18     	; 0xb7e <_Z12Thermal_readv+0x17c>
			pixels[i] = MAXTEMP; //prevent roll-over back to blue
     b6c:	80 e0       	ldi	r24, 0x00	; 0
     b6e:	90 e0       	ldi	r25, 0x00	; 0
     b70:	a8 ed       	ldi	r26, 0xD8	; 216
     b72:	b1 e4       	ldi	r27, 0x41	; 65
     b74:	f4 01       	movw	r30, r8
     b76:	80 83       	st	Z, r24
     b78:	91 83       	std	Z+1, r25	; 0x01
     b7a:	a2 83       	std	Z+2, r26	; 0x02
     b7c:	b3 83       	std	Z+3, r27	; 0x03
     b7e:	f4 e0       	ldi	r31, 0x04	; 4
     b80:	8f 0e       	add	r8, r31
		}
		uint8_t colorIndex = map(pixels[i], MINTEMP, MAXTEMP, 0, 255);
     b82:	91 1c       	adc	r9, r1
     b84:	f8 01       	movw	r30, r16
     b86:	60 81       	ld	r22, Z
     b88:	71 81       	ldd	r23, Z+1	; 0x01
     b8a:	82 81       	ldd	r24, Z+2	; 0x02
     b8c:	93 81       	ldd	r25, Z+3	; 0x03
     b8e:	73 d0       	rcall	.+230    	; 0xc76 <__fixsfsi>
     b90:	1f 92       	push	r1
     b92:	1f 92       	push	r1
     b94:	1f 92       	push	r1
     b96:	ff ef       	ldi	r31, 0xFF	; 255
     b98:	ff 93       	push	r31
     b9a:	a1 2c       	mov	r10, r1
     b9c:	b1 2c       	mov	r11, r1
     b9e:	65 01       	movw	r12, r10
     ba0:	1b e1       	ldi	r17, 0x1B	; 27
     ba2:	e1 2e       	mov	r14, r17
     ba4:	f1 2c       	mov	r15, r1
     ba6:	00 e0       	ldi	r16, 0x00	; 0
     ba8:	10 e0       	ldi	r17, 0x00	; 0
     baa:	2e e0       	ldi	r18, 0x0E	; 14
     bac:	30 e0       	ldi	r19, 0x00	; 0
     bae:	40 e0       	ldi	r20, 0x00	; 0
     bb0:	50 e0       	ldi	r21, 0x00	; 0
     bb2:	0e 94 fa 0d 	call	0x1bf4	; 0x1bf4 <_Z3maplllll>
     bb6:	f6 2e       	mov	r15, r22
		colorIndex = constrain(colorIndex, 0, 255);

		//draw the pixels!
		tft.fillRect(displayPixelHeight * floor(i / 8), displayPixelWidth * (i % 8),
     bb8:	00 91 fd 06 	lds	r16, 0x06FD	; 0x8006fd <displayPixelWidth>
     bbc:	10 91 fe 06 	lds	r17, 0x06FE	; 0x8006fe <displayPixelWidth+0x1>
     bc0:	c0 90 fb 06 	lds	r12, 0x06FB	; 0x8006fb <displayPixelHeight>
     bc4:	d0 90 fc 06 	lds	r13, 0x06FC	; 0x8006fc <displayPixelHeight+0x1>
     bc8:	6b 81       	ldd	r22, Y+3	; 0x03
     bca:	7c 81       	ldd	r23, Y+4	; 0x04
     bcc:	33 e0       	ldi	r19, 0x03	; 3
     bce:	75 95       	asr	r23
     bd0:	67 95       	ror	r22
     bd2:	3a 95       	dec	r19
     bd4:	e1 f7       	brne	.-8      	; 0xbce <_Z12Thermal_readv+0x1cc>
     bd6:	07 2e       	mov	r0, r23
     bd8:	00 0c       	add	r0, r0
     bda:	88 0b       	sbc	r24, r24
     bdc:	99 0b       	sbc	r25, r25
     bde:	7e d0       	rcall	.+252    	; 0xcdc <__floatsisf>
     be0:	b8 d0       	rcall	.+368    	; 0xd52 <floor>
     be2:	2b 01       	movw	r4, r22
     be4:	3c 01       	movw	r6, r24
		displayPixelHeight, displayPixelWidth, camColors[colorIndex]);
     be6:	ef 2d       	mov	r30, r15
     be8:	f0 e0       	ldi	r31, 0x00	; 0
     bea:	ee 0f       	add	r30, r30
     bec:	ff 1f       	adc	r31, r31
     bee:	e0 56       	subi	r30, 0x60	; 96
     bf0:	fd 4f       	sbci	r31, 0xFD	; 253
     bf2:	e0 80       	ld	r14, Z
     bf4:	f1 80       	ldd	r15, Z+1	; 0x01
     bf6:	8b 81       	ldd	r24, Y+3	; 0x03
     bf8:	9c 81       	ldd	r25, Y+4	; 0x04
     bfa:	87 70       	andi	r24, 0x07	; 7
     bfc:	99 27       	eor	r25, r25
     bfe:	80 9f       	mul	r24, r16
     c00:	50 01       	movw	r10, r0
     c02:	81 9f       	mul	r24, r17
     c04:	b0 0c       	add	r11, r0
     c06:	90 9f       	mul	r25, r16
     c08:	b0 0c       	add	r11, r0
     c0a:	11 24       	eor	r1, r1
     c0c:	b6 01       	movw	r22, r12
     c0e:	80 e0       	ldi	r24, 0x00	; 0
     c10:	90 e0       	ldi	r25, 0x00	; 0
     c12:	62 d0       	rcall	.+196    	; 0xcd8 <__floatunsisf>
     c14:	a3 01       	movw	r20, r6
     c16:	92 01       	movw	r18, r4
     c18:	1c d1       	rcall	.+568    	; 0xe52 <__mulsf3>
     c1a:	2d d0       	rcall	.+90     	; 0xc76 <__fixsfsi>
     c1c:	96 01       	movw	r18, r12
     c1e:	a5 01       	movw	r20, r10
     c20:	84 eb       	ldi	r24, 0xB4	; 180
     c22:	95 e0       	ldi	r25, 0x05	; 5
     c24:	0e 94 8a 1b 	call	0x3714	; 0x3714 <_ZN15Adafruit_SPITFT8fillRectEiiiij>
		}
		

	}
	//modify array for display
	for(int i=0; i<AMG88xx_PIXEL_ARRAY_SIZE; i++){
     c28:	8b 81       	ldd	r24, Y+3	; 0x03
     c2a:	9c 81       	ldd	r25, Y+4	; 0x04
     c2c:	01 96       	adiw	r24, 0x01	; 1
     c2e:	9c 83       	std	Y+4, r25	; 0x04
     c30:	8b 83       	std	Y+3, r24	; 0x03
     c32:	0f 90       	pop	r0
     c34:	0f 90       	pop	r0
     c36:	0f 90       	pop	r0
     c38:	0f 90       	pop	r0
     c3a:	80 34       	cpi	r24, 0x40	; 64
     c3c:	91 05       	cpc	r25, r1
     c3e:	09 f0       	breq	.+2      	; 0xc42 <_Z12Thermal_readv+0x240>
     c40:	88 cf       	rjmp	.-240    	; 0xb52 <_Z12Thermal_readv+0x150>

	int size;
	
	
	
	return Size_temp_read;
     c42:	b1 01       	movw	r22, r2
     c44:	89 81       	ldd	r24, Y+1	; 0x01
     c46:	9a 81       	ldd	r25, Y+2	; 0x02
}
     c48:	0f 90       	pop	r0
     c4a:	0f 90       	pop	r0
     c4c:	0f 90       	pop	r0
     c4e:	0f 90       	pop	r0
     c50:	df 91       	pop	r29
     c52:	cf 91       	pop	r28
     c54:	1f 91       	pop	r17
     c56:	0f 91       	pop	r16
     c58:	ff 90       	pop	r15
     c5a:	ef 90       	pop	r14
     c5c:	df 90       	pop	r13
     c5e:	cf 90       	pop	r12
     c60:	bf 90       	pop	r11
     c62:	af 90       	pop	r10
     c64:	9f 90       	pop	r9
     c66:	8f 90       	pop	r8
     c68:	7f 90       	pop	r7
     c6a:	6f 90       	pop	r6
     c6c:	5f 90       	pop	r5
     c6e:	4f 90       	pop	r4
     c70:	3f 90       	pop	r3
     c72:	2f 90       	pop	r2
     c74:	08 95       	ret

00000c76 <__fixsfsi>:
     c76:	04 d0       	rcall	.+8      	; 0xc80 <__fixunssfsi>
     c78:	68 94       	set
     c7a:	b1 11       	cpse	r27, r1
     c7c:	e0 c0       	rjmp	.+448    	; 0xe3e <__fp_szero>
     c7e:	08 95       	ret

00000c80 <__fixunssfsi>:
     c80:	ac d0       	rcall	.+344    	; 0xdda <__fp_splitA>
     c82:	88 f0       	brcs	.+34     	; 0xca6 <__fixunssfsi+0x26>
     c84:	9f 57       	subi	r25, 0x7F	; 127
     c86:	90 f0       	brcs	.+36     	; 0xcac <__fixunssfsi+0x2c>
     c88:	b9 2f       	mov	r27, r25
     c8a:	99 27       	eor	r25, r25
     c8c:	b7 51       	subi	r27, 0x17	; 23
     c8e:	a0 f0       	brcs	.+40     	; 0xcb8 <__fixunssfsi+0x38>
     c90:	d1 f0       	breq	.+52     	; 0xcc6 <__fixunssfsi+0x46>
     c92:	66 0f       	add	r22, r22
     c94:	77 1f       	adc	r23, r23
     c96:	88 1f       	adc	r24, r24
     c98:	99 1f       	adc	r25, r25
     c9a:	1a f0       	brmi	.+6      	; 0xca2 <__fixunssfsi+0x22>
     c9c:	ba 95       	dec	r27
     c9e:	c9 f7       	brne	.-14     	; 0xc92 <__fixunssfsi+0x12>
     ca0:	12 c0       	rjmp	.+36     	; 0xcc6 <__fixunssfsi+0x46>
     ca2:	b1 30       	cpi	r27, 0x01	; 1
     ca4:	81 f0       	breq	.+32     	; 0xcc6 <__fixunssfsi+0x46>
     ca6:	ca d0       	rcall	.+404    	; 0xe3c <__fp_zero>
     ca8:	b1 e0       	ldi	r27, 0x01	; 1
     caa:	08 95       	ret
     cac:	c7 c0       	rjmp	.+398    	; 0xe3c <__fp_zero>
     cae:	67 2f       	mov	r22, r23
     cb0:	78 2f       	mov	r23, r24
     cb2:	88 27       	eor	r24, r24
     cb4:	b8 5f       	subi	r27, 0xF8	; 248
     cb6:	39 f0       	breq	.+14     	; 0xcc6 <__fixunssfsi+0x46>
     cb8:	b9 3f       	cpi	r27, 0xF9	; 249
     cba:	cc f3       	brlt	.-14     	; 0xcae <__fixunssfsi+0x2e>
     cbc:	86 95       	lsr	r24
     cbe:	77 95       	ror	r23
     cc0:	67 95       	ror	r22
     cc2:	b3 95       	inc	r27
     cc4:	d9 f7       	brne	.-10     	; 0xcbc <__fixunssfsi+0x3c>
     cc6:	3e f4       	brtc	.+14     	; 0xcd6 <__fixunssfsi+0x56>
     cc8:	90 95       	com	r25
     cca:	80 95       	com	r24
     ccc:	70 95       	com	r23
     cce:	61 95       	neg	r22
     cd0:	7f 4f       	sbci	r23, 0xFF	; 255
     cd2:	8f 4f       	sbci	r24, 0xFF	; 255
     cd4:	9f 4f       	sbci	r25, 0xFF	; 255
     cd6:	08 95       	ret

00000cd8 <__floatunsisf>:
     cd8:	e8 94       	clt
     cda:	09 c0       	rjmp	.+18     	; 0xcee <__floatsisf+0x12>

00000cdc <__floatsisf>:
     cdc:	97 fb       	bst	r25, 7
     cde:	3e f4       	brtc	.+14     	; 0xcee <__floatsisf+0x12>
     ce0:	90 95       	com	r25
     ce2:	80 95       	com	r24
     ce4:	70 95       	com	r23
     ce6:	61 95       	neg	r22
     ce8:	7f 4f       	sbci	r23, 0xFF	; 255
     cea:	8f 4f       	sbci	r24, 0xFF	; 255
     cec:	9f 4f       	sbci	r25, 0xFF	; 255
     cee:	99 23       	and	r25, r25
     cf0:	a9 f0       	breq	.+42     	; 0xd1c <__floatsisf+0x40>
     cf2:	f9 2f       	mov	r31, r25
     cf4:	96 e9       	ldi	r25, 0x96	; 150
     cf6:	bb 27       	eor	r27, r27
     cf8:	93 95       	inc	r25
     cfa:	f6 95       	lsr	r31
     cfc:	87 95       	ror	r24
     cfe:	77 95       	ror	r23
     d00:	67 95       	ror	r22
     d02:	b7 95       	ror	r27
     d04:	f1 11       	cpse	r31, r1
     d06:	f8 cf       	rjmp	.-16     	; 0xcf8 <__floatsisf+0x1c>
     d08:	fa f4       	brpl	.+62     	; 0xd48 <__floatsisf+0x6c>
     d0a:	bb 0f       	add	r27, r27
     d0c:	11 f4       	brne	.+4      	; 0xd12 <__floatsisf+0x36>
     d0e:	60 ff       	sbrs	r22, 0
     d10:	1b c0       	rjmp	.+54     	; 0xd48 <__floatsisf+0x6c>
     d12:	6f 5f       	subi	r22, 0xFF	; 255
     d14:	7f 4f       	sbci	r23, 0xFF	; 255
     d16:	8f 4f       	sbci	r24, 0xFF	; 255
     d18:	9f 4f       	sbci	r25, 0xFF	; 255
     d1a:	16 c0       	rjmp	.+44     	; 0xd48 <__floatsisf+0x6c>
     d1c:	88 23       	and	r24, r24
     d1e:	11 f0       	breq	.+4      	; 0xd24 <__floatsisf+0x48>
     d20:	96 e9       	ldi	r25, 0x96	; 150
     d22:	11 c0       	rjmp	.+34     	; 0xd46 <__floatsisf+0x6a>
     d24:	77 23       	and	r23, r23
     d26:	21 f0       	breq	.+8      	; 0xd30 <__floatsisf+0x54>
     d28:	9e e8       	ldi	r25, 0x8E	; 142
     d2a:	87 2f       	mov	r24, r23
     d2c:	76 2f       	mov	r23, r22
     d2e:	05 c0       	rjmp	.+10     	; 0xd3a <__floatsisf+0x5e>
     d30:	66 23       	and	r22, r22
     d32:	71 f0       	breq	.+28     	; 0xd50 <__floatsisf+0x74>
     d34:	96 e8       	ldi	r25, 0x86	; 134
     d36:	86 2f       	mov	r24, r22
     d38:	70 e0       	ldi	r23, 0x00	; 0
     d3a:	60 e0       	ldi	r22, 0x00	; 0
     d3c:	2a f0       	brmi	.+10     	; 0xd48 <__floatsisf+0x6c>
     d3e:	9a 95       	dec	r25
     d40:	66 0f       	add	r22, r22
     d42:	77 1f       	adc	r23, r23
     d44:	88 1f       	adc	r24, r24
     d46:	da f7       	brpl	.-10     	; 0xd3e <__floatsisf+0x62>
     d48:	88 0f       	add	r24, r24
     d4a:	96 95       	lsr	r25
     d4c:	87 95       	ror	r24
     d4e:	97 f9       	bld	r25, 7
     d50:	08 95       	ret

00000d52 <floor>:
     d52:	5d d0       	rcall	.+186    	; 0xe0e <__fp_trunc>
     d54:	80 f0       	brcs	.+32     	; 0xd76 <floor+0x24>
     d56:	9f 37       	cpi	r25, 0x7F	; 127
     d58:	40 f4       	brcc	.+16     	; 0xd6a <floor+0x18>
     d5a:	91 11       	cpse	r25, r1
     d5c:	0e f0       	brts	.+2      	; 0xd60 <floor+0xe>
     d5e:	6f c0       	rjmp	.+222    	; 0xe3e <__fp_szero>
     d60:	60 e0       	ldi	r22, 0x00	; 0
     d62:	70 e0       	ldi	r23, 0x00	; 0
     d64:	80 e8       	ldi	r24, 0x80	; 128
     d66:	9f eb       	ldi	r25, 0xBF	; 191
     d68:	08 95       	ret
     d6a:	26 f4       	brtc	.+8      	; 0xd74 <floor+0x22>
     d6c:	1b 16       	cp	r1, r27
     d6e:	61 1d       	adc	r22, r1
     d70:	71 1d       	adc	r23, r1
     d72:	81 1d       	adc	r24, r1
     d74:	01 c0       	rjmp	.+2      	; 0xd78 <__fp_mintl>
     d76:	1b c0       	rjmp	.+54     	; 0xdae <__fp_mpack>

00000d78 <__fp_mintl>:
     d78:	88 23       	and	r24, r24
     d7a:	71 f4       	brne	.+28     	; 0xd98 <__fp_mintl+0x20>
     d7c:	77 23       	and	r23, r23
     d7e:	21 f0       	breq	.+8      	; 0xd88 <__fp_mintl+0x10>
     d80:	98 50       	subi	r25, 0x08	; 8
     d82:	87 2b       	or	r24, r23
     d84:	76 2f       	mov	r23, r22
     d86:	07 c0       	rjmp	.+14     	; 0xd96 <__fp_mintl+0x1e>
     d88:	66 23       	and	r22, r22
     d8a:	11 f4       	brne	.+4      	; 0xd90 <__fp_mintl+0x18>
     d8c:	99 27       	eor	r25, r25
     d8e:	0d c0       	rjmp	.+26     	; 0xdaa <__fp_mintl+0x32>
     d90:	90 51       	subi	r25, 0x10	; 16
     d92:	86 2b       	or	r24, r22
     d94:	70 e0       	ldi	r23, 0x00	; 0
     d96:	60 e0       	ldi	r22, 0x00	; 0
     d98:	2a f0       	brmi	.+10     	; 0xda4 <__fp_mintl+0x2c>
     d9a:	9a 95       	dec	r25
     d9c:	66 0f       	add	r22, r22
     d9e:	77 1f       	adc	r23, r23
     da0:	88 1f       	adc	r24, r24
     da2:	da f7       	brpl	.-10     	; 0xd9a <__fp_mintl+0x22>
     da4:	88 0f       	add	r24, r24
     da6:	96 95       	lsr	r25
     da8:	87 95       	ror	r24
     daa:	97 f9       	bld	r25, 7
     dac:	08 95       	ret

00000dae <__fp_mpack>:
     dae:	9f 3f       	cpi	r25, 0xFF	; 255
     db0:	31 f0       	breq	.+12     	; 0xdbe <__fp_mpack_finite+0xc>

00000db2 <__fp_mpack_finite>:
     db2:	91 50       	subi	r25, 0x01	; 1
     db4:	20 f4       	brcc	.+8      	; 0xdbe <__fp_mpack_finite+0xc>
     db6:	87 95       	ror	r24
     db8:	77 95       	ror	r23
     dba:	67 95       	ror	r22
     dbc:	b7 95       	ror	r27
     dbe:	88 0f       	add	r24, r24
     dc0:	91 1d       	adc	r25, r1
     dc2:	96 95       	lsr	r25
     dc4:	87 95       	ror	r24
     dc6:	97 f9       	bld	r25, 7
     dc8:	08 95       	ret

00000dca <__fp_split3>:
     dca:	57 fd       	sbrc	r21, 7
     dcc:	90 58       	subi	r25, 0x80	; 128
     dce:	44 0f       	add	r20, r20
     dd0:	55 1f       	adc	r21, r21
     dd2:	59 f0       	breq	.+22     	; 0xdea <__fp_splitA+0x10>
     dd4:	5f 3f       	cpi	r21, 0xFF	; 255
     dd6:	71 f0       	breq	.+28     	; 0xdf4 <__fp_splitA+0x1a>
     dd8:	47 95       	ror	r20

00000dda <__fp_splitA>:
     dda:	88 0f       	add	r24, r24
     ddc:	97 fb       	bst	r25, 7
     dde:	99 1f       	adc	r25, r25
     de0:	61 f0       	breq	.+24     	; 0xdfa <__fp_splitA+0x20>
     de2:	9f 3f       	cpi	r25, 0xFF	; 255
     de4:	79 f0       	breq	.+30     	; 0xe04 <__fp_splitA+0x2a>
     de6:	87 95       	ror	r24
     de8:	08 95       	ret
     dea:	12 16       	cp	r1, r18
     dec:	13 06       	cpc	r1, r19
     dee:	14 06       	cpc	r1, r20
     df0:	55 1f       	adc	r21, r21
     df2:	f2 cf       	rjmp	.-28     	; 0xdd8 <__fp_split3+0xe>
     df4:	46 95       	lsr	r20
     df6:	f1 df       	rcall	.-30     	; 0xdda <__fp_splitA>
     df8:	08 c0       	rjmp	.+16     	; 0xe0a <__fp_splitA+0x30>
     dfa:	16 16       	cp	r1, r22
     dfc:	17 06       	cpc	r1, r23
     dfe:	18 06       	cpc	r1, r24
     e00:	99 1f       	adc	r25, r25
     e02:	f1 cf       	rjmp	.-30     	; 0xde6 <__fp_splitA+0xc>
     e04:	86 95       	lsr	r24
     e06:	71 05       	cpc	r23, r1
     e08:	61 05       	cpc	r22, r1
     e0a:	08 94       	sec
     e0c:	08 95       	ret

00000e0e <__fp_trunc>:
     e0e:	e5 df       	rcall	.-54     	; 0xdda <__fp_splitA>
     e10:	a0 f0       	brcs	.+40     	; 0xe3a <__fp_trunc+0x2c>
     e12:	be e7       	ldi	r27, 0x7E	; 126
     e14:	b9 17       	cp	r27, r25
     e16:	88 f4       	brcc	.+34     	; 0xe3a <__fp_trunc+0x2c>
     e18:	bb 27       	eor	r27, r27
     e1a:	9f 38       	cpi	r25, 0x8F	; 143
     e1c:	60 f4       	brcc	.+24     	; 0xe36 <__fp_trunc+0x28>
     e1e:	16 16       	cp	r1, r22
     e20:	b1 1d       	adc	r27, r1
     e22:	67 2f       	mov	r22, r23
     e24:	78 2f       	mov	r23, r24
     e26:	88 27       	eor	r24, r24
     e28:	98 5f       	subi	r25, 0xF8	; 248
     e2a:	f7 cf       	rjmp	.-18     	; 0xe1a <__fp_trunc+0xc>
     e2c:	86 95       	lsr	r24
     e2e:	77 95       	ror	r23
     e30:	67 95       	ror	r22
     e32:	b1 1d       	adc	r27, r1
     e34:	93 95       	inc	r25
     e36:	96 39       	cpi	r25, 0x96	; 150
     e38:	c8 f3       	brcs	.-14     	; 0xe2c <__fp_trunc+0x1e>
     e3a:	08 95       	ret

00000e3c <__fp_zero>:
     e3c:	e8 94       	clt

00000e3e <__fp_szero>:
     e3e:	bb 27       	eor	r27, r27
     e40:	66 27       	eor	r22, r22
     e42:	77 27       	eor	r23, r23
     e44:	cb 01       	movw	r24, r22
     e46:	97 f9       	bld	r25, 7
     e48:	08 95       	ret

00000e4a <__gesf2>:
     e4a:	66 d0       	rcall	.+204    	; 0xf18 <__fp_cmp>
     e4c:	08 f4       	brcc	.+2      	; 0xe50 <__gesf2+0x6>
     e4e:	8f ef       	ldi	r24, 0xFF	; 255
     e50:	08 95       	ret

00000e52 <__mulsf3>:
     e52:	0b d0       	rcall	.+22     	; 0xe6a <__mulsf3x>
     e54:	9c c0       	rjmp	.+312    	; 0xf8e <__fp_round>
     e56:	8d d0       	rcall	.+282    	; 0xf72 <__fp_pscA>
     e58:	28 f0       	brcs	.+10     	; 0xe64 <__mulsf3+0x12>
     e5a:	92 d0       	rcall	.+292    	; 0xf80 <__fp_pscB>
     e5c:	18 f0       	brcs	.+6      	; 0xe64 <__mulsf3+0x12>
     e5e:	95 23       	and	r25, r21
     e60:	09 f0       	breq	.+2      	; 0xe64 <__mulsf3+0x12>
     e62:	7e c0       	rjmp	.+252    	; 0xf60 <__fp_inf>
     e64:	83 c0       	rjmp	.+262    	; 0xf6c <__fp_nan>
     e66:	11 24       	eor	r1, r1
     e68:	ea cf       	rjmp	.-44     	; 0xe3e <__fp_szero>

00000e6a <__mulsf3x>:
     e6a:	af df       	rcall	.-162    	; 0xdca <__fp_split3>
     e6c:	a0 f3       	brcs	.-24     	; 0xe56 <__mulsf3+0x4>

00000e6e <__mulsf3_pse>:
     e6e:	95 9f       	mul	r25, r21
     e70:	d1 f3       	breq	.-12     	; 0xe66 <__mulsf3+0x14>
     e72:	95 0f       	add	r25, r21
     e74:	50 e0       	ldi	r21, 0x00	; 0
     e76:	55 1f       	adc	r21, r21
     e78:	62 9f       	mul	r22, r18
     e7a:	f0 01       	movw	r30, r0
     e7c:	72 9f       	mul	r23, r18
     e7e:	bb 27       	eor	r27, r27
     e80:	f0 0d       	add	r31, r0
     e82:	b1 1d       	adc	r27, r1
     e84:	63 9f       	mul	r22, r19
     e86:	aa 27       	eor	r26, r26
     e88:	f0 0d       	add	r31, r0
     e8a:	b1 1d       	adc	r27, r1
     e8c:	aa 1f       	adc	r26, r26
     e8e:	64 9f       	mul	r22, r20
     e90:	66 27       	eor	r22, r22
     e92:	b0 0d       	add	r27, r0
     e94:	a1 1d       	adc	r26, r1
     e96:	66 1f       	adc	r22, r22
     e98:	82 9f       	mul	r24, r18
     e9a:	22 27       	eor	r18, r18
     e9c:	b0 0d       	add	r27, r0
     e9e:	a1 1d       	adc	r26, r1
     ea0:	62 1f       	adc	r22, r18
     ea2:	73 9f       	mul	r23, r19
     ea4:	b0 0d       	add	r27, r0
     ea6:	a1 1d       	adc	r26, r1
     ea8:	62 1f       	adc	r22, r18
     eaa:	83 9f       	mul	r24, r19
     eac:	a0 0d       	add	r26, r0
     eae:	61 1d       	adc	r22, r1
     eb0:	22 1f       	adc	r18, r18
     eb2:	74 9f       	mul	r23, r20
     eb4:	33 27       	eor	r19, r19
     eb6:	a0 0d       	add	r26, r0
     eb8:	61 1d       	adc	r22, r1
     eba:	23 1f       	adc	r18, r19
     ebc:	84 9f       	mul	r24, r20
     ebe:	60 0d       	add	r22, r0
     ec0:	21 1d       	adc	r18, r1
     ec2:	82 2f       	mov	r24, r18
     ec4:	76 2f       	mov	r23, r22
     ec6:	6a 2f       	mov	r22, r26
     ec8:	11 24       	eor	r1, r1
     eca:	9f 57       	subi	r25, 0x7F	; 127
     ecc:	50 40       	sbci	r21, 0x00	; 0
     ece:	8a f0       	brmi	.+34     	; 0xef2 <__mulsf3_pse+0x84>
     ed0:	e1 f0       	breq	.+56     	; 0xf0a <__mulsf3_pse+0x9c>
     ed2:	88 23       	and	r24, r24
     ed4:	4a f0       	brmi	.+18     	; 0xee8 <__mulsf3_pse+0x7a>
     ed6:	ee 0f       	add	r30, r30
     ed8:	ff 1f       	adc	r31, r31
     eda:	bb 1f       	adc	r27, r27
     edc:	66 1f       	adc	r22, r22
     ede:	77 1f       	adc	r23, r23
     ee0:	88 1f       	adc	r24, r24
     ee2:	91 50       	subi	r25, 0x01	; 1
     ee4:	50 40       	sbci	r21, 0x00	; 0
     ee6:	a9 f7       	brne	.-22     	; 0xed2 <__mulsf3_pse+0x64>
     ee8:	9e 3f       	cpi	r25, 0xFE	; 254
     eea:	51 05       	cpc	r21, r1
     eec:	70 f0       	brcs	.+28     	; 0xf0a <__mulsf3_pse+0x9c>
     eee:	38 c0       	rjmp	.+112    	; 0xf60 <__fp_inf>
     ef0:	a6 cf       	rjmp	.-180    	; 0xe3e <__fp_szero>
     ef2:	5f 3f       	cpi	r21, 0xFF	; 255
     ef4:	ec f3       	brlt	.-6      	; 0xef0 <__mulsf3_pse+0x82>
     ef6:	98 3e       	cpi	r25, 0xE8	; 232
     ef8:	dc f3       	brlt	.-10     	; 0xef0 <__mulsf3_pse+0x82>
     efa:	86 95       	lsr	r24
     efc:	77 95       	ror	r23
     efe:	67 95       	ror	r22
     f00:	b7 95       	ror	r27
     f02:	f7 95       	ror	r31
     f04:	e7 95       	ror	r30
     f06:	9f 5f       	subi	r25, 0xFF	; 255
     f08:	c1 f7       	brne	.-16     	; 0xefa <__mulsf3_pse+0x8c>
     f0a:	fe 2b       	or	r31, r30
     f0c:	88 0f       	add	r24, r24
     f0e:	91 1d       	adc	r25, r1
     f10:	96 95       	lsr	r25
     f12:	87 95       	ror	r24
     f14:	97 f9       	bld	r25, 7
     f16:	08 95       	ret

00000f18 <__fp_cmp>:
     f18:	99 0f       	add	r25, r25
     f1a:	00 08       	sbc	r0, r0
     f1c:	55 0f       	add	r21, r21
     f1e:	aa 0b       	sbc	r26, r26
     f20:	e0 e8       	ldi	r30, 0x80	; 128
     f22:	fe ef       	ldi	r31, 0xFE	; 254
     f24:	16 16       	cp	r1, r22
     f26:	17 06       	cpc	r1, r23
     f28:	e8 07       	cpc	r30, r24
     f2a:	f9 07       	cpc	r31, r25
     f2c:	c0 f0       	brcs	.+48     	; 0xf5e <__fp_cmp+0x46>
     f2e:	12 16       	cp	r1, r18
     f30:	13 06       	cpc	r1, r19
     f32:	e4 07       	cpc	r30, r20
     f34:	f5 07       	cpc	r31, r21
     f36:	98 f0       	brcs	.+38     	; 0xf5e <__fp_cmp+0x46>
     f38:	62 1b       	sub	r22, r18
     f3a:	73 0b       	sbc	r23, r19
     f3c:	84 0b       	sbc	r24, r20
     f3e:	95 0b       	sbc	r25, r21
     f40:	39 f4       	brne	.+14     	; 0xf50 <__fp_cmp+0x38>
     f42:	0a 26       	eor	r0, r26
     f44:	61 f0       	breq	.+24     	; 0xf5e <__fp_cmp+0x46>
     f46:	23 2b       	or	r18, r19
     f48:	24 2b       	or	r18, r20
     f4a:	25 2b       	or	r18, r21
     f4c:	21 f4       	brne	.+8      	; 0xf56 <__fp_cmp+0x3e>
     f4e:	08 95       	ret
     f50:	0a 26       	eor	r0, r26
     f52:	09 f4       	brne	.+2      	; 0xf56 <__fp_cmp+0x3e>
     f54:	a1 40       	sbci	r26, 0x01	; 1
     f56:	a6 95       	lsr	r26
     f58:	8f ef       	ldi	r24, 0xFF	; 255
     f5a:	81 1d       	adc	r24, r1
     f5c:	81 1d       	adc	r24, r1
     f5e:	08 95       	ret

00000f60 <__fp_inf>:
     f60:	97 f9       	bld	r25, 7
     f62:	9f 67       	ori	r25, 0x7F	; 127
     f64:	80 e8       	ldi	r24, 0x80	; 128
     f66:	70 e0       	ldi	r23, 0x00	; 0
     f68:	60 e0       	ldi	r22, 0x00	; 0
     f6a:	08 95       	ret

00000f6c <__fp_nan>:
     f6c:	9f ef       	ldi	r25, 0xFF	; 255
     f6e:	80 ec       	ldi	r24, 0xC0	; 192
     f70:	08 95       	ret

00000f72 <__fp_pscA>:
     f72:	00 24       	eor	r0, r0
     f74:	0a 94       	dec	r0
     f76:	16 16       	cp	r1, r22
     f78:	17 06       	cpc	r1, r23
     f7a:	18 06       	cpc	r1, r24
     f7c:	09 06       	cpc	r0, r25
     f7e:	08 95       	ret

00000f80 <__fp_pscB>:
     f80:	00 24       	eor	r0, r0
     f82:	0a 94       	dec	r0
     f84:	12 16       	cp	r1, r18
     f86:	13 06       	cpc	r1, r19
     f88:	14 06       	cpc	r1, r20
     f8a:	05 06       	cpc	r0, r21
     f8c:	08 95       	ret

00000f8e <__fp_round>:
     f8e:	09 2e       	mov	r0, r25
     f90:	03 94       	inc	r0
     f92:	00 0c       	add	r0, r0
     f94:	11 f4       	brne	.+4      	; 0xf9a <__fp_round+0xc>
     f96:	88 23       	and	r24, r24
     f98:	52 f0       	brmi	.+20     	; 0xfae <__fp_round+0x20>
     f9a:	bb 0f       	add	r27, r27
     f9c:	40 f4       	brcc	.+16     	; 0xfae <__fp_round+0x20>
     f9e:	bf 2b       	or	r27, r31
     fa0:	11 f4       	brne	.+4      	; 0xfa6 <__fp_round+0x18>
     fa2:	60 ff       	sbrs	r22, 0
     fa4:	04 c0       	rjmp	.+8      	; 0xfae <__fp_round+0x20>
     fa6:	6f 5f       	subi	r22, 0xFF	; 255
     fa8:	7f 4f       	sbci	r23, 0xFF	; 255
     faa:	8f 4f       	sbci	r24, 0xFF	; 255
     fac:	9f 4f       	sbci	r25, 0xFF	; 255
     fae:	08 95       	ret

00000fb0 <_ZN14HardwareSerial9availableEv>:
     fb0:	fc 01       	movw	r30, r24
     fb2:	91 8d       	ldd	r25, Z+25	; 0x19
     fb4:	22 8d       	ldd	r18, Z+26	; 0x1a
     fb6:	89 2f       	mov	r24, r25
     fb8:	90 e0       	ldi	r25, 0x00	; 0
     fba:	80 5c       	subi	r24, 0xC0	; 192
     fbc:	9f 4f       	sbci	r25, 0xFF	; 255
     fbe:	82 1b       	sub	r24, r18
     fc0:	91 09       	sbc	r25, r1
     fc2:	8f 73       	andi	r24, 0x3F	; 63
     fc4:	99 27       	eor	r25, r25
     fc6:	08 95       	ret

00000fc8 <_ZN14HardwareSerial4peekEv>:
     fc8:	fc 01       	movw	r30, r24
     fca:	91 8d       	ldd	r25, Z+25	; 0x19
     fcc:	82 8d       	ldd	r24, Z+26	; 0x1a
     fce:	98 17       	cp	r25, r24
     fd0:	31 f0       	breq	.+12     	; 0xfde <_ZN14HardwareSerial4peekEv+0x16>
     fd2:	82 8d       	ldd	r24, Z+26	; 0x1a
     fd4:	e8 0f       	add	r30, r24
     fd6:	f1 1d       	adc	r31, r1
     fd8:	85 8d       	ldd	r24, Z+29	; 0x1d
     fda:	90 e0       	ldi	r25, 0x00	; 0
     fdc:	08 95       	ret
     fde:	8f ef       	ldi	r24, 0xFF	; 255
     fe0:	9f ef       	ldi	r25, 0xFF	; 255
     fe2:	08 95       	ret

00000fe4 <_ZN14HardwareSerial4readEv>:
     fe4:	fc 01       	movw	r30, r24
     fe6:	91 8d       	ldd	r25, Z+25	; 0x19
     fe8:	82 8d       	ldd	r24, Z+26	; 0x1a
     fea:	98 17       	cp	r25, r24
     fec:	61 f0       	breq	.+24     	; 0x1006 <_ZN14HardwareSerial4readEv+0x22>
     fee:	82 8d       	ldd	r24, Z+26	; 0x1a
     ff0:	df 01       	movw	r26, r30
     ff2:	a8 0f       	add	r26, r24
     ff4:	b1 1d       	adc	r27, r1
     ff6:	5d 96       	adiw	r26, 0x1d	; 29
     ff8:	8c 91       	ld	r24, X
     ffa:	92 8d       	ldd	r25, Z+26	; 0x1a
     ffc:	9f 5f       	subi	r25, 0xFF	; 255
     ffe:	9f 73       	andi	r25, 0x3F	; 63
    1000:	92 8f       	std	Z+26, r25	; 0x1a
    1002:	90 e0       	ldi	r25, 0x00	; 0
    1004:	08 95       	ret
    1006:	8f ef       	ldi	r24, 0xFF	; 255
    1008:	9f ef       	ldi	r25, 0xFF	; 255
    100a:	08 95       	ret

0000100c <_ZN14HardwareSerial17availableForWriteEv>:
    100c:	fc 01       	movw	r30, r24
    100e:	53 8d       	ldd	r21, Z+27	; 0x1b
    1010:	44 8d       	ldd	r20, Z+28	; 0x1c
    1012:	25 2f       	mov	r18, r21
    1014:	30 e0       	ldi	r19, 0x00	; 0
    1016:	84 2f       	mov	r24, r20
    1018:	90 e0       	ldi	r25, 0x00	; 0
    101a:	82 1b       	sub	r24, r18
    101c:	93 0b       	sbc	r25, r19
    101e:	54 17       	cp	r21, r20
    1020:	10 f0       	brcs	.+4      	; 0x1026 <_ZN14HardwareSerial17availableForWriteEv+0x1a>
    1022:	cf 96       	adiw	r24, 0x3f	; 63
    1024:	08 95       	ret
    1026:	01 97       	sbiw	r24, 0x01	; 1
    1028:	08 95       	ret

0000102a <_Z14serialEventRunv>:
    102a:	88 ea       	ldi	r24, 0xA8	; 168
    102c:	99 e0       	ldi	r25, 0x09	; 9
    102e:	89 2b       	or	r24, r25
    1030:	39 f0       	breq	.+14     	; 0x1040 <_Z14serialEventRunv+0x16>
    1032:	80 e0       	ldi	r24, 0x00	; 0
    1034:	90 e0       	ldi	r25, 0x00	; 0
    1036:	89 2b       	or	r24, r25
    1038:	19 f0       	breq	.+6      	; 0x1040 <_Z14serialEventRunv+0x16>
    103a:	8a d1       	rcall	.+788    	; 0x1350 <_Z17Serial0_availablev>
    103c:	81 11       	cpse	r24, r1
    103e:	25 c0       	rjmp	.+74     	; 0x108a <_Z14serialEventRunv+0x60>
    1040:	80 e0       	ldi	r24, 0x00	; 0
    1042:	90 e0       	ldi	r25, 0x00	; 0
    1044:	89 2b       	or	r24, r25
    1046:	41 f0       	breq	.+16     	; 0x1058 <_Z14serialEventRunv+0x2e>
    1048:	80 e0       	ldi	r24, 0x00	; 0
    104a:	90 e0       	ldi	r25, 0x00	; 0
    104c:	89 2b       	or	r24, r25
    104e:	21 f0       	breq	.+8      	; 0x1058 <_Z14serialEventRunv+0x2e>
    1050:	0e 94 00 00 	call	0	; 0x0 <__vectors>
    1054:	81 11       	cpse	r24, r1
    1056:	1c c0       	rjmp	.+56     	; 0x1090 <_Z14serialEventRunv+0x66>
    1058:	80 e0       	ldi	r24, 0x00	; 0
    105a:	90 e0       	ldi	r25, 0x00	; 0
    105c:	89 2b       	or	r24, r25
    105e:	41 f0       	breq	.+16     	; 0x1070 <_Z14serialEventRunv+0x46>
    1060:	80 e0       	ldi	r24, 0x00	; 0
    1062:	90 e0       	ldi	r25, 0x00	; 0
    1064:	89 2b       	or	r24, r25
    1066:	21 f0       	breq	.+8      	; 0x1070 <_Z14serialEventRunv+0x46>
    1068:	0e 94 00 00 	call	0	; 0x0 <__vectors>
    106c:	81 11       	cpse	r24, r1
    106e:	13 c0       	rjmp	.+38     	; 0x1096 <_Z14serialEventRunv+0x6c>
    1070:	80 e0       	ldi	r24, 0x00	; 0
    1072:	90 e0       	ldi	r25, 0x00	; 0
    1074:	89 2b       	or	r24, r25
    1076:	a1 f0       	breq	.+40     	; 0x10a0 <_Z14serialEventRunv+0x76>
    1078:	80 e0       	ldi	r24, 0x00	; 0
    107a:	90 e0       	ldi	r25, 0x00	; 0
    107c:	89 2b       	or	r24, r25
    107e:	81 f0       	breq	.+32     	; 0x10a0 <_Z14serialEventRunv+0x76>
    1080:	0e 94 00 00 	call	0	; 0x0 <__vectors>
    1084:	81 11       	cpse	r24, r1
    1086:	0a c0       	rjmp	.+20     	; 0x109c <_Z14serialEventRunv+0x72>
    1088:	08 95       	ret
    108a:	0e 94 00 00 	call	0	; 0x0 <__vectors>
    108e:	d8 cf       	rjmp	.-80     	; 0x1040 <_Z14serialEventRunv+0x16>
    1090:	0e 94 00 00 	call	0	; 0x0 <__vectors>
    1094:	e1 cf       	rjmp	.-62     	; 0x1058 <_Z14serialEventRunv+0x2e>
    1096:	0e 94 00 00 	call	0	; 0x0 <__vectors>
    109a:	ea cf       	rjmp	.-44     	; 0x1070 <_Z14serialEventRunv+0x46>
    109c:	0c 94 00 00 	jmp	0	; 0x0 <__vectors>
    10a0:	08 95       	ret

000010a2 <_ZN14HardwareSerial17_tx_udr_empty_irqEv>:
    10a2:	fc 01       	movw	r30, r24
    10a4:	84 8d       	ldd	r24, Z+28	; 0x1c
    10a6:	df 01       	movw	r26, r30
    10a8:	a8 0f       	add	r26, r24
    10aa:	b1 1d       	adc	r27, r1
    10ac:	a3 5a       	subi	r26, 0xA3	; 163
    10ae:	bf 4f       	sbci	r27, 0xFF	; 255
    10b0:	2c 91       	ld	r18, X
    10b2:	84 8d       	ldd	r24, Z+28	; 0x1c
    10b4:	90 e0       	ldi	r25, 0x00	; 0
    10b6:	01 96       	adiw	r24, 0x01	; 1
    10b8:	8f 73       	andi	r24, 0x3F	; 63
    10ba:	99 27       	eor	r25, r25
    10bc:	84 8f       	std	Z+28, r24	; 0x1c
    10be:	a6 89       	ldd	r26, Z+22	; 0x16
    10c0:	b7 89       	ldd	r27, Z+23	; 0x17
    10c2:	2c 93       	st	X, r18
    10c4:	a0 89       	ldd	r26, Z+16	; 0x10
    10c6:	b1 89       	ldd	r27, Z+17	; 0x11
    10c8:	8c 91       	ld	r24, X
    10ca:	83 70       	andi	r24, 0x03	; 3
    10cc:	80 64       	ori	r24, 0x40	; 64
    10ce:	8c 93       	st	X, r24
    10d0:	93 8d       	ldd	r25, Z+27	; 0x1b
    10d2:	84 8d       	ldd	r24, Z+28	; 0x1c
    10d4:	98 13       	cpse	r25, r24
    10d6:	06 c0       	rjmp	.+12     	; 0x10e4 <_ZN14HardwareSerial17_tx_udr_empty_irqEv+0x42>
    10d8:	02 88       	ldd	r0, Z+18	; 0x12
    10da:	f3 89       	ldd	r31, Z+19	; 0x13
    10dc:	e0 2d       	mov	r30, r0
    10de:	80 81       	ld	r24, Z
    10e0:	8f 7d       	andi	r24, 0xDF	; 223
    10e2:	80 83       	st	Z, r24
    10e4:	08 95       	ret

000010e6 <_ZN14HardwareSerial5writeEh>:
    10e6:	ef 92       	push	r14
    10e8:	ff 92       	push	r15
    10ea:	0f 93       	push	r16
    10ec:	1f 93       	push	r17
    10ee:	cf 93       	push	r28
    10f0:	df 93       	push	r29
    10f2:	ec 01       	movw	r28, r24
    10f4:	81 e0       	ldi	r24, 0x01	; 1
    10f6:	88 8f       	std	Y+24, r24	; 0x18
    10f8:	9b 8d       	ldd	r25, Y+27	; 0x1b
    10fa:	8c 8d       	ldd	r24, Y+28	; 0x1c
    10fc:	98 13       	cpse	r25, r24
    10fe:	05 c0       	rjmp	.+10     	; 0x110a <_ZN14HardwareSerial5writeEh+0x24>
    1100:	e8 89       	ldd	r30, Y+16	; 0x10
    1102:	f9 89       	ldd	r31, Y+17	; 0x11
    1104:	80 81       	ld	r24, Z
    1106:	85 fd       	sbrc	r24, 5
    1108:	25 c0       	rjmp	.+74     	; 0x1154 <_ZN14HardwareSerial5writeEh+0x6e>
    110a:	f6 2e       	mov	r15, r22
    110c:	0b 8d       	ldd	r16, Y+27	; 0x1b
    110e:	10 e0       	ldi	r17, 0x00	; 0
    1110:	0f 5f       	subi	r16, 0xFF	; 255
    1112:	1f 4f       	sbci	r17, 0xFF	; 255
    1114:	0f 73       	andi	r16, 0x3F	; 63
    1116:	11 27       	eor	r17, r17
    1118:	e0 2e       	mov	r14, r16
    111a:	8c 8d       	ldd	r24, Y+28	; 0x1c
    111c:	e8 12       	cpse	r14, r24
    111e:	0b c0       	rjmp	.+22     	; 0x1136 <_ZN14HardwareSerial5writeEh+0x50>
    1120:	0f b6       	in	r0, 0x3f	; 63
    1122:	07 fc       	sbrc	r0, 7
    1124:	fa cf       	rjmp	.-12     	; 0x111a <_ZN14HardwareSerial5writeEh+0x34>
    1126:	e8 89       	ldd	r30, Y+16	; 0x10
    1128:	f9 89       	ldd	r31, Y+17	; 0x11
    112a:	80 81       	ld	r24, Z
    112c:	85 ff       	sbrs	r24, 5
    112e:	f5 cf       	rjmp	.-22     	; 0x111a <_ZN14HardwareSerial5writeEh+0x34>
    1130:	ce 01       	movw	r24, r28
    1132:	b7 df       	rcall	.-146    	; 0x10a2 <_ZN14HardwareSerial17_tx_udr_empty_irqEv>
    1134:	f2 cf       	rjmp	.-28     	; 0x111a <_ZN14HardwareSerial5writeEh+0x34>
    1136:	8b 8d       	ldd	r24, Y+27	; 0x1b
    1138:	fe 01       	movw	r30, r28
    113a:	e8 0f       	add	r30, r24
    113c:	f1 1d       	adc	r31, r1
    113e:	e3 5a       	subi	r30, 0xA3	; 163
    1140:	ff 4f       	sbci	r31, 0xFF	; 255
    1142:	f0 82       	st	Z, r15
    1144:	9f b7       	in	r25, 0x3f	; 63
    return 1;
}

static __inline__ uint8_t __iCliRetVal(void)
{
    cli();
    1146:	f8 94       	cli
    1148:	0b 8f       	std	Y+27, r16	; 0x1b
    114a:	ea 89       	ldd	r30, Y+18	; 0x12
    114c:	fb 89       	ldd	r31, Y+19	; 0x13
    114e:	80 81       	ld	r24, Z
    1150:	80 62       	ori	r24, 0x20	; 32
    1152:	0a c0       	rjmp	.+20     	; 0x1168 <_ZN14HardwareSerial5writeEh+0x82>
    1154:	9f b7       	in	r25, 0x3f	; 63
    1156:	f8 94       	cli
    1158:	ee 89       	ldd	r30, Y+22	; 0x16
    115a:	ff 89       	ldd	r31, Y+23	; 0x17
    115c:	60 83       	st	Z, r22
    115e:	e8 89       	ldd	r30, Y+16	; 0x10
    1160:	f9 89       	ldd	r31, Y+17	; 0x11
    1162:	80 81       	ld	r24, Z
    1164:	83 70       	andi	r24, 0x03	; 3
    1166:	80 64       	ori	r24, 0x40	; 64
    1168:	80 83       	st	Z, r24
    (void)__s;
}

static __inline__ void __iRestore(const  uint8_t *__s)
{
    SREG = *__s;
    116a:	9f bf       	out	0x3f, r25	; 63
    116c:	81 e0       	ldi	r24, 0x01	; 1
    116e:	90 e0       	ldi	r25, 0x00	; 0
    1170:	df 91       	pop	r29
    1172:	cf 91       	pop	r28
    1174:	1f 91       	pop	r17
    1176:	0f 91       	pop	r16
    1178:	ff 90       	pop	r15
    117a:	ef 90       	pop	r14
    117c:	08 95       	ret

0000117e <_ZN14HardwareSerial5flushEv>:
    117e:	cf 93       	push	r28
    1180:	df 93       	push	r29
    1182:	ec 01       	movw	r28, r24
    1184:	88 8d       	ldd	r24, Y+24	; 0x18
    1186:	88 23       	and	r24, r24
    1188:	c1 f0       	breq	.+48     	; 0x11ba <_ZN14HardwareSerial5flushEv+0x3c>
    118a:	ea 89       	ldd	r30, Y+18	; 0x12
    118c:	fb 89       	ldd	r31, Y+19	; 0x13
    118e:	80 81       	ld	r24, Z
    1190:	85 fd       	sbrc	r24, 5
    1192:	05 c0       	rjmp	.+10     	; 0x119e <_ZN14HardwareSerial5flushEv+0x20>
    1194:	a8 89       	ldd	r26, Y+16	; 0x10
    1196:	b9 89       	ldd	r27, Y+17	; 0x11
    1198:	8c 91       	ld	r24, X
    119a:	86 fd       	sbrc	r24, 6
    119c:	0e c0       	rjmp	.+28     	; 0x11ba <_ZN14HardwareSerial5flushEv+0x3c>
    119e:	0f b6       	in	r0, 0x3f	; 63
    11a0:	07 fc       	sbrc	r0, 7
    11a2:	f5 cf       	rjmp	.-22     	; 0x118e <_ZN14HardwareSerial5flushEv+0x10>
    11a4:	80 81       	ld	r24, Z
    11a6:	85 ff       	sbrs	r24, 5
    11a8:	f2 cf       	rjmp	.-28     	; 0x118e <_ZN14HardwareSerial5flushEv+0x10>
    11aa:	a8 89       	ldd	r26, Y+16	; 0x10
    11ac:	b9 89       	ldd	r27, Y+17	; 0x11
    11ae:	8c 91       	ld	r24, X
    11b0:	85 ff       	sbrs	r24, 5
    11b2:	ed cf       	rjmp	.-38     	; 0x118e <_ZN14HardwareSerial5flushEv+0x10>
    11b4:	ce 01       	movw	r24, r28
    11b6:	75 df       	rcall	.-278    	; 0x10a2 <_ZN14HardwareSerial17_tx_udr_empty_irqEv>
    11b8:	e8 cf       	rjmp	.-48     	; 0x118a <_ZN14HardwareSerial5flushEv+0xc>
    11ba:	df 91       	pop	r29
    11bc:	cf 91       	pop	r28
    11be:	08 95       	ret

000011c0 <_ZN14HardwareSerial5beginEmh>:
    11c0:	cf 92       	push	r12
    11c2:	df 92       	push	r13
    11c4:	ef 92       	push	r14
    11c6:	ff 92       	push	r15
    11c8:	1f 93       	push	r17
    11ca:	cf 93       	push	r28
    11cc:	df 93       	push	r29
    11ce:	ec 01       	movw	r28, r24
    11d0:	6a 01       	movw	r12, r20
    11d2:	7b 01       	movw	r14, r22
    11d4:	12 2f       	mov	r17, r18
    11d6:	e8 89       	ldd	r30, Y+16	; 0x10
    11d8:	f9 89       	ldd	r31, Y+17	; 0x11
    11da:	82 e0       	ldi	r24, 0x02	; 2
    11dc:	80 83       	st	Z, r24
    11de:	41 15       	cp	r20, r1
    11e0:	51 4e       	sbci	r21, 0xE1	; 225
    11e2:	61 05       	cpc	r22, r1
    11e4:	71 05       	cpc	r23, r1
    11e6:	b1 f0       	breq	.+44     	; 0x1214 <_ZN14HardwareSerial5beginEmh+0x54>
    11e8:	60 e0       	ldi	r22, 0x00	; 0
    11ea:	79 e0       	ldi	r23, 0x09	; 9
    11ec:	8d e3       	ldi	r24, 0x3D	; 61
    11ee:	90 e0       	ldi	r25, 0x00	; 0
    11f0:	a7 01       	movw	r20, r14
    11f2:	96 01       	movw	r18, r12
    11f4:	0e 94 1c 24 	call	0x4838	; 0x4838 <__udivmodsi4>
    11f8:	da 01       	movw	r26, r20
    11fa:	c9 01       	movw	r24, r18
    11fc:	01 97       	sbiw	r24, 0x01	; 1
    11fe:	a1 09       	sbc	r26, r1
    1200:	b1 09       	sbc	r27, r1
    1202:	b6 95       	lsr	r27
    1204:	a7 95       	ror	r26
    1206:	97 95       	ror	r25
    1208:	87 95       	ror	r24
    120a:	9c 01       	movw	r18, r24
    120c:	21 15       	cp	r18, r1
    120e:	80 e1       	ldi	r24, 0x10	; 16
    1210:	38 07       	cpc	r19, r24
    1212:	a8 f0       	brcs	.+42     	; 0x123e <_ZN14HardwareSerial5beginEmh+0x7e>
    1214:	e8 89       	ldd	r30, Y+16	; 0x10
    1216:	f9 89       	ldd	r31, Y+17	; 0x11
    1218:	10 82       	st	Z, r1
    121a:	60 e8       	ldi	r22, 0x80	; 128
    121c:	74 e8       	ldi	r23, 0x84	; 132
    121e:	8e e1       	ldi	r24, 0x1E	; 30
    1220:	90 e0       	ldi	r25, 0x00	; 0
    1222:	a7 01       	movw	r20, r14
    1224:	96 01       	movw	r18, r12
    1226:	0e 94 1c 24 	call	0x4838	; 0x4838 <__udivmodsi4>
    122a:	da 01       	movw	r26, r20
    122c:	c9 01       	movw	r24, r18
    122e:	01 97       	sbiw	r24, 0x01	; 1
    1230:	a1 09       	sbc	r26, r1
    1232:	b1 09       	sbc	r27, r1
    1234:	b6 95       	lsr	r27
    1236:	a7 95       	ror	r26
    1238:	97 95       	ror	r25
    123a:	87 95       	ror	r24
    123c:	9c 01       	movw	r18, r24
    123e:	ec 85       	ldd	r30, Y+12	; 0x0c
    1240:	fd 85       	ldd	r31, Y+13	; 0x0d
    1242:	30 83       	st	Z, r19
    1244:	ee 85       	ldd	r30, Y+14	; 0x0e
    1246:	ff 85       	ldd	r31, Y+15	; 0x0f
    1248:	20 83       	st	Z, r18
    124a:	18 8e       	std	Y+24, r1	; 0x18
    124c:	ec 89       	ldd	r30, Y+20	; 0x14
    124e:	fd 89       	ldd	r31, Y+21	; 0x15
    1250:	10 83       	st	Z, r17
    1252:	ea 89       	ldd	r30, Y+18	; 0x12
    1254:	fb 89       	ldd	r31, Y+19	; 0x13
    1256:	80 81       	ld	r24, Z
    1258:	80 61       	ori	r24, 0x10	; 16
    125a:	80 83       	st	Z, r24
    125c:	ea 89       	ldd	r30, Y+18	; 0x12
    125e:	fb 89       	ldd	r31, Y+19	; 0x13
    1260:	80 81       	ld	r24, Z
    1262:	88 60       	ori	r24, 0x08	; 8
    1264:	80 83       	st	Z, r24
    1266:	ea 89       	ldd	r30, Y+18	; 0x12
    1268:	fb 89       	ldd	r31, Y+19	; 0x13
    126a:	80 81       	ld	r24, Z
    126c:	80 68       	ori	r24, 0x80	; 128
    126e:	80 83       	st	Z, r24
    1270:	ea 89       	ldd	r30, Y+18	; 0x12
    1272:	fb 89       	ldd	r31, Y+19	; 0x13
    1274:	80 81       	ld	r24, Z
    1276:	8f 7d       	andi	r24, 0xDF	; 223
    1278:	80 83       	st	Z, r24
    127a:	df 91       	pop	r29
    127c:	cf 91       	pop	r28
    127e:	1f 91       	pop	r17
    1280:	ff 90       	pop	r15
    1282:	ef 90       	pop	r14
    1284:	df 90       	pop	r13
    1286:	cf 90       	pop	r12
    1288:	08 95       	ret

0000128a <_ZN5Print17availableForWriteEv>:
    128a:	80 e0       	ldi	r24, 0x00	; 0
    128c:	90 e0       	ldi	r25, 0x00	; 0
    128e:	08 95       	ret

00001290 <_ZN5Print5flushEv>:
    1290:	08 95       	ret

00001292 <__vector_25>:
    1292:	1f 92       	push	r1
    1294:	0f 92       	push	r0
    1296:	0f b6       	in	r0, 0x3f	; 63
    1298:	0f 92       	push	r0
    129a:	11 24       	eor	r1, r1
    129c:	0b b6       	in	r0, 0x3b	; 59
    129e:	0f 92       	push	r0
    12a0:	2f 93       	push	r18
    12a2:	8f 93       	push	r24
    12a4:	9f 93       	push	r25
    12a6:	ef 93       	push	r30
    12a8:	ff 93       	push	r31
    12aa:	e0 91 0f 07 	lds	r30, 0x070F	; 0x80070f <Serial+0x10>
    12ae:	f0 91 10 07 	lds	r31, 0x0710	; 0x800710 <Serial+0x11>
    12b2:	80 81       	ld	r24, Z
    12b4:	e0 91 15 07 	lds	r30, 0x0715	; 0x800715 <Serial+0x16>
    12b8:	f0 91 16 07 	lds	r31, 0x0716	; 0x800716 <Serial+0x17>
    12bc:	82 fd       	sbrc	r24, 2
    12be:	12 c0       	rjmp	.+36     	; 0x12e4 <__vector_25+0x52>
    12c0:	90 81       	ld	r25, Z
    12c2:	80 91 18 07 	lds	r24, 0x0718	; 0x800718 <Serial+0x19>
    12c6:	8f 5f       	subi	r24, 0xFF	; 255
    12c8:	8f 73       	andi	r24, 0x3F	; 63
    12ca:	20 91 19 07 	lds	r18, 0x0719	; 0x800719 <Serial+0x1a>
    12ce:	82 17       	cp	r24, r18
    12d0:	51 f0       	breq	.+20     	; 0x12e6 <__vector_25+0x54>
    12d2:	e0 91 18 07 	lds	r30, 0x0718	; 0x800718 <Serial+0x19>
    12d6:	f0 e0       	ldi	r31, 0x00	; 0
    12d8:	e1 50       	subi	r30, 0x01	; 1
    12da:	f9 4f       	sbci	r31, 0xF9	; 249
    12dc:	95 8f       	std	Z+29, r25	; 0x1d
    12de:	80 93 18 07 	sts	0x0718, r24	; 0x800718 <Serial+0x19>
    12e2:	01 c0       	rjmp	.+2      	; 0x12e6 <__vector_25+0x54>
    12e4:	80 81       	ld	r24, Z
    12e6:	ff 91       	pop	r31
    12e8:	ef 91       	pop	r30
    12ea:	9f 91       	pop	r25
    12ec:	8f 91       	pop	r24
    12ee:	2f 91       	pop	r18
    12f0:	0f 90       	pop	r0
    12f2:	0b be       	out	0x3b, r0	; 59
    12f4:	0f 90       	pop	r0
    12f6:	0f be       	out	0x3f, r0	; 63
    12f8:	0f 90       	pop	r0
    12fa:	1f 90       	pop	r1
    12fc:	18 95       	reti

000012fe <__vector_26>:
    12fe:	1f 92       	push	r1
    1300:	0f 92       	push	r0
    1302:	0f b6       	in	r0, 0x3f	; 63
    1304:	0f 92       	push	r0
    1306:	11 24       	eor	r1, r1
    1308:	0b b6       	in	r0, 0x3b	; 59
    130a:	0f 92       	push	r0
    130c:	2f 93       	push	r18
    130e:	3f 93       	push	r19
    1310:	4f 93       	push	r20
    1312:	5f 93       	push	r21
    1314:	6f 93       	push	r22
    1316:	7f 93       	push	r23
    1318:	8f 93       	push	r24
    131a:	9f 93       	push	r25
    131c:	af 93       	push	r26
    131e:	bf 93       	push	r27
    1320:	ef 93       	push	r30
    1322:	ff 93       	push	r31
    1324:	8f ef       	ldi	r24, 0xFF	; 255
    1326:	96 e0       	ldi	r25, 0x06	; 6
    1328:	bc de       	rcall	.-648    	; 0x10a2 <_ZN14HardwareSerial17_tx_udr_empty_irqEv>
    132a:	ff 91       	pop	r31
    132c:	ef 91       	pop	r30
    132e:	bf 91       	pop	r27
    1330:	af 91       	pop	r26
    1332:	9f 91       	pop	r25
    1334:	8f 91       	pop	r24
    1336:	7f 91       	pop	r23
    1338:	6f 91       	pop	r22
    133a:	5f 91       	pop	r21
    133c:	4f 91       	pop	r20
    133e:	3f 91       	pop	r19
    1340:	2f 91       	pop	r18
    1342:	0f 90       	pop	r0
    1344:	0b be       	out	0x3b, r0	; 59
    1346:	0f 90       	pop	r0
    1348:	0f be       	out	0x3f, r0	; 63
    134a:	0f 90       	pop	r0
    134c:	1f 90       	pop	r1
    134e:	18 95       	reti

00001350 <_Z17Serial0_availablev>:
    1350:	8f ef       	ldi	r24, 0xFF	; 255
    1352:	96 e0       	ldi	r25, 0x06	; 6
    1354:	2d de       	rcall	.-934    	; 0xfb0 <_ZN14HardwareSerial9availableEv>
    1356:	21 e0       	ldi	r18, 0x01	; 1
    1358:	89 2b       	or	r24, r25
    135a:	09 f4       	brne	.+2      	; 0x135e <_Z17Serial0_availablev+0xe>
    135c:	20 e0       	ldi	r18, 0x00	; 0
    135e:	82 2f       	mov	r24, r18
    1360:	08 95       	ret

00001362 <_GLOBAL__sub_I___vector_25>:
    1362:	ef ef       	ldi	r30, 0xFF	; 255
    1364:	f6 e0       	ldi	r31, 0x06	; 6
    1366:	13 82       	std	Z+3, r1	; 0x03
    1368:	12 82       	std	Z+2, r1	; 0x02
    136a:	88 ee       	ldi	r24, 0xE8	; 232
    136c:	93 e0       	ldi	r25, 0x03	; 3
    136e:	a0 e0       	ldi	r26, 0x00	; 0
    1370:	b0 e0       	ldi	r27, 0x00	; 0
    1372:	84 83       	std	Z+4, r24	; 0x04
    1374:	95 83       	std	Z+5, r25	; 0x05
    1376:	a6 83       	std	Z+6, r26	; 0x06
    1378:	b7 83       	std	Z+7, r27	; 0x07
    137a:	84 ea       	ldi	r24, 0xA4	; 164
    137c:	94 e0       	ldi	r25, 0x04	; 4
    137e:	91 83       	std	Z+1, r25	; 0x01
    1380:	80 83       	st	Z, r24
    1382:	85 ec       	ldi	r24, 0xC5	; 197
    1384:	90 e0       	ldi	r25, 0x00	; 0
    1386:	95 87       	std	Z+13, r25	; 0x0d
    1388:	84 87       	std	Z+12, r24	; 0x0c
    138a:	84 ec       	ldi	r24, 0xC4	; 196
    138c:	90 e0       	ldi	r25, 0x00	; 0
    138e:	97 87       	std	Z+15, r25	; 0x0f
    1390:	86 87       	std	Z+14, r24	; 0x0e
    1392:	80 ec       	ldi	r24, 0xC0	; 192
    1394:	90 e0       	ldi	r25, 0x00	; 0
    1396:	91 8b       	std	Z+17, r25	; 0x11
    1398:	80 8b       	std	Z+16, r24	; 0x10
    139a:	81 ec       	ldi	r24, 0xC1	; 193
    139c:	90 e0       	ldi	r25, 0x00	; 0
    139e:	93 8b       	std	Z+19, r25	; 0x13
    13a0:	82 8b       	std	Z+18, r24	; 0x12
    13a2:	82 ec       	ldi	r24, 0xC2	; 194
    13a4:	90 e0       	ldi	r25, 0x00	; 0
    13a6:	95 8b       	std	Z+21, r25	; 0x15
    13a8:	84 8b       	std	Z+20, r24	; 0x14
    13aa:	86 ec       	ldi	r24, 0xC6	; 198
    13ac:	90 e0       	ldi	r25, 0x00	; 0
    13ae:	97 8b       	std	Z+23, r25	; 0x17
    13b0:	86 8b       	std	Z+22, r24	; 0x16
    13b2:	11 8e       	std	Z+25, r1	; 0x19
    13b4:	12 8e       	std	Z+26, r1	; 0x1a
    13b6:	13 8e       	std	Z+27, r1	; 0x1b
    13b8:	14 8e       	std	Z+28, r1	; 0x1c
    13ba:	08 95       	ret

000013bc <initVariant>:
    13bc:	08 95       	ret

000013be <main>:
    13be:	d0 d2       	rcall	.+1440   	; 0x1960 <init>
    13c0:	fd df       	rcall	.-6      	; 0x13bc <initVariant>
    13c2:	40 da       	rcall	.-2944   	; 0x844 <setup>
    13c4:	c5 e1       	ldi	r28, 0x15	; 21
    13c6:	d8 e0       	ldi	r29, 0x08	; 8
    13c8:	4f da       	rcall	.-2914   	; 0x868 <loop>
    13ca:	20 97       	sbiw	r28, 0x00	; 0
    13cc:	e9 f3       	breq	.-6      	; 0x13c8 <main+0xa>
    13ce:	2d de       	rcall	.-934    	; 0x102a <_Z14serialEventRunv>
    13d0:	fb cf       	rjmp	.-10     	; 0x13c8 <main+0xa>

000013d2 <_ZN5Print5writeEPKhj>:
    13d2:	cf 92       	push	r12
    13d4:	df 92       	push	r13
    13d6:	ef 92       	push	r14
    13d8:	ff 92       	push	r15
    13da:	0f 93       	push	r16
    13dc:	1f 93       	push	r17
    13de:	cf 93       	push	r28
    13e0:	df 93       	push	r29
    13e2:	6c 01       	movw	r12, r24
    13e4:	7a 01       	movw	r14, r20
    13e6:	8b 01       	movw	r16, r22
    13e8:	c0 e0       	ldi	r28, 0x00	; 0
    13ea:	d0 e0       	ldi	r29, 0x00	; 0
    13ec:	ce 15       	cp	r28, r14
    13ee:	df 05       	cpc	r29, r15
    13f0:	81 f0       	breq	.+32     	; 0x1412 <_ZN5Print5writeEPKhj+0x40>
    13f2:	d8 01       	movw	r26, r16
    13f4:	6d 91       	ld	r22, X+
    13f6:	8d 01       	movw	r16, r26
    13f8:	d6 01       	movw	r26, r12
    13fa:	ed 91       	ld	r30, X+
    13fc:	fc 91       	ld	r31, X
    13fe:	01 90       	ld	r0, Z+
    1400:	f0 81       	ld	r31, Z
    1402:	e0 2d       	mov	r30, r0
    1404:	c6 01       	movw	r24, r12
    1406:	19 95       	eicall
    1408:	89 2b       	or	r24, r25
    140a:	11 f0       	breq	.+4      	; 0x1410 <_ZN5Print5writeEPKhj+0x3e>
    140c:	21 96       	adiw	r28, 0x01	; 1
    140e:	ee cf       	rjmp	.-36     	; 0x13ec <_ZN5Print5writeEPKhj+0x1a>
    1410:	7e 01       	movw	r14, r28
    1412:	c7 01       	movw	r24, r14
    1414:	df 91       	pop	r29
    1416:	cf 91       	pop	r28
    1418:	1f 91       	pop	r17
    141a:	0f 91       	pop	r16
    141c:	ff 90       	pop	r15
    141e:	ef 90       	pop	r14
    1420:	df 90       	pop	r13
    1422:	cf 90       	pop	r12
    1424:	08 95       	ret

00001426 <_ZN5Print5writeEPKc>:
    1426:	61 15       	cp	r22, r1
    1428:	71 05       	cpc	r23, r1
    142a:	79 f0       	breq	.+30     	; 0x144a <_ZN5Print5writeEPKc+0x24>
    142c:	fb 01       	movw	r30, r22
    142e:	01 90       	ld	r0, Z+
    1430:	00 20       	and	r0, r0
    1432:	e9 f7       	brne	.-6      	; 0x142e <_ZN5Print5writeEPKc+0x8>
    1434:	31 97       	sbiw	r30, 0x01	; 1
    1436:	af 01       	movw	r20, r30
    1438:	46 1b       	sub	r20, r22
    143a:	57 0b       	sbc	r21, r23
    143c:	dc 01       	movw	r26, r24
    143e:	ed 91       	ld	r30, X+
    1440:	fc 91       	ld	r31, X
    1442:	02 80       	ldd	r0, Z+2	; 0x02
    1444:	f3 81       	ldd	r31, Z+3	; 0x03
    1446:	e0 2d       	mov	r30, r0
    1448:	19 94       	eijmp
    144a:	80 e0       	ldi	r24, 0x00	; 0
    144c:	90 e0       	ldi	r25, 0x00	; 0
    144e:	08 95       	ret

00001450 <_ZN5Print5printEPK19__FlashStringHelper>:
    1450:	ef 92       	push	r14
    1452:	ff 92       	push	r15
    1454:	0f 93       	push	r16
    1456:	1f 93       	push	r17
    1458:	cf 93       	push	r28
    145a:	df 93       	push	r29
    145c:	8c 01       	movw	r16, r24
    145e:	7b 01       	movw	r14, r22
    1460:	c0 e0       	ldi	r28, 0x00	; 0
    1462:	d0 e0       	ldi	r29, 0x00	; 0
    1464:	f7 01       	movw	r30, r14
    1466:	ec 0f       	add	r30, r28
    1468:	fd 1f       	adc	r31, r29
    146a:	64 91       	lpm	r22, Z
    146c:	66 23       	and	r22, r22
    146e:	61 f0       	breq	.+24     	; 0x1488 <_ZN5Print5printEPK19__FlashStringHelper+0x38>
    1470:	d8 01       	movw	r26, r16
    1472:	ed 91       	ld	r30, X+
    1474:	fc 91       	ld	r31, X
    1476:	01 90       	ld	r0, Z+
    1478:	f0 81       	ld	r31, Z
    147a:	e0 2d       	mov	r30, r0
    147c:	c8 01       	movw	r24, r16
    147e:	19 95       	eicall
    1480:	89 2b       	or	r24, r25
    1482:	11 f0       	breq	.+4      	; 0x1488 <_ZN5Print5printEPK19__FlashStringHelper+0x38>
    1484:	21 96       	adiw	r28, 0x01	; 1
    1486:	ee cf       	rjmp	.-36     	; 0x1464 <_ZN5Print5printEPK19__FlashStringHelper+0x14>
    1488:	ce 01       	movw	r24, r28
    148a:	df 91       	pop	r29
    148c:	cf 91       	pop	r28
    148e:	1f 91       	pop	r17
    1490:	0f 91       	pop	r16
    1492:	ff 90       	pop	r15
    1494:	ef 90       	pop	r14
    1496:	08 95       	ret

00001498 <_ZN5Print5printEPKc>:
    1498:	c6 cf       	rjmp	.-116    	; 0x1426 <_ZN5Print5writeEPKc>

0000149a <_ZN5Print5printEc>:
    149a:	dc 01       	movw	r26, r24
    149c:	ed 91       	ld	r30, X+
    149e:	fc 91       	ld	r31, X
    14a0:	01 90       	ld	r0, Z+
    14a2:	f0 81       	ld	r31, Z
    14a4:	e0 2d       	mov	r30, r0
    14a6:	19 94       	eijmp

000014a8 <_ZN5Print7printlnEv>:
    14a8:	62 eb       	ldi	r22, 0xB2	; 178
    14aa:	74 e0       	ldi	r23, 0x04	; 4
    14ac:	bc cf       	rjmp	.-136    	; 0x1426 <_ZN5Print5writeEPKc>

000014ae <_ZN5Print7printlnEPK19__FlashStringHelper>:
    14ae:	0f 93       	push	r16
    14b0:	1f 93       	push	r17
    14b2:	cf 93       	push	r28
    14b4:	df 93       	push	r29
    14b6:	ec 01       	movw	r28, r24
    14b8:	cb df       	rcall	.-106    	; 0x1450 <_ZN5Print5printEPK19__FlashStringHelper>
    14ba:	8c 01       	movw	r16, r24
    14bc:	ce 01       	movw	r24, r28
    14be:	f4 df       	rcall	.-24     	; 0x14a8 <_ZN5Print7printlnEv>
    14c0:	80 0f       	add	r24, r16
    14c2:	91 1f       	adc	r25, r17
    14c4:	df 91       	pop	r29
    14c6:	cf 91       	pop	r28
    14c8:	1f 91       	pop	r17
    14ca:	0f 91       	pop	r16
    14cc:	08 95       	ret

000014ce <_ZN5Print7printlnEPKc>:
    14ce:	0f 93       	push	r16
    14d0:	1f 93       	push	r17
    14d2:	cf 93       	push	r28
    14d4:	df 93       	push	r29
    14d6:	ec 01       	movw	r28, r24
    14d8:	a6 df       	rcall	.-180    	; 0x1426 <_ZN5Print5writeEPKc>
    14da:	8c 01       	movw	r16, r24
    14dc:	ce 01       	movw	r24, r28
    14de:	e4 df       	rcall	.-56     	; 0x14a8 <_ZN5Print7printlnEv>
    14e0:	80 0f       	add	r24, r16
    14e2:	91 1f       	adc	r25, r17
    14e4:	df 91       	pop	r29
    14e6:	cf 91       	pop	r28
    14e8:	1f 91       	pop	r17
    14ea:	0f 91       	pop	r16
    14ec:	08 95       	ret

000014ee <_ZN5Print11printNumberEmh>:
    14ee:	8f 92       	push	r8
    14f0:	9f 92       	push	r9
    14f2:	af 92       	push	r10
    14f4:	bf 92       	push	r11
    14f6:	ef 92       	push	r14
    14f8:	ff 92       	push	r15
    14fa:	0f 93       	push	r16
    14fc:	1f 93       	push	r17
    14fe:	cf 93       	push	r28
    1500:	df 93       	push	r29
    1502:	cd b7       	in	r28, 0x3d	; 61
    1504:	de b7       	in	r29, 0x3e	; 62
    1506:	a1 97       	sbiw	r28, 0x21	; 33
    1508:	0f b6       	in	r0, 0x3f	; 63
    150a:	f8 94       	cli
    150c:	de bf       	out	0x3e, r29	; 62
    150e:	0f be       	out	0x3f, r0	; 63
    1510:	cd bf       	out	0x3d, r28	; 61
    1512:	7c 01       	movw	r14, r24
    1514:	fa 01       	movw	r30, r20
    1516:	cb 01       	movw	r24, r22
    1518:	19 a2       	std	Y+33, r1	; 0x21
    151a:	22 30       	cpi	r18, 0x02	; 2
    151c:	08 f4       	brcc	.+2      	; 0x1520 <_ZN5Print11printNumberEmh+0x32>
    151e:	2a e0       	ldi	r18, 0x0A	; 10
    1520:	8e 01       	movw	r16, r28
    1522:	0f 5d       	subi	r16, 0xDF	; 223
    1524:	1f 4f       	sbci	r17, 0xFF	; 255
    1526:	82 2e       	mov	r8, r18
    1528:	91 2c       	mov	r9, r1
    152a:	a1 2c       	mov	r10, r1
    152c:	b1 2c       	mov	r11, r1
    152e:	bf 01       	movw	r22, r30
    1530:	a5 01       	movw	r20, r10
    1532:	94 01       	movw	r18, r8
    1534:	0e 94 1c 24 	call	0x4838	; 0x4838 <__udivmodsi4>
    1538:	f9 01       	movw	r30, r18
    153a:	ca 01       	movw	r24, r20
    153c:	01 50       	subi	r16, 0x01	; 1
    153e:	11 09       	sbc	r17, r1
    1540:	6a 30       	cpi	r22, 0x0A	; 10
    1542:	10 f4       	brcc	.+4      	; 0x1548 <_ZN5Print11printNumberEmh+0x5a>
    1544:	60 5d       	subi	r22, 0xD0	; 208
    1546:	01 c0       	rjmp	.+2      	; 0x154a <_ZN5Print11printNumberEmh+0x5c>
    1548:	69 5c       	subi	r22, 0xC9	; 201
    154a:	d8 01       	movw	r26, r16
    154c:	6c 93       	st	X, r22
    154e:	23 2b       	or	r18, r19
    1550:	24 2b       	or	r18, r20
    1552:	25 2b       	or	r18, r21
    1554:	61 f7       	brne	.-40     	; 0x152e <_ZN5Print11printNumberEmh+0x40>
    1556:	b8 01       	movw	r22, r16
    1558:	c7 01       	movw	r24, r14
    155a:	65 df       	rcall	.-310    	; 0x1426 <_ZN5Print5writeEPKc>
    155c:	a1 96       	adiw	r28, 0x21	; 33
    155e:	0f b6       	in	r0, 0x3f	; 63
    1560:	f8 94       	cli
    1562:	de bf       	out	0x3e, r29	; 62
    1564:	0f be       	out	0x3f, r0	; 63
    1566:	cd bf       	out	0x3d, r28	; 61
    1568:	df 91       	pop	r29
    156a:	cf 91       	pop	r28
    156c:	1f 91       	pop	r17
    156e:	0f 91       	pop	r16
    1570:	ff 90       	pop	r15
    1572:	ef 90       	pop	r14
    1574:	bf 90       	pop	r11
    1576:	af 90       	pop	r10
    1578:	9f 90       	pop	r9
    157a:	8f 90       	pop	r8
    157c:	08 95       	ret

0000157e <_ZN5Print5printEmi>:
    157e:	21 15       	cp	r18, r1
    1580:	31 05       	cpc	r19, r1
    1582:	41 f4       	brne	.+16     	; 0x1594 <_ZN5Print5printEmi+0x16>
    1584:	dc 01       	movw	r26, r24
    1586:	ed 91       	ld	r30, X+
    1588:	fc 91       	ld	r31, X
    158a:	01 90       	ld	r0, Z+
    158c:	f0 81       	ld	r31, Z
    158e:	e0 2d       	mov	r30, r0
    1590:	64 2f       	mov	r22, r20
    1592:	19 94       	eijmp
    1594:	ac cf       	rjmp	.-168    	; 0x14ee <_ZN5Print11printNumberEmh>

00001596 <_ZN5Print5printEji>:
    1596:	9a 01       	movw	r18, r20
    1598:	ab 01       	movw	r20, r22
    159a:	60 e0       	ldi	r22, 0x00	; 0
    159c:	70 e0       	ldi	r23, 0x00	; 0
    159e:	ef cf       	rjmp	.-34     	; 0x157e <_ZN5Print5printEmi>

000015a0 <_ZN5Print5printEli>:
    15a0:	cf 92       	push	r12
    15a2:	df 92       	push	r13
    15a4:	ef 92       	push	r14
    15a6:	ff 92       	push	r15
    15a8:	0f 93       	push	r16
    15aa:	1f 93       	push	r17
    15ac:	cf 93       	push	r28
    15ae:	df 93       	push	r29
    15b0:	21 15       	cp	r18, r1
    15b2:	31 05       	cpc	r19, r1
    15b4:	81 f4       	brne	.+32     	; 0x15d6 <_ZN5Print5printEli+0x36>
    15b6:	dc 01       	movw	r26, r24
    15b8:	ed 91       	ld	r30, X+
    15ba:	fc 91       	ld	r31, X
    15bc:	01 90       	ld	r0, Z+
    15be:	f0 81       	ld	r31, Z
    15c0:	e0 2d       	mov	r30, r0
    15c2:	64 2f       	mov	r22, r20
    15c4:	df 91       	pop	r29
    15c6:	cf 91       	pop	r28
    15c8:	1f 91       	pop	r17
    15ca:	0f 91       	pop	r16
    15cc:	ff 90       	pop	r15
    15ce:	ef 90       	pop	r14
    15d0:	df 90       	pop	r13
    15d2:	cf 90       	pop	r12
    15d4:	19 94       	eijmp
    15d6:	2a 30       	cpi	r18, 0x0A	; 10
    15d8:	31 05       	cpc	r19, r1
    15da:	f1 f4       	brne	.+60     	; 0x1618 <_ZN5Print5printEli+0x78>
    15dc:	77 ff       	sbrs	r23, 7
    15de:	1b c0       	rjmp	.+54     	; 0x1616 <_ZN5Print5printEli+0x76>
    15e0:	6a 01       	movw	r12, r20
    15e2:	7b 01       	movw	r14, r22
    15e4:	ec 01       	movw	r28, r24
    15e6:	6d e2       	ldi	r22, 0x2D	; 45
    15e8:	58 df       	rcall	.-336    	; 0x149a <_ZN5Print5printEc>
    15ea:	8c 01       	movw	r16, r24
    15ec:	44 27       	eor	r20, r20
    15ee:	55 27       	eor	r21, r21
    15f0:	ba 01       	movw	r22, r20
    15f2:	4c 19       	sub	r20, r12
    15f4:	5d 09       	sbc	r21, r13
    15f6:	6e 09       	sbc	r22, r14
    15f8:	7f 09       	sbc	r23, r15
    15fa:	2a e0       	ldi	r18, 0x0A	; 10
    15fc:	ce 01       	movw	r24, r28
    15fe:	77 df       	rcall	.-274    	; 0x14ee <_ZN5Print11printNumberEmh>
    1600:	80 0f       	add	r24, r16
    1602:	91 1f       	adc	r25, r17
    1604:	df 91       	pop	r29
    1606:	cf 91       	pop	r28
    1608:	1f 91       	pop	r17
    160a:	0f 91       	pop	r16
    160c:	ff 90       	pop	r15
    160e:	ef 90       	pop	r14
    1610:	df 90       	pop	r13
    1612:	cf 90       	pop	r12
    1614:	08 95       	ret
    1616:	2a e0       	ldi	r18, 0x0A	; 10
    1618:	df 91       	pop	r29
    161a:	cf 91       	pop	r28
    161c:	1f 91       	pop	r17
    161e:	0f 91       	pop	r16
    1620:	ff 90       	pop	r15
    1622:	ef 90       	pop	r14
    1624:	df 90       	pop	r13
    1626:	cf 90       	pop	r12
    1628:	62 cf       	rjmp	.-316    	; 0x14ee <_ZN5Print11printNumberEmh>

0000162a <_ZN5Print5printEii>:
    162a:	9a 01       	movw	r18, r20
    162c:	ab 01       	movw	r20, r22
    162e:	77 0f       	add	r23, r23
    1630:	66 0b       	sbc	r22, r22
    1632:	77 0b       	sbc	r23, r23
    1634:	b5 cf       	rjmp	.-150    	; 0x15a0 <_ZN5Print5printEli>

00001636 <_ZN5Print7printlnEii>:
    1636:	0f 93       	push	r16
    1638:	1f 93       	push	r17
    163a:	cf 93       	push	r28
    163c:	df 93       	push	r29
    163e:	ec 01       	movw	r28, r24
    1640:	f4 df       	rcall	.-24     	; 0x162a <_ZN5Print5printEii>
    1642:	8c 01       	movw	r16, r24
    1644:	ce 01       	movw	r24, r28
    1646:	30 df       	rcall	.-416    	; 0x14a8 <_ZN5Print7printlnEv>
    1648:	80 0f       	add	r24, r16
    164a:	91 1f       	adc	r25, r17
    164c:	df 91       	pop	r29
    164e:	cf 91       	pop	r28
    1650:	1f 91       	pop	r17
    1652:	0f 91       	pop	r16
    1654:	08 95       	ret

00001656 <_ZN5Print10printFloatEdh>:
    1656:	7f 92       	push	r7
    1658:	8f 92       	push	r8
    165a:	9f 92       	push	r9
    165c:	af 92       	push	r10
    165e:	bf 92       	push	r11
    1660:	cf 92       	push	r12
    1662:	df 92       	push	r13
    1664:	ef 92       	push	r14
    1666:	ff 92       	push	r15
    1668:	0f 93       	push	r16
    166a:	1f 93       	push	r17
    166c:	cf 93       	push	r28
    166e:	df 93       	push	r29
    1670:	8c 01       	movw	r16, r24
    1672:	6a 01       	movw	r12, r20
    1674:	7b 01       	movw	r14, r22
    1676:	72 2e       	mov	r7, r18
    1678:	9a 01       	movw	r18, r20
    167a:	ab 01       	movw	r20, r22
    167c:	c7 01       	movw	r24, r14
    167e:	b6 01       	movw	r22, r12
    1680:	0e 94 08 24 	call	0x4810	; 0x4810 <__unordsf2>
    1684:	88 23       	and	r24, r24
    1686:	19 f0       	breq	.+6      	; 0x168e <_ZN5Print10printFloatEdh+0x38>
    1688:	65 eb       	ldi	r22, 0xB5	; 181
    168a:	74 e0       	ldi	r23, 0x04	; 4
    168c:	26 c0       	rjmp	.+76     	; 0x16da <_ZN5Print10printFloatEdh+0x84>
    168e:	46 01       	movw	r8, r12
    1690:	57 01       	movw	r10, r14
    1692:	e8 94       	clt
    1694:	b7 f8       	bld	r11, 7
    1696:	2f ef       	ldi	r18, 0xFF	; 255
    1698:	3f ef       	ldi	r19, 0xFF	; 255
    169a:	4f e7       	ldi	r20, 0x7F	; 127
    169c:	5f e7       	ldi	r21, 0x7F	; 127
    169e:	c5 01       	movw	r24, r10
    16a0:	b4 01       	movw	r22, r8
    16a2:	0e 94 08 24 	call	0x4810	; 0x4810 <__unordsf2>
    16a6:	81 11       	cpse	r24, r1
    16a8:	0d c0       	rjmp	.+26     	; 0x16c4 <_ZN5Print10printFloatEdh+0x6e>
    16aa:	2f ef       	ldi	r18, 0xFF	; 255
    16ac:	3f ef       	ldi	r19, 0xFF	; 255
    16ae:	4f e7       	ldi	r20, 0x7F	; 127
    16b0:	5f e7       	ldi	r21, 0x7F	; 127
    16b2:	c5 01       	movw	r24, r10
    16b4:	b4 01       	movw	r22, r8
    16b6:	0e 94 92 23 	call	0x4724	; 0x4724 <__cmpsf2>
    16ba:	18 16       	cp	r1, r24
    16bc:	1c f4       	brge	.+6      	; 0x16c4 <_ZN5Print10printFloatEdh+0x6e>
    16be:	69 eb       	ldi	r22, 0xB9	; 185
    16c0:	74 e0       	ldi	r23, 0x04	; 4
    16c2:	0b c0       	rjmp	.+22     	; 0x16da <_ZN5Print10printFloatEdh+0x84>
    16c4:	2f ef       	ldi	r18, 0xFF	; 255
    16c6:	3f ef       	ldi	r19, 0xFF	; 255
    16c8:	4f e7       	ldi	r20, 0x7F	; 127
    16ca:	5f e4       	ldi	r21, 0x4F	; 79
    16cc:	c7 01       	movw	r24, r14
    16ce:	b6 01       	movw	r22, r12
    16d0:	bc db       	rcall	.-2184   	; 0xe4a <__gesf2>
    16d2:	18 16       	cp	r1, r24
    16d4:	8c f4       	brge	.+34     	; 0x16f8 <_ZN5Print10printFloatEdh+0xa2>
    16d6:	6d eb       	ldi	r22, 0xBD	; 189
    16d8:	74 e0       	ldi	r23, 0x04	; 4
    16da:	c8 01       	movw	r24, r16
    16dc:	df 91       	pop	r29
    16de:	cf 91       	pop	r28
    16e0:	1f 91       	pop	r17
    16e2:	0f 91       	pop	r16
    16e4:	ff 90       	pop	r15
    16e6:	ef 90       	pop	r14
    16e8:	df 90       	pop	r13
    16ea:	cf 90       	pop	r12
    16ec:	bf 90       	pop	r11
    16ee:	af 90       	pop	r10
    16f0:	9f 90       	pop	r9
    16f2:	8f 90       	pop	r8
    16f4:	7f 90       	pop	r7
    16f6:	97 ce       	rjmp	.-722    	; 0x1426 <_ZN5Print5writeEPKc>
    16f8:	2f ef       	ldi	r18, 0xFF	; 255
    16fa:	3f ef       	ldi	r19, 0xFF	; 255
    16fc:	4f e7       	ldi	r20, 0x7F	; 127
    16fe:	5f ec       	ldi	r21, 0xCF	; 207
    1700:	c7 01       	movw	r24, r14
    1702:	b6 01       	movw	r22, r12
    1704:	0e 94 92 23 	call	0x4724	; 0x4724 <__cmpsf2>
    1708:	87 fd       	sbrc	r24, 7
    170a:	e5 cf       	rjmp	.-54     	; 0x16d6 <_ZN5Print10printFloatEdh+0x80>
    170c:	20 e0       	ldi	r18, 0x00	; 0
    170e:	30 e0       	ldi	r19, 0x00	; 0
    1710:	a9 01       	movw	r20, r18
    1712:	c7 01       	movw	r24, r14
    1714:	b6 01       	movw	r22, r12
    1716:	0e 94 92 23 	call	0x4724	; 0x4724 <__cmpsf2>
    171a:	87 ff       	sbrs	r24, 7
    171c:	09 c0       	rjmp	.+18     	; 0x1730 <_ZN5Print10printFloatEdh+0xda>
    171e:	6d e2       	ldi	r22, 0x2D	; 45
    1720:	c8 01       	movw	r24, r16
    1722:	bb de       	rcall	.-650    	; 0x149a <_ZN5Print5printEc>
    1724:	ec 01       	movw	r28, r24
    1726:	f7 fa       	bst	r15, 7
    1728:	f0 94       	com	r15
    172a:	f7 f8       	bld	r15, 7
    172c:	f0 94       	com	r15
    172e:	02 c0       	rjmp	.+4      	; 0x1734 <_ZN5Print10printFloatEdh+0xde>
    1730:	c0 e0       	ldi	r28, 0x00	; 0
    1732:	d0 e0       	ldi	r29, 0x00	; 0
    1734:	b1 2c       	mov	r11, r1
    1736:	60 e0       	ldi	r22, 0x00	; 0
    1738:	70 e0       	ldi	r23, 0x00	; 0
    173a:	80 e0       	ldi	r24, 0x00	; 0
    173c:	9f e3       	ldi	r25, 0x3F	; 63
    173e:	7b 14       	cp	r7, r11
    1740:	41 f0       	breq	.+16     	; 0x1752 <_ZN5Print10printFloatEdh+0xfc>
    1742:	20 e0       	ldi	r18, 0x00	; 0
    1744:	30 e0       	ldi	r19, 0x00	; 0
    1746:	40 e2       	ldi	r20, 0x20	; 32
    1748:	51 e4       	ldi	r21, 0x41	; 65
    174a:	0e 94 97 23 	call	0x472e	; 0x472e <__divsf3>
    174e:	b3 94       	inc	r11
    1750:	f6 cf       	rjmp	.-20     	; 0x173e <_ZN5Print10printFloatEdh+0xe8>
    1752:	a7 01       	movw	r20, r14
    1754:	96 01       	movw	r18, r12
    1756:	0e 94 27 23 	call	0x464e	; 0x464e <__addsf3>
    175a:	6b 01       	movw	r12, r22
    175c:	7c 01       	movw	r14, r24
    175e:	90 da       	rcall	.-2784   	; 0xc80 <__fixunssfsi>
    1760:	4b 01       	movw	r8, r22
    1762:	5c 01       	movw	r10, r24
    1764:	2a e0       	ldi	r18, 0x0A	; 10
    1766:	ab 01       	movw	r20, r22
    1768:	bc 01       	movw	r22, r24
    176a:	c8 01       	movw	r24, r16
    176c:	c0 de       	rcall	.-640    	; 0x14ee <_ZN5Print11printNumberEmh>
    176e:	c8 0f       	add	r28, r24
    1770:	d9 1f       	adc	r29, r25
    1772:	77 20       	and	r7, r7
    1774:	89 f1       	breq	.+98     	; 0x17d8 <_ZN5Print10printFloatEdh+0x182>
    1776:	c5 01       	movw	r24, r10
    1778:	b4 01       	movw	r22, r8
    177a:	ae da       	rcall	.-2724   	; 0xcd8 <__floatunsisf>
    177c:	9b 01       	movw	r18, r22
    177e:	ac 01       	movw	r20, r24
    1780:	c7 01       	movw	r24, r14
    1782:	b6 01       	movw	r22, r12
    1784:	0e 94 26 23 	call	0x464c	; 0x464c <__subsf3>
    1788:	6b 01       	movw	r12, r22
    178a:	7c 01       	movw	r14, r24
    178c:	6e e2       	ldi	r22, 0x2E	; 46
    178e:	c8 01       	movw	r24, r16
    1790:	84 de       	rcall	.-760    	; 0x149a <_ZN5Print5printEc>
    1792:	c8 0f       	add	r28, r24
    1794:	d9 1f       	adc	r29, r25
    1796:	20 e0       	ldi	r18, 0x00	; 0
    1798:	30 e0       	ldi	r19, 0x00	; 0
    179a:	40 e2       	ldi	r20, 0x20	; 32
    179c:	51 e4       	ldi	r21, 0x41	; 65
    179e:	c7 01       	movw	r24, r14
    17a0:	b6 01       	movw	r22, r12
    17a2:	57 db       	rcall	.-2386   	; 0xe52 <__mulsf3>
    17a4:	4b 01       	movw	r8, r22
    17a6:	5c 01       	movw	r10, r24
    17a8:	6b da       	rcall	.-2858   	; 0xc80 <__fixunssfsi>
    17aa:	6b 01       	movw	r12, r22
    17ac:	7c 01       	movw	r14, r24
    17ae:	4a e0       	ldi	r20, 0x0A	; 10
    17b0:	50 e0       	ldi	r21, 0x00	; 0
    17b2:	c8 01       	movw	r24, r16
    17b4:	f0 de       	rcall	.-544    	; 0x1596 <_ZN5Print5printEji>
    17b6:	c8 0f       	add	r28, r24
    17b8:	d9 1f       	adc	r29, r25
    17ba:	b6 01       	movw	r22, r12
    17bc:	80 e0       	ldi	r24, 0x00	; 0
    17be:	90 e0       	ldi	r25, 0x00	; 0
    17c0:	8b da       	rcall	.-2794   	; 0xcd8 <__floatunsisf>
    17c2:	9b 01       	movw	r18, r22
    17c4:	ac 01       	movw	r20, r24
    17c6:	c5 01       	movw	r24, r10
    17c8:	b4 01       	movw	r22, r8
    17ca:	0e 94 26 23 	call	0x464c	; 0x464c <__subsf3>
    17ce:	6b 01       	movw	r12, r22
    17d0:	7c 01       	movw	r14, r24
    17d2:	7a 94       	dec	r7
    17d4:	71 10       	cpse	r7, r1
    17d6:	df cf       	rjmp	.-66     	; 0x1796 <_ZN5Print10printFloatEdh+0x140>
    17d8:	ce 01       	movw	r24, r28
    17da:	df 91       	pop	r29
    17dc:	cf 91       	pop	r28
    17de:	1f 91       	pop	r17
    17e0:	0f 91       	pop	r16
    17e2:	ff 90       	pop	r15
    17e4:	ef 90       	pop	r14
    17e6:	df 90       	pop	r13
    17e8:	cf 90       	pop	r12
    17ea:	bf 90       	pop	r11
    17ec:	af 90       	pop	r10
    17ee:	9f 90       	pop	r9
    17f0:	8f 90       	pop	r8
    17f2:	7f 90       	pop	r7
    17f4:	08 95       	ret

000017f6 <_ZN5Print5printEdi>:
    17f6:	2f cf       	rjmp	.-418    	; 0x1656 <_ZN5Print10printFloatEdh>

000017f8 <__vector_23>:
    17f8:	1f 92       	push	r1
    17fa:	0f 92       	push	r0
    17fc:	0f b6       	in	r0, 0x3f	; 63
    17fe:	0f 92       	push	r0
    1800:	11 24       	eor	r1, r1
    1802:	2f 93       	push	r18
    1804:	3f 93       	push	r19
    1806:	8f 93       	push	r24
    1808:	9f 93       	push	r25
    180a:	af 93       	push	r26
    180c:	bf 93       	push	r27
    180e:	80 91 9d 07 	lds	r24, 0x079D	; 0x80079d <timer0_millis>
    1812:	90 91 9e 07 	lds	r25, 0x079E	; 0x80079e <timer0_millis+0x1>
    1816:	a0 91 9f 07 	lds	r26, 0x079F	; 0x80079f <timer0_millis+0x2>
    181a:	b0 91 a0 07 	lds	r27, 0x07A0	; 0x8007a0 <timer0_millis+0x3>
    181e:	30 91 9c 07 	lds	r19, 0x079C	; 0x80079c <timer0_fract>
    1822:	23 e0       	ldi	r18, 0x03	; 3
    1824:	23 0f       	add	r18, r19
    1826:	2d 37       	cpi	r18, 0x7D	; 125
    1828:	20 f4       	brcc	.+8      	; 0x1832 <__vector_23+0x3a>
    182a:	01 96       	adiw	r24, 0x01	; 1
    182c:	a1 1d       	adc	r26, r1
    182e:	b1 1d       	adc	r27, r1
    1830:	05 c0       	rjmp	.+10     	; 0x183c <__vector_23+0x44>
    1832:	26 e8       	ldi	r18, 0x86	; 134
    1834:	23 0f       	add	r18, r19
    1836:	02 96       	adiw	r24, 0x02	; 2
    1838:	a1 1d       	adc	r26, r1
    183a:	b1 1d       	adc	r27, r1
    183c:	20 93 9c 07 	sts	0x079C, r18	; 0x80079c <timer0_fract>
    1840:	80 93 9d 07 	sts	0x079D, r24	; 0x80079d <timer0_millis>
    1844:	90 93 9e 07 	sts	0x079E, r25	; 0x80079e <timer0_millis+0x1>
    1848:	a0 93 9f 07 	sts	0x079F, r26	; 0x80079f <timer0_millis+0x2>
    184c:	b0 93 a0 07 	sts	0x07A0, r27	; 0x8007a0 <timer0_millis+0x3>
    1850:	80 91 a1 07 	lds	r24, 0x07A1	; 0x8007a1 <timer0_overflow_count>
    1854:	90 91 a2 07 	lds	r25, 0x07A2	; 0x8007a2 <timer0_overflow_count+0x1>
    1858:	a0 91 a3 07 	lds	r26, 0x07A3	; 0x8007a3 <timer0_overflow_count+0x2>
    185c:	b0 91 a4 07 	lds	r27, 0x07A4	; 0x8007a4 <timer0_overflow_count+0x3>
    1860:	01 96       	adiw	r24, 0x01	; 1
    1862:	a1 1d       	adc	r26, r1
    1864:	b1 1d       	adc	r27, r1
    1866:	80 93 a1 07 	sts	0x07A1, r24	; 0x8007a1 <timer0_overflow_count>
    186a:	90 93 a2 07 	sts	0x07A2, r25	; 0x8007a2 <timer0_overflow_count+0x1>
    186e:	a0 93 a3 07 	sts	0x07A3, r26	; 0x8007a3 <timer0_overflow_count+0x2>
    1872:	b0 93 a4 07 	sts	0x07A4, r27	; 0x8007a4 <timer0_overflow_count+0x3>
    1876:	bf 91       	pop	r27
    1878:	af 91       	pop	r26
    187a:	9f 91       	pop	r25
    187c:	8f 91       	pop	r24
    187e:	3f 91       	pop	r19
    1880:	2f 91       	pop	r18
    1882:	0f 90       	pop	r0
    1884:	0f be       	out	0x3f, r0	; 63
    1886:	0f 90       	pop	r0
    1888:	1f 90       	pop	r1
    188a:	18 95       	reti

0000188c <micros>:
    188c:	3f b7       	in	r19, 0x3f	; 63
    188e:	f8 94       	cli
    1890:	80 91 a1 07 	lds	r24, 0x07A1	; 0x8007a1 <timer0_overflow_count>
    1894:	90 91 a2 07 	lds	r25, 0x07A2	; 0x8007a2 <timer0_overflow_count+0x1>
    1898:	a0 91 a3 07 	lds	r26, 0x07A3	; 0x8007a3 <timer0_overflow_count+0x2>
    189c:	b0 91 a4 07 	lds	r27, 0x07A4	; 0x8007a4 <timer0_overflow_count+0x3>
    18a0:	26 b5       	in	r18, 0x26	; 38
    18a2:	a8 9b       	sbis	0x15, 0	; 21
    18a4:	05 c0       	rjmp	.+10     	; 0x18b0 <micros+0x24>
    18a6:	2f 3f       	cpi	r18, 0xFF	; 255
    18a8:	19 f0       	breq	.+6      	; 0x18b0 <micros+0x24>
    18aa:	01 96       	adiw	r24, 0x01	; 1
    18ac:	a1 1d       	adc	r26, r1
    18ae:	b1 1d       	adc	r27, r1
    18b0:	3f bf       	out	0x3f, r19	; 63
    18b2:	ba 2f       	mov	r27, r26
    18b4:	a9 2f       	mov	r26, r25
    18b6:	98 2f       	mov	r25, r24
    18b8:	88 27       	eor	r24, r24
    18ba:	82 0f       	add	r24, r18
    18bc:	91 1d       	adc	r25, r1
    18be:	a1 1d       	adc	r26, r1
    18c0:	b1 1d       	adc	r27, r1
    18c2:	bc 01       	movw	r22, r24
    18c4:	cd 01       	movw	r24, r26
    18c6:	42 e0       	ldi	r20, 0x02	; 2
    18c8:	66 0f       	add	r22, r22
    18ca:	77 1f       	adc	r23, r23
    18cc:	88 1f       	adc	r24, r24
    18ce:	99 1f       	adc	r25, r25
    18d0:	4a 95       	dec	r20
    18d2:	d1 f7       	brne	.-12     	; 0x18c8 <micros+0x3c>
    18d4:	08 95       	ret

000018d6 <delay>:
    18d6:	8f 92       	push	r8
    18d8:	9f 92       	push	r9
    18da:	af 92       	push	r10
    18dc:	bf 92       	push	r11
    18de:	cf 92       	push	r12
    18e0:	df 92       	push	r13
    18e2:	ef 92       	push	r14
    18e4:	ff 92       	push	r15
    18e6:	6b 01       	movw	r12, r22
    18e8:	7c 01       	movw	r14, r24
    18ea:	d0 df       	rcall	.-96     	; 0x188c <micros>
    18ec:	4b 01       	movw	r8, r22
    18ee:	5c 01       	movw	r10, r24
    18f0:	c1 14       	cp	r12, r1
    18f2:	d1 04       	cpc	r13, r1
    18f4:	e1 04       	cpc	r14, r1
    18f6:	f1 04       	cpc	r15, r1
    18f8:	f9 f0       	breq	.+62     	; 0x1938 <delay+0x62>
    18fa:	0e 94 f9 20 	call	0x41f2	; 0x41f2 <yield>
    18fe:	c6 df       	rcall	.-116    	; 0x188c <micros>
    1900:	dc 01       	movw	r26, r24
    1902:	cb 01       	movw	r24, r22
    1904:	88 19       	sub	r24, r8
    1906:	99 09       	sbc	r25, r9
    1908:	aa 09       	sbc	r26, r10
    190a:	bb 09       	sbc	r27, r11
    190c:	88 3e       	cpi	r24, 0xE8	; 232
    190e:	93 40       	sbci	r25, 0x03	; 3
    1910:	a1 05       	cpc	r26, r1
    1912:	b1 05       	cpc	r27, r1
    1914:	68 f3       	brcs	.-38     	; 0x18f0 <delay+0x1a>
    1916:	21 e0       	ldi	r18, 0x01	; 1
    1918:	c2 1a       	sub	r12, r18
    191a:	d1 08       	sbc	r13, r1
    191c:	e1 08       	sbc	r14, r1
    191e:	f1 08       	sbc	r15, r1
    1920:	88 ee       	ldi	r24, 0xE8	; 232
    1922:	88 0e       	add	r8, r24
    1924:	83 e0       	ldi	r24, 0x03	; 3
    1926:	98 1e       	adc	r9, r24
    1928:	a1 1c       	adc	r10, r1
    192a:	b1 1c       	adc	r11, r1
    192c:	c1 14       	cp	r12, r1
    192e:	d1 04       	cpc	r13, r1
    1930:	e1 04       	cpc	r14, r1
    1932:	f1 04       	cpc	r15, r1
    1934:	21 f7       	brne	.-56     	; 0x18fe <delay+0x28>
    1936:	dc cf       	rjmp	.-72     	; 0x18f0 <delay+0x1a>
    1938:	ff 90       	pop	r15
    193a:	ef 90       	pop	r14
    193c:	df 90       	pop	r13
    193e:	cf 90       	pop	r12
    1940:	bf 90       	pop	r11
    1942:	af 90       	pop	r10
    1944:	9f 90       	pop	r9
    1946:	8f 90       	pop	r8
    1948:	08 95       	ret

0000194a <delayMicroseconds>:
    194a:	82 30       	cpi	r24, 0x02	; 2
    194c:	91 05       	cpc	r25, r1
    194e:	38 f0       	brcs	.+14     	; 0x195e <delayMicroseconds+0x14>
    1950:	88 0f       	add	r24, r24
    1952:	99 1f       	adc	r25, r25
    1954:	88 0f       	add	r24, r24
    1956:	99 1f       	adc	r25, r25
    1958:	05 97       	sbiw	r24, 0x05	; 5
    195a:	01 97       	sbiw	r24, 0x01	; 1
    195c:	f1 f7       	brne	.-4      	; 0x195a <delayMicroseconds+0x10>
    195e:	08 95       	ret

00001960 <init>:
    1960:	78 94       	sei
    1962:	84 b5       	in	r24, 0x24	; 36
    1964:	82 60       	ori	r24, 0x02	; 2
    1966:	84 bd       	out	0x24, r24	; 36
    1968:	84 b5       	in	r24, 0x24	; 36
    196a:	81 60       	ori	r24, 0x01	; 1
    196c:	84 bd       	out	0x24, r24	; 36
    196e:	85 b5       	in	r24, 0x25	; 37
    1970:	82 60       	ori	r24, 0x02	; 2
    1972:	85 bd       	out	0x25, r24	; 37
    1974:	85 b5       	in	r24, 0x25	; 37
    1976:	81 60       	ori	r24, 0x01	; 1
    1978:	85 bd       	out	0x25, r24	; 37
    197a:	ee e6       	ldi	r30, 0x6E	; 110
    197c:	f0 e0       	ldi	r31, 0x00	; 0
    197e:	80 81       	ld	r24, Z
    1980:	81 60       	ori	r24, 0x01	; 1
    1982:	80 83       	st	Z, r24
    1984:	e1 e8       	ldi	r30, 0x81	; 129
    1986:	f0 e0       	ldi	r31, 0x00	; 0
    1988:	10 82       	st	Z, r1
    198a:	80 81       	ld	r24, Z
    198c:	82 60       	ori	r24, 0x02	; 2
    198e:	80 83       	st	Z, r24
    1990:	80 81       	ld	r24, Z
    1992:	81 60       	ori	r24, 0x01	; 1
    1994:	80 83       	st	Z, r24
    1996:	e0 e8       	ldi	r30, 0x80	; 128
    1998:	f0 e0       	ldi	r31, 0x00	; 0
    199a:	80 81       	ld	r24, Z
    199c:	81 60       	ori	r24, 0x01	; 1
    199e:	80 83       	st	Z, r24
    19a0:	e1 eb       	ldi	r30, 0xB1	; 177
    19a2:	f0 e0       	ldi	r31, 0x00	; 0
    19a4:	80 81       	ld	r24, Z
    19a6:	84 60       	ori	r24, 0x04	; 4
    19a8:	80 83       	st	Z, r24
    19aa:	e0 eb       	ldi	r30, 0xB0	; 176
    19ac:	f0 e0       	ldi	r31, 0x00	; 0
    19ae:	80 81       	ld	r24, Z
    19b0:	81 60       	ori	r24, 0x01	; 1
    19b2:	80 83       	st	Z, r24
    19b4:	e1 e9       	ldi	r30, 0x91	; 145
    19b6:	f0 e0       	ldi	r31, 0x00	; 0
    19b8:	80 81       	ld	r24, Z
    19ba:	82 60       	ori	r24, 0x02	; 2
    19bc:	80 83       	st	Z, r24
    19be:	80 81       	ld	r24, Z
    19c0:	81 60       	ori	r24, 0x01	; 1
    19c2:	80 83       	st	Z, r24
    19c4:	e0 e9       	ldi	r30, 0x90	; 144
    19c6:	f0 e0       	ldi	r31, 0x00	; 0
    19c8:	80 81       	ld	r24, Z
    19ca:	81 60       	ori	r24, 0x01	; 1
    19cc:	80 83       	st	Z, r24
    19ce:	e1 ea       	ldi	r30, 0xA1	; 161
    19d0:	f0 e0       	ldi	r31, 0x00	; 0
    19d2:	80 81       	ld	r24, Z
    19d4:	82 60       	ori	r24, 0x02	; 2
    19d6:	80 83       	st	Z, r24
    19d8:	80 81       	ld	r24, Z
    19da:	81 60       	ori	r24, 0x01	; 1
    19dc:	80 83       	st	Z, r24
    19de:	e0 ea       	ldi	r30, 0xA0	; 160
    19e0:	f0 e0       	ldi	r31, 0x00	; 0
    19e2:	80 81       	ld	r24, Z
    19e4:	81 60       	ori	r24, 0x01	; 1
    19e6:	80 83       	st	Z, r24
    19e8:	e1 e2       	ldi	r30, 0x21	; 33
    19ea:	f1 e0       	ldi	r31, 0x01	; 1
    19ec:	80 81       	ld	r24, Z
    19ee:	82 60       	ori	r24, 0x02	; 2
    19f0:	80 83       	st	Z, r24
    19f2:	80 81       	ld	r24, Z
    19f4:	81 60       	ori	r24, 0x01	; 1
    19f6:	80 83       	st	Z, r24
    19f8:	e0 e2       	ldi	r30, 0x20	; 32
    19fa:	f1 e0       	ldi	r31, 0x01	; 1
    19fc:	80 81       	ld	r24, Z
    19fe:	81 60       	ori	r24, 0x01	; 1
    1a00:	80 83       	st	Z, r24
    1a02:	ea e7       	ldi	r30, 0x7A	; 122
    1a04:	f0 e0       	ldi	r31, 0x00	; 0
    1a06:	80 81       	ld	r24, Z
    1a08:	84 60       	ori	r24, 0x04	; 4
    1a0a:	80 83       	st	Z, r24
    1a0c:	80 81       	ld	r24, Z
    1a0e:	82 60       	ori	r24, 0x02	; 2
    1a10:	80 83       	st	Z, r24
    1a12:	80 81       	ld	r24, Z
    1a14:	81 60       	ori	r24, 0x01	; 1
    1a16:	80 83       	st	Z, r24
    1a18:	80 81       	ld	r24, Z
    1a1a:	80 68       	ori	r24, 0x80	; 128
    1a1c:	80 83       	st	Z, r24
    1a1e:	10 92 c1 00 	sts	0x00C1, r1	; 0x8000c1 <__TEXT_REGION_LENGTH__+0x7000c1>
    1a22:	08 95       	ret

00001a24 <turnOffPWM>:
    1a24:	90 e0       	ldi	r25, 0x00	; 0
    1a26:	fc 01       	movw	r30, r24
    1a28:	31 97       	sbiw	r30, 0x01	; 1
    1a2a:	e2 31       	cpi	r30, 0x12	; 18
    1a2c:	f1 05       	cpc	r31, r1
    1a2e:	08 f0       	brcs	.+2      	; 0x1a32 <turnOffPWM+0xe>
    1a30:	4e c0       	rjmp	.+156    	; 0x1ace <turnOffPWM+0xaa>
    1a32:	88 27       	eor	r24, r24
    1a34:	ee 58       	subi	r30, 0x8E	; 142
    1a36:	ff 4f       	sbci	r31, 0xFF	; 255
    1a38:	8f 4f       	sbci	r24, 0xFF	; 255
    1a3a:	0c 94 5a 24 	jmp	0x48b4	; 0x48b4 <__tablejump2__>
    1a3e:	80 91 80 00 	lds	r24, 0x0080	; 0x800080 <__TEXT_REGION_LENGTH__+0x700080>
    1a42:	8f 77       	andi	r24, 0x7F	; 127
    1a44:	03 c0       	rjmp	.+6      	; 0x1a4c <turnOffPWM+0x28>
    1a46:	80 91 80 00 	lds	r24, 0x0080	; 0x800080 <__TEXT_REGION_LENGTH__+0x700080>
    1a4a:	8f 7d       	andi	r24, 0xDF	; 223
    1a4c:	80 93 80 00 	sts	0x0080, r24	; 0x800080 <__TEXT_REGION_LENGTH__+0x700080>
    1a50:	08 95       	ret
    1a52:	80 91 80 00 	lds	r24, 0x0080	; 0x800080 <__TEXT_REGION_LENGTH__+0x700080>
    1a56:	87 7f       	andi	r24, 0xF7	; 247
    1a58:	f9 cf       	rjmp	.-14     	; 0x1a4c <turnOffPWM+0x28>
    1a5a:	84 b5       	in	r24, 0x24	; 36
    1a5c:	8f 77       	andi	r24, 0x7F	; 127
    1a5e:	02 c0       	rjmp	.+4      	; 0x1a64 <turnOffPWM+0x40>
    1a60:	84 b5       	in	r24, 0x24	; 36
    1a62:	8f 7d       	andi	r24, 0xDF	; 223
    1a64:	84 bd       	out	0x24, r24	; 36
    1a66:	08 95       	ret
    1a68:	80 91 b0 00 	lds	r24, 0x00B0	; 0x8000b0 <__TEXT_REGION_LENGTH__+0x7000b0>
    1a6c:	8f 77       	andi	r24, 0x7F	; 127
    1a6e:	03 c0       	rjmp	.+6      	; 0x1a76 <turnOffPWM+0x52>
    1a70:	80 91 b0 00 	lds	r24, 0x00B0	; 0x8000b0 <__TEXT_REGION_LENGTH__+0x7000b0>
    1a74:	8f 7d       	andi	r24, 0xDF	; 223
    1a76:	80 93 b0 00 	sts	0x00B0, r24	; 0x8000b0 <__TEXT_REGION_LENGTH__+0x7000b0>
    1a7a:	08 95       	ret
    1a7c:	80 91 90 00 	lds	r24, 0x0090	; 0x800090 <__TEXT_REGION_LENGTH__+0x700090>
    1a80:	8f 77       	andi	r24, 0x7F	; 127
    1a82:	07 c0       	rjmp	.+14     	; 0x1a92 <turnOffPWM+0x6e>
    1a84:	80 91 90 00 	lds	r24, 0x0090	; 0x800090 <__TEXT_REGION_LENGTH__+0x700090>
    1a88:	8f 7d       	andi	r24, 0xDF	; 223
    1a8a:	03 c0       	rjmp	.+6      	; 0x1a92 <turnOffPWM+0x6e>
    1a8c:	80 91 90 00 	lds	r24, 0x0090	; 0x800090 <__TEXT_REGION_LENGTH__+0x700090>
    1a90:	87 7f       	andi	r24, 0xF7	; 247
    1a92:	80 93 90 00 	sts	0x0090, r24	; 0x800090 <__TEXT_REGION_LENGTH__+0x700090>
    1a96:	08 95       	ret
    1a98:	80 91 a0 00 	lds	r24, 0x00A0	; 0x8000a0 <__TEXT_REGION_LENGTH__+0x7000a0>
    1a9c:	8f 77       	andi	r24, 0x7F	; 127
    1a9e:	07 c0       	rjmp	.+14     	; 0x1aae <turnOffPWM+0x8a>
    1aa0:	80 91 a0 00 	lds	r24, 0x00A0	; 0x8000a0 <__TEXT_REGION_LENGTH__+0x7000a0>
    1aa4:	8f 7d       	andi	r24, 0xDF	; 223
    1aa6:	03 c0       	rjmp	.+6      	; 0x1aae <turnOffPWM+0x8a>
    1aa8:	80 91 a0 00 	lds	r24, 0x00A0	; 0x8000a0 <__TEXT_REGION_LENGTH__+0x7000a0>
    1aac:	87 7f       	andi	r24, 0xF7	; 247
    1aae:	80 93 a0 00 	sts	0x00A0, r24	; 0x8000a0 <__TEXT_REGION_LENGTH__+0x7000a0>
    1ab2:	08 95       	ret
    1ab4:	80 91 20 01 	lds	r24, 0x0120	; 0x800120 <__TEXT_REGION_LENGTH__+0x700120>
    1ab8:	8f 77       	andi	r24, 0x7F	; 127
    1aba:	07 c0       	rjmp	.+14     	; 0x1aca <turnOffPWM+0xa6>
    1abc:	80 91 20 01 	lds	r24, 0x0120	; 0x800120 <__TEXT_REGION_LENGTH__+0x700120>
    1ac0:	8f 7d       	andi	r24, 0xDF	; 223
    1ac2:	03 c0       	rjmp	.+6      	; 0x1aca <turnOffPWM+0xa6>
    1ac4:	80 91 20 01 	lds	r24, 0x0120	; 0x800120 <__TEXT_REGION_LENGTH__+0x700120>
    1ac8:	87 7f       	andi	r24, 0xF7	; 247
    1aca:	80 93 20 01 	sts	0x0120, r24	; 0x800120 <__TEXT_REGION_LENGTH__+0x700120>
    1ace:	08 95       	ret

00001ad0 <pinMode>:
    1ad0:	cf 93       	push	r28
    1ad2:	df 93       	push	r29
    1ad4:	90 e0       	ldi	r25, 0x00	; 0
    1ad6:	fc 01       	movw	r30, r24
    1ad8:	ea 59       	subi	r30, 0x9A	; 154
    1ada:	fe 4f       	sbci	r31, 0xFE	; 254
    1adc:	24 91       	lpm	r18, Z
    1ade:	fc 01       	movw	r30, r24
    1ae0:	e4 55       	subi	r30, 0x54	; 84
    1ae2:	fe 4f       	sbci	r31, 0xFE	; 254
    1ae4:	84 91       	lpm	r24, Z
    1ae6:	88 23       	and	r24, r24
    1ae8:	61 f1       	breq	.+88     	; 0x1b42 <pinMode+0x72>
    1aea:	90 e0       	ldi	r25, 0x00	; 0
    1aec:	88 0f       	add	r24, r24
    1aee:	99 1f       	adc	r25, r25
    1af0:	fc 01       	movw	r30, r24
    1af2:	ea 5d       	subi	r30, 0xDA	; 218
    1af4:	fd 4f       	sbci	r31, 0xFD	; 253
    1af6:	c5 91       	lpm	r28, Z+
    1af8:	d4 91       	lpm	r29, Z
    1afa:	fc 01       	movw	r30, r24
    1afc:	e4 5f       	subi	r30, 0xF4	; 244
    1afe:	fd 4f       	sbci	r31, 0xFD	; 253
    1b00:	a5 91       	lpm	r26, Z+
    1b02:	b4 91       	lpm	r27, Z
    1b04:	61 11       	cpse	r22, r1
    1b06:	09 c0       	rjmp	.+18     	; 0x1b1a <pinMode+0x4a>
    1b08:	9f b7       	in	r25, 0x3f	; 63
    1b0a:	f8 94       	cli
    1b0c:	88 81       	ld	r24, Y
    1b0e:	20 95       	com	r18
    1b10:	82 23       	and	r24, r18
    1b12:	88 83       	st	Y, r24
    1b14:	ec 91       	ld	r30, X
    1b16:	2e 23       	and	r18, r30
    1b18:	0b c0       	rjmp	.+22     	; 0x1b30 <pinMode+0x60>
    1b1a:	62 30       	cpi	r22, 0x02	; 2
    1b1c:	61 f4       	brne	.+24     	; 0x1b36 <pinMode+0x66>
    1b1e:	9f b7       	in	r25, 0x3f	; 63
    1b20:	f8 94       	cli
    1b22:	88 81       	ld	r24, Y
    1b24:	32 2f       	mov	r19, r18
    1b26:	30 95       	com	r19
    1b28:	83 23       	and	r24, r19
    1b2a:	88 83       	st	Y, r24
    1b2c:	ec 91       	ld	r30, X
    1b2e:	2e 2b       	or	r18, r30
    1b30:	2c 93       	st	X, r18
    1b32:	9f bf       	out	0x3f, r25	; 63
    1b34:	06 c0       	rjmp	.+12     	; 0x1b42 <pinMode+0x72>
    1b36:	8f b7       	in	r24, 0x3f	; 63
    1b38:	f8 94       	cli
    1b3a:	e8 81       	ld	r30, Y
    1b3c:	2e 2b       	or	r18, r30
    1b3e:	28 83       	st	Y, r18
    1b40:	8f bf       	out	0x3f, r24	; 63
    1b42:	df 91       	pop	r29
    1b44:	cf 91       	pop	r28
    1b46:	08 95       	ret

00001b48 <digitalWrite>:
    1b48:	1f 93       	push	r17
    1b4a:	cf 93       	push	r28
    1b4c:	df 93       	push	r29
    1b4e:	28 2f       	mov	r18, r24
    1b50:	30 e0       	ldi	r19, 0x00	; 0
    1b52:	f9 01       	movw	r30, r18
    1b54:	e0 5e       	subi	r30, 0xE0	; 224
    1b56:	fe 4f       	sbci	r31, 0xFE	; 254
    1b58:	84 91       	lpm	r24, Z
    1b5a:	f9 01       	movw	r30, r18
    1b5c:	ea 59       	subi	r30, 0x9A	; 154
    1b5e:	fe 4f       	sbci	r31, 0xFE	; 254
    1b60:	d4 91       	lpm	r29, Z
    1b62:	f9 01       	movw	r30, r18
    1b64:	e4 55       	subi	r30, 0x54	; 84
    1b66:	fe 4f       	sbci	r31, 0xFE	; 254
    1b68:	c4 91       	lpm	r28, Z
    1b6a:	cc 23       	and	r28, r28
    1b6c:	b9 f0       	breq	.+46     	; 0x1b9c <digitalWrite+0x54>
    1b6e:	16 2f       	mov	r17, r22
    1b70:	81 11       	cpse	r24, r1
    1b72:	58 df       	rcall	.-336    	; 0x1a24 <turnOffPWM>
    1b74:	ec 2f       	mov	r30, r28
    1b76:	f0 e0       	ldi	r31, 0x00	; 0
    1b78:	ee 0f       	add	r30, r30
    1b7a:	ff 1f       	adc	r31, r31
    1b7c:	e4 5f       	subi	r30, 0xF4	; 244
    1b7e:	fd 4f       	sbci	r31, 0xFD	; 253
    1b80:	a5 91       	lpm	r26, Z+
    1b82:	b4 91       	lpm	r27, Z
    1b84:	9f b7       	in	r25, 0x3f	; 63
    1b86:	f8 94       	cli
    1b88:	11 11       	cpse	r17, r1
    1b8a:	04 c0       	rjmp	.+8      	; 0x1b94 <digitalWrite+0x4c>
    1b8c:	8c 91       	ld	r24, X
    1b8e:	d0 95       	com	r29
    1b90:	d8 23       	and	r29, r24
    1b92:	02 c0       	rjmp	.+4      	; 0x1b98 <digitalWrite+0x50>
    1b94:	ec 91       	ld	r30, X
    1b96:	de 2b       	or	r29, r30
    1b98:	dc 93       	st	X, r29
    1b9a:	9f bf       	out	0x3f, r25	; 63
    1b9c:	df 91       	pop	r29
    1b9e:	cf 91       	pop	r28
    1ba0:	1f 91       	pop	r17
    1ba2:	08 95       	ret

00001ba4 <digitalRead>:
    1ba4:	cf 93       	push	r28
    1ba6:	df 93       	push	r29
    1ba8:	28 2f       	mov	r18, r24
    1baa:	30 e0       	ldi	r19, 0x00	; 0
    1bac:	f9 01       	movw	r30, r18
    1bae:	e0 5e       	subi	r30, 0xE0	; 224
    1bb0:	fe 4f       	sbci	r31, 0xFE	; 254
    1bb2:	84 91       	lpm	r24, Z
    1bb4:	f9 01       	movw	r30, r18
    1bb6:	ea 59       	subi	r30, 0x9A	; 154
    1bb8:	fe 4f       	sbci	r31, 0xFE	; 254
    1bba:	d4 91       	lpm	r29, Z
    1bbc:	f9 01       	movw	r30, r18
    1bbe:	e4 55       	subi	r30, 0x54	; 84
    1bc0:	fe 4f       	sbci	r31, 0xFE	; 254
    1bc2:	c4 91       	lpm	r28, Z
    1bc4:	cc 23       	and	r28, r28
    1bc6:	89 f0       	breq	.+34     	; 0x1bea <digitalRead+0x46>
    1bc8:	81 11       	cpse	r24, r1
    1bca:	2c df       	rcall	.-424    	; 0x1a24 <turnOffPWM>
    1bcc:	ec 2f       	mov	r30, r28
    1bce:	f0 e0       	ldi	r31, 0x00	; 0
    1bd0:	ee 0f       	add	r30, r30
    1bd2:	ff 1f       	adc	r31, r31
    1bd4:	ee 50       	subi	r30, 0x0E	; 14
    1bd6:	fe 4f       	sbci	r31, 0xFE	; 254
    1bd8:	a5 91       	lpm	r26, Z+
    1bda:	b4 91       	lpm	r27, Z
    1bdc:	ec 91       	ld	r30, X
    1bde:	ed 23       	and	r30, r29
    1be0:	81 e0       	ldi	r24, 0x01	; 1
    1be2:	90 e0       	ldi	r25, 0x00	; 0
    1be4:	21 f4       	brne	.+8      	; 0x1bee <digitalRead+0x4a>
    1be6:	80 e0       	ldi	r24, 0x00	; 0
    1be8:	02 c0       	rjmp	.+4      	; 0x1bee <digitalRead+0x4a>
    1bea:	80 e0       	ldi	r24, 0x00	; 0
    1bec:	90 e0       	ldi	r25, 0x00	; 0
    1bee:	df 91       	pop	r29
    1bf0:	cf 91       	pop	r28
    1bf2:	08 95       	ret

00001bf4 <_Z3maplllll>:
    1bf4:	4f 92       	push	r4
    1bf6:	5f 92       	push	r5
    1bf8:	6f 92       	push	r6
    1bfa:	7f 92       	push	r7
    1bfc:	af 92       	push	r10
    1bfe:	bf 92       	push	r11
    1c00:	cf 92       	push	r12
    1c02:	df 92       	push	r13
    1c04:	ef 92       	push	r14
    1c06:	ff 92       	push	r15
    1c08:	0f 93       	push	r16
    1c0a:	1f 93       	push	r17
    1c0c:	cf 93       	push	r28
    1c0e:	df 93       	push	r29
    1c10:	cd b7       	in	r28, 0x3d	; 61
    1c12:	de b7       	in	r29, 0x3e	; 62
    1c14:	29 01       	movw	r4, r18
    1c16:	3a 01       	movw	r6, r20
    1c18:	9b 01       	movw	r18, r22
    1c1a:	ac 01       	movw	r20, r24
    1c1c:	24 19       	sub	r18, r4
    1c1e:	35 09       	sbc	r19, r5
    1c20:	46 09       	sbc	r20, r6
    1c22:	57 09       	sbc	r21, r7
    1c24:	8a 89       	ldd	r24, Y+18	; 0x12
    1c26:	9b 89       	ldd	r25, Y+19	; 0x13
    1c28:	ac 89       	ldd	r26, Y+20	; 0x14
    1c2a:	bd 89       	ldd	r27, Y+21	; 0x15
    1c2c:	bc 01       	movw	r22, r24
    1c2e:	cd 01       	movw	r24, r26
    1c30:	6a 19       	sub	r22, r10
    1c32:	7b 09       	sbc	r23, r11
    1c34:	8c 09       	sbc	r24, r12
    1c36:	9d 09       	sbc	r25, r13
    1c38:	0e 94 0d 24 	call	0x481a	; 0x481a <__mulsi3>
    1c3c:	a8 01       	movw	r20, r16
    1c3e:	97 01       	movw	r18, r14
    1c40:	24 19       	sub	r18, r4
    1c42:	35 09       	sbc	r19, r5
    1c44:	46 09       	sbc	r20, r6
    1c46:	57 09       	sbc	r21, r7
    1c48:	0e 94 3e 24 	call	0x487c	; 0x487c <__divmodsi4>
    1c4c:	ca 01       	movw	r24, r20
    1c4e:	b9 01       	movw	r22, r18
    1c50:	6a 0d       	add	r22, r10
    1c52:	7b 1d       	adc	r23, r11
    1c54:	8c 1d       	adc	r24, r12
    1c56:	9d 1d       	adc	r25, r13
    1c58:	df 91       	pop	r29
    1c5a:	cf 91       	pop	r28
    1c5c:	1f 91       	pop	r17
    1c5e:	0f 91       	pop	r16
    1c60:	ff 90       	pop	r15
    1c62:	ef 90       	pop	r14
    1c64:	df 90       	pop	r13
    1c66:	cf 90       	pop	r12
    1c68:	bf 90       	pop	r11
    1c6a:	af 90       	pop	r10
    1c6c:	7f 90       	pop	r7
    1c6e:	6f 90       	pop	r6
    1c70:	5f 90       	pop	r5
    1c72:	4f 90       	pop	r4
    1c74:	08 95       	ret

00001c76 <_ZN16Adafruit_AMG88xx5writeEhPhh>:
    1c76:	ef 92       	push	r14
    1c78:	ff 92       	push	r15
    1c7a:	0f 93       	push	r16
    1c7c:	1f 93       	push	r17
    1c7e:	cf 93       	push	r28
    1c80:	df 93       	push	r29
    1c82:	c6 2f       	mov	r28, r22
    1c84:	7a 01       	movw	r14, r20
    1c86:	02 2f       	mov	r16, r18
    1c88:	fc 01       	movw	r30, r24
    1c8a:	60 81       	ld	r22, Z
    1c8c:	8a ea       	ldi	r24, 0xAA	; 170
    1c8e:	97 e0       	ldi	r25, 0x07	; 7
    1c90:	0e 94 75 20 	call	0x40ea	; 0x40ea <_ZN7TwoWire17beginTransmissionEh>
    1c94:	6c 2f       	mov	r22, r28
    1c96:	8a ea       	ldi	r24, 0xAA	; 170
    1c98:	97 e0       	ldi	r25, 0x07	; 7
    1c9a:	0e 94 28 20 	call	0x4050	; 0x4050 <_ZN7TwoWire5writeEh>
    1c9e:	e7 01       	movw	r28, r14
    1ca0:	10 e0       	ldi	r17, 0x00	; 0
    1ca2:	ce 01       	movw	r24, r28
    1ca4:	8e 19       	sub	r24, r14
    1ca6:	9f 09       	sbc	r25, r15
    1ca8:	80 17       	cp	r24, r16
    1caa:	91 07       	cpc	r25, r17
    1cac:	34 f4       	brge	.+12     	; 0x1cba <_ZN16Adafruit_AMG88xx5writeEhPhh+0x44>
    1cae:	69 91       	ld	r22, Y+
    1cb0:	8a ea       	ldi	r24, 0xAA	; 170
    1cb2:	97 e0       	ldi	r25, 0x07	; 7
    1cb4:	0e 94 28 20 	call	0x4050	; 0x4050 <_ZN7TwoWire5writeEh>
    1cb8:	f4 cf       	rjmp	.-24     	; 0x1ca2 <_ZN16Adafruit_AMG88xx5writeEhPhh+0x2c>
    1cba:	8a ea       	ldi	r24, 0xAA	; 170
    1cbc:	97 e0       	ldi	r25, 0x07	; 7
    1cbe:	df 91       	pop	r29
    1cc0:	cf 91       	pop	r28
    1cc2:	1f 91       	pop	r17
    1cc4:	0f 91       	pop	r16
    1cc6:	ff 90       	pop	r15
    1cc8:	ef 90       	pop	r14
    1cca:	0c 94 f3 20 	jmp	0x41e6	; 0x41e6 <_ZN7TwoWire15endTransmissionEv>

00001cce <_ZN16Adafruit_AMG88xx6write8Ehh>:
    1cce:	cf 93       	push	r28
    1cd0:	df 93       	push	r29
    1cd2:	1f 92       	push	r1
    1cd4:	cd b7       	in	r28, 0x3d	; 61
    1cd6:	de b7       	in	r29, 0x3e	; 62
    1cd8:	49 83       	std	Y+1, r20	; 0x01
    1cda:	21 e0       	ldi	r18, 0x01	; 1
    1cdc:	ae 01       	movw	r20, r28
    1cde:	4f 5f       	subi	r20, 0xFF	; 255
    1ce0:	5f 4f       	sbci	r21, 0xFF	; 255
    1ce2:	c9 df       	rcall	.-110    	; 0x1c76 <_ZN16Adafruit_AMG88xx5writeEhPhh>
    1ce4:	0f 90       	pop	r0
    1ce6:	df 91       	pop	r29
    1ce8:	cf 91       	pop	r28
    1cea:	08 95       	ret

00001cec <_ZN16Adafruit_AMG88xx16disableInterruptEv>:
    1cec:	fc 01       	movw	r30, r24
    1cee:	24 81       	ldd	r18, Z+4	; 0x04
    1cf0:	2e 7f       	andi	r18, 0xFE	; 254
    1cf2:	24 83       	std	Z+4, r18	; 0x04
    1cf4:	21 fb       	bst	r18, 1
    1cf6:	44 27       	eor	r20, r20
    1cf8:	40 f9       	bld	r20, 0
    1cfa:	50 e0       	ldi	r21, 0x00	; 0
    1cfc:	44 0f       	add	r20, r20
    1cfe:	55 1f       	adc	r21, r21
    1d00:	63 e0       	ldi	r22, 0x03	; 3
    1d02:	e5 cf       	rjmp	.-54     	; 0x1cce <_ZN16Adafruit_AMG88xx6write8Ehh>

00001d04 <_ZN16Adafruit_AMG88xx5beginEh>:
    1d04:	cf 93       	push	r28
    1d06:	df 93       	push	r29
    1d08:	ec 01       	movw	r28, r24
    1d0a:	68 83       	st	Y, r22
    1d0c:	8a ea       	ldi	r24, 0xAA	; 170
    1d0e:	97 e0       	ldi	r25, 0x07	; 7
    1d10:	0e 94 66 20 	call	0x40cc	; 0x40cc <_ZN7TwoWire5beginEv>
    1d14:	19 82       	std	Y+1, r1	; 0x01
    1d16:	40 e0       	ldi	r20, 0x00	; 0
    1d18:	60 e0       	ldi	r22, 0x00	; 0
    1d1a:	ce 01       	movw	r24, r28
    1d1c:	d8 df       	rcall	.-80     	; 0x1cce <_ZN16Adafruit_AMG88xx6write8Ehh>
    1d1e:	8f e3       	ldi	r24, 0x3F	; 63
    1d20:	8a 83       	std	Y+2, r24	; 0x02
    1d22:	4f e3       	ldi	r20, 0x3F	; 63
    1d24:	61 e0       	ldi	r22, 0x01	; 1
    1d26:	ce 01       	movw	r24, r28
    1d28:	d2 df       	rcall	.-92     	; 0x1cce <_ZN16Adafruit_AMG88xx6write8Ehh>
    1d2a:	ce 01       	movw	r24, r28
    1d2c:	df df       	rcall	.-66     	; 0x1cec <_ZN16Adafruit_AMG88xx16disableInterruptEv>
    1d2e:	8b 81       	ldd	r24, Y+3	; 0x03
    1d30:	8e 7f       	andi	r24, 0xFE	; 254
    1d32:	8b 83       	std	Y+3, r24	; 0x03
    1d34:	40 e0       	ldi	r20, 0x00	; 0
    1d36:	62 e0       	ldi	r22, 0x02	; 2
    1d38:	ce 01       	movw	r24, r28
    1d3a:	c9 df       	rcall	.-110    	; 0x1cce <_ZN16Adafruit_AMG88xx6write8Ehh>
    1d3c:	64 e6       	ldi	r22, 0x64	; 100
    1d3e:	70 e0       	ldi	r23, 0x00	; 0
    1d40:	80 e0       	ldi	r24, 0x00	; 0
    1d42:	90 e0       	ldi	r25, 0x00	; 0
    1d44:	c8 dd       	rcall	.-1136   	; 0x18d6 <delay>
    1d46:	81 e0       	ldi	r24, 0x01	; 1
    1d48:	df 91       	pop	r29
    1d4a:	cf 91       	pop	r28
    1d4c:	08 95       	ret

00001d4e <_ZN16Adafruit_AMG88xx4readEhPhh>:
    1d4e:	6f 92       	push	r6
    1d50:	7f 92       	push	r7
    1d52:	8f 92       	push	r8
    1d54:	9f 92       	push	r9
    1d56:	af 92       	push	r10
    1d58:	bf 92       	push	r11
    1d5a:	cf 92       	push	r12
    1d5c:	df 92       	push	r13
    1d5e:	ef 92       	push	r14
    1d60:	ff 92       	push	r15
    1d62:	0f 93       	push	r16
    1d64:	1f 93       	push	r17
    1d66:	cf 93       	push	r28
    1d68:	df 93       	push	r29
    1d6a:	8c 01       	movw	r16, r24
    1d6c:	66 2e       	mov	r6, r22
    1d6e:	6a 01       	movw	r12, r20
    1d70:	72 2e       	mov	r7, r18
    1d72:	c0 e0       	ldi	r28, 0x00	; 0
    1d74:	c7 15       	cp	r28, r7
    1d76:	a0 f5       	brcc	.+104    	; 0x1de0 <_ZN16Adafruit_AMG88xx4readEhPhh+0x92>
    1d78:	d7 2d       	mov	r29, r7
    1d7a:	dc 1b       	sub	r29, r28
    1d7c:	d1 32       	cpi	r29, 0x21	; 33
    1d7e:	08 f0       	brcs	.+2      	; 0x1d82 <_ZN16Adafruit_AMG88xx4readEhPhh+0x34>
    1d80:	d0 e2       	ldi	r29, 0x20	; 32
    1d82:	f8 01       	movw	r30, r16
    1d84:	60 81       	ld	r22, Z
    1d86:	8a ea       	ldi	r24, 0xAA	; 170
    1d88:	97 e0       	ldi	r25, 0x07	; 7
    1d8a:	0e 94 75 20 	call	0x40ea	; 0x40ea <_ZN7TwoWire17beginTransmissionEh>
    1d8e:	6c 2f       	mov	r22, r28
    1d90:	66 0d       	add	r22, r6
    1d92:	8a ea       	ldi	r24, 0xAA	; 170
    1d94:	97 e0       	ldi	r25, 0x07	; 7
    1d96:	0e 94 28 20 	call	0x4050	; 0x4050 <_ZN7TwoWire5writeEh>
    1d9a:	8a ea       	ldi	r24, 0xAA	; 170
    1d9c:	97 e0       	ldi	r25, 0x07	; 7
    1d9e:	0e 94 f3 20 	call	0x41e6	; 0x41e6 <_ZN7TwoWire15endTransmissionEv>
    1da2:	4d 2f       	mov	r20, r29
    1da4:	f8 01       	movw	r30, r16
    1da6:	60 81       	ld	r22, Z
    1da8:	8a ea       	ldi	r24, 0xAA	; 170
    1daa:	97 e0       	ldi	r25, 0x07	; 7
    1dac:	0e 94 f1 20 	call	0x41e2	; 0x41e2 <_ZN7TwoWire11requestFromEhh>
    1db0:	81 2c       	mov	r8, r1
    1db2:	91 2c       	mov	r9, r1
    1db4:	ad 2e       	mov	r10, r29
    1db6:	b1 2c       	mov	r11, r1
    1db8:	8c 2f       	mov	r24, r28
    1dba:	88 0d       	add	r24, r8
    1dbc:	8a 14       	cp	r8, r10
    1dbe:	9b 04       	cpc	r9, r11
    1dc0:	14 f0       	brlt	.+4      	; 0x1dc6 <_ZN16Adafruit_AMG88xx4readEhPhh+0x78>
    1dc2:	cd 0f       	add	r28, r29
    1dc4:	d7 cf       	rjmp	.-82     	; 0x1d74 <_ZN16Adafruit_AMG88xx4readEhPhh+0x26>
    1dc6:	76 01       	movw	r14, r12
    1dc8:	e8 0e       	add	r14, r24
    1dca:	f1 1c       	adc	r15, r1
    1dcc:	8a ea       	ldi	r24, 0xAA	; 170
    1dce:	97 e0       	ldi	r25, 0x07	; 7
    1dd0:	0e 94 a2 1f 	call	0x3f44	; 0x3f44 <_ZN7TwoWire4readEv>
    1dd4:	f7 01       	movw	r30, r14
    1dd6:	80 83       	st	Z, r24
    1dd8:	ff ef       	ldi	r31, 0xFF	; 255
    1dda:	8f 1a       	sub	r8, r31
    1ddc:	9f 0a       	sbc	r9, r31
    1dde:	ec cf       	rjmp	.-40     	; 0x1db8 <_ZN16Adafruit_AMG88xx4readEhPhh+0x6a>
    1de0:	df 91       	pop	r29
    1de2:	cf 91       	pop	r28
    1de4:	1f 91       	pop	r17
    1de6:	0f 91       	pop	r16
    1de8:	ff 90       	pop	r15
    1dea:	ef 90       	pop	r14
    1dec:	df 90       	pop	r13
    1dee:	cf 90       	pop	r12
    1df0:	bf 90       	pop	r11
    1df2:	af 90       	pop	r10
    1df4:	9f 90       	pop	r9
    1df6:	8f 90       	pop	r8
    1df8:	7f 90       	pop	r7
    1dfa:	6f 90       	pop	r6
    1dfc:	08 95       	ret

00001dfe <_ZN16Adafruit_AMG88xx10readPixelsEPfh>:
    1dfe:	8f 92       	push	r8
    1e00:	9f 92       	push	r9
    1e02:	af 92       	push	r10
    1e04:	bf 92       	push	r11
    1e06:	cf 92       	push	r12
    1e08:	df 92       	push	r13
    1e0a:	ef 92       	push	r14
    1e0c:	ff 92       	push	r15
    1e0e:	0f 93       	push	r16
    1e10:	1f 93       	push	r17
    1e12:	cf 93       	push	r28
    1e14:	df 93       	push	r29
    1e16:	cd b7       	in	r28, 0x3d	; 61
    1e18:	de b7       	in	r29, 0x3e	; 62
    1e1a:	f6 2e       	mov	r15, r22
    1e1c:	17 2f       	mov	r17, r23
    1e1e:	04 2f       	mov	r16, r20
    1e20:	8d b6       	in	r8, 0x3d	; 61
    1e22:	9e b6       	in	r9, 0x3e	; 62
    1e24:	24 2f       	mov	r18, r20
    1e26:	22 0f       	add	r18, r18
    1e28:	46 fd       	sbrc	r20, 6
    1e2a:	20 e8       	ldi	r18, 0x80	; 128
    1e2c:	4d b7       	in	r20, 0x3d	; 61
    1e2e:	5e b7       	in	r21, 0x3e	; 62
    1e30:	42 1b       	sub	r20, r18
    1e32:	51 09       	sbc	r21, r1
    1e34:	0f b6       	in	r0, 0x3f	; 63
    1e36:	f8 94       	cli
    1e38:	5e bf       	out	0x3e, r21	; 62
    1e3a:	0f be       	out	0x3f, r0	; 63
    1e3c:	4d bf       	out	0x3d, r20	; 61
    1e3e:	ed b7       	in	r30, 0x3d	; 61
    1e40:	fe b7       	in	r31, 0x3e	; 62
    1e42:	31 96       	adiw	r30, 0x01	; 1
    1e44:	5f 01       	movw	r10, r30
    1e46:	af 01       	movw	r20, r30
    1e48:	60 e8       	ldi	r22, 0x80	; 128
    1e4a:	81 df       	rcall	.-254    	; 0x1d4e <_ZN16Adafruit_AMG88xx4readEhPhh>
    1e4c:	cf 2c       	mov	r12, r15
    1e4e:	d1 2e       	mov	r13, r17
    1e50:	e1 2c       	mov	r14, r1
    1e52:	f1 2c       	mov	r15, r1
    1e54:	10 e0       	ldi	r17, 0x00	; 0
    1e56:	e0 16       	cp	r14, r16
    1e58:	f1 06       	cpc	r15, r17
    1e5a:	5c f5       	brge	.+86     	; 0x1eb2 <_ZN16Adafruit_AMG88xx10readPixelsEPfh+0xb4>
    1e5c:	8e 2d       	mov	r24, r14
    1e5e:	88 0f       	add	r24, r24
    1e60:	f5 01       	movw	r30, r10
    1e62:	e8 0f       	add	r30, r24
    1e64:	f1 1d       	adc	r31, r1
    1e66:	61 81       	ldd	r22, Z+1	; 0x01
    1e68:	70 e0       	ldi	r23, 0x00	; 0
    1e6a:	76 2f       	mov	r23, r22
    1e6c:	66 27       	eor	r22, r22
    1e6e:	80 81       	ld	r24, Z
    1e70:	68 2b       	or	r22, r24
    1e72:	94 e0       	ldi	r25, 0x04	; 4
    1e74:	66 0f       	add	r22, r22
    1e76:	77 1f       	adc	r23, r23
    1e78:	9a 95       	dec	r25
    1e7a:	e1 f7       	brne	.-8      	; 0x1e74 <_ZN16Adafruit_AMG88xx10readPixelsEPfh+0x76>
    1e7c:	24 e0       	ldi	r18, 0x04	; 4
    1e7e:	75 95       	asr	r23
    1e80:	67 95       	ror	r22
    1e82:	2a 95       	dec	r18
    1e84:	e1 f7       	brne	.-8      	; 0x1e7e <_ZN16Adafruit_AMG88xx10readPixelsEPfh+0x80>
    1e86:	07 2e       	mov	r0, r23
    1e88:	00 0c       	add	r0, r0
    1e8a:	88 0b       	sbc	r24, r24
    1e8c:	99 0b       	sbc	r25, r25
    1e8e:	0e 94 6e 06 	call	0xcdc	; 0xcdc <__floatsisf>
    1e92:	20 e0       	ldi	r18, 0x00	; 0
    1e94:	30 e0       	ldi	r19, 0x00	; 0
    1e96:	40 e8       	ldi	r20, 0x80	; 128
    1e98:	5e e3       	ldi	r21, 0x3E	; 62
    1e9a:	0e 94 29 07 	call	0xe52	; 0xe52 <__mulsf3>
    1e9e:	f6 01       	movw	r30, r12
    1ea0:	61 93       	st	Z+, r22
    1ea2:	71 93       	st	Z+, r23
    1ea4:	81 93       	st	Z+, r24
    1ea6:	91 93       	st	Z+, r25
    1ea8:	6f 01       	movw	r12, r30
    1eaa:	ff ef       	ldi	r31, 0xFF	; 255
    1eac:	ef 1a       	sub	r14, r31
    1eae:	ff 0a       	sbc	r15, r31
    1eb0:	d2 cf       	rjmp	.-92     	; 0x1e56 <_ZN16Adafruit_AMG88xx10readPixelsEPfh+0x58>
    1eb2:	0f b6       	in	r0, 0x3f	; 63
    1eb4:	f8 94       	cli
    1eb6:	9e be       	out	0x3e, r9	; 62
    1eb8:	0f be       	out	0x3f, r0	; 63
    1eba:	8d be       	out	0x3d, r8	; 61
    1ebc:	df 91       	pop	r29
    1ebe:	cf 91       	pop	r28
    1ec0:	1f 91       	pop	r17
    1ec2:	0f 91       	pop	r16
    1ec4:	ff 90       	pop	r15
    1ec6:	ef 90       	pop	r14
    1ec8:	df 90       	pop	r13
    1eca:	cf 90       	pop	r12
    1ecc:	bf 90       	pop	r11
    1ece:	af 90       	pop	r10
    1ed0:	9f 90       	pop	r9
    1ed2:	8f 90       	pop	r8
    1ed4:	08 95       	ret

00001ed6 <_ZN12Adafruit_GFX9writeLineEiiiij>:
    1ed6:	2f 92       	push	r2
    1ed8:	3f 92       	push	r3
    1eda:	4f 92       	push	r4
    1edc:	5f 92       	push	r5
    1ede:	6f 92       	push	r6
    1ee0:	7f 92       	push	r7
    1ee2:	8f 92       	push	r8
    1ee4:	9f 92       	push	r9
    1ee6:	af 92       	push	r10
    1ee8:	bf 92       	push	r11
    1eea:	cf 92       	push	r12
    1eec:	df 92       	push	r13
    1eee:	ef 92       	push	r14
    1ef0:	ff 92       	push	r15
    1ef2:	0f 93       	push	r16
    1ef4:	1f 93       	push	r17
    1ef6:	cf 93       	push	r28
    1ef8:	df 93       	push	r29
    1efa:	00 d0       	rcall	.+0      	; 0x1efc <_ZN12Adafruit_GFX9writeLineEiiiij+0x26>
    1efc:	00 d0       	rcall	.+0      	; 0x1efe <_ZN12Adafruit_GFX9writeLineEiiiij+0x28>
    1efe:	cd b7       	in	r28, 0x3d	; 61
    1f00:	de b7       	in	r29, 0x3e	; 62
    1f02:	2c 01       	movw	r4, r24
    1f04:	7e 83       	std	Y+6, r23	; 0x06
    1f06:	6d 83       	std	Y+5, r22	; 0x05
    1f08:	6a 01       	movw	r12, r20
    1f0a:	59 01       	movw	r10, r18
    1f0c:	c8 01       	movw	r24, r16
    1f0e:	fc 82       	std	Y+4, r15	; 0x04
    1f10:	eb 82       	std	Y+3, r14	; 0x03
    1f12:	48 01       	movw	r8, r16
    1f14:	84 1a       	sub	r8, r20
    1f16:	95 0a       	sbc	r9, r21
    1f18:	97 fe       	sbrs	r9, 7
    1f1a:	03 c0       	rjmp	.+6      	; 0x1f22 <_ZN12Adafruit_GFX9writeLineEiiiij+0x4c>
    1f1c:	91 94       	neg	r9
    1f1e:	81 94       	neg	r8
    1f20:	91 08       	sbc	r9, r1
    1f22:	35 01       	movw	r6, r10
    1f24:	2d 81       	ldd	r18, Y+5	; 0x05
    1f26:	3e 81       	ldd	r19, Y+6	; 0x06
    1f28:	62 1a       	sub	r6, r18
    1f2a:	73 0a       	sbc	r7, r19
    1f2c:	77 fe       	sbrs	r7, 7
    1f2e:	03 c0       	rjmp	.+6      	; 0x1f36 <_ZN12Adafruit_GFX9writeLineEiiiij+0x60>
    1f30:	71 94       	neg	r7
    1f32:	61 94       	neg	r6
    1f34:	71 08       	sbc	r7, r1
    1f36:	68 14       	cp	r6, r8
    1f38:	79 04       	cpc	r7, r9
    1f3a:	5c f4       	brge	.+22     	; 0x1f52 <_ZN12Adafruit_GFX9writeLineEiiiij+0x7c>
    1f3c:	3a 2d       	mov	r19, r10
    1f3e:	2b 2d       	mov	r18, r11
    1f40:	5c 01       	movw	r10, r24
    1f42:	83 2f       	mov	r24, r19
    1f44:	92 2f       	mov	r25, r18
    1f46:	3d 81       	ldd	r19, Y+5	; 0x05
    1f48:	2e 81       	ldd	r18, Y+6	; 0x06
    1f4a:	de 82       	std	Y+6, r13	; 0x06
    1f4c:	cd 82       	std	Y+5, r12	; 0x05
    1f4e:	c3 2e       	mov	r12, r19
    1f50:	d2 2e       	mov	r13, r18
    1f52:	ad 81       	ldd	r26, Y+5	; 0x05
    1f54:	be 81       	ldd	r27, Y+6	; 0x06
    1f56:	aa 16       	cp	r10, r26
    1f58:	bb 06       	cpc	r11, r27
    1f5a:	5c f4       	brge	.+22     	; 0x1f72 <_ZN12Adafruit_GFX9writeLineEiiiij+0x9c>
    1f5c:	3c 2d       	mov	r19, r12
    1f5e:	2d 2d       	mov	r18, r13
    1f60:	6c 01       	movw	r12, r24
    1f62:	83 2f       	mov	r24, r19
    1f64:	92 2f       	mov	r25, r18
    1f66:	3d 81       	ldd	r19, Y+5	; 0x05
    1f68:	2e 81       	ldd	r18, Y+6	; 0x06
    1f6a:	be 82       	std	Y+6, r11	; 0x06
    1f6c:	ad 82       	std	Y+5, r10	; 0x05
    1f6e:	a3 2e       	mov	r10, r19
    1f70:	b2 2e       	mov	r11, r18
    1f72:	85 01       	movw	r16, r10
    1f74:	2d 81       	ldd	r18, Y+5	; 0x05
    1f76:	3e 81       	ldd	r19, Y+6	; 0x06
    1f78:	02 1b       	sub	r16, r18
    1f7a:	13 0b       	sbc	r17, r19
    1f7c:	1c 01       	movw	r2, r24
    1f7e:	2c 18       	sub	r2, r12
    1f80:	3d 08       	sbc	r3, r13
    1f82:	37 fe       	sbrs	r3, 7
    1f84:	03 c0       	rjmp	.+6      	; 0x1f8c <_ZN12Adafruit_GFX9writeLineEiiiij+0xb6>
    1f86:	31 94       	neg	r3
    1f88:	21 94       	neg	r2
    1f8a:	31 08       	sbc	r3, r1
    1f8c:	78 01       	movw	r14, r16
    1f8e:	17 ff       	sbrs	r17, 7
    1f90:	03 c0       	rjmp	.+6      	; 0x1f98 <_ZN12Adafruit_GFX9writeLineEiiiij+0xc2>
    1f92:	3f ef       	ldi	r19, 0xFF	; 255
    1f94:	e3 1a       	sub	r14, r19
    1f96:	f3 0a       	sbc	r15, r19
    1f98:	f5 94       	asr	r15
    1f9a:	e7 94       	ror	r14
    1f9c:	c8 16       	cp	r12, r24
    1f9e:	d9 06       	cpc	r13, r25
    1fa0:	2c f0       	brlt	.+10     	; 0x1fac <_ZN12Adafruit_GFX9writeLineEiiiij+0xd6>
    1fa2:	8f ef       	ldi	r24, 0xFF	; 255
    1fa4:	9f ef       	ldi	r25, 0xFF	; 255
    1fa6:	9a 83       	std	Y+2, r25	; 0x02
    1fa8:	89 83       	std	Y+1, r24	; 0x01
    1faa:	04 c0       	rjmp	.+8      	; 0x1fb4 <_ZN12Adafruit_GFX9writeLineEiiiij+0xde>
    1fac:	a1 e0       	ldi	r26, 0x01	; 1
    1fae:	b0 e0       	ldi	r27, 0x00	; 0
    1fb0:	ba 83       	std	Y+2, r27	; 0x02
    1fb2:	a9 83       	std	Y+1, r26	; 0x01
    1fb4:	2d 81       	ldd	r18, Y+5	; 0x05
    1fb6:	3e 81       	ldd	r19, Y+6	; 0x06
    1fb8:	a2 16       	cp	r10, r18
    1fba:	b3 06       	cpc	r11, r19
    1fbc:	24 f1       	brlt	.+72     	; 0x2006 <_ZN12Adafruit_GFX9writeLineEiiiij+0x130>
    1fbe:	d2 01       	movw	r26, r4
    1fc0:	ed 91       	ld	r30, X+
    1fc2:	fc 91       	ld	r31, X
    1fc4:	04 84       	ldd	r0, Z+12	; 0x0c
    1fc6:	f5 85       	ldd	r31, Z+13	; 0x0d
    1fc8:	e0 2d       	mov	r30, r0
    1fca:	2b 81       	ldd	r18, Y+3	; 0x03
    1fcc:	3c 81       	ldd	r19, Y+4	; 0x04
    1fce:	68 14       	cp	r6, r8
    1fd0:	79 04       	cpc	r7, r9
    1fd2:	24 f4       	brge	.+8      	; 0x1fdc <_ZN12Adafruit_GFX9writeLineEiiiij+0x106>
    1fd4:	4d 81       	ldd	r20, Y+5	; 0x05
    1fd6:	5e 81       	ldd	r21, Y+6	; 0x06
    1fd8:	b6 01       	movw	r22, r12
    1fda:	03 c0       	rjmp	.+6      	; 0x1fe2 <_ZN12Adafruit_GFX9writeLineEiiiij+0x10c>
    1fdc:	a6 01       	movw	r20, r12
    1fde:	6d 81       	ldd	r22, Y+5	; 0x05
    1fe0:	7e 81       	ldd	r23, Y+6	; 0x06
    1fe2:	c2 01       	movw	r24, r4
    1fe4:	19 95       	eicall
    1fe6:	e2 18       	sub	r14, r2
    1fe8:	f3 08       	sbc	r15, r3
    1fea:	f7 fe       	sbrs	r15, 7
    1fec:	06 c0       	rjmp	.+12     	; 0x1ffa <_ZN12Adafruit_GFX9writeLineEiiiij+0x124>
    1fee:	29 81       	ldd	r18, Y+1	; 0x01
    1ff0:	3a 81       	ldd	r19, Y+2	; 0x02
    1ff2:	c2 0e       	add	r12, r18
    1ff4:	d3 1e       	adc	r13, r19
    1ff6:	e0 0e       	add	r14, r16
    1ff8:	f1 1e       	adc	r15, r17
    1ffa:	8d 81       	ldd	r24, Y+5	; 0x05
    1ffc:	9e 81       	ldd	r25, Y+6	; 0x06
    1ffe:	01 96       	adiw	r24, 0x01	; 1
    2000:	9e 83       	std	Y+6, r25	; 0x06
    2002:	8d 83       	std	Y+5, r24	; 0x05
    2004:	d7 cf       	rjmp	.-82     	; 0x1fb4 <_ZN12Adafruit_GFX9writeLineEiiiij+0xde>
    2006:	26 96       	adiw	r28, 0x06	; 6
    2008:	0f b6       	in	r0, 0x3f	; 63
    200a:	f8 94       	cli
    200c:	de bf       	out	0x3e, r29	; 62
    200e:	0f be       	out	0x3f, r0	; 63
    2010:	cd bf       	out	0x3d, r28	; 61
    2012:	df 91       	pop	r29
    2014:	cf 91       	pop	r28
    2016:	1f 91       	pop	r17
    2018:	0f 91       	pop	r16
    201a:	ff 90       	pop	r15
    201c:	ef 90       	pop	r14
    201e:	df 90       	pop	r13
    2020:	cf 90       	pop	r12
    2022:	bf 90       	pop	r11
    2024:	af 90       	pop	r10
    2026:	9f 90       	pop	r9
    2028:	8f 90       	pop	r8
    202a:	7f 90       	pop	r7
    202c:	6f 90       	pop	r6
    202e:	5f 90       	pop	r5
    2030:	4f 90       	pop	r4
    2032:	3f 90       	pop	r3
    2034:	2f 90       	pop	r2
    2036:	08 95       	ret

00002038 <_ZN12Adafruit_GFX10writePixelEiij>:
    2038:	dc 01       	movw	r26, r24
    203a:	ed 91       	ld	r30, X+
    203c:	fc 91       	ld	r31, X
    203e:	00 84       	ldd	r0, Z+8	; 0x08
    2040:	f1 85       	ldd	r31, Z+9	; 0x09
    2042:	e0 2d       	mov	r30, r0
    2044:	19 94       	eijmp

00002046 <_ZN12Adafruit_GFX14writeFastVLineEiiij>:
    2046:	0f 93       	push	r16
    2048:	1f 93       	push	r17
    204a:	dc 01       	movw	r26, r24
    204c:	ed 91       	ld	r30, X+
    204e:	fc 91       	ld	r31, X
    2050:	04 8c       	ldd	r0, Z+28	; 0x1c
    2052:	f5 8d       	ldd	r31, Z+29	; 0x1d
    2054:	e0 2d       	mov	r30, r0
    2056:	19 95       	eicall
    2058:	1f 91       	pop	r17
    205a:	0f 91       	pop	r16
    205c:	08 95       	ret

0000205e <_ZN12Adafruit_GFX14writeFastHLineEiiij>:
    205e:	0f 93       	push	r16
    2060:	1f 93       	push	r17
    2062:	dc 01       	movw	r26, r24
    2064:	ed 91       	ld	r30, X+
    2066:	fc 91       	ld	r31, X
    2068:	06 8c       	ldd	r0, Z+30	; 0x1e
    206a:	f7 8d       	ldd	r31, Z+31	; 0x1f
    206c:	e0 2d       	mov	r30, r0
    206e:	19 95       	eicall
    2070:	1f 91       	pop	r17
    2072:	0f 91       	pop	r16
    2074:	08 95       	ret

00002076 <_ZN12Adafruit_GFX13writeFillRectEiiiij>:
    2076:	ef 92       	push	r14
    2078:	ff 92       	push	r15
    207a:	0f 93       	push	r16
    207c:	1f 93       	push	r17
    207e:	dc 01       	movw	r26, r24
    2080:	ed 91       	ld	r30, X+
    2082:	fc 91       	ld	r31, X
    2084:	00 a0       	ldd	r0, Z+32	; 0x20
    2086:	f1 a1       	ldd	r31, Z+33	; 0x21
    2088:	e0 2d       	mov	r30, r0
    208a:	19 95       	eicall
    208c:	1f 91       	pop	r17
    208e:	0f 91       	pop	r16
    2090:	ff 90       	pop	r15
    2092:	ef 90       	pop	r14
    2094:	08 95       	ret

00002096 <_ZN12Adafruit_GFX10startWriteEv>:
    2096:	08 95       	ret

00002098 <_ZN12Adafruit_GFX13drawFastVLineEiiij>:
    2098:	8f 92       	push	r8
    209a:	9f 92       	push	r9
    209c:	af 92       	push	r10
    209e:	bf 92       	push	r11
    20a0:	cf 92       	push	r12
    20a2:	df 92       	push	r13
    20a4:	ef 92       	push	r14
    20a6:	ff 92       	push	r15
    20a8:	0f 93       	push	r16
    20aa:	1f 93       	push	r17
    20ac:	cf 93       	push	r28
    20ae:	df 93       	push	r29
    20b0:	ec 01       	movw	r28, r24
    20b2:	5b 01       	movw	r10, r22
    20b4:	4a 01       	movw	r8, r20
    20b6:	69 01       	movw	r12, r18
    20b8:	78 01       	movw	r14, r16
    20ba:	e8 81       	ld	r30, Y
    20bc:	f9 81       	ldd	r31, Y+1	; 0x01
    20be:	02 84       	ldd	r0, Z+10	; 0x0a
    20c0:	f3 85       	ldd	r31, Z+11	; 0x0b
    20c2:	e0 2d       	mov	r30, r0
    20c4:	19 95       	eicall
    20c6:	c8 0c       	add	r12, r8
    20c8:	d9 1c       	adc	r13, r9
    20ca:	86 01       	movw	r16, r12
    20cc:	01 50       	subi	r16, 0x01	; 1
    20ce:	11 09       	sbc	r17, r1
    20d0:	e8 81       	ld	r30, Y
    20d2:	f9 81       	ldd	r31, Y+1	; 0x01
    20d4:	04 88       	ldd	r0, Z+20	; 0x14
    20d6:	f5 89       	ldd	r31, Z+21	; 0x15
    20d8:	e0 2d       	mov	r30, r0
    20da:	95 01       	movw	r18, r10
    20dc:	a4 01       	movw	r20, r8
    20de:	b5 01       	movw	r22, r10
    20e0:	ce 01       	movw	r24, r28
    20e2:	19 95       	eicall
    20e4:	e8 81       	ld	r30, Y
    20e6:	f9 81       	ldd	r31, Y+1	; 0x01
    20e8:	06 88       	ldd	r0, Z+22	; 0x16
    20ea:	f7 89       	ldd	r31, Z+23	; 0x17
    20ec:	e0 2d       	mov	r30, r0
    20ee:	ce 01       	movw	r24, r28
    20f0:	df 91       	pop	r29
    20f2:	cf 91       	pop	r28
    20f4:	1f 91       	pop	r17
    20f6:	0f 91       	pop	r16
    20f8:	ff 90       	pop	r15
    20fa:	ef 90       	pop	r14
    20fc:	df 90       	pop	r13
    20fe:	cf 90       	pop	r12
    2100:	bf 90       	pop	r11
    2102:	af 90       	pop	r10
    2104:	9f 90       	pop	r9
    2106:	8f 90       	pop	r8
    2108:	19 94       	eijmp

0000210a <_ZN12Adafruit_GFX13drawFastHLineEiiij>:
    210a:	8f 92       	push	r8
    210c:	9f 92       	push	r9
    210e:	af 92       	push	r10
    2110:	bf 92       	push	r11
    2112:	cf 92       	push	r12
    2114:	df 92       	push	r13
    2116:	ef 92       	push	r14
    2118:	ff 92       	push	r15
    211a:	0f 93       	push	r16
    211c:	1f 93       	push	r17
    211e:	cf 93       	push	r28
    2120:	df 93       	push	r29
    2122:	ec 01       	movw	r28, r24
    2124:	5b 01       	movw	r10, r22
    2126:	4a 01       	movw	r8, r20
    2128:	69 01       	movw	r12, r18
    212a:	e8 81       	ld	r30, Y
    212c:	f9 81       	ldd	r31, Y+1	; 0x01
    212e:	02 84       	ldd	r0, Z+10	; 0x0a
    2130:	f3 85       	ldd	r31, Z+11	; 0x0b
    2132:	e0 2d       	mov	r30, r0
    2134:	19 95       	eicall
    2136:	95 01       	movw	r18, r10
    2138:	2c 0d       	add	r18, r12
    213a:	3d 1d       	adc	r19, r13
    213c:	21 50       	subi	r18, 0x01	; 1
    213e:	31 09       	sbc	r19, r1
    2140:	e8 81       	ld	r30, Y
    2142:	f9 81       	ldd	r31, Y+1	; 0x01
    2144:	04 88       	ldd	r0, Z+20	; 0x14
    2146:	f5 89       	ldd	r31, Z+21	; 0x15
    2148:	e0 2d       	mov	r30, r0
    214a:	78 01       	movw	r14, r16
    214c:	84 01       	movw	r16, r8
    214e:	a4 01       	movw	r20, r8
    2150:	b5 01       	movw	r22, r10
    2152:	ce 01       	movw	r24, r28
    2154:	19 95       	eicall
    2156:	e8 81       	ld	r30, Y
    2158:	f9 81       	ldd	r31, Y+1	; 0x01
    215a:	06 88       	ldd	r0, Z+22	; 0x16
    215c:	f7 89       	ldd	r31, Z+23	; 0x17
    215e:	e0 2d       	mov	r30, r0
    2160:	ce 01       	movw	r24, r28
    2162:	df 91       	pop	r29
    2164:	cf 91       	pop	r28
    2166:	1f 91       	pop	r17
    2168:	0f 91       	pop	r16
    216a:	ff 90       	pop	r15
    216c:	ef 90       	pop	r14
    216e:	df 90       	pop	r13
    2170:	cf 90       	pop	r12
    2172:	bf 90       	pop	r11
    2174:	af 90       	pop	r10
    2176:	9f 90       	pop	r9
    2178:	8f 90       	pop	r8
    217a:	19 94       	eijmp

0000217c <_ZN12Adafruit_GFX8fillRectEiiiij>:
    217c:	4f 92       	push	r4
    217e:	5f 92       	push	r5
    2180:	6f 92       	push	r6
    2182:	7f 92       	push	r7
    2184:	8f 92       	push	r8
    2186:	9f 92       	push	r9
    2188:	af 92       	push	r10
    218a:	bf 92       	push	r11
    218c:	cf 92       	push	r12
    218e:	df 92       	push	r13
    2190:	ef 92       	push	r14
    2192:	ff 92       	push	r15
    2194:	0f 93       	push	r16
    2196:	1f 93       	push	r17
    2198:	cf 93       	push	r28
    219a:	df 93       	push	r29
    219c:	6c 01       	movw	r12, r24
    219e:	2b 01       	movw	r4, r22
    21a0:	5a 01       	movw	r10, r20
    21a2:	39 01       	movw	r6, r18
    21a4:	48 01       	movw	r8, r16
    21a6:	dc 01       	movw	r26, r24
    21a8:	ed 91       	ld	r30, X+
    21aa:	fc 91       	ld	r31, X
    21ac:	02 84       	ldd	r0, Z+10	; 0x0a
    21ae:	f3 85       	ldd	r31, Z+11	; 0x0b
    21b0:	e0 2d       	mov	r30, r0
    21b2:	19 95       	eicall
    21b4:	e2 01       	movw	r28, r4
    21b6:	64 0c       	add	r6, r4
    21b8:	75 1c       	adc	r7, r5
    21ba:	d6 01       	movw	r26, r12
    21bc:	ed 91       	ld	r30, X+
    21be:	fc 91       	ld	r31, X
    21c0:	c6 15       	cp	r28, r6
    21c2:	d7 05       	cpc	r29, r7
    21c4:	5c f4       	brge	.+22     	; 0x21dc <_ZN12Adafruit_GFX8fillRectEiiiij+0x60>
    21c6:	00 88       	ldd	r0, Z+16	; 0x10
    21c8:	f1 89       	ldd	r31, Z+17	; 0x11
    21ca:	e0 2d       	mov	r30, r0
    21cc:	87 01       	movw	r16, r14
    21ce:	94 01       	movw	r18, r8
    21d0:	a5 01       	movw	r20, r10
    21d2:	be 01       	movw	r22, r28
    21d4:	c6 01       	movw	r24, r12
    21d6:	19 95       	eicall
    21d8:	21 96       	adiw	r28, 0x01	; 1
    21da:	ef cf       	rjmp	.-34     	; 0x21ba <_ZN12Adafruit_GFX8fillRectEiiiij+0x3e>
    21dc:	06 88       	ldd	r0, Z+22	; 0x16
    21de:	f7 89       	ldd	r31, Z+23	; 0x17
    21e0:	e0 2d       	mov	r30, r0
    21e2:	c6 01       	movw	r24, r12
    21e4:	df 91       	pop	r29
    21e6:	cf 91       	pop	r28
    21e8:	1f 91       	pop	r17
    21ea:	0f 91       	pop	r16
    21ec:	ff 90       	pop	r15
    21ee:	ef 90       	pop	r14
    21f0:	df 90       	pop	r13
    21f2:	cf 90       	pop	r12
    21f4:	bf 90       	pop	r11
    21f6:	af 90       	pop	r10
    21f8:	9f 90       	pop	r9
    21fa:	8f 90       	pop	r8
    21fc:	7f 90       	pop	r7
    21fe:	6f 90       	pop	r6
    2200:	5f 90       	pop	r5
    2202:	4f 90       	pop	r4
    2204:	19 94       	eijmp

00002206 <_ZN12Adafruit_GFX10fillScreenEj>:
    2206:	ef 92       	push	r14
    2208:	ff 92       	push	r15
    220a:	0f 93       	push	r16
    220c:	1f 93       	push	r17
    220e:	dc 01       	movw	r26, r24
    2210:	1a 96       	adiw	r26, 0x0a	; 10
    2212:	0d 91       	ld	r16, X+
    2214:	1c 91       	ld	r17, X
    2216:	1b 97       	sbiw	r26, 0x0b	; 11
    2218:	18 96       	adiw	r26, 0x08	; 8
    221a:	2d 91       	ld	r18, X+
    221c:	3c 91       	ld	r19, X
    221e:	19 97       	sbiw	r26, 0x09	; 9
    2220:	ed 91       	ld	r30, X+
    2222:	fc 91       	ld	r31, X
    2224:	00 a0       	ldd	r0, Z+32	; 0x20
    2226:	f1 a1       	ldd	r31, Z+33	; 0x21
    2228:	e0 2d       	mov	r30, r0
    222a:	7b 01       	movw	r14, r22
    222c:	40 e0       	ldi	r20, 0x00	; 0
    222e:	50 e0       	ldi	r21, 0x00	; 0
    2230:	60 e0       	ldi	r22, 0x00	; 0
    2232:	70 e0       	ldi	r23, 0x00	; 0
    2234:	19 95       	eicall
    2236:	1f 91       	pop	r17
    2238:	0f 91       	pop	r16
    223a:	ff 90       	pop	r15
    223c:	ef 90       	pop	r14
    223e:	08 95       	ret

00002240 <_ZN12Adafruit_GFX8drawLineEiiiij>:
    2240:	8f 92       	push	r8
    2242:	9f 92       	push	r9
    2244:	af 92       	push	r10
    2246:	bf 92       	push	r11
    2248:	cf 92       	push	r12
    224a:	df 92       	push	r13
    224c:	ef 92       	push	r14
    224e:	ff 92       	push	r15
    2250:	0f 93       	push	r16
    2252:	1f 93       	push	r17
    2254:	cf 93       	push	r28
    2256:	df 93       	push	r29
    2258:	4c 01       	movw	r8, r24
    225a:	6b 01       	movw	r12, r22
    225c:	5a 01       	movw	r10, r20
    225e:	e9 01       	movw	r28, r18
    2260:	dc 01       	movw	r26, r24
    2262:	ed 91       	ld	r30, X+
    2264:	fc 91       	ld	r31, X
    2266:	62 17       	cp	r22, r18
    2268:	73 07       	cpc	r23, r19
    226a:	81 f4       	brne	.+32     	; 0x228c <_ZN12Adafruit_GFX8drawLineEiiiij+0x4c>
    226c:	04 17       	cp	r16, r20
    226e:	15 07       	cpc	r17, r21
    2270:	24 f4       	brge	.+8      	; 0x227a <_ZN12Adafruit_GFX8drawLineEiiiij+0x3a>
    2272:	8b 2d       	mov	r24, r11
    2274:	58 01       	movw	r10, r16
    2276:	04 2f       	mov	r16, r20
    2278:	18 2f       	mov	r17, r24
    227a:	0a 19       	sub	r16, r10
    227c:	1b 09       	sbc	r17, r11
    227e:	98 01       	movw	r18, r16
    2280:	2f 5f       	subi	r18, 0xFF	; 255
    2282:	3f 4f       	sbci	r19, 0xFF	; 255
    2284:	04 8c       	ldd	r0, Z+28	; 0x1c
    2286:	f5 8d       	ldd	r31, Z+29	; 0x1d
    2288:	e0 2d       	mov	r30, r0
    228a:	12 c0       	rjmp	.+36     	; 0x22b0 <_ZN12Adafruit_GFX8drawLineEiiiij+0x70>
    228c:	40 17       	cp	r20, r16
    228e:	51 07       	cpc	r21, r17
    2290:	09 f5       	brne	.+66     	; 0x22d4 <_ZN12Adafruit_GFX8drawLineEiiiij+0x94>
    2292:	26 17       	cp	r18, r22
    2294:	37 07       	cpc	r19, r23
    2296:	24 f4       	brge	.+8      	; 0x22a0 <_ZN12Adafruit_GFX8drawLineEiiiij+0x60>
    2298:	8d 2d       	mov	r24, r13
    229a:	69 01       	movw	r12, r18
    229c:	c6 2f       	mov	r28, r22
    229e:	d8 2f       	mov	r29, r24
    22a0:	9e 01       	movw	r18, r28
    22a2:	2c 19       	sub	r18, r12
    22a4:	3d 09       	sbc	r19, r13
    22a6:	2f 5f       	subi	r18, 0xFF	; 255
    22a8:	3f 4f       	sbci	r19, 0xFF	; 255
    22aa:	06 8c       	ldd	r0, Z+30	; 0x1e
    22ac:	f7 8d       	ldd	r31, Z+31	; 0x1f
    22ae:	e0 2d       	mov	r30, r0
    22b0:	87 01       	movw	r16, r14
    22b2:	a5 01       	movw	r20, r10
    22b4:	b6 01       	movw	r22, r12
    22b6:	c4 01       	movw	r24, r8
    22b8:	19 95       	eicall
    22ba:	df 91       	pop	r29
    22bc:	cf 91       	pop	r28
    22be:	1f 91       	pop	r17
    22c0:	0f 91       	pop	r16
    22c2:	ff 90       	pop	r15
    22c4:	ef 90       	pop	r14
    22c6:	df 90       	pop	r13
    22c8:	cf 90       	pop	r12
    22ca:	bf 90       	pop	r11
    22cc:	af 90       	pop	r10
    22ce:	9f 90       	pop	r9
    22d0:	8f 90       	pop	r8
    22d2:	08 95       	ret
    22d4:	02 84       	ldd	r0, Z+10	; 0x0a
    22d6:	f3 85       	ldd	r31, Z+11	; 0x0b
    22d8:	e0 2d       	mov	r30, r0
    22da:	19 95       	eicall
    22dc:	d4 01       	movw	r26, r8
    22de:	ed 91       	ld	r30, X+
    22e0:	fc 91       	ld	r31, X
    22e2:	04 88       	ldd	r0, Z+20	; 0x14
    22e4:	f5 89       	ldd	r31, Z+21	; 0x15
    22e6:	e0 2d       	mov	r30, r0
    22e8:	9e 01       	movw	r18, r28
    22ea:	a5 01       	movw	r20, r10
    22ec:	b6 01       	movw	r22, r12
    22ee:	c4 01       	movw	r24, r8
    22f0:	19 95       	eicall
    22f2:	d4 01       	movw	r26, r8
    22f4:	ed 91       	ld	r30, X+
    22f6:	fc 91       	ld	r31, X
    22f8:	06 88       	ldd	r0, Z+22	; 0x16
    22fa:	f7 89       	ldd	r31, Z+23	; 0x17
    22fc:	e0 2d       	mov	r30, r0
    22fe:	c4 01       	movw	r24, r8
    2300:	df 91       	pop	r29
    2302:	cf 91       	pop	r28
    2304:	1f 91       	pop	r17
    2306:	0f 91       	pop	r16
    2308:	ff 90       	pop	r15
    230a:	ef 90       	pop	r14
    230c:	df 90       	pop	r13
    230e:	cf 90       	pop	r12
    2310:	bf 90       	pop	r11
    2312:	af 90       	pop	r10
    2314:	9f 90       	pop	r9
    2316:	8f 90       	pop	r8
    2318:	19 94       	eijmp

0000231a <_ZN12Adafruit_GFX8drawRectEiiiij>:
    231a:	6f 92       	push	r6
    231c:	7f 92       	push	r7
    231e:	8f 92       	push	r8
    2320:	9f 92       	push	r9
    2322:	af 92       	push	r10
    2324:	bf 92       	push	r11
    2326:	cf 92       	push	r12
    2328:	df 92       	push	r13
    232a:	ef 92       	push	r14
    232c:	ff 92       	push	r15
    232e:	0f 93       	push	r16
    2330:	1f 93       	push	r17
    2332:	cf 93       	push	r28
    2334:	df 93       	push	r29
    2336:	ec 01       	movw	r28, r24
    2338:	4b 01       	movw	r8, r22
    233a:	5a 01       	movw	r10, r20
    233c:	69 01       	movw	r12, r18
    233e:	38 01       	movw	r6, r16
    2340:	e8 81       	ld	r30, Y
    2342:	f9 81       	ldd	r31, Y+1	; 0x01
    2344:	02 84       	ldd	r0, Z+10	; 0x0a
    2346:	f3 85       	ldd	r31, Z+11	; 0x0b
    2348:	e0 2d       	mov	r30, r0
    234a:	19 95       	eicall
    234c:	e8 81       	ld	r30, Y
    234e:	f9 81       	ldd	r31, Y+1	; 0x01
    2350:	02 88       	ldd	r0, Z+18	; 0x12
    2352:	f3 89       	ldd	r31, Z+19	; 0x13
    2354:	e0 2d       	mov	r30, r0
    2356:	87 01       	movw	r16, r14
    2358:	96 01       	movw	r18, r12
    235a:	a5 01       	movw	r20, r10
    235c:	b4 01       	movw	r22, r8
    235e:	ce 01       	movw	r24, r28
    2360:	19 95       	eicall
    2362:	a5 01       	movw	r20, r10
    2364:	46 0d       	add	r20, r6
    2366:	57 1d       	adc	r21, r7
    2368:	41 50       	subi	r20, 0x01	; 1
    236a:	51 09       	sbc	r21, r1
    236c:	e8 81       	ld	r30, Y
    236e:	f9 81       	ldd	r31, Y+1	; 0x01
    2370:	02 88       	ldd	r0, Z+18	; 0x12
    2372:	f3 89       	ldd	r31, Z+19	; 0x13
    2374:	e0 2d       	mov	r30, r0
    2376:	96 01       	movw	r18, r12
    2378:	b4 01       	movw	r22, r8
    237a:	ce 01       	movw	r24, r28
    237c:	19 95       	eicall
    237e:	e8 81       	ld	r30, Y
    2380:	f9 81       	ldd	r31, Y+1	; 0x01
    2382:	00 88       	ldd	r0, Z+16	; 0x10
    2384:	f1 89       	ldd	r31, Z+17	; 0x11
    2386:	e0 2d       	mov	r30, r0
    2388:	93 01       	movw	r18, r6
    238a:	a5 01       	movw	r20, r10
    238c:	b4 01       	movw	r22, r8
    238e:	ce 01       	movw	r24, r28
    2390:	19 95       	eicall
    2392:	c8 0c       	add	r12, r8
    2394:	d9 1c       	adc	r13, r9
    2396:	b6 01       	movw	r22, r12
    2398:	61 50       	subi	r22, 0x01	; 1
    239a:	71 09       	sbc	r23, r1
    239c:	e8 81       	ld	r30, Y
    239e:	f9 81       	ldd	r31, Y+1	; 0x01
    23a0:	00 88       	ldd	r0, Z+16	; 0x10
    23a2:	f1 89       	ldd	r31, Z+17	; 0x11
    23a4:	e0 2d       	mov	r30, r0
    23a6:	93 01       	movw	r18, r6
    23a8:	a5 01       	movw	r20, r10
    23aa:	ce 01       	movw	r24, r28
    23ac:	19 95       	eicall
    23ae:	e8 81       	ld	r30, Y
    23b0:	f9 81       	ldd	r31, Y+1	; 0x01
    23b2:	06 88       	ldd	r0, Z+22	; 0x16
    23b4:	f7 89       	ldd	r31, Z+23	; 0x17
    23b6:	e0 2d       	mov	r30, r0
    23b8:	ce 01       	movw	r24, r28
    23ba:	df 91       	pop	r29
    23bc:	cf 91       	pop	r28
    23be:	1f 91       	pop	r17
    23c0:	0f 91       	pop	r16
    23c2:	ff 90       	pop	r15
    23c4:	ef 90       	pop	r14
    23c6:	df 90       	pop	r13
    23c8:	cf 90       	pop	r12
    23ca:	bf 90       	pop	r11
    23cc:	af 90       	pop	r10
    23ce:	9f 90       	pop	r9
    23d0:	8f 90       	pop	r8
    23d2:	7f 90       	pop	r7
    23d4:	6f 90       	pop	r6
    23d6:	19 94       	eijmp

000023d8 <_ZN12Adafruit_GFX13invertDisplayEb>:
    23d8:	08 95       	ret

000023da <_ZN12Adafruit_GFX11setRotationEh>:
    23da:	fc 01       	movw	r30, r24
    23dc:	63 70       	andi	r22, 0x03	; 3
    23de:	66 8b       	std	Z+22, r22	; 0x16
    23e0:	84 81       	ldd	r24, Z+4	; 0x04
    23e2:	95 81       	ldd	r25, Z+5	; 0x05
    23e4:	26 81       	ldd	r18, Z+6	; 0x06
    23e6:	37 81       	ldd	r19, Z+7	; 0x07
    23e8:	61 30       	cpi	r22, 0x01	; 1
    23ea:	39 f0       	breq	.+14     	; 0x23fa <_ZN12Adafruit_GFX11setRotationEh+0x20>
    23ec:	63 30       	cpi	r22, 0x03	; 3
    23ee:	29 f0       	breq	.+10     	; 0x23fa <_ZN12Adafruit_GFX11setRotationEh+0x20>
    23f0:	91 87       	std	Z+9, r25	; 0x09
    23f2:	80 87       	std	Z+8, r24	; 0x08
    23f4:	33 87       	std	Z+11, r19	; 0x0b
    23f6:	22 87       	std	Z+10, r18	; 0x0a
    23f8:	08 95       	ret
    23fa:	31 87       	std	Z+9, r19	; 0x09
    23fc:	20 87       	std	Z+8, r18	; 0x08
    23fe:	93 87       	std	Z+11, r25	; 0x0b
    2400:	82 87       	std	Z+10, r24	; 0x0a
    2402:	08 95       	ret

00002404 <_ZN12Adafruit_GFXC1Eii>:
    2404:	fc 01       	movw	r30, r24
    2406:	13 82       	std	Z+3, r1	; 0x03
    2408:	12 82       	std	Z+2, r1	; 0x02
    240a:	85 ec       	ldi	r24, 0xC5	; 197
    240c:	94 e0       	ldi	r25, 0x04	; 4
    240e:	91 83       	std	Z+1, r25	; 0x01
    2410:	80 83       	st	Z, r24
    2412:	75 83       	std	Z+5, r23	; 0x05
    2414:	64 83       	std	Z+4, r22	; 0x04
    2416:	57 83       	std	Z+7, r21	; 0x07
    2418:	46 83       	std	Z+6, r20	; 0x06
    241a:	71 87       	std	Z+9, r23	; 0x09
    241c:	60 87       	std	Z+8, r22	; 0x08
    241e:	53 87       	std	Z+11, r21	; 0x0b
    2420:	42 87       	std	Z+10, r20	; 0x0a
    2422:	16 8a       	std	Z+22, r1	; 0x16
    2424:	15 86       	std	Z+13, r1	; 0x0d
    2426:	14 86       	std	Z+12, r1	; 0x0c
    2428:	17 86       	std	Z+15, r1	; 0x0f
    242a:	16 86       	std	Z+14, r1	; 0x0e
    242c:	81 e0       	ldi	r24, 0x01	; 1
    242e:	85 8b       	std	Z+21, r24	; 0x15
    2430:	84 8b       	std	Z+20, r24	; 0x14
    2432:	2f ef       	ldi	r18, 0xFF	; 255
    2434:	3f ef       	ldi	r19, 0xFF	; 255
    2436:	33 8b       	std	Z+19, r19	; 0x13
    2438:	22 8b       	std	Z+18, r18	; 0x12
    243a:	31 8b       	std	Z+17, r19	; 0x11
    243c:	20 8b       	std	Z+16, r18	; 0x10
    243e:	87 8b       	std	Z+23, r24	; 0x17
    2440:	10 8e       	std	Z+24, r1	; 0x18
    2442:	12 8e       	std	Z+26, r1	; 0x1a
    2444:	11 8e       	std	Z+25, r1	; 0x19
    2446:	08 95       	ret

00002448 <_ZN12Adafruit_GFX8drawCharEiihjjhh>:
    2448:	2f 92       	push	r2
    244a:	3f 92       	push	r3
    244c:	4f 92       	push	r4
    244e:	5f 92       	push	r5
    2450:	6f 92       	push	r6
    2452:	7f 92       	push	r7
    2454:	8f 92       	push	r8
    2456:	9f 92       	push	r9
    2458:	af 92       	push	r10
    245a:	bf 92       	push	r11
    245c:	cf 92       	push	r12
    245e:	df 92       	push	r13
    2460:	ef 92       	push	r14
    2462:	ff 92       	push	r15
    2464:	0f 93       	push	r16
    2466:	1f 93       	push	r17
    2468:	cf 93       	push	r28
    246a:	df 93       	push	r29
    246c:	cd b7       	in	r28, 0x3d	; 61
    246e:	de b7       	in	r29, 0x3e	; 62
    2470:	6b 97       	sbiw	r28, 0x1b	; 27
    2472:	0f b6       	in	r0, 0x3f	; 63
    2474:	f8 94       	cli
    2476:	de bf       	out	0x3e, r29	; 62
    2478:	0f be       	out	0x3f, r0	; 63
    247a:	cd bf       	out	0x3d, r28	; 61
    247c:	9b 8f       	std	Y+27, r25	; 0x1b
    247e:	8a 8f       	std	Y+26, r24	; 0x1a
    2480:	2b 01       	movw	r4, r22
    2482:	5a 83       	std	Y+2, r21	; 0x02
    2484:	49 83       	std	Y+1, r20	; 0x01
    2486:	d2 2e       	mov	r13, r18
    2488:	19 87       	std	Y+9, r17	; 0x09
    248a:	08 87       	std	Y+8, r16	; 0x08
    248c:	47 01       	movw	r8, r14
    248e:	ab 82       	std	Y+3, r10	; 0x03
    2490:	dc 01       	movw	r26, r24
    2492:	59 96       	adiw	r26, 0x19	; 25
    2494:	2d 91       	ld	r18, X+
    2496:	3c 91       	ld	r19, X
    2498:	5a 97       	sbiw	r26, 0x1a	; 26
    249a:	21 15       	cp	r18, r1
    249c:	31 05       	cpc	r19, r1
    249e:	09 f0       	breq	.+2      	; 0x24a2 <_ZN12Adafruit_GFX8drawCharEiihjjhh+0x5a>
    24a0:	00 c1       	rjmp	.+512    	; 0x26a2 <_ZN12Adafruit_GFX8drawCharEiihjjhh+0x25a>
    24a2:	18 96       	adiw	r26, 0x08	; 8
    24a4:	8d 91       	ld	r24, X+
    24a6:	9c 91       	ld	r25, X
    24a8:	19 97       	sbiw	r26, 0x09	; 9
    24aa:	68 17       	cp	r22, r24
    24ac:	79 07       	cpc	r23, r25
    24ae:	0c f0       	brlt	.+2      	; 0x24b2 <_ZN12Adafruit_GFX8drawCharEiihjjhh+0x6a>
    24b0:	e7 c1       	rjmp	.+974    	; 0x2880 <_ZN12Adafruit_GFX8drawCharEiihjjhh+0x438>
    24b2:	1a 96       	adiw	r26, 0x0a	; 10
    24b4:	8d 91       	ld	r24, X+
    24b6:	9c 91       	ld	r25, X
    24b8:	1b 97       	sbiw	r26, 0x0b	; 11
    24ba:	48 17       	cp	r20, r24
    24bc:	59 07       	cpc	r21, r25
    24be:	0c f0       	brlt	.+2      	; 0x24c2 <_ZN12Adafruit_GFX8drawCharEiihjjhh+0x7a>
    24c0:	df c1       	rjmp	.+958    	; 0x2880 <_ZN12Adafruit_GFX8drawCharEiihjjhh+0x438>
    24c2:	2c 2c       	mov	r2, r12
    24c4:	31 2c       	mov	r3, r1
    24c6:	fb 01       	movw	r30, r22
    24c8:	26 e0       	ldi	r18, 0x06	; 6
    24ca:	c2 9e       	mul	r12, r18
    24cc:	e0 0d       	add	r30, r0
    24ce:	f1 1d       	adc	r31, r1
    24d0:	11 24       	eor	r1, r1
    24d2:	fd 87       	std	Y+13, r31	; 0x0d
    24d4:	ec 87       	std	Y+12, r30	; 0x0c
    24d6:	1e 16       	cp	r1, r30
    24d8:	1f 06       	cpc	r1, r31
    24da:	0c f0       	brlt	.+2      	; 0x24de <_ZN12Adafruit_GFX8drawCharEiihjjhh+0x96>
    24dc:	d1 c1       	rjmp	.+930    	; 0x2880 <_ZN12Adafruit_GFX8drawCharEiihjjhh+0x438>
    24de:	4a 2d       	mov	r20, r10
    24e0:	50 e0       	ldi	r21, 0x00	; 0
    24e2:	5b 87       	std	Y+11, r21	; 0x0b
    24e4:	4a 87       	std	Y+10, r20	; 0x0a
    24e6:	83 e0       	ldi	r24, 0x03	; 3
    24e8:	44 0f       	add	r20, r20
    24ea:	55 1f       	adc	r21, r21
    24ec:	8a 95       	dec	r24
    24ee:	e1 f7       	brne	.-8      	; 0x24e8 <_ZN12Adafruit_GFX8drawCharEiihjjhh+0xa0>
    24f0:	5f 87       	std	Y+15, r21	; 0x0f
    24f2:	4e 87       	std	Y+14, r20	; 0x0e
    24f4:	89 81       	ldd	r24, Y+1	; 0x01
    24f6:	9a 81       	ldd	r25, Y+2	; 0x02
    24f8:	84 0f       	add	r24, r20
    24fa:	95 1f       	adc	r25, r21
    24fc:	18 16       	cp	r1, r24
    24fe:	19 06       	cpc	r1, r25
    2500:	0c f0       	brlt	.+2      	; 0x2504 <_ZN12Adafruit_GFX8drawCharEiihjjhh+0xbc>
    2502:	be c1       	rjmp	.+892    	; 0x2880 <_ZN12Adafruit_GFX8drawCharEiihjjhh+0x438>
    2504:	58 96       	adiw	r26, 0x18	; 24
    2506:	8c 91       	ld	r24, X
    2508:	81 11       	cpse	r24, r1
    250a:	04 c0       	rjmp	.+8      	; 0x2514 <_ZN12Adafruit_GFX8drawCharEiihjjhh+0xcc>
    250c:	6f ea       	ldi	r22, 0xAF	; 175
    250e:	6d 15       	cp	r22, r13
    2510:	08 f4       	brcc	.+2      	; 0x2514 <_ZN12Adafruit_GFX8drawCharEiihjjhh+0xcc>
    2512:	d3 94       	inc	r13
    2514:	aa 8d       	ldd	r26, Y+26	; 0x1a
    2516:	bb 8d       	ldd	r27, Y+27	; 0x1b
    2518:	ed 91       	ld	r30, X+
    251a:	fc 91       	ld	r31, X
    251c:	11 97       	sbiw	r26, 0x01	; 1
    251e:	02 84       	ldd	r0, Z+10	; 0x0a
    2520:	f3 85       	ldd	r31, Z+11	; 0x0b
    2522:	e0 2d       	mov	r30, r0
    2524:	cd 01       	movw	r24, r26
    2526:	19 95       	eicall
    2528:	b5 e0       	ldi	r27, 0x05	; 5
    252a:	db 9e       	mul	r13, r27
    252c:	c0 01       	movw	r24, r0
    252e:	11 24       	eor	r1, r1
    2530:	ec 2d       	mov	r30, r12
    2532:	f0 e0       	ldi	r31, 0x00	; 0
    2534:	f9 8b       	std	Y+17, r31	; 0x11
    2536:	e8 8b       	std	Y+16, r30	; 0x10
    2538:	92 01       	movw	r18, r4
    253a:	2b 5f       	subi	r18, 0xFB	; 251
    253c:	3f 4f       	sbci	r19, 0xFF	; 255
    253e:	3b 8b       	std	Y+19, r19	; 0x13
    2540:	2a 8b       	std	Y+18, r18	; 0x12
    2542:	32 01       	movw	r6, r4
    2544:	5d 82       	std	Y+5, r5	; 0x05
    2546:	4c 82       	std	Y+4, r4	; 0x04
    2548:	ac 01       	movw	r20, r24
    254a:	44 19       	sub	r20, r4
    254c:	55 09       	sbc	r21, r5
    254e:	5d 8b       	std	Y+21, r21	; 0x15
    2550:	4c 8b       	std	Y+20, r20	; 0x14
    2552:	7b 81       	ldd	r23, Y+3	; 0x03
    2554:	67 2f       	mov	r22, r23
    2556:	70 e0       	ldi	r23, 0x00	; 0
    2558:	7f 8b       	std	Y+23, r23	; 0x17
    255a:	6e 8b       	std	Y+22, r22	; 0x16
    255c:	89 81       	ldd	r24, Y+1	; 0x01
    255e:	9a 81       	ldd	r25, Y+2	; 0x02
    2560:	08 96       	adiw	r24, 0x08	; 8
    2562:	99 8f       	std	Y+25, r25	; 0x19
    2564:	88 8f       	std	Y+24, r24	; 0x18
    2566:	ec 89       	ldd	r30, Y+20	; 0x14
    2568:	fd 89       	ldd	r31, Y+21	; 0x15
    256a:	e6 0d       	add	r30, r6
    256c:	f7 1d       	adc	r31, r7
    256e:	e0 5c       	subi	r30, 0xC0	; 192
    2570:	fd 4f       	sbci	r31, 0xFD	; 253
    2572:	d4 90       	lpm	r13, Z
    2574:	a9 81       	ldd	r26, Y+1	; 0x01
    2576:	ba 81       	ldd	r27, Y+2	; 0x02
    2578:	bf 83       	std	Y+7, r27	; 0x07
    257a:	ae 83       	std	Y+6, r26	; 0x06
    257c:	5d 01       	movw	r10, r26
    257e:	d0 fe       	sbrs	r13, 0
    2580:	16 c0       	rjmp	.+44     	; 0x25ae <_ZN12Adafruit_GFX8drawCharEiihjjhh+0x166>
    2582:	aa 8d       	ldd	r26, Y+26	; 0x1a
    2584:	bb 8d       	ldd	r27, Y+27	; 0x1b
    2586:	ed 91       	ld	r30, X+
    2588:	fc 91       	ld	r31, X
    258a:	b1 e0       	ldi	r27, 0x01	; 1
    258c:	cb 12       	cpse	r12, r27
    258e:	09 c0       	rjmp	.+18     	; 0x25a2 <_ZN12Adafruit_GFX8drawCharEiihjjhh+0x15a>
    2590:	2b 81       	ldd	r18, Y+3	; 0x03
    2592:	21 30       	cpi	r18, 0x01	; 1
    2594:	31 f4       	brne	.+12     	; 0x25a2 <_ZN12Adafruit_GFX8drawCharEiihjjhh+0x15a>
    2596:	04 84       	ldd	r0, Z+12	; 0x0c
    2598:	f5 85       	ldd	r31, Z+13	; 0x0d
    259a:	e0 2d       	mov	r30, r0
    259c:	28 85       	ldd	r18, Y+8	; 0x08
    259e:	39 85       	ldd	r19, Y+9	; 0x09
    25a0:	19 c0       	rjmp	.+50     	; 0x25d4 <_ZN12Adafruit_GFX8drawCharEiihjjhh+0x18c>
    25a2:	06 84       	ldd	r0, Z+14	; 0x0e
    25a4:	f7 85       	ldd	r31, Z+15	; 0x0f
    25a6:	e0 2d       	mov	r30, r0
    25a8:	e8 84       	ldd	r14, Y+8	; 0x08
    25aa:	f9 84       	ldd	r15, Y+9	; 0x09
    25ac:	1d c0       	rjmp	.+58     	; 0x25e8 <_ZN12Adafruit_GFX8drawCharEiihjjhh+0x1a0>
    25ae:	48 85       	ldd	r20, Y+8	; 0x08
    25b0:	59 85       	ldd	r21, Y+9	; 0x09
    25b2:	48 15       	cp	r20, r8
    25b4:	59 05       	cpc	r21, r9
    25b6:	11 f1       	breq	.+68     	; 0x25fc <_ZN12Adafruit_GFX8drawCharEiihjjhh+0x1b4>
    25b8:	aa 8d       	ldd	r26, Y+26	; 0x1a
    25ba:	bb 8d       	ldd	r27, Y+27	; 0x1b
    25bc:	ed 91       	ld	r30, X+
    25be:	fc 91       	ld	r31, X
    25c0:	b1 e0       	ldi	r27, 0x01	; 1
    25c2:	cb 12       	cpse	r12, r27
    25c4:	0d c0       	rjmp	.+26     	; 0x25e0 <_ZN12Adafruit_GFX8drawCharEiihjjhh+0x198>
    25c6:	2b 81       	ldd	r18, Y+3	; 0x03
    25c8:	21 30       	cpi	r18, 0x01	; 1
    25ca:	51 f4       	brne	.+20     	; 0x25e0 <_ZN12Adafruit_GFX8drawCharEiihjjhh+0x198>
    25cc:	04 84       	ldd	r0, Z+12	; 0x0c
    25ce:	f5 85       	ldd	r31, Z+13	; 0x0d
    25d0:	e0 2d       	mov	r30, r0
    25d2:	94 01       	movw	r18, r8
    25d4:	a5 01       	movw	r20, r10
    25d6:	b3 01       	movw	r22, r6
    25d8:	8a 8d       	ldd	r24, Y+26	; 0x1a
    25da:	9b 8d       	ldd	r25, Y+27	; 0x1b
    25dc:	19 95       	eicall
    25de:	0e c0       	rjmp	.+28     	; 0x25fc <_ZN12Adafruit_GFX8drawCharEiihjjhh+0x1b4>
    25e0:	06 84       	ldd	r0, Z+14	; 0x0e
    25e2:	f7 85       	ldd	r31, Z+15	; 0x0f
    25e4:	e0 2d       	mov	r30, r0
    25e6:	74 01       	movw	r14, r8
    25e8:	0a 85       	ldd	r16, Y+10	; 0x0a
    25ea:	1b 85       	ldd	r17, Y+11	; 0x0b
    25ec:	91 01       	movw	r18, r2
    25ee:	4e 81       	ldd	r20, Y+6	; 0x06
    25f0:	5f 81       	ldd	r21, Y+7	; 0x07
    25f2:	6c 81       	ldd	r22, Y+4	; 0x04
    25f4:	7d 81       	ldd	r23, Y+5	; 0x05
    25f6:	8a 8d       	ldd	r24, Y+26	; 0x1a
    25f8:	9b 8d       	ldd	r25, Y+27	; 0x1b
    25fa:	19 95       	eicall
    25fc:	d6 94       	lsr	r13
    25fe:	4e 81       	ldd	r20, Y+6	; 0x06
    2600:	5f 81       	ldd	r21, Y+7	; 0x07
    2602:	6e 89       	ldd	r22, Y+22	; 0x16
    2604:	7f 89       	ldd	r23, Y+23	; 0x17
    2606:	46 0f       	add	r20, r22
    2608:	57 1f       	adc	r21, r23
    260a:	5f 83       	std	Y+7, r21	; 0x07
    260c:	4e 83       	std	Y+6, r20	; 0x06
    260e:	7f ef       	ldi	r23, 0xFF	; 255
    2610:	a7 1a       	sub	r10, r23
    2612:	b7 0a       	sbc	r11, r23
    2614:	88 8d       	ldd	r24, Y+24	; 0x18
    2616:	99 8d       	ldd	r25, Y+25	; 0x19
    2618:	a8 16       	cp	r10, r24
    261a:	b9 06       	cpc	r11, r25
    261c:	09 f0       	breq	.+2      	; 0x2620 <_ZN12Adafruit_GFX8drawCharEiihjjhh+0x1d8>
    261e:	af cf       	rjmp	.-162    	; 0x257e <_ZN12Adafruit_GFX8drawCharEiihjjhh+0x136>
    2620:	ac 81       	ldd	r26, Y+4	; 0x04
    2622:	bd 81       	ldd	r27, Y+5	; 0x05
    2624:	e8 89       	ldd	r30, Y+16	; 0x10
    2626:	f9 89       	ldd	r31, Y+17	; 0x11
    2628:	ae 0f       	add	r26, r30
    262a:	bf 1f       	adc	r27, r31
    262c:	bd 83       	std	Y+5, r27	; 0x05
    262e:	ac 83       	std	Y+4, r26	; 0x04
    2630:	ff ef       	ldi	r31, 0xFF	; 255
    2632:	6f 1a       	sub	r6, r31
    2634:	7f 0a       	sbc	r7, r31
    2636:	2a 89       	ldd	r18, Y+18	; 0x12
    2638:	3b 89       	ldd	r19, Y+19	; 0x13
    263a:	62 16       	cp	r6, r18
    263c:	73 06       	cpc	r7, r19
    263e:	09 f0       	breq	.+2      	; 0x2642 <_ZN12Adafruit_GFX8drawCharEiihjjhh+0x1fa>
    2640:	92 cf       	rjmp	.-220    	; 0x2566 <_ZN12Adafruit_GFX8drawCharEiihjjhh+0x11e>
    2642:	48 85       	ldd	r20, Y+8	; 0x08
    2644:	59 85       	ldd	r21, Y+9	; 0x09
    2646:	48 15       	cp	r20, r8
    2648:	59 05       	cpc	r21, r9
    264a:	09 f4       	brne	.+2      	; 0x264e <_ZN12Adafruit_GFX8drawCharEiihjjhh+0x206>
    264c:	f7 c0       	rjmp	.+494    	; 0x283c <_ZN12Adafruit_GFX8drawCharEiihjjhh+0x3f4>
    264e:	aa 8d       	ldd	r26, Y+26	; 0x1a
    2650:	bb 8d       	ldd	r27, Y+27	; 0x1b
    2652:	ed 91       	ld	r30, X+
    2654:	fc 91       	ld	r31, X
    2656:	b1 e0       	ldi	r27, 0x01	; 1
    2658:	cb 12       	cpse	r12, r27
    265a:	12 c0       	rjmp	.+36     	; 0x2680 <_ZN12Adafruit_GFX8drawCharEiihjjhh+0x238>
    265c:	2b 81       	ldd	r18, Y+3	; 0x03
    265e:	21 30       	cpi	r18, 0x01	; 1
    2660:	79 f4       	brne	.+30     	; 0x2680 <_ZN12Adafruit_GFX8drawCharEiihjjhh+0x238>
    2662:	b2 01       	movw	r22, r4
    2664:	6b 5f       	subi	r22, 0xFB	; 251
    2666:	7f 4f       	sbci	r23, 0xFF	; 255
    2668:	00 88       	ldd	r0, Z+16	; 0x10
    266a:	f1 89       	ldd	r31, Z+17	; 0x11
    266c:	e0 2d       	mov	r30, r0
    266e:	84 01       	movw	r16, r8
    2670:	28 e0       	ldi	r18, 0x08	; 8
    2672:	30 e0       	ldi	r19, 0x00	; 0
    2674:	49 81       	ldd	r20, Y+1	; 0x01
    2676:	5a 81       	ldd	r21, Y+2	; 0x02
    2678:	8a 8d       	ldd	r24, Y+26	; 0x1a
    267a:	9b 8d       	ldd	r25, Y+27	; 0x1b
    267c:	19 95       	eicall
    267e:	de c0       	rjmp	.+444    	; 0x283c <_ZN12Adafruit_GFX8drawCharEiihjjhh+0x3f4>
    2680:	6c 85       	ldd	r22, Y+12	; 0x0c
    2682:	7d 85       	ldd	r23, Y+13	; 0x0d
    2684:	62 19       	sub	r22, r2
    2686:	73 09       	sbc	r23, r3
    2688:	06 84       	ldd	r0, Z+14	; 0x0e
    268a:	f7 85       	ldd	r31, Z+15	; 0x0f
    268c:	e0 2d       	mov	r30, r0
    268e:	74 01       	movw	r14, r8
    2690:	0e 85       	ldd	r16, Y+14	; 0x0e
    2692:	1f 85       	ldd	r17, Y+15	; 0x0f
    2694:	91 01       	movw	r18, r2
    2696:	49 81       	ldd	r20, Y+1	; 0x01
    2698:	5a 81       	ldd	r21, Y+2	; 0x02
    269a:	8a 8d       	ldd	r24, Y+26	; 0x1a
    269c:	9b 8d       	ldd	r25, Y+27	; 0x1b
    269e:	19 95       	eicall
    26a0:	cd c0       	rjmp	.+410    	; 0x283c <_ZN12Adafruit_GFX8drawCharEiihjjhh+0x3f4>
    26a2:	f9 01       	movw	r30, r18
    26a4:	34 96       	adiw	r30, 0x04	; 4
    26a6:	e4 91       	lpm	r30, Z
    26a8:	de 1a       	sub	r13, r30
    26aa:	f9 01       	movw	r30, r18
    26ac:	32 96       	adiw	r30, 0x02	; 2
    26ae:	85 91       	lpm	r24, Z+
    26b0:	94 91       	lpm	r25, Z
    26b2:	b7 e0       	ldi	r27, 0x07	; 7
    26b4:	db 9e       	mul	r13, r27
    26b6:	80 0d       	add	r24, r0
    26b8:	91 1d       	adc	r25, r1
    26ba:	11 24       	eor	r1, r1
    26bc:	f9 01       	movw	r30, r18
    26be:	25 91       	lpm	r18, Z+
    26c0:	34 91       	lpm	r19, Z
    26c2:	39 8b       	std	Y+17, r19	; 0x11
    26c4:	28 8b       	std	Y+16, r18	; 0x10
    26c6:	fc 01       	movw	r30, r24
    26c8:	25 90       	lpm	r2, Z+
    26ca:	34 90       	lpm	r3, Z
    26cc:	fc 01       	movw	r30, r24
    26ce:	32 96       	adiw	r30, 0x02	; 2
    26d0:	74 90       	lpm	r7, Z
    26d2:	31 96       	adiw	r30, 0x01	; 1
    26d4:	a4 90       	lpm	r10, Z
    26d6:	32 96       	adiw	r30, 0x02	; 2
    26d8:	94 90       	lpm	r9, Z
    26da:	31 96       	adiw	r30, 0x01	; 1
    26dc:	b4 90       	lpm	r11, Z
    26de:	31 e0       	ldi	r19, 0x01	; 1
    26e0:	3c 15       	cp	r19, r12
    26e2:	18 f0       	brcs	.+6      	; 0x26ea <_ZN12Adafruit_GFX8drawCharEiihjjhh+0x2a2>
    26e4:	4b 81       	ldd	r20, Y+3	; 0x03
    26e6:	42 30       	cpi	r20, 0x02	; 2
    26e8:	68 f0       	brcs	.+26     	; 0x2704 <_ZN12Adafruit_GFX8drawCharEiihjjhh+0x2bc>
    26ea:	69 2d       	mov	r22, r9
    26ec:	09 2c       	mov	r0, r9
    26ee:	00 0c       	add	r0, r0
    26f0:	77 0b       	sbc	r23, r23
    26f2:	7d 83       	std	Y+5, r23	; 0x05
    26f4:	6c 83       	std	Y+4, r22	; 0x04
    26f6:	8b 2d       	mov	r24, r11
    26f8:	0b 2c       	mov	r0, r11
    26fa:	00 0c       	add	r0, r0
    26fc:	99 0b       	sbc	r25, r25
    26fe:	9f 83       	std	Y+7, r25	; 0x07
    2700:	8e 83       	std	Y+6, r24	; 0x06
    2702:	04 c0       	rjmp	.+8      	; 0x270c <_ZN12Adafruit_GFX8drawCharEiihjjhh+0x2c4>
    2704:	1f 82       	std	Y+7, r1	; 0x07
    2706:	1e 82       	std	Y+6, r1	; 0x06
    2708:	1d 82       	std	Y+5, r1	; 0x05
    270a:	1c 82       	std	Y+4, r1	; 0x04
    270c:	aa 8d       	ldd	r26, Y+26	; 0x1a
    270e:	bb 8d       	ldd	r27, Y+27	; 0x1b
    2710:	ed 91       	ld	r30, X+
    2712:	fc 91       	ld	r31, X
    2714:	11 97       	sbiw	r26, 0x01	; 1
    2716:	02 84       	ldd	r0, Z+10	; 0x0a
    2718:	f3 85       	ldd	r31, Z+11	; 0x0b
    271a:	e0 2d       	mov	r30, r0
    271c:	cd 01       	movw	r24, r26
    271e:	19 95       	eicall
    2720:	61 2c       	mov	r6, r1
    2722:	d1 2c       	mov	r13, r1
    2724:	81 2c       	mov	r8, r1
    2726:	fb 81       	ldd	r31, Y+3	; 0x03
    2728:	ef 2f       	mov	r30, r31
    272a:	f0 e0       	ldi	r31, 0x00	; 0
    272c:	fb 87       	std	Y+11, r31	; 0x0b
    272e:	ea 87       	std	Y+10, r30	; 0x0a
    2730:	2c 2d       	mov	r18, r12
    2732:	30 e0       	ldi	r19, 0x00	; 0
    2734:	3d 87       	std	Y+13, r19	; 0x0d
    2736:	2c 87       	std	Y+12, r18	; 0x0c
    2738:	49 81       	ldd	r20, Y+1	; 0x01
    273a:	5a 81       	ldd	r21, Y+2	; 0x02
    273c:	4b 0d       	add	r20, r11
    273e:	51 1d       	adc	r21, r1
    2740:	b7 fc       	sbrc	r11, 7
    2742:	5a 95       	dec	r21
    2744:	5d 8b       	std	Y+21, r21	; 0x15
    2746:	4c 8b       	std	Y+20, r20	; 0x14
    2748:	b2 01       	movw	r22, r4
    274a:	69 0d       	add	r22, r9
    274c:	71 1d       	adc	r23, r1
    274e:	97 fc       	sbrc	r9, 7
    2750:	7a 95       	dec	r23
    2752:	7f 8b       	std	Y+23, r23	; 0x17
    2754:	6e 8b       	std	Y+22, r22	; 0x16
    2756:	8a 14       	cp	r8, r10
    2758:	08 f0       	brcs	.+2      	; 0x275c <_ZN12Adafruit_GFX8drawCharEiihjjhh+0x314>
    275a:	70 c0       	rjmp	.+224    	; 0x283c <_ZN12Adafruit_GFX8drawCharEiihjjhh+0x3f4>
    275c:	28 2d       	mov	r18, r8
    275e:	30 e0       	ldi	r19, 0x00	; 0
    2760:	4e 81       	ldd	r20, Y+6	; 0x06
    2762:	5f 81       	ldd	r21, Y+7	; 0x07
    2764:	42 0f       	add	r20, r18
    2766:	53 1f       	adc	r21, r19
    2768:	aa 85       	ldd	r26, Y+10	; 0x0a
    276a:	bb 85       	ldd	r27, Y+11	; 0x0b
    276c:	a4 9f       	mul	r26, r20
    276e:	c0 01       	movw	r24, r0
    2770:	a5 9f       	mul	r26, r21
    2772:	90 0d       	add	r25, r0
    2774:	b4 9f       	mul	r27, r20
    2776:	90 0d       	add	r25, r0
    2778:	11 24       	eor	r1, r1
    277a:	e9 81       	ldd	r30, Y+1	; 0x01
    277c:	fa 81       	ldd	r31, Y+2	; 0x02
    277e:	e8 0f       	add	r30, r24
    2780:	f9 1f       	adc	r31, r25
    2782:	ff 87       	std	Y+15, r31	; 0x0f
    2784:	ee 87       	std	Y+14, r30	; 0x0e
    2786:	86 2d       	mov	r24, r6
    2788:	91 2c       	mov	r9, r1
    278a:	4c 89       	ldd	r20, Y+20	; 0x14
    278c:	5d 89       	ldd	r21, Y+21	; 0x15
    278e:	42 0f       	add	r20, r18
    2790:	53 1f       	adc	r21, r19
    2792:	5b 8b       	std	Y+19, r21	; 0x13
    2794:	4a 8b       	std	Y+18, r20	; 0x12
    2796:	97 14       	cp	r9, r7
    2798:	08 f0       	brcs	.+2      	; 0x279c <_ZN12Adafruit_GFX8drawCharEiihjjhh+0x354>
    279a:	4d c0       	rjmp	.+154    	; 0x2836 <_ZN12Adafruit_GFX8drawCharEiihjjhh+0x3ee>
    279c:	bb 24       	eor	r11, r11
    279e:	b3 94       	inc	r11
    27a0:	b8 0e       	add	r11, r24
    27a2:	87 70       	andi	r24, 0x07	; 7
    27a4:	41 f4       	brne	.+16     	; 0x27b6 <_ZN12Adafruit_GFX8drawCharEiihjjhh+0x36e>
    27a6:	c1 01       	movw	r24, r2
    27a8:	01 96       	adiw	r24, 0x01	; 1
    27aa:	e8 89       	ldd	r30, Y+16	; 0x10
    27ac:	f9 89       	ldd	r31, Y+17	; 0x11
    27ae:	e2 0d       	add	r30, r2
    27b0:	f3 1d       	adc	r31, r3
    27b2:	d4 90       	lpm	r13, Z
    27b4:	1c 01       	movw	r2, r24
    27b6:	d7 fe       	sbrs	r13, 7
    27b8:	3a c0       	rjmp	.+116    	; 0x282e <_ZN12Adafruit_GFX8drawCharEiihjjhh+0x3e6>
    27ba:	51 e0       	ldi	r21, 0x01	; 1
    27bc:	c5 12       	cpse	r12, r21
    27be:	16 c0       	rjmp	.+44     	; 0x27ec <_ZN12Adafruit_GFX8drawCharEiihjjhh+0x3a4>
    27c0:	6b 81       	ldd	r22, Y+3	; 0x03
    27c2:	61 30       	cpi	r22, 0x01	; 1
    27c4:	99 f4       	brne	.+38     	; 0x27ec <_ZN12Adafruit_GFX8drawCharEiihjjhh+0x3a4>
    27c6:	aa 8d       	ldd	r26, Y+26	; 0x1a
    27c8:	bb 8d       	ldd	r27, Y+27	; 0x1b
    27ca:	ed 91       	ld	r30, X+
    27cc:	fc 91       	ld	r31, X
    27ce:	11 97       	sbiw	r26, 0x01	; 1
    27d0:	04 84       	ldd	r0, Z+12	; 0x0c
    27d2:	f5 85       	ldd	r31, Z+13	; 0x0d
    27d4:	e0 2d       	mov	r30, r0
    27d6:	28 85       	ldd	r18, Y+8	; 0x08
    27d8:	39 85       	ldd	r19, Y+9	; 0x09
    27da:	4a 89       	ldd	r20, Y+18	; 0x12
    27dc:	5b 89       	ldd	r21, Y+19	; 0x13
    27de:	6e 89       	ldd	r22, Y+22	; 0x16
    27e0:	7f 89       	ldd	r23, Y+23	; 0x17
    27e2:	69 0d       	add	r22, r9
    27e4:	71 1d       	adc	r23, r1
    27e6:	cd 01       	movw	r24, r26
    27e8:	19 95       	eicall
    27ea:	21 c0       	rjmp	.+66     	; 0x282e <_ZN12Adafruit_GFX8drawCharEiihjjhh+0x3e6>
    27ec:	8c 81       	ldd	r24, Y+4	; 0x04
    27ee:	9d 81       	ldd	r25, Y+5	; 0x05
    27f0:	89 0d       	add	r24, r9
    27f2:	91 1d       	adc	r25, r1
    27f4:	ec 85       	ldd	r30, Y+12	; 0x0c
    27f6:	fd 85       	ldd	r31, Y+13	; 0x0d
    27f8:	8e 9f       	mul	r24, r30
    27fa:	b0 01       	movw	r22, r0
    27fc:	8f 9f       	mul	r24, r31
    27fe:	70 0d       	add	r23, r0
    2800:	9e 9f       	mul	r25, r30
    2802:	70 0d       	add	r23, r0
    2804:	11 24       	eor	r1, r1
    2806:	64 0d       	add	r22, r4
    2808:	75 1d       	adc	r23, r5
    280a:	aa 8d       	ldd	r26, Y+26	; 0x1a
    280c:	bb 8d       	ldd	r27, Y+27	; 0x1b
    280e:	ed 91       	ld	r30, X+
    2810:	fc 91       	ld	r31, X
    2812:	11 97       	sbiw	r26, 0x01	; 1
    2814:	06 84       	ldd	r0, Z+14	; 0x0e
    2816:	f7 85       	ldd	r31, Z+15	; 0x0f
    2818:	e0 2d       	mov	r30, r0
    281a:	e8 84       	ldd	r14, Y+8	; 0x08
    281c:	f9 84       	ldd	r15, Y+9	; 0x09
    281e:	0a 85       	ldd	r16, Y+10	; 0x0a
    2820:	1b 85       	ldd	r17, Y+11	; 0x0b
    2822:	2c 85       	ldd	r18, Y+12	; 0x0c
    2824:	3d 85       	ldd	r19, Y+13	; 0x0d
    2826:	4e 85       	ldd	r20, Y+14	; 0x0e
    2828:	5f 85       	ldd	r21, Y+15	; 0x0f
    282a:	cd 01       	movw	r24, r26
    282c:	19 95       	eicall
    282e:	dd 0c       	add	r13, r13
    2830:	93 94       	inc	r9
    2832:	8b 2d       	mov	r24, r11
    2834:	b0 cf       	rjmp	.-160    	; 0x2796 <_ZN12Adafruit_GFX8drawCharEiihjjhh+0x34e>
    2836:	67 0c       	add	r6, r7
    2838:	83 94       	inc	r8
    283a:	8d cf       	rjmp	.-230    	; 0x2756 <_ZN12Adafruit_GFX8drawCharEiihjjhh+0x30e>
    283c:	aa 8d       	ldd	r26, Y+26	; 0x1a
    283e:	bb 8d       	ldd	r27, Y+27	; 0x1b
    2840:	ed 91       	ld	r30, X+
    2842:	fc 91       	ld	r31, X
    2844:	11 97       	sbiw	r26, 0x01	; 1
    2846:	06 88       	ldd	r0, Z+22	; 0x16
    2848:	f7 89       	ldd	r31, Z+23	; 0x17
    284a:	e0 2d       	mov	r30, r0
    284c:	cd 01       	movw	r24, r26
    284e:	6b 96       	adiw	r28, 0x1b	; 27
    2850:	0f b6       	in	r0, 0x3f	; 63
    2852:	f8 94       	cli
    2854:	de bf       	out	0x3e, r29	; 62
    2856:	0f be       	out	0x3f, r0	; 63
    2858:	cd bf       	out	0x3d, r28	; 61
    285a:	df 91       	pop	r29
    285c:	cf 91       	pop	r28
    285e:	1f 91       	pop	r17
    2860:	0f 91       	pop	r16
    2862:	ff 90       	pop	r15
    2864:	ef 90       	pop	r14
    2866:	df 90       	pop	r13
    2868:	cf 90       	pop	r12
    286a:	bf 90       	pop	r11
    286c:	af 90       	pop	r10
    286e:	9f 90       	pop	r9
    2870:	8f 90       	pop	r8
    2872:	7f 90       	pop	r7
    2874:	6f 90       	pop	r6
    2876:	5f 90       	pop	r5
    2878:	4f 90       	pop	r4
    287a:	3f 90       	pop	r3
    287c:	2f 90       	pop	r2
    287e:	19 94       	eijmp
    2880:	6b 96       	adiw	r28, 0x1b	; 27
    2882:	0f b6       	in	r0, 0x3f	; 63
    2884:	f8 94       	cli
    2886:	de bf       	out	0x3e, r29	; 62
    2888:	0f be       	out	0x3f, r0	; 63
    288a:	cd bf       	out	0x3d, r28	; 61
    288c:	df 91       	pop	r29
    288e:	cf 91       	pop	r28
    2890:	1f 91       	pop	r17
    2892:	0f 91       	pop	r16
    2894:	ff 90       	pop	r15
    2896:	ef 90       	pop	r14
    2898:	df 90       	pop	r13
    289a:	cf 90       	pop	r12
    289c:	bf 90       	pop	r11
    289e:	af 90       	pop	r10
    28a0:	9f 90       	pop	r9
    28a2:	8f 90       	pop	r8
    28a4:	7f 90       	pop	r7
    28a6:	6f 90       	pop	r6
    28a8:	5f 90       	pop	r5
    28aa:	4f 90       	pop	r4
    28ac:	3f 90       	pop	r3
    28ae:	2f 90       	pop	r2
    28b0:	08 95       	ret

000028b2 <_ZN12Adafruit_GFX5writeEh>:
    28b2:	8f 92       	push	r8
    28b4:	9f 92       	push	r9
    28b6:	af 92       	push	r10
    28b8:	cf 92       	push	r12
    28ba:	ef 92       	push	r14
    28bc:	ff 92       	push	r15
    28be:	0f 93       	push	r16
    28c0:	1f 93       	push	r17
    28c2:	cf 93       	push	r28
    28c4:	df 93       	push	r29
    28c6:	ec 01       	movw	r28, r24
    28c8:	26 2f       	mov	r18, r22
    28ca:	89 8d       	ldd	r24, Y+25	; 0x19
    28cc:	9a 8d       	ldd	r25, Y+26	; 0x1a
    28ce:	00 97       	sbiw	r24, 0x00	; 0
    28d0:	09 f0       	breq	.+2      	; 0x28d4 <_ZN12Adafruit_GFX5writeEh+0x22>
    28d2:	41 c0       	rjmp	.+130    	; 0x2956 <_ZN12Adafruit_GFX5writeEh+0xa4>
    28d4:	6a 30       	cpi	r22, 0x0A	; 10
    28d6:	59 f4       	brne	.+22     	; 0x28ee <_ZN12Adafruit_GFX5writeEh+0x3c>
    28d8:	1d 86       	std	Y+13, r1	; 0x0d
    28da:	1c 86       	std	Y+12, r1	; 0x0c
    28dc:	2d 89       	ldd	r18, Y+21	; 0x15
    28de:	8e 85       	ldd	r24, Y+14	; 0x0e
    28e0:	9f 85       	ldd	r25, Y+15	; 0x0f
    28e2:	38 e0       	ldi	r19, 0x08	; 8
    28e4:	23 9f       	mul	r18, r19
    28e6:	80 0d       	add	r24, r0
    28e8:	91 1d       	adc	r25, r1
    28ea:	11 24       	eor	r1, r1
    28ec:	42 c0       	rjmp	.+132    	; 0x2972 <_ZN12Adafruit_GFX5writeEh+0xc0>
    28ee:	6d 30       	cpi	r22, 0x0D	; 13
    28f0:	09 f4       	brne	.+2      	; 0x28f4 <_ZN12Adafruit_GFX5writeEh+0x42>
    28f2:	a8 c0       	rjmp	.+336    	; 0x2a44 <_ZN12Adafruit_GFX5writeEh+0x192>
    28f4:	8f 89       	ldd	r24, Y+23	; 0x17
    28f6:	88 23       	and	r24, r24
    28f8:	c9 f0       	breq	.+50     	; 0x292c <_ZN12Adafruit_GFX5writeEh+0x7a>
    28fa:	3c 89       	ldd	r19, Y+20	; 0x14
    28fc:	8c 85       	ldd	r24, Y+12	; 0x0c
    28fe:	9d 85       	ldd	r25, Y+13	; 0x0d
    2900:	46 e0       	ldi	r20, 0x06	; 6
    2902:	34 9f       	mul	r19, r20
    2904:	80 0d       	add	r24, r0
    2906:	91 1d       	adc	r25, r1
    2908:	11 24       	eor	r1, r1
    290a:	48 85       	ldd	r20, Y+8	; 0x08
    290c:	59 85       	ldd	r21, Y+9	; 0x09
    290e:	48 17       	cp	r20, r24
    2910:	59 07       	cpc	r21, r25
    2912:	64 f4       	brge	.+24     	; 0x292c <_ZN12Adafruit_GFX5writeEh+0x7a>
    2914:	1d 86       	std	Y+13, r1	; 0x0d
    2916:	1c 86       	std	Y+12, r1	; 0x0c
    2918:	3d 89       	ldd	r19, Y+21	; 0x15
    291a:	8e 85       	ldd	r24, Y+14	; 0x0e
    291c:	9f 85       	ldd	r25, Y+15	; 0x0f
    291e:	48 e0       	ldi	r20, 0x08	; 8
    2920:	34 9f       	mul	r19, r20
    2922:	80 0d       	add	r24, r0
    2924:	91 1d       	adc	r25, r1
    2926:	11 24       	eor	r1, r1
    2928:	9f 87       	std	Y+15, r25	; 0x0f
    292a:	8e 87       	std	Y+14, r24	; 0x0e
    292c:	ea 88       	ldd	r14, Y+18	; 0x12
    292e:	fb 88       	ldd	r15, Y+19	; 0x13
    2930:	08 89       	ldd	r16, Y+16	; 0x10
    2932:	19 89       	ldd	r17, Y+17	; 0x11
    2934:	4e 85       	ldd	r20, Y+14	; 0x0e
    2936:	5f 85       	ldd	r21, Y+15	; 0x0f
    2938:	6c 85       	ldd	r22, Y+12	; 0x0c
    293a:	7d 85       	ldd	r23, Y+13	; 0x0d
    293c:	ad 88       	ldd	r10, Y+21	; 0x15
    293e:	cc 88       	ldd	r12, Y+20	; 0x14
    2940:	ce 01       	movw	r24, r28
    2942:	82 dd       	rcall	.-1276   	; 0x2448 <_ZN12Adafruit_GFX8drawCharEiihjjhh>
    2944:	2c 89       	ldd	r18, Y+20	; 0x14
    2946:	8c 85       	ldd	r24, Y+12	; 0x0c
    2948:	9d 85       	ldd	r25, Y+13	; 0x0d
    294a:	36 e0       	ldi	r19, 0x06	; 6
    294c:	23 9f       	mul	r18, r19
    294e:	80 0d       	add	r24, r0
    2950:	91 1d       	adc	r25, r1
    2952:	11 24       	eor	r1, r1
    2954:	3e c0       	rjmp	.+124    	; 0x29d2 <_ZN12Adafruit_GFX5writeEh+0x120>
    2956:	6a 30       	cpi	r22, 0x0A	; 10
    2958:	79 f4       	brne	.+30     	; 0x2978 <_ZN12Adafruit_GFX5writeEh+0xc6>
    295a:	1d 86       	std	Y+13, r1	; 0x0d
    295c:	1c 86       	std	Y+12, r1	; 0x0c
    295e:	2d 89       	ldd	r18, Y+21	; 0x15
    2960:	fc 01       	movw	r30, r24
    2962:	36 96       	adiw	r30, 0x06	; 6
    2964:	e4 91       	lpm	r30, Z
    2966:	8e 85       	ldd	r24, Y+14	; 0x0e
    2968:	9f 85       	ldd	r25, Y+15	; 0x0f
    296a:	2e 9f       	mul	r18, r30
    296c:	80 0d       	add	r24, r0
    296e:	91 1d       	adc	r25, r1
    2970:	11 24       	eor	r1, r1
    2972:	9f 87       	std	Y+15, r25	; 0x0f
    2974:	8e 87       	std	Y+14, r24	; 0x0e
    2976:	66 c0       	rjmp	.+204    	; 0x2a44 <_ZN12Adafruit_GFX5writeEh+0x192>
    2978:	6d 30       	cpi	r22, 0x0D	; 13
    297a:	09 f4       	brne	.+2      	; 0x297e <_ZN12Adafruit_GFX5writeEh+0xcc>
    297c:	63 c0       	rjmp	.+198    	; 0x2a44 <_ZN12Adafruit_GFX5writeEh+0x192>
    297e:	fc 01       	movw	r30, r24
    2980:	34 96       	adiw	r30, 0x04	; 4
    2982:	34 91       	lpm	r19, Z
    2984:	63 17       	cp	r22, r19
    2986:	08 f4       	brcc	.+2      	; 0x298a <_ZN12Adafruit_GFX5writeEh+0xd8>
    2988:	5d c0       	rjmp	.+186    	; 0x2a44 <_ZN12Adafruit_GFX5writeEh+0x192>
    298a:	31 96       	adiw	r30, 0x01	; 1
    298c:	e4 91       	lpm	r30, Z
    298e:	e6 17       	cp	r30, r22
    2990:	08 f4       	brcc	.+2      	; 0x2994 <_ZN12Adafruit_GFX5writeEh+0xe2>
    2992:	58 c0       	rjmp	.+176    	; 0x2a44 <_ZN12Adafruit_GFX5writeEh+0x192>
    2994:	46 2f       	mov	r20, r22
    2996:	43 1b       	sub	r20, r19
    2998:	34 2f       	mov	r19, r20
    299a:	fc 01       	movw	r30, r24
    299c:	32 96       	adiw	r30, 0x02	; 2
    299e:	85 90       	lpm	r8, Z+
    29a0:	94 90       	lpm	r9, Z
    29a2:	47 e0       	ldi	r20, 0x07	; 7
    29a4:	34 9f       	mul	r19, r20
    29a6:	80 0c       	add	r8, r0
    29a8:	91 1c       	adc	r9, r1
    29aa:	11 24       	eor	r1, r1
    29ac:	f4 01       	movw	r30, r8
    29ae:	32 96       	adiw	r30, 0x02	; 2
    29b0:	34 91       	lpm	r19, Z
    29b2:	31 96       	adiw	r30, 0x01	; 1
    29b4:	e4 91       	lpm	r30, Z
    29b6:	33 23       	and	r19, r19
    29b8:	11 f0       	breq	.+4      	; 0x29be <_ZN12Adafruit_GFX5writeEh+0x10c>
    29ba:	e1 11       	cpse	r30, r1
    29bc:	0d c0       	rjmp	.+26     	; 0x29d8 <_ZN12Adafruit_GFX5writeEh+0x126>
    29be:	f4 01       	movw	r30, r8
    29c0:	34 96       	adiw	r30, 0x04	; 4
    29c2:	e4 91       	lpm	r30, Z
    29c4:	2c 89       	ldd	r18, Y+20	; 0x14
    29c6:	8c 85       	ldd	r24, Y+12	; 0x0c
    29c8:	9d 85       	ldd	r25, Y+13	; 0x0d
    29ca:	e2 9f       	mul	r30, r18
    29cc:	80 0d       	add	r24, r0
    29ce:	91 1d       	adc	r25, r1
    29d0:	11 24       	eor	r1, r1
    29d2:	9d 87       	std	Y+13, r25	; 0x0d
    29d4:	8c 87       	std	Y+12, r24	; 0x0c
    29d6:	36 c0       	rjmp	.+108    	; 0x2a44 <_ZN12Adafruit_GFX5writeEh+0x192>
    29d8:	f4 01       	movw	r30, r8
    29da:	35 96       	adiw	r30, 0x05	; 5
    29dc:	44 91       	lpm	r20, Z
    29de:	5f 89       	ldd	r21, Y+23	; 0x17
    29e0:	55 23       	and	r21, r21
    29e2:	19 f1       	breq	.+70     	; 0x2a2a <_ZN12Adafruit_GFX5writeEh+0x178>
    29e4:	5c 89       	ldd	r21, Y+20	; 0x14
    29e6:	e3 2f       	mov	r30, r19
    29e8:	f0 e0       	ldi	r31, 0x00	; 0
    29ea:	e4 0f       	add	r30, r20
    29ec:	f1 1d       	adc	r31, r1
    29ee:	47 fd       	sbrc	r20, 7
    29f0:	fa 95       	dec	r31
    29f2:	5e 9f       	mul	r21, r30
    29f4:	b0 01       	movw	r22, r0
    29f6:	5f 9f       	mul	r21, r31
    29f8:	70 0d       	add	r23, r0
    29fa:	11 24       	eor	r1, r1
    29fc:	4c 85       	ldd	r20, Y+12	; 0x0c
    29fe:	5d 85       	ldd	r21, Y+13	; 0x0d
    2a00:	46 0f       	add	r20, r22
    2a02:	57 1f       	adc	r21, r23
    2a04:	68 85       	ldd	r22, Y+8	; 0x08
    2a06:	79 85       	ldd	r23, Y+9	; 0x09
    2a08:	64 17       	cp	r22, r20
    2a0a:	75 07       	cpc	r23, r21
    2a0c:	74 f4       	brge	.+28     	; 0x2a2a <_ZN12Adafruit_GFX5writeEh+0x178>
    2a0e:	1d 86       	std	Y+13, r1	; 0x0d
    2a10:	1c 86       	std	Y+12, r1	; 0x0c
    2a12:	3d 89       	ldd	r19, Y+21	; 0x15
    2a14:	fc 01       	movw	r30, r24
    2a16:	36 96       	adiw	r30, 0x06	; 6
    2a18:	e4 91       	lpm	r30, Z
    2a1a:	8e 85       	ldd	r24, Y+14	; 0x0e
    2a1c:	9f 85       	ldd	r25, Y+15	; 0x0f
    2a1e:	3e 9f       	mul	r19, r30
    2a20:	80 0d       	add	r24, r0
    2a22:	91 1d       	adc	r25, r1
    2a24:	11 24       	eor	r1, r1
    2a26:	9f 87       	std	Y+15, r25	; 0x0f
    2a28:	8e 87       	std	Y+14, r24	; 0x0e
    2a2a:	ea 88       	ldd	r14, Y+18	; 0x12
    2a2c:	fb 88       	ldd	r15, Y+19	; 0x13
    2a2e:	08 89       	ldd	r16, Y+16	; 0x10
    2a30:	19 89       	ldd	r17, Y+17	; 0x11
    2a32:	4e 85       	ldd	r20, Y+14	; 0x0e
    2a34:	5f 85       	ldd	r21, Y+15	; 0x0f
    2a36:	6c 85       	ldd	r22, Y+12	; 0x0c
    2a38:	7d 85       	ldd	r23, Y+13	; 0x0d
    2a3a:	ad 88       	ldd	r10, Y+21	; 0x15
    2a3c:	cc 88       	ldd	r12, Y+20	; 0x14
    2a3e:	ce 01       	movw	r24, r28
    2a40:	03 dd       	rcall	.-1530   	; 0x2448 <_ZN12Adafruit_GFX8drawCharEiihjjhh>
    2a42:	bd cf       	rjmp	.-134    	; 0x29be <_ZN12Adafruit_GFX5writeEh+0x10c>
    2a44:	81 e0       	ldi	r24, 0x01	; 1
    2a46:	90 e0       	ldi	r25, 0x00	; 0
    2a48:	df 91       	pop	r29
    2a4a:	cf 91       	pop	r28
    2a4c:	1f 91       	pop	r17
    2a4e:	0f 91       	pop	r16
    2a50:	ff 90       	pop	r15
    2a52:	ef 90       	pop	r14
    2a54:	cf 90       	pop	r12
    2a56:	af 90       	pop	r10
    2a58:	9f 90       	pop	r9
    2a5a:	8f 90       	pop	r8
    2a5c:	08 95       	ret

00002a5e <_ZN11SPISettingsC1Emhh>:
    2a5e:	0f 93       	push	r16
    2a60:	fc 01       	movw	r30, r24
    2a62:	80 e0       	ldi	r24, 0x00	; 0
    2a64:	92 e1       	ldi	r25, 0x12	; 18
    2a66:	aa e7       	ldi	r26, 0x7A	; 122
    2a68:	b0 e0       	ldi	r27, 0x00	; 0
    2a6a:	30 e0       	ldi	r19, 0x00	; 0
    2a6c:	48 17       	cp	r20, r24
    2a6e:	59 07       	cpc	r21, r25
    2a70:	6a 07       	cpc	r22, r26
    2a72:	7b 07       	cpc	r23, r27
    2a74:	40 f4       	brcc	.+16     	; 0x2a86 <_ZN11SPISettingsC1Emhh+0x28>
    2a76:	b6 95       	lsr	r27
    2a78:	a7 95       	ror	r26
    2a7a:	97 95       	ror	r25
    2a7c:	87 95       	ror	r24
    2a7e:	3f 5f       	subi	r19, 0xFF	; 255
    2a80:	36 30       	cpi	r19, 0x06	; 6
    2a82:	a1 f7       	brne	.-24     	; 0x2a6c <_ZN11SPISettingsC1Emhh+0xe>
    2a84:	37 e0       	ldi	r19, 0x07	; 7
    2a86:	91 e0       	ldi	r25, 0x01	; 1
    2a88:	93 27       	eor	r25, r19
    2a8a:	22 23       	and	r18, r18
    2a8c:	11 f0       	breq	.+4      	; 0x2a92 <_ZN11SPISettingsC1Emhh+0x34>
    2a8e:	20 e5       	ldi	r18, 0x50	; 80
    2a90:	01 c0       	rjmp	.+2      	; 0x2a94 <_ZN11SPISettingsC1Emhh+0x36>
    2a92:	20 e7       	ldi	r18, 0x70	; 112
    2a94:	0c 70       	andi	r16, 0x0C	; 12
    2a96:	89 2f       	mov	r24, r25
    2a98:	86 95       	lsr	r24
    2a9a:	08 2b       	or	r16, r24
    2a9c:	02 2b       	or	r16, r18
    2a9e:	00 83       	st	Z, r16
    2aa0:	91 70       	andi	r25, 0x01	; 1
    2aa2:	91 83       	std	Z+1, r25	; 0x01
    2aa4:	0f 91       	pop	r16
    2aa6:	08 95       	ret

00002aa8 <_ZN8SPIClass14endTransactionEv>:
    2aa8:	80 91 a7 07 	lds	r24, 0x07A7	; 0x8007a7 <_ZN8SPIClass13interruptModeE>
    2aac:	88 23       	and	r24, r24
    2aae:	61 f0       	breq	.+24     	; 0x2ac8 <_ZN8SPIClass14endTransactionEv+0x20>
    2ab0:	9f b7       	in	r25, 0x3f	; 63
    2ab2:	f8 94       	cli
    2ab4:	20 91 a7 07 	lds	r18, 0x07A7	; 0x8007a7 <_ZN8SPIClass13interruptModeE>
    2ab8:	80 91 a5 07 	lds	r24, 0x07A5	; 0x8007a5 <_ZN8SPIClass13interruptSaveE>
    2abc:	21 30       	cpi	r18, 0x01	; 1
    2abe:	19 f4       	brne	.+6      	; 0x2ac6 <_ZN8SPIClass14endTransactionEv+0x1e>
    2ac0:	8d bb       	out	0x1d, r24	; 29
    2ac2:	9f bf       	out	0x3f, r25	; 63
    2ac4:	08 95       	ret
    2ac6:	8f bf       	out	0x3f, r24	; 63
    2ac8:	08 95       	ret

00002aca <_ZN15Adafruit_SPITFT11SPI_CS_HIGHEv>:
    2aca:	dc 01       	movw	r26, r24
    2acc:	5b 96       	adiw	r26, 0x1b	; 27
    2ace:	ed 91       	ld	r30, X+
    2ad0:	fc 91       	ld	r31, X
    2ad2:	5c 97       	sbiw	r26, 0x1c	; 28
    2ad4:	90 81       	ld	r25, Z
    2ad6:	d1 96       	adiw	r26, 0x31	; 49
    2ad8:	8c 91       	ld	r24, X
    2ada:	89 2b       	or	r24, r25
    2adc:	80 83       	st	Z, r24
    2ade:	08 95       	ret

00002ae0 <_ZN15Adafruit_SPITFT8endWriteEv>:
    2ae0:	cf 93       	push	r28
    2ae2:	df 93       	push	r29
    2ae4:	ec 01       	movw	r28, r24
    2ae6:	8f a9       	ldd	r24, Y+55	; 0x37
    2ae8:	87 fd       	sbrc	r24, 7
    2aea:	02 c0       	rjmp	.+4      	; 0x2af0 <_ZN15Adafruit_SPITFT8endWriteEv+0x10>
    2aec:	ce 01       	movw	r24, r28
    2aee:	ed df       	rcall	.-38     	; 0x2aca <_ZN15Adafruit_SPITFT11SPI_CS_HIGHEv>
    2af0:	8d a9       	ldd	r24, Y+53	; 0x35
    2af2:	81 11       	cpse	r24, r1
    2af4:	03 c0       	rjmp	.+6      	; 0x2afc <_ZN15Adafruit_SPITFT8endWriteEv+0x1c>
    2af6:	df 91       	pop	r29
    2af8:	cf 91       	pop	r28
    2afa:	d6 cf       	rjmp	.-84     	; 0x2aa8 <_ZN8SPIClass14endTransactionEv>
    2afc:	df 91       	pop	r29
    2afe:	cf 91       	pop	r28
    2b00:	08 95       	ret

00002b02 <_ZN15Adafruit_SPITFT10SPI_CS_LOWEv>:
    2b02:	dc 01       	movw	r26, r24
    2b04:	5b 96       	adiw	r26, 0x1b	; 27
    2b06:	ed 91       	ld	r30, X+
    2b08:	fc 91       	ld	r31, X
    2b0a:	5c 97       	sbiw	r26, 0x1c	; 28
    2b0c:	90 81       	ld	r25, Z
    2b0e:	d2 96       	adiw	r26, 0x32	; 50
    2b10:	8c 91       	ld	r24, X
    2b12:	89 23       	and	r24, r25
    2b14:	80 83       	st	Z, r24
    2b16:	08 95       	ret

00002b18 <_ZN15Adafruit_SPITFT11SPI_DC_HIGHEv>:
    2b18:	dc 01       	movw	r26, r24
    2b1a:	5d 96       	adiw	r26, 0x1d	; 29
    2b1c:	ed 91       	ld	r30, X+
    2b1e:	fc 91       	ld	r31, X
    2b20:	5e 97       	sbiw	r26, 0x1e	; 30
    2b22:	90 81       	ld	r25, Z
    2b24:	d3 96       	adiw	r26, 0x33	; 51
    2b26:	8c 91       	ld	r24, X
    2b28:	89 2b       	or	r24, r25
    2b2a:	80 83       	st	Z, r24
    2b2c:	08 95       	ret

00002b2e <_ZN15Adafruit_SPITFT10SPI_DC_LOWEv>:
    2b2e:	dc 01       	movw	r26, r24
    2b30:	5d 96       	adiw	r26, 0x1d	; 29
    2b32:	ed 91       	ld	r30, X+
    2b34:	fc 91       	ld	r31, X
    2b36:	5e 97       	sbiw	r26, 0x1e	; 30
    2b38:	90 81       	ld	r25, Z
    2b3a:	d4 96       	adiw	r26, 0x34	; 52
    2b3c:	8c 91       	ld	r24, X
    2b3e:	89 23       	and	r24, r25
    2b40:	80 83       	st	Z, r24
    2b42:	08 95       	ret

00002b44 <_ZN15Adafruit_SPITFTC1EjjP8SPIClassaaa>:
    2b44:	af 92       	push	r10
    2b46:	bf 92       	push	r11
    2b48:	cf 92       	push	r12
    2b4a:	ef 92       	push	r14
    2b4c:	0f 93       	push	r16
    2b4e:	1f 93       	push	r17
    2b50:	cf 93       	push	r28
    2b52:	df 93       	push	r29
    2b54:	ec 01       	movw	r28, r24
    2b56:	59 01       	movw	r10, r18
    2b58:	55 dc       	rcall	.-1878   	; 0x2404 <_ZN12Adafruit_GFXC1Eii>
    2b5a:	81 ef       	ldi	r24, 0xF1	; 241
    2b5c:	94 e0       	ldi	r25, 0x04	; 4
    2b5e:	99 83       	std	Y+1, r25	; 0x01
    2b60:	88 83       	st	Y, r24
    2b62:	1d aa       	std	Y+53, r1	; 0x35
    2b64:	ce aa       	std	Y+54, r12	; 0x36
    2b66:	0f ab       	std	Y+55, r16	; 0x37
    2b68:	e8 ae       	std	Y+56, r14	; 0x38
    2b6a:	1a ae       	std	Y+58, r1	; 0x3a
    2b6c:	19 ae       	std	Y+57, r1	; 0x39
    2b6e:	1c ae       	std	Y+60, r1	; 0x3c
    2b70:	1b ae       	std	Y+59, r1	; 0x3b
    2b72:	1d ae       	std	Y+61, r1	; 0x3d
    2b74:	1e ae       	std	Y+62, r1	; 0x3e
    2b76:	fe 01       	movw	r30, r28
    2b78:	ff 96       	adiw	r30, 0x3f	; 63
    2b7a:	10 82       	st	Z, r1
    2b7c:	11 82       	std	Z+1, r1	; 0x01
    2b7e:	12 82       	std	Z+2, r1	; 0x02
    2b80:	13 82       	std	Z+3, r1	; 0x03
    2b82:	b8 a2       	std	Y+32, r11	; 0x20
    2b84:	af 8e       	std	Y+31, r10	; 0x1f
    2b86:	8e 2d       	mov	r24, r14
    2b88:	ee 0c       	add	r14, r14
    2b8a:	99 0b       	sbc	r25, r25
    2b8c:	fc 01       	movw	r30, r24
    2b8e:	e4 55       	subi	r30, 0x54	; 84
    2b90:	fe 4f       	sbci	r31, 0xFE	; 254
    2b92:	e4 91       	lpm	r30, Z
    2b94:	f0 e0       	ldi	r31, 0x00	; 0
    2b96:	ee 0f       	add	r30, r30
    2b98:	ff 1f       	adc	r31, r31
    2b9a:	e4 5f       	subi	r30, 0xF4	; 244
    2b9c:	fd 4f       	sbci	r31, 0xFD	; 253
    2b9e:	25 91       	lpm	r18, Z+
    2ba0:	34 91       	lpm	r19, Z
    2ba2:	3e 8f       	std	Y+30, r19	; 0x1e
    2ba4:	2d 8f       	std	Y+29, r18	; 0x1d
    2ba6:	fc 01       	movw	r30, r24
    2ba8:	ea 59       	subi	r30, 0x9A	; 154
    2baa:	fe 4f       	sbci	r31, 0xFE	; 254
    2bac:	84 91       	lpm	r24, Z
    2bae:	8b ab       	std	Y+51, r24	; 0x33
    2bb0:	07 fd       	sbrc	r16, 7
    2bb2:	16 c0       	rjmp	.+44     	; 0x2be0 <_ZN15Adafruit_SPITFTC1EjjP8SPIClassaaa+0x9c>
    2bb4:	00 2e       	mov	r0, r16
    2bb6:	00 0c       	add	r0, r0
    2bb8:	11 0b       	sbc	r17, r17
    2bba:	f8 01       	movw	r30, r16
    2bbc:	e4 55       	subi	r30, 0x54	; 84
    2bbe:	fe 4f       	sbci	r31, 0xFE	; 254
    2bc0:	e4 91       	lpm	r30, Z
    2bc2:	f0 e0       	ldi	r31, 0x00	; 0
    2bc4:	ee 0f       	add	r30, r30
    2bc6:	ff 1f       	adc	r31, r31
    2bc8:	e4 5f       	subi	r30, 0xF4	; 244
    2bca:	fd 4f       	sbci	r31, 0xFD	; 253
    2bcc:	25 91       	lpm	r18, Z+
    2bce:	34 91       	lpm	r19, Z
    2bd0:	3c 8f       	std	Y+28, r19	; 0x1c
    2bd2:	2b 8f       	std	Y+27, r18	; 0x1b
    2bd4:	f8 01       	movw	r30, r16
    2bd6:	ea 59       	subi	r30, 0x9A	; 154
    2bd8:	fe 4f       	sbci	r31, 0xFE	; 254
    2bda:	04 91       	lpm	r16, Z
    2bdc:	09 ab       	std	Y+49, r16	; 0x31
    2bde:	03 c0       	rjmp	.+6      	; 0x2be6 <_ZN15Adafruit_SPITFTC1EjjP8SPIClassaaa+0xa2>
    2be0:	3c 8f       	std	Y+28, r19	; 0x1c
    2be2:	2b 8f       	std	Y+27, r18	; 0x1b
    2be4:	19 aa       	std	Y+49, r1	; 0x31
    2be6:	99 a9       	ldd	r25, Y+49	; 0x31
    2be8:	90 95       	com	r25
    2bea:	9a ab       	std	Y+50, r25	; 0x32
    2bec:	80 95       	com	r24
    2bee:	8c ab       	std	Y+52, r24	; 0x34
    2bf0:	df 91       	pop	r29
    2bf2:	cf 91       	pop	r28
    2bf4:	1f 91       	pop	r17
    2bf6:	0f 91       	pop	r16
    2bf8:	ef 90       	pop	r14
    2bfa:	cf 90       	pop	r12
    2bfc:	bf 90       	pop	r11
    2bfe:	af 90       	pop	r10
    2c00:	08 95       	ret

00002c02 <_ZN15Adafruit_SPITFTC1Ejjaaa>:
    2c02:	cf 92       	push	r12
    2c04:	ef 92       	push	r14
    2c06:	0f 93       	push	r16
    2c08:	ce 2c       	mov	r12, r14
    2c0a:	e0 2e       	mov	r14, r16
    2c0c:	02 2f       	mov	r16, r18
    2c0e:	29 ea       	ldi	r18, 0xA9	; 169
    2c10:	37 e0       	ldi	r19, 0x07	; 7
    2c12:	98 df       	rcall	.-208    	; 0x2b44 <_ZN15Adafruit_SPITFTC1EjjP8SPIClassaaa>
    2c14:	0f 91       	pop	r16
    2c16:	ef 90       	pop	r14
    2c18:	cf 90       	pop	r12
    2c1a:	08 95       	ret

00002c1c <_ZN15Adafruit_SPITFT7initSPIEmh>:
    2c1c:	8f 92       	push	r8
    2c1e:	9f 92       	push	r9
    2c20:	af 92       	push	r10
    2c22:	bf 92       	push	r11
    2c24:	df 92       	push	r13
    2c26:	ef 92       	push	r14
    2c28:	ff 92       	push	r15
    2c2a:	0f 93       	push	r16
    2c2c:	1f 93       	push	r17
    2c2e:	cf 93       	push	r28
    2c30:	df 93       	push	r29
    2c32:	1f 92       	push	r1
    2c34:	1f 92       	push	r1
    2c36:	cd b7       	in	r28, 0x3d	; 61
    2c38:	de b7       	in	r29, 0x3e	; 62
    2c3a:	7c 01       	movw	r14, r24
    2c3c:	4a 01       	movw	r8, r20
    2c3e:	5b 01       	movw	r10, r22
    2c40:	12 2f       	mov	r17, r18
    2c42:	45 2b       	or	r20, r21
    2c44:	46 2b       	or	r20, r22
    2c46:	47 2b       	or	r20, r23
    2c48:	31 f4       	brne	.+12     	; 0x2c56 <_ZN15Adafruit_SPITFT7initSPIEmh+0x3a>
    2c4a:	81 2c       	mov	r8, r1
    2c4c:	92 e1       	ldi	r25, 0x12	; 18
    2c4e:	99 2e       	mov	r9, r25
    2c50:	9a e7       	ldi	r25, 0x7A	; 122
    2c52:	a9 2e       	mov	r10, r25
    2c54:	b1 2c       	mov	r11, r1
    2c56:	f7 01       	movw	r30, r14
    2c58:	87 a9       	ldd	r24, Z+55	; 0x37
    2c5a:	87 fd       	sbrc	r24, 7
    2c5c:	08 c0       	rjmp	.+16     	; 0x2c6e <_ZN15Adafruit_SPITFT7initSPIEmh+0x52>
    2c5e:	61 e0       	ldi	r22, 0x01	; 1
    2c60:	0e 94 68 0d 	call	0x1ad0	; 0x1ad0 <pinMode>
    2c64:	61 e0       	ldi	r22, 0x01	; 1
    2c66:	f7 01       	movw	r30, r14
    2c68:	87 a9       	ldd	r24, Z+55	; 0x37
    2c6a:	0e 94 a4 0d 	call	0x1b48	; 0x1b48 <digitalWrite>
    2c6e:	61 e0       	ldi	r22, 0x01	; 1
    2c70:	f7 01       	movw	r30, r14
    2c72:	80 ad       	ldd	r24, Z+56	; 0x38
    2c74:	0e 94 68 0d 	call	0x1ad0	; 0x1ad0 <pinMode>
    2c78:	61 e0       	ldi	r22, 0x01	; 1
    2c7a:	f7 01       	movw	r30, r14
    2c7c:	80 ad       	ldd	r24, Z+56	; 0x38
    2c7e:	0e 94 a4 0d 	call	0x1b48	; 0x1b48 <digitalWrite>
    2c82:	f7 01       	movw	r30, r14
    2c84:	85 a9       	ldd	r24, Z+53	; 0x35
    2c86:	81 11       	cpse	r24, r1
    2c88:	17 c0       	rjmp	.+46     	; 0x2cb8 <_ZN15Adafruit_SPITFT7initSPIEmh+0x9c>
    2c8a:	01 2f       	mov	r16, r17
    2c8c:	21 e0       	ldi	r18, 0x01	; 1
    2c8e:	b5 01       	movw	r22, r10
    2c90:	a4 01       	movw	r20, r8
    2c92:	ce 01       	movw	r24, r28
    2c94:	01 96       	adiw	r24, 0x01	; 1
    2c96:	e3 de       	rcall	.-570    	; 0x2a5e <_ZN11SPISettingsC1Emhh>
    2c98:	89 81       	ldd	r24, Y+1	; 0x01
    2c9a:	9a 81       	ldd	r25, Y+2	; 0x02
    2c9c:	f7 01       	movw	r30, r14
    2c9e:	92 a3       	std	Z+34, r25	; 0x22
    2ca0:	81 a3       	std	Z+33, r24	; 0x21
    2ca2:	01 2f       	mov	r16, r17
    2ca4:	10 e0       	ldi	r17, 0x00	; 0
    2ca6:	20 e0       	ldi	r18, 0x00	; 0
    2ca8:	30 e0       	ldi	r19, 0x00	; 0
    2caa:	03 a3       	std	Z+35, r16	; 0x23
    2cac:	14 a3       	std	Z+36, r17	; 0x24
    2cae:	25 a3       	std	Z+37, r18	; 0x25
    2cb0:	36 a3       	std	Z+38, r19	; 0x26
    2cb2:	0e 94 64 1f 	call	0x3ec8	; 0x3ec8 <_ZN8SPIClass5beginEv>
    2cb6:	55 c0       	rjmp	.+170    	; 0x2d62 <_ZN15Adafruit_SPITFT7initSPIEmh+0x146>
    2cb8:	81 30       	cpi	r24, 0x01	; 1
    2cba:	e1 f4       	brne	.+56     	; 0x2cf4 <_ZN15Adafruit_SPITFT7initSPIEmh+0xd8>
    2cbc:	61 e0       	ldi	r22, 0x01	; 1
    2cbe:	f7 01       	movw	r30, r14
    2cc0:	82 a5       	ldd	r24, Z+42	; 0x2a
    2cc2:	0e 94 68 0d 	call	0x1ad0	; 0x1ad0 <pinMode>
    2cc6:	60 e0       	ldi	r22, 0x00	; 0
    2cc8:	f7 01       	movw	r30, r14
    2cca:	82 a5       	ldd	r24, Z+42	; 0x2a
    2ccc:	0e 94 a4 0d 	call	0x1b48	; 0x1b48 <digitalWrite>
    2cd0:	61 e0       	ldi	r22, 0x01	; 1
    2cd2:	f7 01       	movw	r30, r14
    2cd4:	84 a5       	ldd	r24, Z+44	; 0x2c
    2cd6:	0e 94 68 0d 	call	0x1ad0	; 0x1ad0 <pinMode>
    2cda:	60 e0       	ldi	r22, 0x00	; 0
    2cdc:	f7 01       	movw	r30, r14
    2cde:	84 a5       	ldd	r24, Z+44	; 0x2c
    2ce0:	0e 94 a4 0d 	call	0x1b48	; 0x1b48 <digitalWrite>
    2ce4:	f7 01       	movw	r30, r14
    2ce6:	83 a5       	ldd	r24, Z+43	; 0x2b
    2ce8:	87 fd       	sbrc	r24, 7
    2cea:	3b c0       	rjmp	.+118    	; 0x2d62 <_ZN15Adafruit_SPITFT7initSPIEmh+0x146>
    2cec:	60 e0       	ldi	r22, 0x00	; 0
    2cee:	0e 94 68 0d 	call	0x1ad0	; 0x1ad0 <pinMode>
    2cf2:	37 c0       	rjmp	.+110    	; 0x2d62 <_ZN15Adafruit_SPITFT7initSPIEmh+0x146>
    2cf4:	0c ea       	ldi	r16, 0xAC	; 172
    2cf6:	11 e0       	ldi	r17, 0x01	; 1
    2cf8:	d1 2c       	mov	r13, r1
    2cfa:	f8 01       	movw	r30, r16
    2cfc:	84 91       	lpm	r24, Z
    2cfe:	e8 2f       	mov	r30, r24
    2d00:	f0 e0       	ldi	r31, 0x00	; 0
    2d02:	ee 0f       	add	r30, r30
    2d04:	ff 1f       	adc	r31, r31
    2d06:	e4 5f       	subi	r30, 0xF4	; 244
    2d08:	fd 4f       	sbci	r31, 0xFD	; 253
    2d0a:	85 91       	lpm	r24, Z+
    2d0c:	94 91       	lpm	r25, Z
    2d0e:	f7 01       	movw	r30, r14
    2d10:	27 8d       	ldd	r18, Z+31	; 0x1f
    2d12:	30 a1       	ldd	r19, Z+32	; 0x20
    2d14:	28 17       	cp	r18, r24
    2d16:	39 07       	cpc	r19, r25
    2d18:	41 f4       	brne	.+16     	; 0x2d2a <_ZN15Adafruit_SPITFT7initSPIEmh+0x10e>
    2d1a:	61 e0       	ldi	r22, 0x01	; 1
    2d1c:	8d 2d       	mov	r24, r13
    2d1e:	0e 94 68 0d 	call	0x1ad0	; 0x1ad0 <pinMode>
    2d22:	60 e0       	ldi	r22, 0x00	; 0
    2d24:	8d 2d       	mov	r24, r13
    2d26:	0e 94 a4 0d 	call	0x1b48	; 0x1b48 <digitalWrite>
    2d2a:	d3 94       	inc	r13
    2d2c:	0f 5f       	subi	r16, 0xFF	; 255
    2d2e:	1f 4f       	sbci	r17, 0xFF	; 255
    2d30:	f6 e4       	ldi	r31, 0x46	; 70
    2d32:	df 12       	cpse	r13, r31
    2d34:	e2 cf       	rjmp	.-60     	; 0x2cfa <_ZN15Adafruit_SPITFT7initSPIEmh+0xde>
    2d36:	61 e0       	ldi	r22, 0x01	; 1
    2d38:	f7 01       	movw	r30, r14
    2d3a:	86 a5       	ldd	r24, Z+46	; 0x2e
    2d3c:	0e 94 68 0d 	call	0x1ad0	; 0x1ad0 <pinMode>
    2d40:	61 e0       	ldi	r22, 0x01	; 1
    2d42:	f7 01       	movw	r30, r14
    2d44:	86 a5       	ldd	r24, Z+46	; 0x2e
    2d46:	0e 94 a4 0d 	call	0x1b48	; 0x1b48 <digitalWrite>
    2d4a:	f7 01       	movw	r30, r14
    2d4c:	87 a5       	ldd	r24, Z+47	; 0x2f
    2d4e:	87 fd       	sbrc	r24, 7
    2d50:	08 c0       	rjmp	.+16     	; 0x2d62 <_ZN15Adafruit_SPITFT7initSPIEmh+0x146>
    2d52:	61 e0       	ldi	r22, 0x01	; 1
    2d54:	0e 94 68 0d 	call	0x1ad0	; 0x1ad0 <pinMode>
    2d58:	61 e0       	ldi	r22, 0x01	; 1
    2d5a:	f7 01       	movw	r30, r14
    2d5c:	87 a5       	ldd	r24, Z+47	; 0x2f
    2d5e:	0e 94 a4 0d 	call	0x1b48	; 0x1b48 <digitalWrite>
    2d62:	f7 01       	movw	r30, r14
    2d64:	86 a9       	ldd	r24, Z+54	; 0x36
    2d66:	87 fd       	sbrc	r24, 7
    2d68:	24 c0       	rjmp	.+72     	; 0x2db2 <_ZN15Adafruit_SPITFT7initSPIEmh+0x196>
    2d6a:	61 e0       	ldi	r22, 0x01	; 1
    2d6c:	0e 94 68 0d 	call	0x1ad0	; 0x1ad0 <pinMode>
    2d70:	61 e0       	ldi	r22, 0x01	; 1
    2d72:	f7 01       	movw	r30, r14
    2d74:	86 a9       	ldd	r24, Z+54	; 0x36
    2d76:	0e 94 a4 0d 	call	0x1b48	; 0x1b48 <digitalWrite>
    2d7a:	64 e6       	ldi	r22, 0x64	; 100
    2d7c:	70 e0       	ldi	r23, 0x00	; 0
    2d7e:	80 e0       	ldi	r24, 0x00	; 0
    2d80:	90 e0       	ldi	r25, 0x00	; 0
    2d82:	0e 94 6b 0c 	call	0x18d6	; 0x18d6 <delay>
    2d86:	60 e0       	ldi	r22, 0x00	; 0
    2d88:	f7 01       	movw	r30, r14
    2d8a:	86 a9       	ldd	r24, Z+54	; 0x36
    2d8c:	0e 94 a4 0d 	call	0x1b48	; 0x1b48 <digitalWrite>
    2d90:	64 e6       	ldi	r22, 0x64	; 100
    2d92:	70 e0       	ldi	r23, 0x00	; 0
    2d94:	80 e0       	ldi	r24, 0x00	; 0
    2d96:	90 e0       	ldi	r25, 0x00	; 0
    2d98:	0e 94 6b 0c 	call	0x18d6	; 0x18d6 <delay>
    2d9c:	61 e0       	ldi	r22, 0x01	; 1
    2d9e:	f7 01       	movw	r30, r14
    2da0:	86 a9       	ldd	r24, Z+54	; 0x36
    2da2:	0e 94 a4 0d 	call	0x1b48	; 0x1b48 <digitalWrite>
    2da6:	68 ec       	ldi	r22, 0xC8	; 200
    2da8:	70 e0       	ldi	r23, 0x00	; 0
    2daa:	80 e0       	ldi	r24, 0x00	; 0
    2dac:	90 e0       	ldi	r25, 0x00	; 0
    2dae:	0e 94 6b 0c 	call	0x18d6	; 0x18d6 <delay>
    2db2:	0f 90       	pop	r0
    2db4:	0f 90       	pop	r0
    2db6:	df 91       	pop	r29
    2db8:	cf 91       	pop	r28
    2dba:	1f 91       	pop	r17
    2dbc:	0f 91       	pop	r16
    2dbe:	ff 90       	pop	r15
    2dc0:	ef 90       	pop	r14
    2dc2:	df 90       	pop	r13
    2dc4:	bf 90       	pop	r11
    2dc6:	af 90       	pop	r10
    2dc8:	9f 90       	pop	r9
    2dca:	8f 90       	pop	r8
    2dcc:	08 95       	ret

00002dce <_ZN15Adafruit_SPITFT21SPI_BEGIN_TRANSACTIONEv>:
    2dce:	fc 01       	movw	r30, r24
    2dd0:	85 a9       	ldd	r24, Z+53	; 0x35
    2dd2:	81 11       	cpse	r24, r1
    2dd4:	1b c0       	rjmp	.+54     	; 0x2e0c <_ZN15Adafruit_SPITFT21SPI_BEGIN_TRANSACTIONEv+0x3e>
    2dd6:	41 a1       	ldd	r20, Z+33	; 0x21
    2dd8:	32 a1       	ldd	r19, Z+34	; 0x22
    2dda:	80 91 a7 07 	lds	r24, 0x07A7	; 0x8007a7 <_ZN8SPIClass13interruptModeE>
    2dde:	88 23       	and	r24, r24
    2de0:	99 f0       	breq	.+38     	; 0x2e08 <_ZN15Adafruit_SPITFT21SPI_BEGIN_TRANSACTIONEv+0x3a>
    2de2:	2f b7       	in	r18, 0x3f	; 63
    2de4:	f8 94       	cli
    2de6:	80 91 a7 07 	lds	r24, 0x07A7	; 0x8007a7 <_ZN8SPIClass13interruptModeE>
    2dea:	81 30       	cpi	r24, 0x01	; 1
    2dec:	59 f4       	brne	.+22     	; 0x2e04 <_ZN15Adafruit_SPITFT21SPI_BEGIN_TRANSACTIONEv+0x36>
    2dee:	8d b3       	in	r24, 0x1d	; 29
    2df0:	80 93 a5 07 	sts	0x07A5, r24	; 0x8007a5 <_ZN8SPIClass13interruptSaveE>
    2df4:	9d b3       	in	r25, 0x1d	; 29
    2df6:	80 91 a6 07 	lds	r24, 0x07A6	; 0x8007a6 <_ZN8SPIClass13interruptMaskE>
    2dfa:	80 95       	com	r24
    2dfc:	89 23       	and	r24, r25
    2dfe:	8d bb       	out	0x1d, r24	; 29
    2e00:	2f bf       	out	0x3f, r18	; 63
    2e02:	02 c0       	rjmp	.+4      	; 0x2e08 <_ZN15Adafruit_SPITFT21SPI_BEGIN_TRANSACTIONEv+0x3a>
    2e04:	20 93 a5 07 	sts	0x07A5, r18	; 0x8007a5 <_ZN8SPIClass13interruptSaveE>
    2e08:	4c bd       	out	0x2c, r20	; 44
    2e0a:	3d bd       	out	0x2d, r19	; 45
    2e0c:	08 95       	ret

00002e0e <_ZN15Adafruit_SPITFT10startWriteEv>:
    2e0e:	cf 93       	push	r28
    2e10:	df 93       	push	r29
    2e12:	ec 01       	movw	r28, r24
    2e14:	dc df       	rcall	.-72     	; 0x2dce <_ZN15Adafruit_SPITFT21SPI_BEGIN_TRANSACTIONEv>
    2e16:	8f a9       	ldd	r24, Y+55	; 0x37
    2e18:	87 fd       	sbrc	r24, 7
    2e1a:	04 c0       	rjmp	.+8      	; 0x2e24 <_ZN15Adafruit_SPITFT10startWriteEv+0x16>
    2e1c:	ce 01       	movw	r24, r28
    2e1e:	df 91       	pop	r29
    2e20:	cf 91       	pop	r28
    2e22:	6f ce       	rjmp	.-802    	; 0x2b02 <_ZN15Adafruit_SPITFT10SPI_CS_LOWEv>
    2e24:	df 91       	pop	r29
    2e26:	cf 91       	pop	r28
    2e28:	08 95       	ret

00002e2a <_ZN15Adafruit_SPITFT13SPI_MOSI_HIGHEv>:
    2e2a:	dc 01       	movw	r26, r24
    2e2c:	91 96       	adiw	r26, 0x21	; 33
    2e2e:	ed 91       	ld	r30, X+
    2e30:	fc 91       	ld	r31, X
    2e32:	92 97       	sbiw	r26, 0x22	; 34
    2e34:	90 81       	ld	r25, Z
    2e36:	95 96       	adiw	r26, 0x25	; 37
    2e38:	8c 91       	ld	r24, X
    2e3a:	89 2b       	or	r24, r25
    2e3c:	80 83       	st	Z, r24
    2e3e:	08 95       	ret

00002e40 <_ZN15Adafruit_SPITFT12SPI_MOSI_LOWEv>:
    2e40:	dc 01       	movw	r26, r24
    2e42:	91 96       	adiw	r26, 0x21	; 33
    2e44:	ed 91       	ld	r30, X+
    2e46:	fc 91       	ld	r31, X
    2e48:	92 97       	sbiw	r26, 0x22	; 34
    2e4a:	90 81       	ld	r25, Z
    2e4c:	96 96       	adiw	r26, 0x26	; 38
    2e4e:	8c 91       	ld	r24, X
    2e50:	89 23       	and	r24, r25
    2e52:	80 83       	st	Z, r24
    2e54:	08 95       	ret

00002e56 <_ZN15Adafruit_SPITFT12SPI_SCK_HIGHEv>:
    2e56:	dc 01       	movw	r26, r24
    2e58:	93 96       	adiw	r26, 0x23	; 35
    2e5a:	ed 91       	ld	r30, X+
    2e5c:	fc 91       	ld	r31, X
    2e5e:	94 97       	sbiw	r26, 0x24	; 36
    2e60:	90 81       	ld	r25, Z
    2e62:	97 96       	adiw	r26, 0x27	; 39
    2e64:	8c 91       	ld	r24, X
    2e66:	89 2b       	or	r24, r25
    2e68:	80 83       	st	Z, r24
    2e6a:	08 95       	ret

00002e6c <_ZN15Adafruit_SPITFT11SPI_SCK_LOWEv>:
    2e6c:	dc 01       	movw	r26, r24
    2e6e:	93 96       	adiw	r26, 0x23	; 35
    2e70:	ed 91       	ld	r30, X+
    2e72:	fc 91       	ld	r31, X
    2e74:	94 97       	sbiw	r26, 0x24	; 36
    2e76:	90 81       	ld	r25, Z
    2e78:	98 96       	adiw	r26, 0x28	; 40
    2e7a:	8c 91       	ld	r24, X
    2e7c:	89 23       	and	r24, r25
    2e7e:	80 83       	st	Z, r24
    2e80:	08 95       	ret

00002e82 <_ZN15Adafruit_SPITFT13TFT_WR_STROBEEv>:
    2e82:	fc 01       	movw	r30, r24
    2e84:	a5 a1       	ldd	r26, Z+37	; 0x25
    2e86:	b6 a1       	ldd	r27, Z+38	; 0x26
    2e88:	9c 91       	ld	r25, X
    2e8a:	82 a5       	ldd	r24, Z+42	; 0x2a
    2e8c:	89 23       	and	r24, r25
    2e8e:	8c 93       	st	X, r24
    2e90:	a5 a1       	ldd	r26, Z+37	; 0x25
    2e92:	b6 a1       	ldd	r27, Z+38	; 0x26
    2e94:	9c 91       	ld	r25, X
    2e96:	81 a5       	ldd	r24, Z+41	; 0x29
    2e98:	89 2b       	or	r24, r25
    2e9a:	8c 93       	st	X, r24
    2e9c:	08 95       	ret

00002e9e <_ZN15Adafruit_SPITFT8spiWriteEh>:
    2e9e:	0f 93       	push	r16
    2ea0:	1f 93       	push	r17
    2ea2:	cf 93       	push	r28
    2ea4:	df 93       	push	r29
    2ea6:	ec 01       	movw	r28, r24
    2ea8:	16 2f       	mov	r17, r22
    2eaa:	8d a9       	ldd	r24, Y+53	; 0x35
    2eac:	81 11       	cpse	r24, r1
    2eae:	05 c0       	rjmp	.+10     	; 0x2eba <_ZN15Adafruit_SPITFT8spiWriteEh+0x1c>
    2eb0:	6e bd       	out	0x2e, r22	; 46
    2eb2:	0d b4       	in	r0, 0x2d	; 45
    2eb4:	07 fe       	sbrs	r0, 7
    2eb6:	fd cf       	rjmp	.-6      	; 0x2eb2 <_ZN15Adafruit_SPITFT8spiWriteEh+0x14>
    2eb8:	1a c0       	rjmp	.+52     	; 0x2eee <_ZN15Adafruit_SPITFT8spiWriteEh+0x50>
    2eba:	81 30       	cpi	r24, 0x01	; 1
    2ebc:	79 f4       	brne	.+30     	; 0x2edc <_ZN15Adafruit_SPITFT8spiWriteEh+0x3e>
    2ebe:	08 e0       	ldi	r16, 0x08	; 8
    2ec0:	ce 01       	movw	r24, r28
    2ec2:	17 ff       	sbrs	r17, 7
    2ec4:	02 c0       	rjmp	.+4      	; 0x2eca <_ZN15Adafruit_SPITFT8spiWriteEh+0x2c>
    2ec6:	b1 df       	rcall	.-158    	; 0x2e2a <_ZN15Adafruit_SPITFT13SPI_MOSI_HIGHEv>
    2ec8:	01 c0       	rjmp	.+2      	; 0x2ecc <_ZN15Adafruit_SPITFT8spiWriteEh+0x2e>
    2eca:	ba df       	rcall	.-140    	; 0x2e40 <_ZN15Adafruit_SPITFT12SPI_MOSI_LOWEv>
    2ecc:	ce 01       	movw	r24, r28
    2ece:	c3 df       	rcall	.-122    	; 0x2e56 <_ZN15Adafruit_SPITFT12SPI_SCK_HIGHEv>
    2ed0:	11 0f       	add	r17, r17
    2ed2:	ce 01       	movw	r24, r28
    2ed4:	cb df       	rcall	.-106    	; 0x2e6c <_ZN15Adafruit_SPITFT11SPI_SCK_LOWEv>
    2ed6:	01 50       	subi	r16, 0x01	; 1
    2ed8:	99 f7       	brne	.-26     	; 0x2ec0 <_ZN15Adafruit_SPITFT8spiWriteEh+0x22>
    2eda:	09 c0       	rjmp	.+18     	; 0x2eee <_ZN15Adafruit_SPITFT8spiWriteEh+0x50>
    2edc:	ef 8d       	ldd	r30, Y+31	; 0x1f
    2ede:	f8 a1       	ldd	r31, Y+32	; 0x20
    2ee0:	60 83       	st	Z, r22
    2ee2:	ce 01       	movw	r24, r28
    2ee4:	df 91       	pop	r29
    2ee6:	cf 91       	pop	r28
    2ee8:	1f 91       	pop	r17
    2eea:	0f 91       	pop	r16
    2eec:	ca cf       	rjmp	.-108    	; 0x2e82 <_ZN15Adafruit_SPITFT13TFT_WR_STROBEEv>
    2eee:	df 91       	pop	r29
    2ef0:	cf 91       	pop	r28
    2ef2:	1f 91       	pop	r17
    2ef4:	0f 91       	pop	r16
    2ef6:	08 95       	ret

00002ef8 <_ZN15Adafruit_SPITFT12writeCommandEh>:
    2ef8:	1f 93       	push	r17
    2efa:	cf 93       	push	r28
    2efc:	df 93       	push	r29
    2efe:	ec 01       	movw	r28, r24
    2f00:	16 2f       	mov	r17, r22
    2f02:	15 de       	rcall	.-982    	; 0x2b2e <_ZN15Adafruit_SPITFT10SPI_DC_LOWEv>
    2f04:	61 2f       	mov	r22, r17
    2f06:	ce 01       	movw	r24, r28
    2f08:	ca df       	rcall	.-108    	; 0x2e9e <_ZN15Adafruit_SPITFT8spiWriteEh>
    2f0a:	ce 01       	movw	r24, r28
    2f0c:	df 91       	pop	r29
    2f0e:	cf 91       	pop	r28
    2f10:	1f 91       	pop	r17
    2f12:	02 ce       	rjmp	.-1020   	; 0x2b18 <_ZN15Adafruit_SPITFT11SPI_DC_HIGHEv>

00002f14 <_ZN15Adafruit_SPITFT13invertDisplayEb>:
    2f14:	1f 93       	push	r17
    2f16:	cf 93       	push	r28
    2f18:	df 93       	push	r29
    2f1a:	ec 01       	movw	r28, r24
    2f1c:	16 2f       	mov	r17, r22
    2f1e:	e8 81       	ld	r30, Y
    2f20:	f9 81       	ldd	r31, Y+1	; 0x01
    2f22:	02 84       	ldd	r0, Z+10	; 0x0a
    2f24:	f3 85       	ldd	r31, Z+11	; 0x0b
    2f26:	e0 2d       	mov	r30, r0
    2f28:	19 95       	eicall
    2f2a:	11 23       	and	r17, r17
    2f2c:	11 f0       	breq	.+4      	; 0x2f32 <_ZN15Adafruit_SPITFT13invertDisplayEb+0x1e>
    2f2e:	6d ad       	ldd	r22, Y+61	; 0x3d
    2f30:	01 c0       	rjmp	.+2      	; 0x2f34 <_ZN15Adafruit_SPITFT13invertDisplayEb+0x20>
    2f32:	6e ad       	ldd	r22, Y+62	; 0x3e
    2f34:	ce 01       	movw	r24, r28
    2f36:	e0 df       	rcall	.-64     	; 0x2ef8 <_ZN15Adafruit_SPITFT12writeCommandEh>
    2f38:	e8 81       	ld	r30, Y
    2f3a:	f9 81       	ldd	r31, Y+1	; 0x01
    2f3c:	06 88       	ldd	r0, Z+22	; 0x16
    2f3e:	f7 89       	ldd	r31, Z+23	; 0x17
    2f40:	e0 2d       	mov	r30, r0
    2f42:	ce 01       	movw	r24, r28
    2f44:	df 91       	pop	r29
    2f46:	cf 91       	pop	r28
    2f48:	1f 91       	pop	r17
    2f4a:	19 94       	eijmp

00002f4c <_ZN15Adafruit_SPITFT11SPI_WRITE16Ej>:
    2f4c:	ff 92       	push	r15
    2f4e:	0f 93       	push	r16
    2f50:	1f 93       	push	r17
    2f52:	cf 93       	push	r28
    2f54:	df 93       	push	r29
    2f56:	ec 01       	movw	r28, r24
    2f58:	8b 01       	movw	r16, r22
    2f5a:	8d a9       	ldd	r24, Y+53	; 0x35
    2f5c:	81 11       	cpse	r24, r1
    2f5e:	09 c0       	rjmp	.+18     	; 0x2f72 <_ZN15Adafruit_SPITFT11SPI_WRITE16Ej+0x26>
    2f60:	1e bd       	out	0x2e, r17	; 46
    2f62:	0d b4       	in	r0, 0x2d	; 45
    2f64:	07 fe       	sbrs	r0, 7
    2f66:	fd cf       	rjmp	.-6      	; 0x2f62 <_ZN15Adafruit_SPITFT11SPI_WRITE16Ej+0x16>
    2f68:	0e bd       	out	0x2e, r16	; 46
    2f6a:	0d b4       	in	r0, 0x2d	; 45
    2f6c:	07 fe       	sbrs	r0, 7
    2f6e:	fd cf       	rjmp	.-6      	; 0x2f6a <_ZN15Adafruit_SPITFT11SPI_WRITE16Ej+0x1e>
    2f70:	23 c0       	rjmp	.+70     	; 0x2fb8 <_ZN15Adafruit_SPITFT11SPI_WRITE16Ej+0x6c>
    2f72:	81 30       	cpi	r24, 0x01	; 1
    2f74:	91 f4       	brne	.+36     	; 0x2f9a <_ZN15Adafruit_SPITFT11SPI_WRITE16Ej+0x4e>
    2f76:	90 e1       	ldi	r25, 0x10	; 16
    2f78:	f9 2e       	mov	r15, r25
    2f7a:	ce 01       	movw	r24, r28
    2f7c:	17 ff       	sbrs	r17, 7
    2f7e:	02 c0       	rjmp	.+4      	; 0x2f84 <_ZN15Adafruit_SPITFT11SPI_WRITE16Ej+0x38>
    2f80:	54 df       	rcall	.-344    	; 0x2e2a <_ZN15Adafruit_SPITFT13SPI_MOSI_HIGHEv>
    2f82:	01 c0       	rjmp	.+2      	; 0x2f86 <_ZN15Adafruit_SPITFT11SPI_WRITE16Ej+0x3a>
    2f84:	5d df       	rcall	.-326    	; 0x2e40 <_ZN15Adafruit_SPITFT12SPI_MOSI_LOWEv>
    2f86:	ce 01       	movw	r24, r28
    2f88:	66 df       	rcall	.-308    	; 0x2e56 <_ZN15Adafruit_SPITFT12SPI_SCK_HIGHEv>
    2f8a:	ce 01       	movw	r24, r28
    2f8c:	6f df       	rcall	.-290    	; 0x2e6c <_ZN15Adafruit_SPITFT11SPI_SCK_LOWEv>
    2f8e:	00 0f       	add	r16, r16
    2f90:	11 1f       	adc	r17, r17
    2f92:	fa 94       	dec	r15
    2f94:	f1 10       	cpse	r15, r1
    2f96:	f1 cf       	rjmp	.-30     	; 0x2f7a <_ZN15Adafruit_SPITFT11SPI_WRITE16Ej+0x2e>
    2f98:	0f c0       	rjmp	.+30     	; 0x2fb8 <_ZN15Adafruit_SPITFT11SPI_WRITE16Ej+0x6c>
    2f9a:	ef 8d       	ldd	r30, Y+31	; 0x1f
    2f9c:	f8 a1       	ldd	r31, Y+32	; 0x20
    2f9e:	10 83       	st	Z, r17
    2fa0:	ce 01       	movw	r24, r28
    2fa2:	6f df       	rcall	.-290    	; 0x2e82 <_ZN15Adafruit_SPITFT13TFT_WR_STROBEEv>
    2fa4:	ef 8d       	ldd	r30, Y+31	; 0x1f
    2fa6:	f8 a1       	ldd	r31, Y+32	; 0x20
    2fa8:	00 83       	st	Z, r16
    2faa:	ce 01       	movw	r24, r28
    2fac:	df 91       	pop	r29
    2fae:	cf 91       	pop	r28
    2fb0:	1f 91       	pop	r17
    2fb2:	0f 91       	pop	r16
    2fb4:	ff 90       	pop	r15
    2fb6:	65 cf       	rjmp	.-310    	; 0x2e82 <_ZN15Adafruit_SPITFT13TFT_WR_STROBEEv>
    2fb8:	df 91       	pop	r29
    2fba:	cf 91       	pop	r28
    2fbc:	1f 91       	pop	r17
    2fbe:	0f 91       	pop	r16
    2fc0:	ff 90       	pop	r15
    2fc2:	08 95       	ret

00002fc4 <_ZN15Adafruit_SPITFT11sendCommandEhPhh>:
    2fc4:	cf 92       	push	r12
    2fc6:	df 92       	push	r13
    2fc8:	ef 92       	push	r14
    2fca:	ff 92       	push	r15
    2fcc:	0f 93       	push	r16
    2fce:	1f 93       	push	r17
    2fd0:	cf 93       	push	r28
    2fd2:	df 93       	push	r29
    2fd4:	ec 01       	movw	r28, r24
    2fd6:	f6 2e       	mov	r15, r22
    2fd8:	8a 01       	movw	r16, r20
    2fda:	c2 2e       	mov	r12, r18
    2fdc:	f8 de       	rcall	.-528    	; 0x2dce <_ZN15Adafruit_SPITFT21SPI_BEGIN_TRANSACTIONEv>
    2fde:	8f a9       	ldd	r24, Y+55	; 0x37
    2fe0:	87 fd       	sbrc	r24, 7
    2fe2:	02 c0       	rjmp	.+4      	; 0x2fe8 <_ZN15Adafruit_SPITFT11sendCommandEhPhh+0x24>
    2fe4:	ce 01       	movw	r24, r28
    2fe6:	8d dd       	rcall	.-1254   	; 0x2b02 <_ZN15Adafruit_SPITFT10SPI_CS_LOWEv>
    2fe8:	ce 01       	movw	r24, r28
    2fea:	a1 dd       	rcall	.-1214   	; 0x2b2e <_ZN15Adafruit_SPITFT10SPI_DC_LOWEv>
    2fec:	6f 2d       	mov	r22, r15
    2fee:	ce 01       	movw	r24, r28
    2ff0:	56 df       	rcall	.-340    	; 0x2e9e <_ZN15Adafruit_SPITFT8spiWriteEh>
    2ff2:	ce 01       	movw	r24, r28
    2ff4:	91 dd       	rcall	.-1246   	; 0x2b18 <_ZN15Adafruit_SPITFT11SPI_DC_HIGHEv>
    2ff6:	e1 2c       	mov	r14, r1
    2ff8:	f1 2c       	mov	r15, r1
    2ffa:	d1 2c       	mov	r13, r1
    2ffc:	ec 14       	cp	r14, r12
    2ffe:	fd 04       	cpc	r15, r13
    3000:	dc f4       	brge	.+54     	; 0x3038 <_ZN15Adafruit_SPITFT11sendCommandEhPhh+0x74>
    3002:	f8 01       	movw	r30, r16
    3004:	60 81       	ld	r22, Z
    3006:	ce 01       	movw	r24, r28
    3008:	4a df       	rcall	.-364    	; 0x2e9e <_ZN15Adafruit_SPITFT8spiWriteEh>
    300a:	8d a9       	ldd	r24, Y+53	; 0x35
    300c:	f8 01       	movw	r30, r16
    300e:	82 30       	cpi	r24, 0x02	; 2
    3010:	51 f4       	brne	.+20     	; 0x3026 <_ZN15Adafruit_SPITFT11sendCommandEhPhh+0x62>
    3012:	88 a9       	ldd	r24, Y+48	; 0x30
    3014:	88 23       	and	r24, r24
    3016:	39 f0       	breq	.+14     	; 0x3026 <_ZN15Adafruit_SPITFT11sendCommandEhPhh+0x62>
    3018:	61 81       	ldd	r22, Z+1	; 0x01
    301a:	72 81       	ldd	r23, Z+2	; 0x02
    301c:	ce 01       	movw	r24, r28
    301e:	96 df       	rcall	.-212    	; 0x2f4c <_ZN15Adafruit_SPITFT11SPI_WRITE16Ej>
    3020:	0d 5f       	subi	r16, 0xFD	; 253
    3022:	1f 4f       	sbci	r17, 0xFF	; 255
    3024:	05 c0       	rjmp	.+10     	; 0x3030 <_ZN15Adafruit_SPITFT11sendCommandEhPhh+0x6c>
    3026:	61 81       	ldd	r22, Z+1	; 0x01
    3028:	ce 01       	movw	r24, r28
    302a:	39 df       	rcall	.-398    	; 0x2e9e <_ZN15Adafruit_SPITFT8spiWriteEh>
    302c:	0e 5f       	subi	r16, 0xFE	; 254
    302e:	1f 4f       	sbci	r17, 0xFF	; 255
    3030:	ff ef       	ldi	r31, 0xFF	; 255
    3032:	ef 1a       	sub	r14, r31
    3034:	ff 0a       	sbc	r15, r31
    3036:	e2 cf       	rjmp	.-60     	; 0x2ffc <_ZN15Adafruit_SPITFT11sendCommandEhPhh+0x38>
    3038:	8f a9       	ldd	r24, Y+55	; 0x37
    303a:	87 fd       	sbrc	r24, 7
    303c:	02 c0       	rjmp	.+4      	; 0x3042 <_ZN15Adafruit_SPITFT11sendCommandEhPhh+0x7e>
    303e:	ce 01       	movw	r24, r28
    3040:	44 dd       	rcall	.-1400   	; 0x2aca <_ZN15Adafruit_SPITFT11SPI_CS_HIGHEv>
    3042:	8d a9       	ldd	r24, Y+53	; 0x35
    3044:	81 11       	cpse	r24, r1
    3046:	09 c0       	rjmp	.+18     	; 0x305a <_ZN15Adafruit_SPITFT11sendCommandEhPhh+0x96>
    3048:	df 91       	pop	r29
    304a:	cf 91       	pop	r28
    304c:	1f 91       	pop	r17
    304e:	0f 91       	pop	r16
    3050:	ff 90       	pop	r15
    3052:	ef 90       	pop	r14
    3054:	df 90       	pop	r13
    3056:	cf 90       	pop	r12
    3058:	27 cd       	rjmp	.-1458   	; 0x2aa8 <_ZN8SPIClass14endTransactionEv>
    305a:	df 91       	pop	r29
    305c:	cf 91       	pop	r28
    305e:	1f 91       	pop	r17
    3060:	0f 91       	pop	r16
    3062:	ff 90       	pop	r15
    3064:	ef 90       	pop	r14
    3066:	df 90       	pop	r13
    3068:	cf 90       	pop	r12
    306a:	08 95       	ret

0000306c <_ZN15Adafruit_SPITFT11sendCommandEhPKhh>:
    306c:	af 92       	push	r10
    306e:	bf 92       	push	r11
    3070:	cf 92       	push	r12
    3072:	df 92       	push	r13
    3074:	ef 92       	push	r14
    3076:	ff 92       	push	r15
    3078:	0f 93       	push	r16
    307a:	1f 93       	push	r17
    307c:	cf 93       	push	r28
    307e:	df 93       	push	r29
    3080:	ec 01       	movw	r28, r24
    3082:	f6 2e       	mov	r15, r22
    3084:	8a 01       	movw	r16, r20
    3086:	a2 2e       	mov	r10, r18
    3088:	a2 de       	rcall	.-700    	; 0x2dce <_ZN15Adafruit_SPITFT21SPI_BEGIN_TRANSACTIONEv>
    308a:	8f a9       	ldd	r24, Y+55	; 0x37
    308c:	87 fd       	sbrc	r24, 7
    308e:	02 c0       	rjmp	.+4      	; 0x3094 <_ZN15Adafruit_SPITFT11sendCommandEhPKhh+0x28>
    3090:	ce 01       	movw	r24, r28
    3092:	37 dd       	rcall	.-1426   	; 0x2b02 <_ZN15Adafruit_SPITFT10SPI_CS_LOWEv>
    3094:	ce 01       	movw	r24, r28
    3096:	4b dd       	rcall	.-1386   	; 0x2b2e <_ZN15Adafruit_SPITFT10SPI_DC_LOWEv>
    3098:	6f 2d       	mov	r22, r15
    309a:	ce 01       	movw	r24, r28
    309c:	00 df       	rcall	.-512    	; 0x2e9e <_ZN15Adafruit_SPITFT8spiWriteEh>
    309e:	ce 01       	movw	r24, r28
    30a0:	3b dd       	rcall	.-1418   	; 0x2b18 <_ZN15Adafruit_SPITFT11SPI_DC_HIGHEv>
    30a2:	c1 2c       	mov	r12, r1
    30a4:	d1 2c       	mov	r13, r1
    30a6:	b1 2c       	mov	r11, r1
    30a8:	ca 14       	cp	r12, r10
    30aa:	db 04       	cpc	r13, r11
    30ac:	d4 f4       	brge	.+52     	; 0x30e2 <_ZN15Adafruit_SPITFT11sendCommandEhPKhh+0x76>
    30ae:	8d a9       	ldd	r24, Y+53	; 0x35
    30b0:	78 01       	movw	r14, r16
    30b2:	82 30       	cpi	r24, 0x02	; 2
    30b4:	51 f4       	brne	.+20     	; 0x30ca <_ZN15Adafruit_SPITFT11sendCommandEhPKhh+0x5e>
    30b6:	88 a9       	ldd	r24, Y+48	; 0x30
    30b8:	88 23       	and	r24, r24
    30ba:	39 f0       	breq	.+14     	; 0x30ca <_ZN15Adafruit_SPITFT11sendCommandEhPKhh+0x5e>
    30bc:	f8 01       	movw	r30, r16
    30be:	61 91       	ld	r22, Z+
    30c0:	71 91       	ld	r23, Z+
    30c2:	7f 01       	movw	r14, r30
    30c4:	ce 01       	movw	r24, r28
    30c6:	42 df       	rcall	.-380    	; 0x2f4c <_ZN15Adafruit_SPITFT11SPI_WRITE16Ej>
    30c8:	07 c0       	rjmp	.+14     	; 0x30d8 <_ZN15Adafruit_SPITFT11sendCommandEhPKhh+0x6c>
    30ca:	ff ef       	ldi	r31, 0xFF	; 255
    30cc:	ef 1a       	sub	r14, r31
    30ce:	ff 0a       	sbc	r15, r31
    30d0:	f8 01       	movw	r30, r16
    30d2:	64 91       	lpm	r22, Z
    30d4:	ce 01       	movw	r24, r28
    30d6:	e3 de       	rcall	.-570    	; 0x2e9e <_ZN15Adafruit_SPITFT8spiWriteEh>
    30d8:	ff ef       	ldi	r31, 0xFF	; 255
    30da:	cf 1a       	sub	r12, r31
    30dc:	df 0a       	sbc	r13, r31
    30de:	87 01       	movw	r16, r14
    30e0:	e3 cf       	rjmp	.-58     	; 0x30a8 <_ZN15Adafruit_SPITFT11sendCommandEhPKhh+0x3c>
    30e2:	8f a9       	ldd	r24, Y+55	; 0x37
    30e4:	87 fd       	sbrc	r24, 7
    30e6:	02 c0       	rjmp	.+4      	; 0x30ec <_ZN15Adafruit_SPITFT11sendCommandEhPKhh+0x80>
    30e8:	ce 01       	movw	r24, r28
    30ea:	ef dc       	rcall	.-1570   	; 0x2aca <_ZN15Adafruit_SPITFT11SPI_CS_HIGHEv>
    30ec:	8d a9       	ldd	r24, Y+53	; 0x35
    30ee:	81 11       	cpse	r24, r1
    30f0:	0b c0       	rjmp	.+22     	; 0x3108 <_ZN15Adafruit_SPITFT11sendCommandEhPKhh+0x9c>
    30f2:	df 91       	pop	r29
    30f4:	cf 91       	pop	r28
    30f6:	1f 91       	pop	r17
    30f8:	0f 91       	pop	r16
    30fa:	ff 90       	pop	r15
    30fc:	ef 90       	pop	r14
    30fe:	df 90       	pop	r13
    3100:	cf 90       	pop	r12
    3102:	bf 90       	pop	r11
    3104:	af 90       	pop	r10
    3106:	d0 cc       	rjmp	.-1632   	; 0x2aa8 <_ZN8SPIClass14endTransactionEv>
    3108:	df 91       	pop	r29
    310a:	cf 91       	pop	r28
    310c:	1f 91       	pop	r17
    310e:	0f 91       	pop	r16
    3110:	ff 90       	pop	r15
    3112:	ef 90       	pop	r14
    3114:	df 90       	pop	r13
    3116:	cf 90       	pop	r12
    3118:	bf 90       	pop	r11
    311a:	af 90       	pop	r10
    311c:	08 95       	ret

0000311e <_ZN15Adafruit_SPITFT9drawPixelEiij>:
    311e:	af 92       	push	r10
    3120:	bf 92       	push	r11
    3122:	cf 92       	push	r12
    3124:	df 92       	push	r13
    3126:	ef 92       	push	r14
    3128:	ff 92       	push	r15
    312a:	0f 93       	push	r16
    312c:	1f 93       	push	r17
    312e:	cf 93       	push	r28
    3130:	df 93       	push	r29
    3132:	ec 01       	movw	r28, r24
    3134:	77 fd       	sbrc	r23, 7
    3136:	37 c0       	rjmp	.+110    	; 0x31a6 <_ZN15Adafruit_SPITFT9drawPixelEiij+0x88>
    3138:	88 85       	ldd	r24, Y+8	; 0x08
    313a:	99 85       	ldd	r25, Y+9	; 0x09
    313c:	68 17       	cp	r22, r24
    313e:	79 07       	cpc	r23, r25
    3140:	94 f5       	brge	.+100    	; 0x31a6 <_ZN15Adafruit_SPITFT9drawPixelEiij+0x88>
    3142:	57 fd       	sbrc	r21, 7
    3144:	30 c0       	rjmp	.+96     	; 0x31a6 <_ZN15Adafruit_SPITFT9drawPixelEiij+0x88>
    3146:	8a 85       	ldd	r24, Y+10	; 0x0a
    3148:	9b 85       	ldd	r25, Y+11	; 0x0b
    314a:	48 17       	cp	r20, r24
    314c:	59 07       	cpc	r21, r25
    314e:	5c f5       	brge	.+86     	; 0x31a6 <_ZN15Adafruit_SPITFT9drawPixelEiij+0x88>
    3150:	69 01       	movw	r12, r18
    3152:	7a 01       	movw	r14, r20
    3154:	5b 01       	movw	r10, r22
    3156:	e8 81       	ld	r30, Y
    3158:	f9 81       	ldd	r31, Y+1	; 0x01
    315a:	02 84       	ldd	r0, Z+10	; 0x0a
    315c:	f3 85       	ldd	r31, Z+11	; 0x0b
    315e:	e0 2d       	mov	r30, r0
    3160:	ce 01       	movw	r24, r28
    3162:	19 95       	eicall
    3164:	e8 81       	ld	r30, Y
    3166:	f9 81       	ldd	r31, Y+1	; 0x01
    3168:	02 a4       	ldd	r0, Z+42	; 0x2a
    316a:	f3 a5       	ldd	r31, Z+43	; 0x2b
    316c:	e0 2d       	mov	r30, r0
    316e:	01 e0       	ldi	r16, 0x01	; 1
    3170:	10 e0       	ldi	r17, 0x00	; 0
    3172:	21 e0       	ldi	r18, 0x01	; 1
    3174:	30 e0       	ldi	r19, 0x00	; 0
    3176:	a7 01       	movw	r20, r14
    3178:	b5 01       	movw	r22, r10
    317a:	ce 01       	movw	r24, r28
    317c:	19 95       	eicall
    317e:	b6 01       	movw	r22, r12
    3180:	ce 01       	movw	r24, r28
    3182:	e4 de       	rcall	.-568    	; 0x2f4c <_ZN15Adafruit_SPITFT11SPI_WRITE16Ej>
    3184:	e8 81       	ld	r30, Y
    3186:	f9 81       	ldd	r31, Y+1	; 0x01
    3188:	06 88       	ldd	r0, Z+22	; 0x16
    318a:	f7 89       	ldd	r31, Z+23	; 0x17
    318c:	e0 2d       	mov	r30, r0
    318e:	ce 01       	movw	r24, r28
    3190:	df 91       	pop	r29
    3192:	cf 91       	pop	r28
    3194:	1f 91       	pop	r17
    3196:	0f 91       	pop	r16
    3198:	ff 90       	pop	r15
    319a:	ef 90       	pop	r14
    319c:	df 90       	pop	r13
    319e:	cf 90       	pop	r12
    31a0:	bf 90       	pop	r11
    31a2:	af 90       	pop	r10
    31a4:	19 94       	eijmp
    31a6:	df 91       	pop	r29
    31a8:	cf 91       	pop	r28
    31aa:	1f 91       	pop	r17
    31ac:	0f 91       	pop	r16
    31ae:	ff 90       	pop	r15
    31b0:	ef 90       	pop	r14
    31b2:	df 90       	pop	r13
    31b4:	cf 90       	pop	r12
    31b6:	bf 90       	pop	r11
    31b8:	af 90       	pop	r10
    31ba:	08 95       	ret

000031bc <_ZN15Adafruit_SPITFT10writePixelEiij>:
    31bc:	ef 92       	push	r14
    31be:	ff 92       	push	r15
    31c0:	0f 93       	push	r16
    31c2:	1f 93       	push	r17
    31c4:	cf 93       	push	r28
    31c6:	df 93       	push	r29
    31c8:	ec 01       	movw	r28, r24
    31ca:	77 fd       	sbrc	r23, 7
    31cc:	21 c0       	rjmp	.+66     	; 0x3210 <_ZN15Adafruit_SPITFT10writePixelEiij+0x54>
    31ce:	88 85       	ldd	r24, Y+8	; 0x08
    31d0:	99 85       	ldd	r25, Y+9	; 0x09
    31d2:	68 17       	cp	r22, r24
    31d4:	79 07       	cpc	r23, r25
    31d6:	e4 f4       	brge	.+56     	; 0x3210 <_ZN15Adafruit_SPITFT10writePixelEiij+0x54>
    31d8:	57 fd       	sbrc	r21, 7
    31da:	1a c0       	rjmp	.+52     	; 0x3210 <_ZN15Adafruit_SPITFT10writePixelEiij+0x54>
    31dc:	8a 85       	ldd	r24, Y+10	; 0x0a
    31de:	9b 85       	ldd	r25, Y+11	; 0x0b
    31e0:	48 17       	cp	r20, r24
    31e2:	59 07       	cpc	r21, r25
    31e4:	ac f4       	brge	.+42     	; 0x3210 <_ZN15Adafruit_SPITFT10writePixelEiij+0x54>
    31e6:	79 01       	movw	r14, r18
    31e8:	e8 81       	ld	r30, Y
    31ea:	f9 81       	ldd	r31, Y+1	; 0x01
    31ec:	02 a4       	ldd	r0, Z+42	; 0x2a
    31ee:	f3 a5       	ldd	r31, Z+43	; 0x2b
    31f0:	e0 2d       	mov	r30, r0
    31f2:	01 e0       	ldi	r16, 0x01	; 1
    31f4:	10 e0       	ldi	r17, 0x00	; 0
    31f6:	21 e0       	ldi	r18, 0x01	; 1
    31f8:	30 e0       	ldi	r19, 0x00	; 0
    31fa:	ce 01       	movw	r24, r28
    31fc:	19 95       	eicall
    31fe:	b7 01       	movw	r22, r14
    3200:	ce 01       	movw	r24, r28
    3202:	df 91       	pop	r29
    3204:	cf 91       	pop	r28
    3206:	1f 91       	pop	r17
    3208:	0f 91       	pop	r16
    320a:	ff 90       	pop	r15
    320c:	ef 90       	pop	r14
    320e:	9e ce       	rjmp	.-708    	; 0x2f4c <_ZN15Adafruit_SPITFT11SPI_WRITE16Ej>
    3210:	df 91       	pop	r29
    3212:	cf 91       	pop	r28
    3214:	1f 91       	pop	r17
    3216:	0f 91       	pop	r16
    3218:	ff 90       	pop	r15
    321a:	ef 90       	pop	r14
    321c:	08 95       	ret

0000321e <_ZN15Adafruit_SPITFT11SPI_WRITE32Em>:
    321e:	cf 92       	push	r12
    3220:	df 92       	push	r13
    3222:	ef 92       	push	r14
    3224:	ff 92       	push	r15
    3226:	1f 93       	push	r17
    3228:	cf 93       	push	r28
    322a:	df 93       	push	r29
    322c:	ec 01       	movw	r28, r24
    322e:	6a 01       	movw	r12, r20
    3230:	7b 01       	movw	r14, r22
    3232:	8d a9       	ldd	r24, Y+53	; 0x35
    3234:	81 11       	cpse	r24, r1
    3236:	1c c0       	rjmp	.+56     	; 0x3270 <_ZN15Adafruit_SPITFT11SPI_WRITE32Em+0x52>
    3238:	8f 2d       	mov	r24, r15
    323a:	99 27       	eor	r25, r25
    323c:	aa 27       	eor	r26, r26
    323e:	bb 27       	eor	r27, r27
    3240:	8e bd       	out	0x2e, r24	; 46
    3242:	0d b4       	in	r0, 0x2d	; 45
    3244:	07 fe       	sbrs	r0, 7
    3246:	fd cf       	rjmp	.-6      	; 0x3242 <_ZN15Adafruit_SPITFT11SPI_WRITE32Em+0x24>
    3248:	c7 01       	movw	r24, r14
    324a:	aa 27       	eor	r26, r26
    324c:	bb 27       	eor	r27, r27
    324e:	8e bd       	out	0x2e, r24	; 46
    3250:	0d b4       	in	r0, 0x2d	; 45
    3252:	07 fe       	sbrs	r0, 7
    3254:	fd cf       	rjmp	.-6      	; 0x3250 <_ZN15Adafruit_SPITFT11SPI_WRITE32Em+0x32>
    3256:	bb 27       	eor	r27, r27
    3258:	af 2d       	mov	r26, r15
    325a:	9e 2d       	mov	r25, r14
    325c:	8d 2d       	mov	r24, r13
    325e:	8e bd       	out	0x2e, r24	; 46
    3260:	0d b4       	in	r0, 0x2d	; 45
    3262:	07 fe       	sbrs	r0, 7
    3264:	fd cf       	rjmp	.-6      	; 0x3260 <_ZN15Adafruit_SPITFT11SPI_WRITE32Em+0x42>
    3266:	ce bc       	out	0x2e, r12	; 46
    3268:	0d b4       	in	r0, 0x2d	; 45
    326a:	07 fe       	sbrs	r0, 7
    326c:	fd cf       	rjmp	.-6      	; 0x3268 <_ZN15Adafruit_SPITFT11SPI_WRITE32Em+0x4a>
    326e:	3a c0       	rjmp	.+116    	; 0x32e4 <_ZN15Adafruit_SPITFT11SPI_WRITE32Em+0xc6>
    3270:	81 30       	cpi	r24, 0x01	; 1
    3272:	91 f4       	brne	.+36     	; 0x3298 <_ZN15Adafruit_SPITFT11SPI_WRITE32Em+0x7a>
    3274:	10 e2       	ldi	r17, 0x20	; 32
    3276:	ce 01       	movw	r24, r28
    3278:	f7 fe       	sbrs	r15, 7
    327a:	02 c0       	rjmp	.+4      	; 0x3280 <_ZN15Adafruit_SPITFT11SPI_WRITE32Em+0x62>
    327c:	d6 dd       	rcall	.-1108   	; 0x2e2a <_ZN15Adafruit_SPITFT13SPI_MOSI_HIGHEv>
    327e:	01 c0       	rjmp	.+2      	; 0x3282 <_ZN15Adafruit_SPITFT11SPI_WRITE32Em+0x64>
    3280:	df dd       	rcall	.-1090   	; 0x2e40 <_ZN15Adafruit_SPITFT12SPI_MOSI_LOWEv>
    3282:	ce 01       	movw	r24, r28
    3284:	e8 dd       	rcall	.-1072   	; 0x2e56 <_ZN15Adafruit_SPITFT12SPI_SCK_HIGHEv>
    3286:	ce 01       	movw	r24, r28
    3288:	f1 dd       	rcall	.-1054   	; 0x2e6c <_ZN15Adafruit_SPITFT11SPI_SCK_LOWEv>
    328a:	cc 0c       	add	r12, r12
    328c:	dd 1c       	adc	r13, r13
    328e:	ee 1c       	adc	r14, r14
    3290:	ff 1c       	adc	r15, r15
    3292:	11 50       	subi	r17, 0x01	; 1
    3294:	81 f7       	brne	.-32     	; 0x3276 <_ZN15Adafruit_SPITFT11SPI_WRITE32Em+0x58>
    3296:	26 c0       	rjmp	.+76     	; 0x32e4 <_ZN15Adafruit_SPITFT11SPI_WRITE32Em+0xc6>
    3298:	ef 8d       	ldd	r30, Y+31	; 0x1f
    329a:	f8 a1       	ldd	r31, Y+32	; 0x20
    329c:	87 2f       	mov	r24, r23
    329e:	99 27       	eor	r25, r25
    32a0:	aa 27       	eor	r26, r26
    32a2:	bb 27       	eor	r27, r27
    32a4:	80 83       	st	Z, r24
    32a6:	ce 01       	movw	r24, r28
    32a8:	ec dd       	rcall	.-1064   	; 0x2e82 <_ZN15Adafruit_SPITFT13TFT_WR_STROBEEv>
    32aa:	ef 8d       	ldd	r30, Y+31	; 0x1f
    32ac:	f8 a1       	ldd	r31, Y+32	; 0x20
    32ae:	c7 01       	movw	r24, r14
    32b0:	aa 27       	eor	r26, r26
    32b2:	bb 27       	eor	r27, r27
    32b4:	80 83       	st	Z, r24
    32b6:	ce 01       	movw	r24, r28
    32b8:	e4 dd       	rcall	.-1080   	; 0x2e82 <_ZN15Adafruit_SPITFT13TFT_WR_STROBEEv>
    32ba:	ef 8d       	ldd	r30, Y+31	; 0x1f
    32bc:	f8 a1       	ldd	r31, Y+32	; 0x20
    32be:	bb 27       	eor	r27, r27
    32c0:	af 2d       	mov	r26, r15
    32c2:	9e 2d       	mov	r25, r14
    32c4:	8d 2d       	mov	r24, r13
    32c6:	80 83       	st	Z, r24
    32c8:	ce 01       	movw	r24, r28
    32ca:	db dd       	rcall	.-1098   	; 0x2e82 <_ZN15Adafruit_SPITFT13TFT_WR_STROBEEv>
    32cc:	ef 8d       	ldd	r30, Y+31	; 0x1f
    32ce:	f8 a1       	ldd	r31, Y+32	; 0x20
    32d0:	c0 82       	st	Z, r12
    32d2:	ce 01       	movw	r24, r28
    32d4:	df 91       	pop	r29
    32d6:	cf 91       	pop	r28
    32d8:	1f 91       	pop	r17
    32da:	ff 90       	pop	r15
    32dc:	ef 90       	pop	r14
    32de:	df 90       	pop	r13
    32e0:	cf 90       	pop	r12
    32e2:	cf cd       	rjmp	.-1122   	; 0x2e82 <_ZN15Adafruit_SPITFT13TFT_WR_STROBEEv>
    32e4:	df 91       	pop	r29
    32e6:	cf 91       	pop	r28
    32e8:	1f 91       	pop	r17
    32ea:	ff 90       	pop	r15
    32ec:	ef 90       	pop	r14
    32ee:	df 90       	pop	r13
    32f0:	cf 90       	pop	r12
    32f2:	08 95       	ret

000032f4 <_ZN15Adafruit_SPITFT10writeColorEjm>:
    32f4:	af 92       	push	r10
    32f6:	bf 92       	push	r11
    32f8:	cf 92       	push	r12
    32fa:	df 92       	push	r13
    32fc:	ef 92       	push	r14
    32fe:	ff 92       	push	r15
    3300:	0f 93       	push	r16
    3302:	1f 93       	push	r17
    3304:	cf 93       	push	r28
    3306:	df 93       	push	r29
    3308:	ec 01       	movw	r28, r24
    330a:	8b 01       	movw	r16, r22
    330c:	21 15       	cp	r18, r1
    330e:	31 05       	cpc	r19, r1
    3310:	41 05       	cpc	r20, r1
    3312:	51 05       	cpc	r21, r1
    3314:	09 f4       	brne	.+2      	; 0x3318 <_ZN15Adafruit_SPITFT10writeColorEjm+0x24>
    3316:	69 c0       	rjmp	.+210    	; 0x33ea <_ZN15Adafruit_SPITFT10writeColorEjm+0xf6>
    3318:	8d a9       	ldd	r24, Y+53	; 0x35
    331a:	81 11       	cpse	r24, r1
    331c:	0f c0       	rjmp	.+30     	; 0x333c <_ZN15Adafruit_SPITFT10writeColorEjm+0x48>
    331e:	21 50       	subi	r18, 0x01	; 1
    3320:	31 09       	sbc	r19, r1
    3322:	41 09       	sbc	r20, r1
    3324:	51 09       	sbc	r21, r1
    3326:	08 f4       	brcc	.+2      	; 0x332a <_ZN15Adafruit_SPITFT10writeColorEjm+0x36>
    3328:	60 c0       	rjmp	.+192    	; 0x33ea <_ZN15Adafruit_SPITFT10writeColorEjm+0xf6>
    332a:	1e bd       	out	0x2e, r17	; 46
    332c:	0d b4       	in	r0, 0x2d	; 45
    332e:	07 fe       	sbrs	r0, 7
    3330:	fd cf       	rjmp	.-6      	; 0x332c <_ZN15Adafruit_SPITFT10writeColorEjm+0x38>
    3332:	0e bd       	out	0x2e, r16	; 46
    3334:	0d b4       	in	r0, 0x2d	; 45
    3336:	07 fe       	sbrs	r0, 7
    3338:	fd cf       	rjmp	.-6      	; 0x3334 <_ZN15Adafruit_SPITFT10writeColorEjm+0x40>
    333a:	f1 cf       	rjmp	.-30     	; 0x331e <_ZN15Adafruit_SPITFT10writeColorEjm+0x2a>
    333c:	81 30       	cpi	r24, 0x01	; 1
    333e:	59 f5       	brne	.+86     	; 0x3396 <_ZN15Adafruit_SPITFT10writeColorEjm+0xa2>
    3340:	69 01       	movw	r12, r18
    3342:	7a 01       	movw	r14, r20
    3344:	a1 2e       	mov	r10, r17
    3346:	28 e0       	ldi	r18, 0x08	; 8
    3348:	b2 2e       	mov	r11, r18
    334a:	ce 01       	movw	r24, r28
    334c:	a7 fe       	sbrs	r10, 7
    334e:	02 c0       	rjmp	.+4      	; 0x3354 <_ZN15Adafruit_SPITFT10writeColorEjm+0x60>
    3350:	6c dd       	rcall	.-1320   	; 0x2e2a <_ZN15Adafruit_SPITFT13SPI_MOSI_HIGHEv>
    3352:	01 c0       	rjmp	.+2      	; 0x3356 <_ZN15Adafruit_SPITFT10writeColorEjm+0x62>
    3354:	75 dd       	rcall	.-1302   	; 0x2e40 <_ZN15Adafruit_SPITFT12SPI_MOSI_LOWEv>
    3356:	ce 01       	movw	r24, r28
    3358:	7e dd       	rcall	.-1284   	; 0x2e56 <_ZN15Adafruit_SPITFT12SPI_SCK_HIGHEv>
    335a:	ce 01       	movw	r24, r28
    335c:	87 dd       	rcall	.-1266   	; 0x2e6c <_ZN15Adafruit_SPITFT11SPI_SCK_LOWEv>
    335e:	aa 0c       	add	r10, r10
    3360:	ba 94       	dec	r11
    3362:	b1 10       	cpse	r11, r1
    3364:	f2 cf       	rjmp	.-28     	; 0x334a <_ZN15Adafruit_SPITFT10writeColorEjm+0x56>
    3366:	a0 2e       	mov	r10, r16
    3368:	98 e0       	ldi	r25, 0x08	; 8
    336a:	b9 2e       	mov	r11, r25
    336c:	ce 01       	movw	r24, r28
    336e:	a7 fe       	sbrs	r10, 7
    3370:	02 c0       	rjmp	.+4      	; 0x3376 <_ZN15Adafruit_SPITFT10writeColorEjm+0x82>
    3372:	5b dd       	rcall	.-1354   	; 0x2e2a <_ZN15Adafruit_SPITFT13SPI_MOSI_HIGHEv>
    3374:	01 c0       	rjmp	.+2      	; 0x3378 <_ZN15Adafruit_SPITFT10writeColorEjm+0x84>
    3376:	64 dd       	rcall	.-1336   	; 0x2e40 <_ZN15Adafruit_SPITFT12SPI_MOSI_LOWEv>
    3378:	ce 01       	movw	r24, r28
    337a:	6d dd       	rcall	.-1318   	; 0x2e56 <_ZN15Adafruit_SPITFT12SPI_SCK_HIGHEv>
    337c:	ce 01       	movw	r24, r28
    337e:	76 dd       	rcall	.-1300   	; 0x2e6c <_ZN15Adafruit_SPITFT11SPI_SCK_LOWEv>
    3380:	aa 0c       	add	r10, r10
    3382:	ba 94       	dec	r11
    3384:	b1 10       	cpse	r11, r1
    3386:	f2 cf       	rjmp	.-28     	; 0x336c <_ZN15Adafruit_SPITFT10writeColorEjm+0x78>
    3388:	81 e0       	ldi	r24, 0x01	; 1
    338a:	c8 1a       	sub	r12, r24
    338c:	d1 08       	sbc	r13, r1
    338e:	e1 08       	sbc	r14, r1
    3390:	f1 08       	sbc	r15, r1
    3392:	c1 f6       	brne	.-80     	; 0x3344 <_ZN15Adafruit_SPITFT10writeColorEjm+0x50>
    3394:	2a c0       	rjmp	.+84     	; 0x33ea <_ZN15Adafruit_SPITFT10writeColorEjm+0xf6>
    3396:	16 13       	cpse	r17, r22
    3398:	16 c0       	rjmp	.+44     	; 0x33c6 <_ZN15Adafruit_SPITFT10writeColorEjm+0xd2>
    339a:	ef 8d       	ldd	r30, Y+31	; 0x1f
    339c:	f8 a1       	ldd	r31, Y+32	; 0x20
    339e:	10 83       	st	Z, r17
    33a0:	69 01       	movw	r12, r18
    33a2:	7a 01       	movw	r14, r20
    33a4:	cc 0c       	add	r12, r12
    33a6:	dd 1c       	adc	r13, r13
    33a8:	ee 1c       	adc	r14, r14
    33aa:	ff 1c       	adc	r15, r15
    33ac:	c1 14       	cp	r12, r1
    33ae:	d1 04       	cpc	r13, r1
    33b0:	e1 04       	cpc	r14, r1
    33b2:	f1 04       	cpc	r15, r1
    33b4:	d1 f0       	breq	.+52     	; 0x33ea <_ZN15Adafruit_SPITFT10writeColorEjm+0xf6>
    33b6:	ce 01       	movw	r24, r28
    33b8:	64 dd       	rcall	.-1336   	; 0x2e82 <_ZN15Adafruit_SPITFT13TFT_WR_STROBEEv>
    33ba:	81 e0       	ldi	r24, 0x01	; 1
    33bc:	c8 1a       	sub	r12, r24
    33be:	d1 08       	sbc	r13, r1
    33c0:	e1 08       	sbc	r14, r1
    33c2:	f1 08       	sbc	r15, r1
    33c4:	f3 cf       	rjmp	.-26     	; 0x33ac <_ZN15Adafruit_SPITFT10writeColorEjm+0xb8>
    33c6:	69 01       	movw	r12, r18
    33c8:	7a 01       	movw	r14, r20
    33ca:	ef 8d       	ldd	r30, Y+31	; 0x1f
    33cc:	f8 a1       	ldd	r31, Y+32	; 0x20
    33ce:	10 83       	st	Z, r17
    33d0:	ce 01       	movw	r24, r28
    33d2:	57 dd       	rcall	.-1362   	; 0x2e82 <_ZN15Adafruit_SPITFT13TFT_WR_STROBEEv>
    33d4:	ef 8d       	ldd	r30, Y+31	; 0x1f
    33d6:	f8 a1       	ldd	r31, Y+32	; 0x20
    33d8:	00 83       	st	Z, r16
    33da:	ce 01       	movw	r24, r28
    33dc:	52 dd       	rcall	.-1372   	; 0x2e82 <_ZN15Adafruit_SPITFT13TFT_WR_STROBEEv>
    33de:	81 e0       	ldi	r24, 0x01	; 1
    33e0:	c8 1a       	sub	r12, r24
    33e2:	d1 08       	sbc	r13, r1
    33e4:	e1 08       	sbc	r14, r1
    33e6:	f1 08       	sbc	r15, r1
    33e8:	81 f7       	brne	.-32     	; 0x33ca <_ZN15Adafruit_SPITFT10writeColorEjm+0xd6>
    33ea:	df 91       	pop	r29
    33ec:	cf 91       	pop	r28
    33ee:	1f 91       	pop	r17
    33f0:	0f 91       	pop	r16
    33f2:	ff 90       	pop	r15
    33f4:	ef 90       	pop	r14
    33f6:	df 90       	pop	r13
    33f8:	cf 90       	pop	r12
    33fa:	bf 90       	pop	r11
    33fc:	af 90       	pop	r10
    33fe:	08 95       	ret

00003400 <_ZN15Adafruit_SPITFT23writeFillRectPreclippedEiiiij>:
    3400:	af 92       	push	r10
    3402:	bf 92       	push	r11
    3404:	cf 92       	push	r12
    3406:	df 92       	push	r13
    3408:	ef 92       	push	r14
    340a:	ff 92       	push	r15
    340c:	0f 93       	push	r16
    340e:	1f 93       	push	r17
    3410:	cf 93       	push	r28
    3412:	df 93       	push	r29
    3414:	ec 01       	movw	r28, r24
    3416:	59 01       	movw	r10, r18
    3418:	e8 81       	ld	r30, Y
    341a:	f9 81       	ldd	r31, Y+1	; 0x01
    341c:	02 a4       	ldd	r0, Z+42	; 0x2a
    341e:	f3 a5       	ldd	r31, Z+43	; 0x2b
    3420:	e0 2d       	mov	r30, r0
    3422:	19 95       	eicall
    3424:	95 01       	movw	r18, r10
    3426:	d8 01       	movw	r26, r16
    3428:	0e 94 62 24 	call	0x48c4	; 0x48c4 <__mulhisi3>
    342c:	9b 01       	movw	r18, r22
    342e:	ac 01       	movw	r20, r24
    3430:	b7 01       	movw	r22, r14
    3432:	ce 01       	movw	r24, r28
    3434:	df 91       	pop	r29
    3436:	cf 91       	pop	r28
    3438:	1f 91       	pop	r17
    343a:	0f 91       	pop	r16
    343c:	ff 90       	pop	r15
    343e:	ef 90       	pop	r14
    3440:	df 90       	pop	r13
    3442:	cf 90       	pop	r12
    3444:	bf 90       	pop	r11
    3446:	af 90       	pop	r10
    3448:	55 cf       	rjmp	.-342    	; 0x32f4 <_ZN15Adafruit_SPITFT10writeColorEjm>

0000344a <_ZN15Adafruit_SPITFT14writeFastVLineEiiij>:
    344a:	ef 92       	push	r14
    344c:	ff 92       	push	r15
    344e:	0f 93       	push	r16
    3450:	1f 93       	push	r17
    3452:	cf 93       	push	r28
    3454:	df 93       	push	r29
    3456:	77 fd       	sbrc	r23, 7
    3458:	33 c0       	rjmp	.+102    	; 0x34c0 <_ZN15Adafruit_SPITFT14writeFastVLineEiiij+0x76>
    345a:	dc 01       	movw	r26, r24
    345c:	18 96       	adiw	r26, 0x08	; 8
    345e:	ed 91       	ld	r30, X+
    3460:	fc 91       	ld	r31, X
    3462:	19 97       	sbiw	r26, 0x09	; 9
    3464:	6e 17       	cp	r22, r30
    3466:	7f 07       	cpc	r23, r31
    3468:	5c f5       	brge	.+86     	; 0x34c0 <_ZN15Adafruit_SPITFT14writeFastVLineEiiij+0x76>
    346a:	21 15       	cp	r18, r1
    346c:	31 05       	cpc	r19, r1
    346e:	41 f1       	breq	.+80     	; 0x34c0 <_ZN15Adafruit_SPITFT14writeFastVLineEiiij+0x76>
    3470:	37 ff       	sbrs	r19, 7
    3472:	07 c0       	rjmp	.+14     	; 0x3482 <_ZN15Adafruit_SPITFT14writeFastVLineEiiij+0x38>
    3474:	f9 01       	movw	r30, r18
    3476:	31 96       	adiw	r30, 0x01	; 1
    3478:	4e 0f       	add	r20, r30
    347a:	5f 1f       	adc	r21, r31
    347c:	31 95       	neg	r19
    347e:	21 95       	neg	r18
    3480:	31 09       	sbc	r19, r1
    3482:	dc 01       	movw	r26, r24
    3484:	1a 96       	adiw	r26, 0x0a	; 10
    3486:	ed 91       	ld	r30, X+
    3488:	fc 91       	ld	r31, X
    348a:	1b 97       	sbiw	r26, 0x0b	; 11
    348c:	4e 17       	cp	r20, r30
    348e:	5f 07       	cpc	r21, r31
    3490:	bc f4       	brge	.+46     	; 0x34c0 <_ZN15Adafruit_SPITFT14writeFastVLineEiiij+0x76>
    3492:	ea 01       	movw	r28, r20
    3494:	c2 0f       	add	r28, r18
    3496:	d3 1f       	adc	r29, r19
    3498:	de 01       	movw	r26, r28
    349a:	11 97       	sbiw	r26, 0x01	; 1
    349c:	b7 fd       	sbrc	r27, 7
    349e:	10 c0       	rjmp	.+32     	; 0x34c0 <_ZN15Adafruit_SPITFT14writeFastVLineEiiij+0x76>
    34a0:	57 ff       	sbrs	r21, 7
    34a2:	03 c0       	rjmp	.+6      	; 0x34aa <_ZN15Adafruit_SPITFT14writeFastVLineEiiij+0x60>
    34a4:	9e 01       	movw	r18, r28
    34a6:	40 e0       	ldi	r20, 0x00	; 0
    34a8:	50 e0       	ldi	r21, 0x00	; 0
    34aa:	ae 17       	cp	r26, r30
    34ac:	bf 07       	cpc	r27, r31
    34ae:	1c f0       	brlt	.+6      	; 0x34b6 <_ZN15Adafruit_SPITFT14writeFastVLineEiiij+0x6c>
    34b0:	9f 01       	movw	r18, r30
    34b2:	24 1b       	sub	r18, r20
    34b4:	35 0b       	sbc	r19, r21
    34b6:	78 01       	movw	r14, r16
    34b8:	89 01       	movw	r16, r18
    34ba:	21 e0       	ldi	r18, 0x01	; 1
    34bc:	30 e0       	ldi	r19, 0x00	; 0
    34be:	a0 df       	rcall	.-192    	; 0x3400 <_ZN15Adafruit_SPITFT23writeFillRectPreclippedEiiiij>
    34c0:	df 91       	pop	r29
    34c2:	cf 91       	pop	r28
    34c4:	1f 91       	pop	r17
    34c6:	0f 91       	pop	r16
    34c8:	ff 90       	pop	r15
    34ca:	ef 90       	pop	r14
    34cc:	08 95       	ret

000034ce <_ZN15Adafruit_SPITFT14writeFastHLineEiiij>:
    34ce:	ef 92       	push	r14
    34d0:	ff 92       	push	r15
    34d2:	0f 93       	push	r16
    34d4:	1f 93       	push	r17
    34d6:	cf 93       	push	r28
    34d8:	df 93       	push	r29
    34da:	57 fd       	sbrc	r21, 7
    34dc:	32 c0       	rjmp	.+100    	; 0x3542 <_ZN15Adafruit_SPITFT14writeFastHLineEiiij+0x74>
    34de:	dc 01       	movw	r26, r24
    34e0:	1a 96       	adiw	r26, 0x0a	; 10
    34e2:	ed 91       	ld	r30, X+
    34e4:	fc 91       	ld	r31, X
    34e6:	1b 97       	sbiw	r26, 0x0b	; 11
    34e8:	4e 17       	cp	r20, r30
    34ea:	5f 07       	cpc	r21, r31
    34ec:	54 f5       	brge	.+84     	; 0x3542 <_ZN15Adafruit_SPITFT14writeFastHLineEiiij+0x74>
    34ee:	21 15       	cp	r18, r1
    34f0:	31 05       	cpc	r19, r1
    34f2:	39 f1       	breq	.+78     	; 0x3542 <_ZN15Adafruit_SPITFT14writeFastHLineEiiij+0x74>
    34f4:	37 ff       	sbrs	r19, 7
    34f6:	07 c0       	rjmp	.+14     	; 0x3506 <_ZN15Adafruit_SPITFT14writeFastHLineEiiij+0x38>
    34f8:	f9 01       	movw	r30, r18
    34fa:	31 96       	adiw	r30, 0x01	; 1
    34fc:	6e 0f       	add	r22, r30
    34fe:	7f 1f       	adc	r23, r31
    3500:	31 95       	neg	r19
    3502:	21 95       	neg	r18
    3504:	31 09       	sbc	r19, r1
    3506:	dc 01       	movw	r26, r24
    3508:	18 96       	adiw	r26, 0x08	; 8
    350a:	ed 91       	ld	r30, X+
    350c:	fc 91       	ld	r31, X
    350e:	19 97       	sbiw	r26, 0x09	; 9
    3510:	6e 17       	cp	r22, r30
    3512:	7f 07       	cpc	r23, r31
    3514:	b4 f4       	brge	.+44     	; 0x3542 <_ZN15Adafruit_SPITFT14writeFastHLineEiiij+0x74>
    3516:	eb 01       	movw	r28, r22
    3518:	c2 0f       	add	r28, r18
    351a:	d3 1f       	adc	r29, r19
    351c:	de 01       	movw	r26, r28
    351e:	11 97       	sbiw	r26, 0x01	; 1
    3520:	b7 fd       	sbrc	r27, 7
    3522:	0f c0       	rjmp	.+30     	; 0x3542 <_ZN15Adafruit_SPITFT14writeFastHLineEiiij+0x74>
    3524:	77 ff       	sbrs	r23, 7
    3526:	03 c0       	rjmp	.+6      	; 0x352e <_ZN15Adafruit_SPITFT14writeFastHLineEiiij+0x60>
    3528:	9e 01       	movw	r18, r28
    352a:	60 e0       	ldi	r22, 0x00	; 0
    352c:	70 e0       	ldi	r23, 0x00	; 0
    352e:	ae 17       	cp	r26, r30
    3530:	bf 07       	cpc	r27, r31
    3532:	1c f0       	brlt	.+6      	; 0x353a <_ZN15Adafruit_SPITFT14writeFastHLineEiiij+0x6c>
    3534:	9f 01       	movw	r18, r30
    3536:	26 1b       	sub	r18, r22
    3538:	37 0b       	sbc	r19, r23
    353a:	78 01       	movw	r14, r16
    353c:	01 e0       	ldi	r16, 0x01	; 1
    353e:	10 e0       	ldi	r17, 0x00	; 0
    3540:	5f df       	rcall	.-322    	; 0x3400 <_ZN15Adafruit_SPITFT23writeFillRectPreclippedEiiiij>
    3542:	df 91       	pop	r29
    3544:	cf 91       	pop	r28
    3546:	1f 91       	pop	r17
    3548:	0f 91       	pop	r16
    354a:	ff 90       	pop	r15
    354c:	ef 90       	pop	r14
    354e:	08 95       	ret

00003550 <_ZN15Adafruit_SPITFT13drawFastVLineEiiij>:
    3550:	8f 92       	push	r8
    3552:	9f 92       	push	r9
    3554:	af 92       	push	r10
    3556:	bf 92       	push	r11
    3558:	cf 92       	push	r12
    355a:	df 92       	push	r13
    355c:	ef 92       	push	r14
    355e:	ff 92       	push	r15
    3560:	0f 93       	push	r16
    3562:	1f 93       	push	r17
    3564:	cf 93       	push	r28
    3566:	df 93       	push	r29
    3568:	5c 01       	movw	r10, r24
    356a:	4b 01       	movw	r8, r22
    356c:	6a 01       	movw	r12, r20
    356e:	e9 01       	movw	r28, r18
    3570:	77 fd       	sbrc	r23, 7
    3572:	52 c0       	rjmp	.+164    	; 0x3618 <_ZN15Adafruit_SPITFT13drawFastVLineEiiij+0xc8>
    3574:	dc 01       	movw	r26, r24
    3576:	18 96       	adiw	r26, 0x08	; 8
    3578:	8d 91       	ld	r24, X+
    357a:	9c 91       	ld	r25, X
    357c:	19 97       	sbiw	r26, 0x09	; 9
    357e:	68 17       	cp	r22, r24
    3580:	79 07       	cpc	r23, r25
    3582:	0c f0       	brlt	.+2      	; 0x3586 <_ZN15Adafruit_SPITFT13drawFastVLineEiiij+0x36>
    3584:	49 c0       	rjmp	.+146    	; 0x3618 <_ZN15Adafruit_SPITFT13drawFastVLineEiiij+0xc8>
    3586:	20 97       	sbiw	r28, 0x00	; 0
    3588:	09 f4       	brne	.+2      	; 0x358c <_ZN15Adafruit_SPITFT13drawFastVLineEiiij+0x3c>
    358a:	46 c0       	rjmp	.+140    	; 0x3618 <_ZN15Adafruit_SPITFT13drawFastVLineEiiij+0xc8>
    358c:	37 ff       	sbrs	r19, 7
    358e:	07 c0       	rjmp	.+14     	; 0x359e <_ZN15Adafruit_SPITFT13drawFastVLineEiiij+0x4e>
    3590:	c9 01       	movw	r24, r18
    3592:	01 96       	adiw	r24, 0x01	; 1
    3594:	c8 0e       	add	r12, r24
    3596:	d9 1e       	adc	r13, r25
    3598:	d1 95       	neg	r29
    359a:	c1 95       	neg	r28
    359c:	d1 09       	sbc	r29, r1
    359e:	f5 01       	movw	r30, r10
    35a0:	82 85       	ldd	r24, Z+10	; 0x0a
    35a2:	93 85       	ldd	r25, Z+11	; 0x0b
    35a4:	c8 16       	cp	r12, r24
    35a6:	d9 06       	cpc	r13, r25
    35a8:	bc f5       	brge	.+110    	; 0x3618 <_ZN15Adafruit_SPITFT13drawFastVLineEiiij+0xc8>
    35aa:	a6 01       	movw	r20, r12
    35ac:	4c 0f       	add	r20, r28
    35ae:	5d 1f       	adc	r21, r29
    35b0:	9a 01       	movw	r18, r20
    35b2:	21 50       	subi	r18, 0x01	; 1
    35b4:	31 09       	sbc	r19, r1
    35b6:	37 fd       	sbrc	r19, 7
    35b8:	2f c0       	rjmp	.+94     	; 0x3618 <_ZN15Adafruit_SPITFT13drawFastVLineEiiij+0xc8>
    35ba:	d7 fe       	sbrs	r13, 7
    35bc:	03 c0       	rjmp	.+6      	; 0x35c4 <_ZN15Adafruit_SPITFT13drawFastVLineEiiij+0x74>
    35be:	ea 01       	movw	r28, r20
    35c0:	c1 2c       	mov	r12, r1
    35c2:	d1 2c       	mov	r13, r1
    35c4:	28 17       	cp	r18, r24
    35c6:	39 07       	cpc	r19, r25
    35c8:	1c f0       	brlt	.+6      	; 0x35d0 <_ZN15Adafruit_SPITFT13drawFastVLineEiiij+0x80>
    35ca:	ec 01       	movw	r28, r24
    35cc:	cc 19       	sub	r28, r12
    35ce:	dd 09       	sbc	r29, r13
    35d0:	d5 01       	movw	r26, r10
    35d2:	ed 91       	ld	r30, X+
    35d4:	fc 91       	ld	r31, X
    35d6:	02 84       	ldd	r0, Z+10	; 0x0a
    35d8:	f3 85       	ldd	r31, Z+11	; 0x0b
    35da:	e0 2d       	mov	r30, r0
    35dc:	c5 01       	movw	r24, r10
    35de:	19 95       	eicall
    35e0:	78 01       	movw	r14, r16
    35e2:	8e 01       	movw	r16, r28
    35e4:	21 e0       	ldi	r18, 0x01	; 1
    35e6:	30 e0       	ldi	r19, 0x00	; 0
    35e8:	a6 01       	movw	r20, r12
    35ea:	b4 01       	movw	r22, r8
    35ec:	c5 01       	movw	r24, r10
    35ee:	08 df       	rcall	.-496    	; 0x3400 <_ZN15Adafruit_SPITFT23writeFillRectPreclippedEiiiij>
    35f0:	d5 01       	movw	r26, r10
    35f2:	ed 91       	ld	r30, X+
    35f4:	fc 91       	ld	r31, X
    35f6:	06 88       	ldd	r0, Z+22	; 0x16
    35f8:	f7 89       	ldd	r31, Z+23	; 0x17
    35fa:	e0 2d       	mov	r30, r0
    35fc:	c5 01       	movw	r24, r10
    35fe:	df 91       	pop	r29
    3600:	cf 91       	pop	r28
    3602:	1f 91       	pop	r17
    3604:	0f 91       	pop	r16
    3606:	ff 90       	pop	r15
    3608:	ef 90       	pop	r14
    360a:	df 90       	pop	r13
    360c:	cf 90       	pop	r12
    360e:	bf 90       	pop	r11
    3610:	af 90       	pop	r10
    3612:	9f 90       	pop	r9
    3614:	8f 90       	pop	r8
    3616:	19 94       	eijmp
    3618:	df 91       	pop	r29
    361a:	cf 91       	pop	r28
    361c:	1f 91       	pop	r17
    361e:	0f 91       	pop	r16
    3620:	ff 90       	pop	r15
    3622:	ef 90       	pop	r14
    3624:	df 90       	pop	r13
    3626:	cf 90       	pop	r12
    3628:	bf 90       	pop	r11
    362a:	af 90       	pop	r10
    362c:	9f 90       	pop	r9
    362e:	8f 90       	pop	r8
    3630:	08 95       	ret

00003632 <_ZN15Adafruit_SPITFT13drawFastHLineEiiij>:
    3632:	8f 92       	push	r8
    3634:	9f 92       	push	r9
    3636:	af 92       	push	r10
    3638:	bf 92       	push	r11
    363a:	cf 92       	push	r12
    363c:	df 92       	push	r13
    363e:	ef 92       	push	r14
    3640:	ff 92       	push	r15
    3642:	0f 93       	push	r16
    3644:	1f 93       	push	r17
    3646:	cf 93       	push	r28
    3648:	df 93       	push	r29
    364a:	5c 01       	movw	r10, r24
    364c:	6b 01       	movw	r12, r22
    364e:	4a 01       	movw	r8, r20
    3650:	e9 01       	movw	r28, r18
    3652:	57 fd       	sbrc	r21, 7
    3654:	52 c0       	rjmp	.+164    	; 0x36fa <_ZN15Adafruit_SPITFT13drawFastHLineEiiij+0xc8>
    3656:	dc 01       	movw	r26, r24
    3658:	1a 96       	adiw	r26, 0x0a	; 10
    365a:	8d 91       	ld	r24, X+
    365c:	9c 91       	ld	r25, X
    365e:	1b 97       	sbiw	r26, 0x0b	; 11
    3660:	48 17       	cp	r20, r24
    3662:	59 07       	cpc	r21, r25
    3664:	0c f0       	brlt	.+2      	; 0x3668 <_ZN15Adafruit_SPITFT13drawFastHLineEiiij+0x36>
    3666:	49 c0       	rjmp	.+146    	; 0x36fa <_ZN15Adafruit_SPITFT13drawFastHLineEiiij+0xc8>
    3668:	20 97       	sbiw	r28, 0x00	; 0
    366a:	09 f4       	brne	.+2      	; 0x366e <_ZN15Adafruit_SPITFT13drawFastHLineEiiij+0x3c>
    366c:	46 c0       	rjmp	.+140    	; 0x36fa <_ZN15Adafruit_SPITFT13drawFastHLineEiiij+0xc8>
    366e:	37 ff       	sbrs	r19, 7
    3670:	07 c0       	rjmp	.+14     	; 0x3680 <_ZN15Adafruit_SPITFT13drawFastHLineEiiij+0x4e>
    3672:	c9 01       	movw	r24, r18
    3674:	01 96       	adiw	r24, 0x01	; 1
    3676:	c8 0e       	add	r12, r24
    3678:	d9 1e       	adc	r13, r25
    367a:	d1 95       	neg	r29
    367c:	c1 95       	neg	r28
    367e:	d1 09       	sbc	r29, r1
    3680:	f5 01       	movw	r30, r10
    3682:	80 85       	ldd	r24, Z+8	; 0x08
    3684:	91 85       	ldd	r25, Z+9	; 0x09
    3686:	c8 16       	cp	r12, r24
    3688:	d9 06       	cpc	r13, r25
    368a:	bc f5       	brge	.+110    	; 0x36fa <_ZN15Adafruit_SPITFT13drawFastHLineEiiij+0xc8>
    368c:	a6 01       	movw	r20, r12
    368e:	4c 0f       	add	r20, r28
    3690:	5d 1f       	adc	r21, r29
    3692:	9a 01       	movw	r18, r20
    3694:	21 50       	subi	r18, 0x01	; 1
    3696:	31 09       	sbc	r19, r1
    3698:	37 fd       	sbrc	r19, 7
    369a:	2f c0       	rjmp	.+94     	; 0x36fa <_ZN15Adafruit_SPITFT13drawFastHLineEiiij+0xc8>
    369c:	d7 fe       	sbrs	r13, 7
    369e:	03 c0       	rjmp	.+6      	; 0x36a6 <_ZN15Adafruit_SPITFT13drawFastHLineEiiij+0x74>
    36a0:	ea 01       	movw	r28, r20
    36a2:	c1 2c       	mov	r12, r1
    36a4:	d1 2c       	mov	r13, r1
    36a6:	28 17       	cp	r18, r24
    36a8:	39 07       	cpc	r19, r25
    36aa:	1c f0       	brlt	.+6      	; 0x36b2 <_ZN15Adafruit_SPITFT13drawFastHLineEiiij+0x80>
    36ac:	ec 01       	movw	r28, r24
    36ae:	cc 19       	sub	r28, r12
    36b0:	dd 09       	sbc	r29, r13
    36b2:	d5 01       	movw	r26, r10
    36b4:	ed 91       	ld	r30, X+
    36b6:	fc 91       	ld	r31, X
    36b8:	02 84       	ldd	r0, Z+10	; 0x0a
    36ba:	f3 85       	ldd	r31, Z+11	; 0x0b
    36bc:	e0 2d       	mov	r30, r0
    36be:	c5 01       	movw	r24, r10
    36c0:	19 95       	eicall
    36c2:	78 01       	movw	r14, r16
    36c4:	01 e0       	ldi	r16, 0x01	; 1
    36c6:	10 e0       	ldi	r17, 0x00	; 0
    36c8:	9e 01       	movw	r18, r28
    36ca:	a4 01       	movw	r20, r8
    36cc:	b6 01       	movw	r22, r12
    36ce:	c5 01       	movw	r24, r10
    36d0:	97 de       	rcall	.-722    	; 0x3400 <_ZN15Adafruit_SPITFT23writeFillRectPreclippedEiiiij>
    36d2:	d5 01       	movw	r26, r10
    36d4:	ed 91       	ld	r30, X+
    36d6:	fc 91       	ld	r31, X
    36d8:	06 88       	ldd	r0, Z+22	; 0x16
    36da:	f7 89       	ldd	r31, Z+23	; 0x17
    36dc:	e0 2d       	mov	r30, r0
    36de:	c5 01       	movw	r24, r10
    36e0:	df 91       	pop	r29
    36e2:	cf 91       	pop	r28
    36e4:	1f 91       	pop	r17
    36e6:	0f 91       	pop	r16
    36e8:	ff 90       	pop	r15
    36ea:	ef 90       	pop	r14
    36ec:	df 90       	pop	r13
    36ee:	cf 90       	pop	r12
    36f0:	bf 90       	pop	r11
    36f2:	af 90       	pop	r10
    36f4:	9f 90       	pop	r9
    36f6:	8f 90       	pop	r8
    36f8:	19 94       	eijmp
    36fa:	df 91       	pop	r29
    36fc:	cf 91       	pop	r28
    36fe:	1f 91       	pop	r17
    3700:	0f 91       	pop	r16
    3702:	ff 90       	pop	r15
    3704:	ef 90       	pop	r14
    3706:	df 90       	pop	r13
    3708:	cf 90       	pop	r12
    370a:	bf 90       	pop	r11
    370c:	af 90       	pop	r10
    370e:	9f 90       	pop	r9
    3710:	8f 90       	pop	r8
    3712:	08 95       	ret

00003714 <_ZN15Adafruit_SPITFT8fillRectEiiiij>:
    3714:	8f 92       	push	r8
    3716:	9f 92       	push	r9
    3718:	af 92       	push	r10
    371a:	bf 92       	push	r11
    371c:	cf 92       	push	r12
    371e:	df 92       	push	r13
    3720:	ef 92       	push	r14
    3722:	ff 92       	push	r15
    3724:	0f 93       	push	r16
    3726:	1f 93       	push	r17
    3728:	cf 93       	push	r28
    372a:	df 93       	push	r29
    372c:	4c 01       	movw	r8, r24
    372e:	6b 01       	movw	r12, r22
    3730:	5a 01       	movw	r10, r20
    3732:	e9 01       	movw	r28, r18
    3734:	20 97       	sbiw	r28, 0x00	; 0
    3736:	09 f4       	brne	.+2      	; 0x373a <_ZN15Adafruit_SPITFT8fillRectEiiiij+0x26>
    3738:	6b c0       	rjmp	.+214    	; 0x3810 <_ZN15Adafruit_SPITFT8fillRectEiiiij+0xfc>
    373a:	01 15       	cp	r16, r1
    373c:	11 05       	cpc	r17, r1
    373e:	09 f4       	brne	.+2      	; 0x3742 <_ZN15Adafruit_SPITFT8fillRectEiiiij+0x2e>
    3740:	67 c0       	rjmp	.+206    	; 0x3810 <_ZN15Adafruit_SPITFT8fillRectEiiiij+0xfc>
    3742:	37 ff       	sbrs	r19, 7
    3744:	07 c0       	rjmp	.+14     	; 0x3754 <_ZN15Adafruit_SPITFT8fillRectEiiiij+0x40>
    3746:	c9 01       	movw	r24, r18
    3748:	01 96       	adiw	r24, 0x01	; 1
    374a:	c8 0e       	add	r12, r24
    374c:	d9 1e       	adc	r13, r25
    374e:	d1 95       	neg	r29
    3750:	c1 95       	neg	r28
    3752:	d1 09       	sbc	r29, r1
    3754:	f4 01       	movw	r30, r8
    3756:	a0 85       	ldd	r26, Z+8	; 0x08
    3758:	b1 85       	ldd	r27, Z+9	; 0x09
    375a:	ca 16       	cp	r12, r26
    375c:	db 06       	cpc	r13, r27
    375e:	0c f0       	brlt	.+2      	; 0x3762 <_ZN15Adafruit_SPITFT8fillRectEiiiij+0x4e>
    3760:	57 c0       	rjmp	.+174    	; 0x3810 <_ZN15Adafruit_SPITFT8fillRectEiiiij+0xfc>
    3762:	17 ff       	sbrs	r17, 7
    3764:	07 c0       	rjmp	.+14     	; 0x3774 <_ZN15Adafruit_SPITFT8fillRectEiiiij+0x60>
    3766:	c8 01       	movw	r24, r16
    3768:	01 96       	adiw	r24, 0x01	; 1
    376a:	a8 0e       	add	r10, r24
    376c:	b9 1e       	adc	r11, r25
    376e:	11 95       	neg	r17
    3770:	01 95       	neg	r16
    3772:	11 09       	sbc	r17, r1
    3774:	f4 01       	movw	r30, r8
    3776:	82 85       	ldd	r24, Z+10	; 0x0a
    3778:	93 85       	ldd	r25, Z+11	; 0x0b
    377a:	a8 16       	cp	r10, r24
    377c:	b9 06       	cpc	r11, r25
    377e:	0c f0       	brlt	.+2      	; 0x3782 <_ZN15Adafruit_SPITFT8fillRectEiiiij+0x6e>
    3780:	47 c0       	rjmp	.+142    	; 0x3810 <_ZN15Adafruit_SPITFT8fillRectEiiiij+0xfc>
    3782:	f6 01       	movw	r30, r12
    3784:	ec 0f       	add	r30, r28
    3786:	fd 1f       	adc	r31, r29
    3788:	af 01       	movw	r20, r30
    378a:	41 50       	subi	r20, 0x01	; 1
    378c:	51 09       	sbc	r21, r1
    378e:	57 fd       	sbrc	r21, 7
    3790:	3f c0       	rjmp	.+126    	; 0x3810 <_ZN15Adafruit_SPITFT8fillRectEiiiij+0xfc>
    3792:	b5 01       	movw	r22, r10
    3794:	60 0f       	add	r22, r16
    3796:	71 1f       	adc	r23, r17
    3798:	9b 01       	movw	r18, r22
    379a:	21 50       	subi	r18, 0x01	; 1
    379c:	31 09       	sbc	r19, r1
    379e:	37 fd       	sbrc	r19, 7
    37a0:	37 c0       	rjmp	.+110    	; 0x3810 <_ZN15Adafruit_SPITFT8fillRectEiiiij+0xfc>
    37a2:	d7 fe       	sbrs	r13, 7
    37a4:	03 c0       	rjmp	.+6      	; 0x37ac <_ZN15Adafruit_SPITFT8fillRectEiiiij+0x98>
    37a6:	ef 01       	movw	r28, r30
    37a8:	c1 2c       	mov	r12, r1
    37aa:	d1 2c       	mov	r13, r1
    37ac:	b7 fe       	sbrs	r11, 7
    37ae:	03 c0       	rjmp	.+6      	; 0x37b6 <_ZN15Adafruit_SPITFT8fillRectEiiiij+0xa2>
    37b0:	8b 01       	movw	r16, r22
    37b2:	a1 2c       	mov	r10, r1
    37b4:	b1 2c       	mov	r11, r1
    37b6:	4a 17       	cp	r20, r26
    37b8:	5b 07       	cpc	r21, r27
    37ba:	1c f0       	brlt	.+6      	; 0x37c2 <_ZN15Adafruit_SPITFT8fillRectEiiiij+0xae>
    37bc:	ed 01       	movw	r28, r26
    37be:	cc 19       	sub	r28, r12
    37c0:	dd 09       	sbc	r29, r13
    37c2:	28 17       	cp	r18, r24
    37c4:	39 07       	cpc	r19, r25
    37c6:	1c f0       	brlt	.+6      	; 0x37ce <_ZN15Adafruit_SPITFT8fillRectEiiiij+0xba>
    37c8:	8c 01       	movw	r16, r24
    37ca:	0a 19       	sub	r16, r10
    37cc:	1b 09       	sbc	r17, r11
    37ce:	d4 01       	movw	r26, r8
    37d0:	ed 91       	ld	r30, X+
    37d2:	fc 91       	ld	r31, X
    37d4:	02 84       	ldd	r0, Z+10	; 0x0a
    37d6:	f3 85       	ldd	r31, Z+11	; 0x0b
    37d8:	e0 2d       	mov	r30, r0
    37da:	c4 01       	movw	r24, r8
    37dc:	19 95       	eicall
    37de:	9e 01       	movw	r18, r28
    37e0:	a5 01       	movw	r20, r10
    37e2:	b6 01       	movw	r22, r12
    37e4:	c4 01       	movw	r24, r8
    37e6:	0c de       	rcall	.-1000   	; 0x3400 <_ZN15Adafruit_SPITFT23writeFillRectPreclippedEiiiij>
    37e8:	d4 01       	movw	r26, r8
    37ea:	ed 91       	ld	r30, X+
    37ec:	fc 91       	ld	r31, X
    37ee:	06 88       	ldd	r0, Z+22	; 0x16
    37f0:	f7 89       	ldd	r31, Z+23	; 0x17
    37f2:	e0 2d       	mov	r30, r0
    37f4:	c4 01       	movw	r24, r8
    37f6:	df 91       	pop	r29
    37f8:	cf 91       	pop	r28
    37fa:	1f 91       	pop	r17
    37fc:	0f 91       	pop	r16
    37fe:	ff 90       	pop	r15
    3800:	ef 90       	pop	r14
    3802:	df 90       	pop	r13
    3804:	cf 90       	pop	r12
    3806:	bf 90       	pop	r11
    3808:	af 90       	pop	r10
    380a:	9f 90       	pop	r9
    380c:	8f 90       	pop	r8
    380e:	19 94       	eijmp
    3810:	df 91       	pop	r29
    3812:	cf 91       	pop	r28
    3814:	1f 91       	pop	r17
    3816:	0f 91       	pop	r16
    3818:	ff 90       	pop	r15
    381a:	ef 90       	pop	r14
    381c:	df 90       	pop	r13
    381e:	cf 90       	pop	r12
    3820:	bf 90       	pop	r11
    3822:	af 90       	pop	r10
    3824:	9f 90       	pop	r9
    3826:	8f 90       	pop	r8
    3828:	08 95       	ret

0000382a <_ZN15Adafruit_SPITFT13writeFillRectEiiiij>:
    382a:	8f 92       	push	r8
    382c:	9f 92       	push	r9
    382e:	af 92       	push	r10
    3830:	bf 92       	push	r11
    3832:	cf 92       	push	r12
    3834:	df 92       	push	r13
    3836:	ef 92       	push	r14
    3838:	ff 92       	push	r15
    383a:	0f 93       	push	r16
    383c:	1f 93       	push	r17
    383e:	cf 93       	push	r28
    3840:	df 93       	push	r29
    3842:	47 01       	movw	r8, r14
    3844:	21 15       	cp	r18, r1
    3846:	31 05       	cpc	r19, r1
    3848:	09 f4       	brne	.+2      	; 0x384c <_ZN15Adafruit_SPITFT13writeFillRectEiiiij+0x22>
    384a:	4c c0       	rjmp	.+152    	; 0x38e4 <_ZN15Adafruit_SPITFT13writeFillRectEiiiij+0xba>
    384c:	01 15       	cp	r16, r1
    384e:	11 05       	cpc	r17, r1
    3850:	09 f4       	brne	.+2      	; 0x3854 <_ZN15Adafruit_SPITFT13writeFillRectEiiiij+0x2a>
    3852:	48 c0       	rjmp	.+144    	; 0x38e4 <_ZN15Adafruit_SPITFT13writeFillRectEiiiij+0xba>
    3854:	37 ff       	sbrs	r19, 7
    3856:	07 c0       	rjmp	.+14     	; 0x3866 <_ZN15Adafruit_SPITFT13writeFillRectEiiiij+0x3c>
    3858:	f9 01       	movw	r30, r18
    385a:	31 96       	adiw	r30, 0x01	; 1
    385c:	6e 0f       	add	r22, r30
    385e:	7f 1f       	adc	r23, r31
    3860:	31 95       	neg	r19
    3862:	21 95       	neg	r18
    3864:	31 09       	sbc	r19, r1
    3866:	dc 01       	movw	r26, r24
    3868:	18 96       	adiw	r26, 0x08	; 8
    386a:	ad 90       	ld	r10, X+
    386c:	bc 90       	ld	r11, X
    386e:	19 97       	sbiw	r26, 0x09	; 9
    3870:	6a 15       	cp	r22, r10
    3872:	7b 05       	cpc	r23, r11
    3874:	bc f5       	brge	.+110    	; 0x38e4 <_ZN15Adafruit_SPITFT13writeFillRectEiiiij+0xba>
    3876:	17 ff       	sbrs	r17, 7
    3878:	07 c0       	rjmp	.+14     	; 0x3888 <_ZN15Adafruit_SPITFT13writeFillRectEiiiij+0x5e>
    387a:	f8 01       	movw	r30, r16
    387c:	31 96       	adiw	r30, 0x01	; 1
    387e:	4e 0f       	add	r20, r30
    3880:	5f 1f       	adc	r21, r31
    3882:	11 95       	neg	r17
    3884:	01 95       	neg	r16
    3886:	11 09       	sbc	r17, r1
    3888:	dc 01       	movw	r26, r24
    388a:	1a 96       	adiw	r26, 0x0a	; 10
    388c:	ed 91       	ld	r30, X+
    388e:	fc 91       	ld	r31, X
    3890:	1b 97       	sbiw	r26, 0x0b	; 11
    3892:	4e 17       	cp	r20, r30
    3894:	5f 07       	cpc	r21, r31
    3896:	34 f5       	brge	.+76     	; 0x38e4 <_ZN15Adafruit_SPITFT13writeFillRectEiiiij+0xba>
    3898:	6b 01       	movw	r12, r22
    389a:	c2 0e       	add	r12, r18
    389c:	d3 1e       	adc	r13, r19
    389e:	e6 01       	movw	r28, r12
    38a0:	21 97       	sbiw	r28, 0x01	; 1
    38a2:	d7 fd       	sbrc	r29, 7
    38a4:	1f c0       	rjmp	.+62     	; 0x38e4 <_ZN15Adafruit_SPITFT13writeFillRectEiiiij+0xba>
    38a6:	7a 01       	movw	r14, r20
    38a8:	e0 0e       	add	r14, r16
    38aa:	f1 1e       	adc	r15, r17
    38ac:	d7 01       	movw	r26, r14
    38ae:	11 97       	sbiw	r26, 0x01	; 1
    38b0:	b7 fd       	sbrc	r27, 7
    38b2:	18 c0       	rjmp	.+48     	; 0x38e4 <_ZN15Adafruit_SPITFT13writeFillRectEiiiij+0xba>
    38b4:	77 ff       	sbrs	r23, 7
    38b6:	03 c0       	rjmp	.+6      	; 0x38be <_ZN15Adafruit_SPITFT13writeFillRectEiiiij+0x94>
    38b8:	96 01       	movw	r18, r12
    38ba:	60 e0       	ldi	r22, 0x00	; 0
    38bc:	70 e0       	ldi	r23, 0x00	; 0
    38be:	57 ff       	sbrs	r21, 7
    38c0:	03 c0       	rjmp	.+6      	; 0x38c8 <_ZN15Adafruit_SPITFT13writeFillRectEiiiij+0x9e>
    38c2:	87 01       	movw	r16, r14
    38c4:	40 e0       	ldi	r20, 0x00	; 0
    38c6:	50 e0       	ldi	r21, 0x00	; 0
    38c8:	ca 15       	cp	r28, r10
    38ca:	db 05       	cpc	r29, r11
    38cc:	1c f0       	brlt	.+6      	; 0x38d4 <_ZN15Adafruit_SPITFT13writeFillRectEiiiij+0xaa>
    38ce:	95 01       	movw	r18, r10
    38d0:	26 1b       	sub	r18, r22
    38d2:	37 0b       	sbc	r19, r23
    38d4:	ae 17       	cp	r26, r30
    38d6:	bf 07       	cpc	r27, r31
    38d8:	1c f0       	brlt	.+6      	; 0x38e0 <_ZN15Adafruit_SPITFT13writeFillRectEiiiij+0xb6>
    38da:	8f 01       	movw	r16, r30
    38dc:	04 1b       	sub	r16, r20
    38de:	15 0b       	sbc	r17, r21
    38e0:	74 01       	movw	r14, r8
    38e2:	8e dd       	rcall	.-1252   	; 0x3400 <_ZN15Adafruit_SPITFT23writeFillRectPreclippedEiiiij>
    38e4:	df 91       	pop	r29
    38e6:	cf 91       	pop	r28
    38e8:	1f 91       	pop	r17
    38ea:	0f 91       	pop	r16
    38ec:	ff 90       	pop	r15
    38ee:	ef 90       	pop	r14
    38f0:	df 90       	pop	r13
    38f2:	cf 90       	pop	r12
    38f4:	bf 90       	pop	r11
    38f6:	af 90       	pop	r10
    38f8:	9f 90       	pop	r9
    38fa:	8f 90       	pop	r8
    38fc:	08 95       	ret

000038fe <_ZN15Adafruit_ST773511setRotationEh>:
    38fe:	cf 93       	push	r28
    3900:	df 93       	push	r29
    3902:	1f 92       	push	r1
    3904:	cd b7       	in	r28, 0x3d	; 61
    3906:	de b7       	in	r29, 0x3e	; 62
    3908:	fc 01       	movw	r30, r24
    390a:	19 82       	std	Y+1, r1	; 0x01
    390c:	63 70       	andi	r22, 0x03	; 3
    390e:	66 8b       	std	Z+22, r22	; 0x16
    3910:	dc 01       	movw	r26, r24
    3912:	aa 5b       	subi	r26, 0xBA	; 186
    3914:	bf 4f       	sbci	r27, 0xFF	; 255
    3916:	8c 91       	ld	r24, X
    3918:	98 2f       	mov	r25, r24
    391a:	9b 7f       	andi	r25, 0xFB	; 251
    391c:	af 01       	movw	r20, r30
    391e:	4c 5b       	subi	r20, 0xBC	; 188
    3920:	5f 4f       	sbci	r21, 0xFF	; 255
    3922:	91 30       	cpi	r25, 0x01	; 1
    3924:	29 f4       	brne	.+10     	; 0x3930 <_ZN15Adafruit_ST773511setRotationEh+0x32>
    3926:	62 30       	cpi	r22, 0x02	; 2
    3928:	08 f4       	brcc	.+2      	; 0x392c <_ZN15Adafruit_ST773511setRotationEh+0x2e>
    392a:	93 e0       	ldi	r25, 0x03	; 3
    392c:	da 01       	movw	r26, r20
    392e:	9c 93       	st	X, r25
    3930:	9f 01       	movw	r18, r30
    3932:	2d 5b       	subi	r18, 0xBD	; 189
    3934:	3f 4f       	sbci	r19, 0xFF	; 255
    3936:	62 30       	cpi	r22, 0x02	; 2
    3938:	d9 f0       	breq	.+54     	; 0x3970 <_ZN15Adafruit_ST773511setRotationEh+0x72>
    393a:	63 30       	cpi	r22, 0x03	; 3
    393c:	09 f4       	brne	.+2      	; 0x3940 <_ZN15Adafruit_ST773511setRotationEh+0x42>
    393e:	3f c0       	rjmp	.+126    	; 0x39be <_ZN15Adafruit_ST773511setRotationEh+0xc0>
    3940:	61 30       	cpi	r22, 0x01	; 1
    3942:	71 f0       	breq	.+28     	; 0x3960 <_ZN15Adafruit_ST773511setRotationEh+0x62>
    3944:	82 30       	cpi	r24, 0x02	; 2
    3946:	11 f0       	breq	.+4      	; 0x394c <_ZN15Adafruit_ST773511setRotationEh+0x4e>
    3948:	84 30       	cpi	r24, 0x04	; 4
    394a:	29 f4       	brne	.+10     	; 0x3956 <_ZN15Adafruit_ST773511setRotationEh+0x58>
    394c:	90 ec       	ldi	r25, 0xC0	; 192
    394e:	99 83       	std	Y+1, r25	; 0x01
    3950:	81 30       	cpi	r24, 0x01	; 1
    3952:	19 f4       	brne	.+6      	; 0x395a <_ZN15Adafruit_ST773511setRotationEh+0x5c>
    3954:	15 c0       	rjmp	.+42     	; 0x3980 <_ZN15Adafruit_ST773511setRotationEh+0x82>
    3956:	98 ec       	ldi	r25, 0xC8	; 200
    3958:	10 c0       	rjmp	.+32     	; 0x397a <_ZN15Adafruit_ST773511setRotationEh+0x7c>
    395a:	84 30       	cpi	r24, 0x04	; 4
    395c:	b1 f0       	breq	.+44     	; 0x398a <_ZN15Adafruit_ST773511setRotationEh+0x8c>
    395e:	1c c0       	rjmp	.+56     	; 0x3998 <_ZN15Adafruit_ST773511setRotationEh+0x9a>
    3960:	82 30       	cpi	r24, 0x02	; 2
    3962:	11 f0       	breq	.+4      	; 0x3968 <_ZN15Adafruit_ST773511setRotationEh+0x6a>
    3964:	84 30       	cpi	r24, 0x04	; 4
    3966:	11 f4       	brne	.+4      	; 0x396c <_ZN15Adafruit_ST773511setRotationEh+0x6e>
    3968:	90 ea       	ldi	r25, 0xA0	; 160
    396a:	2e c0       	rjmp	.+92     	; 0x39c8 <_ZN15Adafruit_ST773511setRotationEh+0xca>
    396c:	98 ea       	ldi	r25, 0xA8	; 168
    396e:	35 c0       	rjmp	.+106    	; 0x39da <_ZN15Adafruit_ST773511setRotationEh+0xdc>
    3970:	82 30       	cpi	r24, 0x02	; 2
    3972:	91 f0       	breq	.+36     	; 0x3998 <_ZN15Adafruit_ST773511setRotationEh+0x9a>
    3974:	84 30       	cpi	r24, 0x04	; 4
    3976:	49 f0       	breq	.+18     	; 0x398a <_ZN15Adafruit_ST773511setRotationEh+0x8c>
    3978:	98 e0       	ldi	r25, 0x08	; 8
    397a:	99 83       	std	Y+1, r25	; 0x01
    397c:	81 30       	cpi	r24, 0x01	; 1
    397e:	61 f4       	brne	.+24     	; 0x3998 <_ZN15Adafruit_ST773511setRotationEh+0x9a>
    3980:	80 e8       	ldi	r24, 0x80	; 128
    3982:	90 e0       	ldi	r25, 0x00	; 0
    3984:	93 87       	std	Z+11, r25	; 0x0b
    3986:	82 87       	std	Z+10, r24	; 0x0a
    3988:	0d c0       	rjmp	.+26     	; 0x39a4 <_ZN15Adafruit_ST773511setRotationEh+0xa6>
    398a:	80 ea       	ldi	r24, 0xA0	; 160
    398c:	90 e0       	ldi	r25, 0x00	; 0
    398e:	93 87       	std	Z+11, r25	; 0x0b
    3990:	82 87       	std	Z+10, r24	; 0x0a
    3992:	80 e5       	ldi	r24, 0x50	; 80
    3994:	90 e0       	ldi	r25, 0x00	; 0
    3996:	06 c0       	rjmp	.+12     	; 0x39a4 <_ZN15Adafruit_ST773511setRotationEh+0xa6>
    3998:	80 ea       	ldi	r24, 0xA0	; 160
    399a:	90 e0       	ldi	r25, 0x00	; 0
    399c:	93 87       	std	Z+11, r25	; 0x0b
    399e:	82 87       	std	Z+10, r24	; 0x0a
    39a0:	80 e8       	ldi	r24, 0x80	; 128
    39a2:	90 e0       	ldi	r25, 0x00	; 0
    39a4:	91 87       	std	Z+9, r25	; 0x09
    39a6:	80 87       	std	Z+8, r24	; 0x08
    39a8:	d9 01       	movw	r26, r18
    39aa:	8c 91       	ld	r24, X
    39ac:	90 e0       	ldi	r25, 0x00	; 0
    39ae:	92 af       	std	Z+58, r25	; 0x3a
    39b0:	81 af       	std	Z+57, r24	; 0x39
    39b2:	da 01       	movw	r26, r20
    39b4:	8c 91       	ld	r24, X
    39b6:	90 e0       	ldi	r25, 0x00	; 0
    39b8:	94 af       	std	Z+60, r25	; 0x3c
    39ba:	83 af       	std	Z+59, r24	; 0x3b
    39bc:	2d c0       	rjmp	.+90     	; 0x3a18 <_ZN15Adafruit_ST773511setRotationEh+0x11a>
    39be:	82 30       	cpi	r24, 0x02	; 2
    39c0:	11 f0       	breq	.+4      	; 0x39c6 <_ZN15Adafruit_ST773511setRotationEh+0xc8>
    39c2:	84 30       	cpi	r24, 0x04	; 4
    39c4:	49 f4       	brne	.+18     	; 0x39d8 <_ZN15Adafruit_ST773511setRotationEh+0xda>
    39c6:	90 e6       	ldi	r25, 0x60	; 96
    39c8:	99 83       	std	Y+1, r25	; 0x01
    39ca:	81 30       	cpi	r24, 0x01	; 1
    39cc:	51 f4       	brne	.+20     	; 0x39e2 <_ZN15Adafruit_ST773511setRotationEh+0xe4>
    39ce:	80 e8       	ldi	r24, 0x80	; 128
    39d0:	90 e0       	ldi	r25, 0x00	; 0
    39d2:	91 87       	std	Z+9, r25	; 0x09
    39d4:	80 87       	std	Z+8, r24	; 0x08
    39d6:	14 c0       	rjmp	.+40     	; 0x3a00 <_ZN15Adafruit_ST773511setRotationEh+0x102>
    39d8:	98 e6       	ldi	r25, 0x68	; 104
    39da:	99 83       	std	Y+1, r25	; 0x01
    39dc:	81 30       	cpi	r24, 0x01	; 1
    39de:	51 f4       	brne	.+20     	; 0x39f4 <_ZN15Adafruit_ST773511setRotationEh+0xf6>
    39e0:	f6 cf       	rjmp	.-20     	; 0x39ce <_ZN15Adafruit_ST773511setRotationEh+0xd0>
    39e2:	84 30       	cpi	r24, 0x04	; 4
    39e4:	39 f4       	brne	.+14     	; 0x39f4 <_ZN15Adafruit_ST773511setRotationEh+0xf6>
    39e6:	80 ea       	ldi	r24, 0xA0	; 160
    39e8:	90 e0       	ldi	r25, 0x00	; 0
    39ea:	91 87       	std	Z+9, r25	; 0x09
    39ec:	80 87       	std	Z+8, r24	; 0x08
    39ee:	80 e5       	ldi	r24, 0x50	; 80
    39f0:	90 e0       	ldi	r25, 0x00	; 0
    39f2:	06 c0       	rjmp	.+12     	; 0x3a00 <_ZN15Adafruit_ST773511setRotationEh+0x102>
    39f4:	80 ea       	ldi	r24, 0xA0	; 160
    39f6:	90 e0       	ldi	r25, 0x00	; 0
    39f8:	91 87       	std	Z+9, r25	; 0x09
    39fa:	80 87       	std	Z+8, r24	; 0x08
    39fc:	80 e8       	ldi	r24, 0x80	; 128
    39fe:	90 e0       	ldi	r25, 0x00	; 0
    3a00:	93 87       	std	Z+11, r25	; 0x0b
    3a02:	82 87       	std	Z+10, r24	; 0x0a
    3a04:	d9 01       	movw	r26, r18
    3a06:	8c 91       	ld	r24, X
    3a08:	90 e0       	ldi	r25, 0x00	; 0
    3a0a:	94 af       	std	Z+60, r25	; 0x3c
    3a0c:	83 af       	std	Z+59, r24	; 0x3b
    3a0e:	da 01       	movw	r26, r20
    3a10:	8c 91       	ld	r24, X
    3a12:	90 e0       	ldi	r25, 0x00	; 0
    3a14:	92 af       	std	Z+58, r25	; 0x3a
    3a16:	81 af       	std	Z+57, r24	; 0x39
    3a18:	21 e0       	ldi	r18, 0x01	; 1
    3a1a:	ae 01       	movw	r20, r28
    3a1c:	4f 5f       	subi	r20, 0xFF	; 255
    3a1e:	5f 4f       	sbci	r21, 0xFF	; 255
    3a20:	66 e3       	ldi	r22, 0x36	; 54
    3a22:	cf 01       	movw	r24, r30
    3a24:	cf da       	rcall	.-2658   	; 0x2fc4 <_ZN15Adafruit_SPITFT11sendCommandEhPhh>
    3a26:	0f 90       	pop	r0
    3a28:	df 91       	pop	r29
    3a2a:	cf 91       	pop	r28
    3a2c:	08 95       	ret

00003a2e <_ZN15Adafruit_ST7735C1Eaaa>:
    3a2e:	ef 92       	push	r14
    3a30:	0f 93       	push	r16
    3a32:	cf 93       	push	r28
    3a34:	df 93       	push	r29
    3a36:	ec 01       	movw	r28, r24
    3a38:	e2 2e       	mov	r14, r18
    3a3a:	04 2f       	mov	r16, r20
    3a3c:	26 2f       	mov	r18, r22
    3a3e:	40 ea       	ldi	r20, 0xA0	; 160
    3a40:	50 e0       	ldi	r21, 0x00	; 0
    3a42:	60 e8       	ldi	r22, 0x80	; 128
    3a44:	70 e0       	ldi	r23, 0x00	; 0
    3a46:	36 d1       	rcall	.+620    	; 0x3cb4 <_ZN15Adafruit_ST77xxC1Ejjaaa>
    3a48:	81 e2       	ldi	r24, 0x21	; 33
    3a4a:	95 e0       	ldi	r25, 0x05	; 5
    3a4c:	99 83       	std	Y+1, r25	; 0x01
    3a4e:	88 83       	st	Y, r24
    3a50:	df 91       	pop	r29
    3a52:	cf 91       	pop	r28
    3a54:	0f 91       	pop	r16
    3a56:	ef 90       	pop	r14
    3a58:	08 95       	ret

00003a5a <_ZN15Adafruit_ST77355initREh>:
    3a5a:	ff 92       	push	r15
    3a5c:	0f 93       	push	r16
    3a5e:	1f 93       	push	r17
    3a60:	cf 93       	push	r28
    3a62:	df 93       	push	r29
    3a64:	1f 92       	push	r1
    3a66:	cd b7       	in	r28, 0x3d	; 61
    3a68:	de b7       	in	r29, 0x3e	; 62
    3a6a:	8c 01       	movw	r16, r24
    3a6c:	f6 2e       	mov	r15, r22
    3a6e:	6f e9       	ldi	r22, 0x9F	; 159
    3a70:	77 e0       	ldi	r23, 0x07	; 7
    3a72:	75 d1       	rcall	.+746    	; 0x3d5e <_ZN15Adafruit_ST77xx10commonInitEPKh>
    3a74:	f1 10       	cpse	r15, r1
    3a76:	0b c0       	rjmp	.+22     	; 0x3a8e <_ZN15Adafruit_ST77355initREh+0x34>
    3a78:	62 e9       	ldi	r22, 0x92	; 146
    3a7a:	77 e0       	ldi	r23, 0x07	; 7
    3a7c:	c8 01       	movw	r24, r16
    3a7e:	33 d1       	rcall	.+614    	; 0x3ce6 <_ZN15Adafruit_ST77xx11displayInitEPKh>
    3a80:	82 e0       	ldi	r24, 0x02	; 2
    3a82:	f8 01       	movw	r30, r16
    3a84:	ed 5b       	subi	r30, 0xBD	; 189
    3a86:	ff 4f       	sbci	r31, 0xFF	; 255
    3a88:	80 83       	st	Z, r24
    3a8a:	81 e0       	ldi	r24, 0x01	; 1
    3a8c:	19 c0       	rjmp	.+50     	; 0x3ac0 <_ZN15Adafruit_ST77355initREh+0x66>
    3a8e:	8f 2d       	mov	r24, r15
    3a90:	8b 7f       	andi	r24, 0xFB	; 251
    3a92:	81 30       	cpi	r24, 0x01	; 1
    3a94:	c1 f4       	brne	.+48     	; 0x3ac6 <_ZN15Adafruit_ST77355initREh+0x6c>
    3a96:	80 e8       	ldi	r24, 0x80	; 128
    3a98:	90 e0       	ldi	r25, 0x00	; 0
    3a9a:	d8 01       	movw	r26, r16
    3a9c:	1b 96       	adiw	r26, 0x0b	; 11
    3a9e:	9c 93       	st	X, r25
    3aa0:	8e 93       	st	-X, r24
    3aa2:	1a 97       	sbiw	r26, 0x0a	; 10
    3aa4:	19 96       	adiw	r26, 0x09	; 9
    3aa6:	9c 93       	st	X, r25
    3aa8:	8e 93       	st	-X, r24
    3aaa:	18 97       	sbiw	r26, 0x08	; 8
    3aac:	68 e7       	ldi	r22, 0x78	; 120
    3aae:	77 e0       	ldi	r23, 0x07	; 7
    3ab0:	c8 01       	movw	r24, r16
    3ab2:	19 d1       	rcall	.+562    	; 0x3ce6 <_ZN15Adafruit_ST77xx11displayInitEPKh>
    3ab4:	82 e0       	ldi	r24, 0x02	; 2
    3ab6:	f8 01       	movw	r30, r16
    3ab8:	ed 5b       	subi	r30, 0xBD	; 189
    3aba:	ff 4f       	sbci	r31, 0xFF	; 255
    3abc:	80 83       	st	Z, r24
    3abe:	83 e0       	ldi	r24, 0x03	; 3
    3ac0:	31 96       	adiw	r30, 0x01	; 1
    3ac2:	80 83       	st	Z, r24
    3ac4:	1c c0       	rjmp	.+56     	; 0x3afe <_ZN15Adafruit_ST77355initREh+0xa4>
    3ac6:	b4 e0       	ldi	r27, 0x04	; 4
    3ac8:	fb 12       	cpse	r15, r27
    3aca:	15 c0       	rjmp	.+42     	; 0x3af6 <_ZN15Adafruit_ST77355initREh+0x9c>
    3acc:	80 e5       	ldi	r24, 0x50	; 80
    3ace:	90 e0       	ldi	r25, 0x00	; 0
    3ad0:	f8 01       	movw	r30, r16
    3ad2:	93 87       	std	Z+11, r25	; 0x0b
    3ad4:	82 87       	std	Z+10, r24	; 0x0a
    3ad6:	80 ea       	ldi	r24, 0xA0	; 160
    3ad8:	90 e0       	ldi	r25, 0x00	; 0
    3ada:	91 87       	std	Z+9, r25	; 0x09
    3adc:	80 87       	std	Z+8, r24	; 0x08
    3ade:	6b e6       	ldi	r22, 0x6B	; 107
    3ae0:	77 e0       	ldi	r23, 0x07	; 7
    3ae2:	c8 01       	movw	r24, r16
    3ae4:	00 d1       	rcall	.+512    	; 0x3ce6 <_ZN15Adafruit_ST77xx11displayInitEPKh>
    3ae6:	88 e1       	ldi	r24, 0x18	; 24
    3ae8:	f8 01       	movw	r30, r16
    3aea:	ed 5b       	subi	r30, 0xBD	; 189
    3aec:	ff 4f       	sbci	r31, 0xFF	; 255
    3aee:	80 83       	st	Z, r24
    3af0:	31 96       	adiw	r30, 0x01	; 1
    3af2:	10 82       	st	Z, r1
    3af4:	04 c0       	rjmp	.+8      	; 0x3afe <_ZN15Adafruit_ST77355initREh+0xa4>
    3af6:	65 e8       	ldi	r22, 0x85	; 133
    3af8:	77 e0       	ldi	r23, 0x07	; 7
    3afa:	c8 01       	movw	r24, r16
    3afc:	f4 d0       	rcall	.+488    	; 0x3ce6 <_ZN15Adafruit_ST77xx11displayInitEPKh>
    3afe:	60 e4       	ldi	r22, 0x40	; 64
    3b00:	77 e0       	ldi	r23, 0x07	; 7
    3b02:	c8 01       	movw	r24, r16
    3b04:	f0 d0       	rcall	.+480    	; 0x3ce6 <_ZN15Adafruit_ST77xx11displayInitEPKh>
    3b06:	f2 e0       	ldi	r31, 0x02	; 2
    3b08:	ff 16       	cp	r15, r31
    3b0a:	19 f0       	breq	.+6      	; 0x3b12 <_ZN15Adafruit_ST77355initREh+0xb8>
    3b0c:	84 e0       	ldi	r24, 0x04	; 4
    3b0e:	f8 12       	cpse	r15, r24
    3b10:	09 c0       	rjmp	.+18     	; 0x3b24 <_ZN15Adafruit_ST77355initREh+0xca>
    3b12:	80 ec       	ldi	r24, 0xC0	; 192
    3b14:	89 83       	std	Y+1, r24	; 0x01
    3b16:	21 e0       	ldi	r18, 0x01	; 1
    3b18:	ae 01       	movw	r20, r28
    3b1a:	4f 5f       	subi	r20, 0xFF	; 255
    3b1c:	5f 4f       	sbci	r21, 0xFF	; 255
    3b1e:	66 e3       	ldi	r22, 0x36	; 54
    3b20:	c8 01       	movw	r24, r16
    3b22:	50 da       	rcall	.-2912   	; 0x2fc4 <_ZN15Adafruit_SPITFT11sendCommandEhPhh>
    3b24:	f8 01       	movw	r30, r16
    3b26:	ea 5b       	subi	r30, 0xBA	; 186
    3b28:	ff 4f       	sbci	r31, 0xFF	; 255
    3b2a:	a5 e0       	ldi	r26, 0x05	; 5
    3b2c:	fa 12       	cpse	r15, r26
    3b2e:	0a c0       	rjmp	.+20     	; 0x3b44 <_ZN15Adafruit_ST77355initREh+0xea>
    3b30:	81 e0       	ldi	r24, 0x01	; 1
    3b32:	80 83       	st	Z, r24
    3b34:	d8 01       	movw	r26, r16
    3b36:	ed 91       	ld	r30, X+
    3b38:	fc 91       	ld	r31, X
    3b3a:	00 8c       	ldd	r0, Z+24	; 0x18
    3b3c:	f1 8d       	ldd	r31, Z+25	; 0x19
    3b3e:	e0 2d       	mov	r30, r0
    3b40:	62 e0       	ldi	r22, 0x02	; 2
    3b42:	08 c0       	rjmp	.+16     	; 0x3b54 <_ZN15Adafruit_ST77355initREh+0xfa>
    3b44:	f0 82       	st	Z, r15
    3b46:	d8 01       	movw	r26, r16
    3b48:	ed 91       	ld	r30, X+
    3b4a:	fc 91       	ld	r31, X
    3b4c:	00 8c       	ldd	r0, Z+24	; 0x18
    3b4e:	f1 8d       	ldd	r31, Z+25	; 0x19
    3b50:	e0 2d       	mov	r30, r0
    3b52:	60 e0       	ldi	r22, 0x00	; 0
    3b54:	c8 01       	movw	r24, r16
    3b56:	19 95       	eicall
    3b58:	0f 90       	pop	r0
    3b5a:	df 91       	pop	r29
    3b5c:	cf 91       	pop	r28
    3b5e:	1f 91       	pop	r17
    3b60:	0f 91       	pop	r16
    3b62:	ff 90       	pop	r15
    3b64:	08 95       	ret

00003b66 <_ZN15Adafruit_ST77xx5beginEm>:
    3b66:	41 15       	cp	r20, r1
    3b68:	51 05       	cpc	r21, r1
    3b6a:	61 05       	cpc	r22, r1
    3b6c:	71 05       	cpc	r23, r1
    3b6e:	21 f4       	brne	.+8      	; 0x3b78 <_ZN15Adafruit_ST77xx5beginEm+0x12>
    3b70:	40 e0       	ldi	r20, 0x00	; 0
    3b72:	58 e4       	ldi	r21, 0x48	; 72
    3b74:	68 ee       	ldi	r22, 0xE8	; 232
    3b76:	71 e0       	ldi	r23, 0x01	; 1
    3b78:	fc 01       	movw	r30, r24
    3b7a:	ff 96       	adiw	r30, 0x3f	; 63
    3b7c:	40 83       	st	Z, r20
    3b7e:	51 83       	std	Z+1, r21	; 0x01
    3b80:	62 83       	std	Z+2, r22	; 0x02
    3b82:	73 83       	std	Z+3, r23	; 0x03
    3b84:	21 e2       	ldi	r18, 0x21	; 33
    3b86:	fc 01       	movw	r30, r24
    3b88:	25 af       	std	Z+61, r18	; 0x3d
    3b8a:	20 e2       	ldi	r18, 0x20	; 32
    3b8c:	26 af       	std	Z+62, r18	; 0x3e
    3b8e:	eb 5b       	subi	r30, 0xBB	; 187
    3b90:	ff 4f       	sbci	r31, 0xFF	; 255
    3b92:	20 81       	ld	r18, Z
    3b94:	43 c8       	rjmp	.-3962   	; 0x2c1c <_ZN15Adafruit_SPITFT7initSPIEmh>

00003b96 <_ZN15Adafruit_ST77xx13setAddrWindowEjjjj>:
    3b96:	8f 92       	push	r8
    3b98:	9f 92       	push	r9
    3b9a:	af 92       	push	r10
    3b9c:	bf 92       	push	r11
    3b9e:	cf 92       	push	r12
    3ba0:	df 92       	push	r13
    3ba2:	ef 92       	push	r14
    3ba4:	ff 92       	push	r15
    3ba6:	0f 93       	push	r16
    3ba8:	1f 93       	push	r17
    3baa:	cf 93       	push	r28
    3bac:	df 93       	push	r29
    3bae:	ec 01       	movw	r28, r24
    3bb0:	89 ad       	ldd	r24, Y+57	; 0x39
    3bb2:	9a ad       	ldd	r25, Y+58	; 0x3a
    3bb4:	4b 01       	movw	r8, r22
    3bb6:	88 0e       	add	r8, r24
    3bb8:	99 1e       	adc	r9, r25
    3bba:	8b ad       	ldd	r24, Y+59	; 0x3b
    3bbc:	9c ad       	ldd	r25, Y+60	; 0x3c
    3bbe:	48 0f       	add	r20, r24
    3bc0:	59 1f       	adc	r21, r25
    3bc2:	c9 01       	movw	r24, r18
    3bc4:	01 97       	sbiw	r24, 0x01	; 1
    3bc6:	88 0d       	add	r24, r8
    3bc8:	99 1d       	adc	r25, r9
    3bca:	a0 e0       	ldi	r26, 0x00	; 0
    3bcc:	b0 e0       	ldi	r27, 0x00	; 0
    3bce:	a1 2c       	mov	r10, r1
    3bd0:	b1 2c       	mov	r11, r1
    3bd2:	54 01       	movw	r10, r8
    3bd4:	99 24       	eor	r9, r9
    3bd6:	88 24       	eor	r8, r8
    3bd8:	88 2a       	or	r8, r24
    3bda:	99 2a       	or	r9, r25
    3bdc:	aa 2a       	or	r10, r26
    3bde:	bb 2a       	or	r11, r27
    3be0:	01 50       	subi	r16, 0x01	; 1
    3be2:	11 09       	sbc	r17, r1
    3be4:	68 01       	movw	r12, r16
    3be6:	c4 0e       	add	r12, r20
    3be8:	d5 1e       	adc	r13, r21
    3bea:	86 01       	movw	r16, r12
    3bec:	20 e0       	ldi	r18, 0x00	; 0
    3bee:	30 e0       	ldi	r19, 0x00	; 0
    3bf0:	6a 01       	movw	r12, r20
    3bf2:	e1 2c       	mov	r14, r1
    3bf4:	f1 2c       	mov	r15, r1
    3bf6:	76 01       	movw	r14, r12
    3bf8:	dd 24       	eor	r13, r13
    3bfa:	cc 24       	eor	r12, r12
    3bfc:	c0 2a       	or	r12, r16
    3bfe:	d1 2a       	or	r13, r17
    3c00:	e2 2a       	or	r14, r18
    3c02:	f3 2a       	or	r15, r19
    3c04:	6a e2       	ldi	r22, 0x2A	; 42
    3c06:	ce 01       	movw	r24, r28
    3c08:	77 d9       	rcall	.-3346   	; 0x2ef8 <_ZN15Adafruit_SPITFT12writeCommandEh>
    3c0a:	b5 01       	movw	r22, r10
    3c0c:	a4 01       	movw	r20, r8
    3c0e:	ce 01       	movw	r24, r28
    3c10:	06 db       	rcall	.-2548   	; 0x321e <_ZN15Adafruit_SPITFT11SPI_WRITE32Em>
    3c12:	6b e2       	ldi	r22, 0x2B	; 43
    3c14:	ce 01       	movw	r24, r28
    3c16:	70 d9       	rcall	.-3360   	; 0x2ef8 <_ZN15Adafruit_SPITFT12writeCommandEh>
    3c18:	b7 01       	movw	r22, r14
    3c1a:	a6 01       	movw	r20, r12
    3c1c:	ce 01       	movw	r24, r28
    3c1e:	ff da       	rcall	.-2562   	; 0x321e <_ZN15Adafruit_SPITFT11SPI_WRITE32Em>
    3c20:	6c e2       	ldi	r22, 0x2C	; 44
    3c22:	ce 01       	movw	r24, r28
    3c24:	df 91       	pop	r29
    3c26:	cf 91       	pop	r28
    3c28:	1f 91       	pop	r17
    3c2a:	0f 91       	pop	r16
    3c2c:	ff 90       	pop	r15
    3c2e:	ef 90       	pop	r14
    3c30:	df 90       	pop	r13
    3c32:	cf 90       	pop	r12
    3c34:	bf 90       	pop	r11
    3c36:	af 90       	pop	r10
    3c38:	9f 90       	pop	r9
    3c3a:	8f 90       	pop	r8
    3c3c:	5d c9       	rjmp	.-3398   	; 0x2ef8 <_ZN15Adafruit_SPITFT12writeCommandEh>

00003c3e <_ZN15Adafruit_ST77xx11setRotationEh>:
    3c3e:	cf 93       	push	r28
    3c40:	df 93       	push	r29
    3c42:	1f 92       	push	r1
    3c44:	cd b7       	in	r28, 0x3d	; 61
    3c46:	de b7       	in	r29, 0x3e	; 62
    3c48:	fc 01       	movw	r30, r24
    3c4a:	19 82       	std	Y+1, r1	; 0x01
    3c4c:	63 70       	andi	r22, 0x03	; 3
    3c4e:	66 8b       	std	Z+22, r22	; 0x16
    3c50:	8d 5b       	subi	r24, 0xBD	; 189
    3c52:	9f 4f       	sbci	r25, 0xFF	; 255
    3c54:	af 01       	movw	r20, r30
    3c56:	4c 5b       	subi	r20, 0xBC	; 188
    3c58:	5f 4f       	sbci	r21, 0xFF	; 255
    3c5a:	62 30       	cpi	r22, 0x02	; 2
    3c5c:	49 f0       	breq	.+18     	; 0x3c70 <_ZN15Adafruit_ST77xx11setRotationEh+0x32>
    3c5e:	63 30       	cpi	r22, 0x03	; 3
    3c60:	91 f0       	breq	.+36     	; 0x3c86 <_ZN15Adafruit_ST77xx11setRotationEh+0x48>
    3c62:	61 30       	cpi	r22, 0x01	; 1
    3c64:	19 f0       	breq	.+6      	; 0x3c6c <_ZN15Adafruit_ST77xx11setRotationEh+0x2e>
    3c66:	20 ec       	ldi	r18, 0xC0	; 192
    3c68:	29 83       	std	Y+1, r18	; 0x01
    3c6a:	02 c0       	rjmp	.+4      	; 0x3c70 <_ZN15Adafruit_ST77xx11setRotationEh+0x32>
    3c6c:	20 ea       	ldi	r18, 0xA0	; 160
    3c6e:	0c c0       	rjmp	.+24     	; 0x3c88 <_ZN15Adafruit_ST77xx11setRotationEh+0x4a>
    3c70:	dc 01       	movw	r26, r24
    3c72:	8c 91       	ld	r24, X
    3c74:	90 e0       	ldi	r25, 0x00	; 0
    3c76:	92 af       	std	Z+58, r25	; 0x3a
    3c78:	81 af       	std	Z+57, r24	; 0x39
    3c7a:	da 01       	movw	r26, r20
    3c7c:	8c 91       	ld	r24, X
    3c7e:	90 e0       	ldi	r25, 0x00	; 0
    3c80:	94 af       	std	Z+60, r25	; 0x3c
    3c82:	83 af       	std	Z+59, r24	; 0x3b
    3c84:	0c c0       	rjmp	.+24     	; 0x3c9e <_ZN15Adafruit_ST77xx11setRotationEh+0x60>
    3c86:	20 e6       	ldi	r18, 0x60	; 96
    3c88:	29 83       	std	Y+1, r18	; 0x01
    3c8a:	dc 01       	movw	r26, r24
    3c8c:	8c 91       	ld	r24, X
    3c8e:	90 e0       	ldi	r25, 0x00	; 0
    3c90:	94 af       	std	Z+60, r25	; 0x3c
    3c92:	83 af       	std	Z+59, r24	; 0x3b
    3c94:	da 01       	movw	r26, r20
    3c96:	8c 91       	ld	r24, X
    3c98:	90 e0       	ldi	r25, 0x00	; 0
    3c9a:	92 af       	std	Z+58, r25	; 0x3a
    3c9c:	81 af       	std	Z+57, r24	; 0x39
    3c9e:	21 e0       	ldi	r18, 0x01	; 1
    3ca0:	ae 01       	movw	r20, r28
    3ca2:	4f 5f       	subi	r20, 0xFF	; 255
    3ca4:	5f 4f       	sbci	r21, 0xFF	; 255
    3ca6:	66 e3       	ldi	r22, 0x36	; 54
    3ca8:	cf 01       	movw	r24, r30
    3caa:	8c d9       	rcall	.-3304   	; 0x2fc4 <_ZN15Adafruit_SPITFT11sendCommandEhPhh>
    3cac:	0f 90       	pop	r0
    3cae:	df 91       	pop	r29
    3cb0:	cf 91       	pop	r28
    3cb2:	08 95       	ret

00003cb4 <_ZN15Adafruit_ST77xxC1Ejjaaa>:
    3cb4:	ef 92       	push	r14
    3cb6:	0f 93       	push	r16
    3cb8:	cf 93       	push	r28
    3cba:	df 93       	push	r29
    3cbc:	ec 01       	movw	r28, r24
    3cbe:	0e 94 01 16 	call	0x2c02	; 0x2c02 <_ZN15Adafruit_SPITFTC1Ejjaaa>
    3cc2:	81 e5       	ldi	r24, 0x51	; 81
    3cc4:	95 e0       	ldi	r25, 0x05	; 5
    3cc6:	99 83       	std	Y+1, r25	; 0x01
    3cc8:	88 83       	st	Y, r24
    3cca:	fe 01       	movw	r30, r28
    3ccc:	ed 5b       	subi	r30, 0xBD	; 189
    3cce:	ff 4f       	sbci	r31, 0xFF	; 255
    3cd0:	10 82       	st	Z, r1
    3cd2:	31 96       	adiw	r30, 0x01	; 1
    3cd4:	10 82       	st	Z, r1
    3cd6:	cb 5b       	subi	r28, 0xBB	; 187
    3cd8:	df 4f       	sbci	r29, 0xFF	; 255
    3cda:	18 82       	st	Y, r1
    3cdc:	df 91       	pop	r29
    3cde:	cf 91       	pop	r28
    3ce0:	0f 91       	pop	r16
    3ce2:	ef 90       	pop	r14
    3ce4:	08 95       	ret

00003ce6 <_ZN15Adafruit_ST77xx11displayInitEPKh>:
    3ce6:	cf 92       	push	r12
    3ce8:	df 92       	push	r13
    3cea:	ff 92       	push	r15
    3cec:	0f 93       	push	r16
    3cee:	1f 93       	push	r17
    3cf0:	cf 93       	push	r28
    3cf2:	df 93       	push	r29
    3cf4:	8c 01       	movw	r16, r24
    3cf6:	cb 01       	movw	r24, r22
    3cf8:	01 96       	adiw	r24, 0x01	; 1
    3cfa:	fb 01       	movw	r30, r22
    3cfc:	f4 90       	lpm	r15, Z
    3cfe:	ff 20       	and	r15, r15
    3d00:	31 f1       	breq	.+76     	; 0x3d4e <_ZN15Adafruit_ST77xx11displayInitEPKh+0x68>
    3d02:	fc 01       	movw	r30, r24
    3d04:	64 91       	lpm	r22, Z
    3d06:	6c 01       	movw	r12, r24
    3d08:	f2 e0       	ldi	r31, 0x02	; 2
    3d0a:	cf 0e       	add	r12, r31
    3d0c:	d1 1c       	adc	r13, r1
    3d0e:	fc 01       	movw	r30, r24
    3d10:	31 96       	adiw	r30, 0x01	; 1
    3d12:	c4 91       	lpm	r28, Z
    3d14:	dc 2f       	mov	r29, r28
    3d16:	df 77       	andi	r29, 0x7F	; 127
    3d18:	2d 2f       	mov	r18, r29
    3d1a:	a6 01       	movw	r20, r12
    3d1c:	c8 01       	movw	r24, r16
    3d1e:	a6 d9       	rcall	.-3252   	; 0x306c <_ZN15Adafruit_SPITFT11sendCommandEhPKhh>
    3d20:	c6 01       	movw	r24, r12
    3d22:	8d 0f       	add	r24, r29
    3d24:	91 1d       	adc	r25, r1
    3d26:	c7 fd       	sbrc	r28, 7
    3d28:	02 c0       	rjmp	.+4      	; 0x3d2e <_ZN15Adafruit_ST77xx11displayInitEPKh+0x48>
    3d2a:	fa 94       	dec	r15
    3d2c:	e8 cf       	rjmp	.-48     	; 0x3cfe <_ZN15Adafruit_ST77xx11displayInitEPKh+0x18>
    3d2e:	ec 01       	movw	r28, r24
    3d30:	21 96       	adiw	r28, 0x01	; 1
    3d32:	fc 01       	movw	r30, r24
    3d34:	64 91       	lpm	r22, Z
    3d36:	70 e0       	ldi	r23, 0x00	; 0
    3d38:	6f 3f       	cpi	r22, 0xFF	; 255
    3d3a:	71 05       	cpc	r23, r1
    3d3c:	11 f4       	brne	.+4      	; 0x3d42 <_ZN15Adafruit_ST77xx11displayInitEPKh+0x5c>
    3d3e:	64 ef       	ldi	r22, 0xF4	; 244
    3d40:	71 e0       	ldi	r23, 0x01	; 1
    3d42:	80 e0       	ldi	r24, 0x00	; 0
    3d44:	90 e0       	ldi	r25, 0x00	; 0
    3d46:	0e 94 6b 0c 	call	0x18d6	; 0x18d6 <delay>
    3d4a:	ce 01       	movw	r24, r28
    3d4c:	ee cf       	rjmp	.-36     	; 0x3d2a <_ZN15Adafruit_ST77xx11displayInitEPKh+0x44>
    3d4e:	df 91       	pop	r29
    3d50:	cf 91       	pop	r28
    3d52:	1f 91       	pop	r17
    3d54:	0f 91       	pop	r16
    3d56:	ff 90       	pop	r15
    3d58:	df 90       	pop	r13
    3d5a:	cf 90       	pop	r12
    3d5c:	08 95       	ret

00003d5e <_ZN15Adafruit_ST77xx10commonInitEPKh>:
    3d5e:	0f 93       	push	r16
    3d60:	1f 93       	push	r17
    3d62:	cf 93       	push	r28
    3d64:	df 93       	push	r29
    3d66:	ec 01       	movw	r28, r24
    3d68:	8b 01       	movw	r16, r22
    3d6a:	e8 81       	ld	r30, Y
    3d6c:	f9 81       	ldd	r31, Y+1	; 0x01
    3d6e:	00 a4       	ldd	r0, Z+40	; 0x28
    3d70:	f1 a5       	ldd	r31, Z+41	; 0x29
    3d72:	e0 2d       	mov	r30, r0
    3d74:	40 e0       	ldi	r20, 0x00	; 0
    3d76:	50 e0       	ldi	r21, 0x00	; 0
    3d78:	ba 01       	movw	r22, r20
    3d7a:	19 95       	eicall
    3d7c:	01 15       	cp	r16, r1
    3d7e:	11 05       	cpc	r17, r1
    3d80:	39 f0       	breq	.+14     	; 0x3d90 <_ZN15Adafruit_ST77xx10commonInitEPKh+0x32>
    3d82:	b8 01       	movw	r22, r16
    3d84:	ce 01       	movw	r24, r28
    3d86:	df 91       	pop	r29
    3d88:	cf 91       	pop	r28
    3d8a:	1f 91       	pop	r17
    3d8c:	0f 91       	pop	r16
    3d8e:	ab cf       	rjmp	.-170    	; 0x3ce6 <_ZN15Adafruit_ST77xx11displayInitEPKh>
    3d90:	df 91       	pop	r29
    3d92:	cf 91       	pop	r28
    3d94:	1f 91       	pop	r17
    3d96:	0f 91       	pop	r16
    3d98:	08 95       	ret

00003d9a <_ZN6HCSR04C1Eiiii>:
    3d9a:	af 92       	push	r10
    3d9c:	bf 92       	push	r11
    3d9e:	cf 92       	push	r12
    3da0:	df 92       	push	r13
    3da2:	ef 92       	push	r14
    3da4:	ff 92       	push	r15
    3da6:	0f 93       	push	r16
    3da8:	1f 93       	push	r17
    3daa:	cf 93       	push	r28
    3dac:	df 93       	push	r29
    3dae:	ec 01       	movw	r28, r24
    3db0:	e6 2e       	mov	r14, r22
    3db2:	a7 2e       	mov	r10, r23
    3db4:	f4 2e       	mov	r15, r20
    3db6:	b5 2e       	mov	r11, r21
    3db8:	69 01       	movw	r12, r18
    3dba:	8f ef       	ldi	r24, 0xFF	; 255
    3dbc:	9f ef       	ldi	r25, 0xFF	; 255
    3dbe:	9d 83       	std	Y+5, r25	; 0x05
    3dc0:	8c 83       	std	Y+4, r24	; 0x04
    3dc2:	9f 83       	std	Y+7, r25	; 0x07
    3dc4:	8e 83       	std	Y+6, r24	; 0x06
    3dc6:	61 e0       	ldi	r22, 0x01	; 1
    3dc8:	8e 2d       	mov	r24, r14
    3dca:	0e 94 68 0d 	call	0x1ad0	; 0x1ad0 <pinMode>
    3dce:	60 e0       	ldi	r22, 0x00	; 0
    3dd0:	8f 2d       	mov	r24, r15
    3dd2:	0e 94 68 0d 	call	0x1ad0	; 0x1ad0 <pinMode>
    3dd6:	e8 82       	st	Y, r14
    3dd8:	a9 82       	std	Y+1, r10	; 0x01
    3dda:	fa 82       	std	Y+2, r15	; 0x02
    3ddc:	bb 82       	std	Y+3, r11	; 0x03
    3dde:	dd 82       	std	Y+5, r13	; 0x05
    3de0:	cc 82       	std	Y+4, r12	; 0x04
    3de2:	1f 83       	std	Y+7, r17	; 0x07
    3de4:	0e 83       	std	Y+6, r16	; 0x06
    3de6:	df 91       	pop	r29
    3de8:	cf 91       	pop	r28
    3dea:	1f 91       	pop	r17
    3dec:	0f 91       	pop	r16
    3dee:	ff 90       	pop	r15
    3df0:	ef 90       	pop	r14
    3df2:	df 90       	pop	r13
    3df4:	cf 90       	pop	r12
    3df6:	bf 90       	pop	r11
    3df8:	af 90       	pop	r10
    3dfa:	08 95       	ret

00003dfc <_ZN6HCSR0418echoInMicrosecondsEv>:
    3dfc:	cf 92       	push	r12
    3dfe:	df 92       	push	r13
    3e00:	ef 92       	push	r14
    3e02:	ff 92       	push	r15
    3e04:	cf 93       	push	r28
    3e06:	df 93       	push	r29
    3e08:	ec 01       	movw	r28, r24
    3e0a:	60 e0       	ldi	r22, 0x00	; 0
    3e0c:	88 81       	ld	r24, Y
    3e0e:	0e 94 a4 0d 	call	0x1b48	; 0x1b48 <digitalWrite>
    3e12:	85 e0       	ldi	r24, 0x05	; 5
    3e14:	90 e0       	ldi	r25, 0x00	; 0
    3e16:	0e 94 a5 0c 	call	0x194a	; 0x194a <delayMicroseconds>
    3e1a:	61 e0       	ldi	r22, 0x01	; 1
    3e1c:	88 81       	ld	r24, Y
    3e1e:	0e 94 a4 0d 	call	0x1b48	; 0x1b48 <digitalWrite>
    3e22:	8a e0       	ldi	r24, 0x0A	; 10
    3e24:	90 e0       	ldi	r25, 0x00	; 0
    3e26:	0e 94 a5 0c 	call	0x194a	; 0x194a <delayMicroseconds>
    3e2a:	60 e0       	ldi	r22, 0x00	; 0
    3e2c:	88 81       	ld	r24, Y
    3e2e:	0e 94 a4 0d 	call	0x1b48	; 0x1b48 <digitalWrite>
    3e32:	8a 81       	ldd	r24, Y+2	; 0x02
    3e34:	0e 94 d2 0d 	call	0x1ba4	; 0x1ba4 <digitalRead>
    3e38:	89 2b       	or	r24, r25
    3e3a:	d9 f3       	breq	.-10     	; 0x3e32 <_ZN6HCSR0418echoInMicrosecondsEv+0x36>
    3e3c:	0e 94 46 0c 	call	0x188c	; 0x188c <micros>
    3e40:	6b 01       	movw	r12, r22
    3e42:	7c 01       	movw	r14, r24
    3e44:	8a 81       	ldd	r24, Y+2	; 0x02
    3e46:	0e 94 d2 0d 	call	0x1ba4	; 0x1ba4 <digitalRead>
    3e4a:	01 97       	sbiw	r24, 0x01	; 1
    3e4c:	d9 f3       	breq	.-10     	; 0x3e44 <_ZN6HCSR0418echoInMicrosecondsEv+0x48>
    3e4e:	0e 94 46 0c 	call	0x188c	; 0x188c <micros>
    3e52:	cb 01       	movw	r24, r22
    3e54:	8c 19       	sub	r24, r12
    3e56:	9d 09       	sbc	r25, r13
    3e58:	df 91       	pop	r29
    3e5a:	cf 91       	pop	r28
    3e5c:	ff 90       	pop	r15
    3e5e:	ef 90       	pop	r14
    3e60:	df 90       	pop	r13
    3e62:	cf 90       	pop	r12
    3e64:	08 95       	ret

00003e66 <_ZN6HCSR0421distanceInMillimetersEv>:
    3e66:	cf 93       	push	r28
    3e68:	df 93       	push	r29
    3e6a:	ec 01       	movw	r28, r24
    3e6c:	c7 df       	rcall	.-114    	; 0x3dfc <_ZN6HCSR0418echoInMicrosecondsEv>
    3e6e:	97 fd       	sbrc	r25, 7
    3e70:	01 96       	adiw	r24, 0x01	; 1
    3e72:	bc 01       	movw	r22, r24
    3e74:	75 95       	asr	r23
    3e76:	67 95       	ror	r22
    3e78:	07 2e       	mov	r0, r23
    3e7a:	00 0c       	add	r0, r0
    3e7c:	88 0b       	sbc	r24, r24
    3e7e:	99 0b       	sbc	r25, r25
    3e80:	0e 94 6e 06 	call	0xcdc	; 0xcdc <__floatsisf>
    3e84:	27 ee       	ldi	r18, 0xE7	; 231
    3e86:	3b ef       	ldi	r19, 0xFB	; 251
    3e88:	49 ea       	ldi	r20, 0xA9	; 169
    3e8a:	5e e3       	ldi	r21, 0x3E	; 62
    3e8c:	0e 94 29 07 	call	0xe52	; 0xe52 <__mulsf3>
    3e90:	0e 94 3b 06 	call	0xc76	; 0xc76 <__fixsfsi>
    3e94:	9b 01       	movw	r18, r22
    3e96:	4c 81       	ldd	r20, Y+4	; 0x04
    3e98:	5d 81       	ldd	r21, Y+5	; 0x05
    3e9a:	4f 3f       	cpi	r20, 0xFF	; 255
    3e9c:	af ef       	ldi	r26, 0xFF	; 255
    3e9e:	5a 07       	cpc	r21, r26
    3ea0:	21 f4       	brne	.+8      	; 0x3eaa <_ZN6HCSR0421distanceInMillimetersEv+0x44>
    3ea2:	ee 81       	ldd	r30, Y+6	; 0x06
    3ea4:	ff 81       	ldd	r31, Y+7	; 0x07
    3ea6:	31 96       	adiw	r30, 0x01	; 1
    3ea8:	59 f0       	breq	.+22     	; 0x3ec0 <_ZN6HCSR0421distanceInMillimetersEv+0x5a>
    3eaa:	42 17       	cp	r20, r18
    3eac:	53 07       	cpc	r21, r19
    3eae:	2c f4       	brge	.+10     	; 0x3eba <_ZN6HCSR0421distanceInMillimetersEv+0x54>
    3eb0:	4e 81       	ldd	r20, Y+6	; 0x06
    3eb2:	5f 81       	ldd	r21, Y+7	; 0x07
    3eb4:	24 17       	cp	r18, r20
    3eb6:	35 07       	cpc	r19, r21
    3eb8:	1c f0       	brlt	.+6      	; 0x3ec0 <_ZN6HCSR0421distanceInMillimetersEv+0x5a>
    3eba:	8f ef       	ldi	r24, 0xFF	; 255
    3ebc:	9f ef       	ldi	r25, 0xFF	; 255
    3ebe:	01 c0       	rjmp	.+2      	; 0x3ec2 <_ZN6HCSR0421distanceInMillimetersEv+0x5c>
    3ec0:	cb 01       	movw	r24, r22
    3ec2:	df 91       	pop	r29
    3ec4:	cf 91       	pop	r28
    3ec6:	08 95       	ret

00003ec8 <_ZN8SPIClass5beginEv>:
    3ec8:	cf 93       	push	r28
    3eca:	cf b7       	in	r28, 0x3f	; 63
    3ecc:	f8 94       	cli
    3ece:	80 91 a8 07 	lds	r24, 0x07A8	; 0x8007a8 <_ZN8SPIClass11initializedE>
    3ed2:	81 11       	cpse	r24, r1
    3ed4:	27 c0       	rjmp	.+78     	; 0x3f24 <_ZN8SPIClass5beginEv+0x5c>
    3ed6:	e1 ee       	ldi	r30, 0xE1	; 225
    3ed8:	f1 e0       	ldi	r31, 0x01	; 1
    3eda:	84 91       	lpm	r24, Z
    3edc:	eb e9       	ldi	r30, 0x9B	; 155
    3ede:	f1 e0       	ldi	r31, 0x01	; 1
    3ee0:	94 91       	lpm	r25, Z
    3ee2:	e8 2f       	mov	r30, r24
    3ee4:	f0 e0       	ldi	r31, 0x00	; 0
    3ee6:	ee 0f       	add	r30, r30
    3ee8:	ff 1f       	adc	r31, r31
    3eea:	ea 5d       	subi	r30, 0xDA	; 218
    3eec:	fd 4f       	sbci	r31, 0xFD	; 253
    3eee:	a5 91       	lpm	r26, Z+
    3ef0:	b4 91       	lpm	r27, Z
    3ef2:	ec 91       	ld	r30, X
    3ef4:	e9 23       	and	r30, r25
    3ef6:	21 f4       	brne	.+8      	; 0x3f00 <_ZN8SPIClass5beginEv+0x38>
    3ef8:	61 e0       	ldi	r22, 0x01	; 1
    3efa:	85 e3       	ldi	r24, 0x35	; 53
    3efc:	0e 94 a4 0d 	call	0x1b48	; 0x1b48 <digitalWrite>
    3f00:	61 e0       	ldi	r22, 0x01	; 1
    3f02:	85 e3       	ldi	r24, 0x35	; 53
    3f04:	0e 94 68 0d 	call	0x1ad0	; 0x1ad0 <pinMode>
    3f08:	8c b5       	in	r24, 0x2c	; 44
    3f0a:	80 61       	ori	r24, 0x10	; 16
    3f0c:	8c bd       	out	0x2c, r24	; 44
    3f0e:	8c b5       	in	r24, 0x2c	; 44
    3f10:	80 64       	ori	r24, 0x40	; 64
    3f12:	8c bd       	out	0x2c, r24	; 44
    3f14:	61 e0       	ldi	r22, 0x01	; 1
    3f16:	84 e3       	ldi	r24, 0x34	; 52
    3f18:	0e 94 68 0d 	call	0x1ad0	; 0x1ad0 <pinMode>
    3f1c:	61 e0       	ldi	r22, 0x01	; 1
    3f1e:	83 e3       	ldi	r24, 0x33	; 51
    3f20:	0e 94 68 0d 	call	0x1ad0	; 0x1ad0 <pinMode>
    3f24:	80 91 a8 07 	lds	r24, 0x07A8	; 0x8007a8 <_ZN8SPIClass11initializedE>
    3f28:	8f 5f       	subi	r24, 0xFF	; 255
    3f2a:	80 93 a8 07 	sts	0x07A8, r24	; 0x8007a8 <_ZN8SPIClass11initializedE>
    3f2e:	cf bf       	out	0x3f, r28	; 63
    3f30:	cf 91       	pop	r28
    3f32:	08 95       	ret

00003f34 <_ZN7TwoWire9availableEv>:
    3f34:	80 91 de 07 	lds	r24, 0x07DE	; 0x8007de <_ZN7TwoWire14rxBufferLengthE>
    3f38:	90 e0       	ldi	r25, 0x00	; 0
    3f3a:	20 91 df 07 	lds	r18, 0x07DF	; 0x8007df <_ZN7TwoWire13rxBufferIndexE>
    3f3e:	82 1b       	sub	r24, r18
    3f40:	91 09       	sbc	r25, r1
    3f42:	08 95       	ret

00003f44 <_ZN7TwoWire4readEv>:
    3f44:	90 91 df 07 	lds	r25, 0x07DF	; 0x8007df <_ZN7TwoWire13rxBufferIndexE>
    3f48:	80 91 de 07 	lds	r24, 0x07DE	; 0x8007de <_ZN7TwoWire14rxBufferLengthE>
    3f4c:	98 17       	cp	r25, r24
    3f4e:	50 f4       	brcc	.+20     	; 0x3f64 <_ZN7TwoWire4readEv+0x20>
    3f50:	e9 2f       	mov	r30, r25
    3f52:	f0 e0       	ldi	r31, 0x00	; 0
    3f54:	e0 52       	subi	r30, 0x20	; 32
    3f56:	f8 4f       	sbci	r31, 0xF8	; 248
    3f58:	20 81       	ld	r18, Z
    3f5a:	30 e0       	ldi	r19, 0x00	; 0
    3f5c:	9f 5f       	subi	r25, 0xFF	; 255
    3f5e:	90 93 df 07 	sts	0x07DF, r25	; 0x8007df <_ZN7TwoWire13rxBufferIndexE>
    3f62:	02 c0       	rjmp	.+4      	; 0x3f68 <_ZN7TwoWire4readEv+0x24>
    3f64:	2f ef       	ldi	r18, 0xFF	; 255
    3f66:	3f ef       	ldi	r19, 0xFF	; 255
    3f68:	c9 01       	movw	r24, r18
    3f6a:	08 95       	ret

00003f6c <_ZN7TwoWire4peekEv>:
    3f6c:	e0 91 df 07 	lds	r30, 0x07DF	; 0x8007df <_ZN7TwoWire13rxBufferIndexE>
    3f70:	80 91 de 07 	lds	r24, 0x07DE	; 0x8007de <_ZN7TwoWire14rxBufferLengthE>
    3f74:	e8 17       	cp	r30, r24
    3f76:	30 f4       	brcc	.+12     	; 0x3f84 <_ZN7TwoWire4peekEv+0x18>
    3f78:	f0 e0       	ldi	r31, 0x00	; 0
    3f7a:	e0 52       	subi	r30, 0x20	; 32
    3f7c:	f8 4f       	sbci	r31, 0xF8	; 248
    3f7e:	80 81       	ld	r24, Z
    3f80:	90 e0       	ldi	r25, 0x00	; 0
    3f82:	08 95       	ret
    3f84:	8f ef       	ldi	r24, 0xFF	; 255
    3f86:	9f ef       	ldi	r25, 0xFF	; 255
    3f88:	08 95       	ret

00003f8a <_ZN7TwoWire5flushEv>:
    3f8a:	08 95       	ret

00003f8c <_ZN7TwoWire16onReceiveServiceEPhi>:
    3f8c:	cf 93       	push	r28
    3f8e:	df 93       	push	r29
    3f90:	ec 01       	movw	r28, r24
    3f92:	e0 91 b6 07 	lds	r30, 0x07B6	; 0x8007b6 <_ZN7TwoWire14user_onReceiveE>
    3f96:	f0 91 b7 07 	lds	r31, 0x07B7	; 0x8007b7 <_ZN7TwoWire14user_onReceiveE+0x1>
    3f9a:	30 97       	sbiw	r30, 0x00	; 0
    3f9c:	f1 f0       	breq	.+60     	; 0x3fda <_ZN7TwoWire16onReceiveServiceEPhi+0x4e>
    3f9e:	90 91 df 07 	lds	r25, 0x07DF	; 0x8007df <_ZN7TwoWire13rxBufferIndexE>
    3fa2:	80 91 de 07 	lds	r24, 0x07DE	; 0x8007de <_ZN7TwoWire14rxBufferLengthE>
    3fa6:	98 17       	cp	r25, r24
    3fa8:	c0 f0       	brcs	.+48     	; 0x3fda <_ZN7TwoWire16onReceiveServiceEPhi+0x4e>
    3faa:	90 e0       	ldi	r25, 0x00	; 0
    3fac:	29 2f       	mov	r18, r25
    3fae:	30 e0       	ldi	r19, 0x00	; 0
    3fb0:	26 17       	cp	r18, r22
    3fb2:	37 07       	cpc	r19, r23
    3fb4:	54 f4       	brge	.+20     	; 0x3fca <_ZN7TwoWire16onReceiveServiceEPhi+0x3e>
    3fb6:	de 01       	movw	r26, r28
    3fb8:	a2 0f       	add	r26, r18
    3fba:	b3 1f       	adc	r27, r19
    3fbc:	4c 91       	ld	r20, X
    3fbe:	d9 01       	movw	r26, r18
    3fc0:	a0 52       	subi	r26, 0x20	; 32
    3fc2:	b8 4f       	sbci	r27, 0xF8	; 248
    3fc4:	4c 93       	st	X, r20
    3fc6:	9f 5f       	subi	r25, 0xFF	; 255
    3fc8:	f1 cf       	rjmp	.-30     	; 0x3fac <_ZN7TwoWire16onReceiveServiceEPhi+0x20>
    3fca:	10 92 df 07 	sts	0x07DF, r1	; 0x8007df <_ZN7TwoWire13rxBufferIndexE>
    3fce:	60 93 de 07 	sts	0x07DE, r22	; 0x8007de <_ZN7TwoWire14rxBufferLengthE>
    3fd2:	cb 01       	movw	r24, r22
    3fd4:	df 91       	pop	r29
    3fd6:	cf 91       	pop	r28
    3fd8:	19 94       	eijmp
    3fda:	df 91       	pop	r29
    3fdc:	cf 91       	pop	r28
    3fde:	08 95       	ret

00003fe0 <_ZN7TwoWire16onRequestServiceEv>:
    3fe0:	e0 91 b8 07 	lds	r30, 0x07B8	; 0x8007b8 <_ZN7TwoWire14user_onRequestE>
    3fe4:	f0 91 b9 07 	lds	r31, 0x07B9	; 0x8007b9 <_ZN7TwoWire14user_onRequestE+0x1>
    3fe8:	30 97       	sbiw	r30, 0x00	; 0
    3fea:	29 f0       	breq	.+10     	; 0x3ff6 <_ZN7TwoWire16onRequestServiceEv+0x16>
    3fec:	10 92 bc 07 	sts	0x07BC, r1	; 0x8007bc <_ZN7TwoWire13txBufferIndexE>
    3ff0:	10 92 bb 07 	sts	0x07BB, r1	; 0x8007bb <_ZN7TwoWire14txBufferLengthE>
    3ff4:	19 94       	eijmp
    3ff6:	08 95       	ret

00003ff8 <_ZN7TwoWire5writeEPKhj>:
    3ff8:	cf 92       	push	r12
    3ffa:	df 92       	push	r13
    3ffc:	ef 92       	push	r14
    3ffe:	ff 92       	push	r15
    4000:	0f 93       	push	r16
    4002:	1f 93       	push	r17
    4004:	cf 93       	push	r28
    4006:	df 93       	push	r29
    4008:	7c 01       	movw	r14, r24
    400a:	cb 01       	movw	r24, r22
    400c:	8a 01       	movw	r16, r20
    400e:	20 91 ba 07 	lds	r18, 0x07BA	; 0x8007ba <_ZN7TwoWire12transmittingE>
    4012:	22 23       	and	r18, r18
    4014:	89 f0       	breq	.+34     	; 0x4038 <_ZN7TwoWire5writeEPKhj+0x40>
    4016:	eb 01       	movw	r28, r22
    4018:	6b 01       	movw	r12, r22
    401a:	c4 0e       	add	r12, r20
    401c:	d5 1e       	adc	r13, r21
    401e:	cc 15       	cp	r28, r12
    4020:	dd 05       	cpc	r29, r13
    4022:	61 f0       	breq	.+24     	; 0x403c <_ZN7TwoWire5writeEPKhj+0x44>
    4024:	69 91       	ld	r22, Y+
    4026:	d7 01       	movw	r26, r14
    4028:	ed 91       	ld	r30, X+
    402a:	fc 91       	ld	r31, X
    402c:	01 90       	ld	r0, Z+
    402e:	f0 81       	ld	r31, Z
    4030:	e0 2d       	mov	r30, r0
    4032:	c7 01       	movw	r24, r14
    4034:	19 95       	eicall
    4036:	f3 cf       	rjmp	.-26     	; 0x401e <_ZN7TwoWire5writeEPKhj+0x26>
    4038:	64 2f       	mov	r22, r20
    403a:	98 d1       	rcall	.+816    	; 0x436c <twi_transmit>
    403c:	c8 01       	movw	r24, r16
    403e:	df 91       	pop	r29
    4040:	cf 91       	pop	r28
    4042:	1f 91       	pop	r17
    4044:	0f 91       	pop	r16
    4046:	ff 90       	pop	r15
    4048:	ef 90       	pop	r14
    404a:	df 90       	pop	r13
    404c:	cf 90       	pop	r12
    404e:	08 95       	ret

00004050 <_ZN7TwoWire5writeEh>:
    4050:	cf 93       	push	r28
    4052:	df 93       	push	r29
    4054:	1f 92       	push	r1
    4056:	cd b7       	in	r28, 0x3d	; 61
    4058:	de b7       	in	r29, 0x3e	; 62
    405a:	69 83       	std	Y+1, r22	; 0x01
    405c:	20 91 ba 07 	lds	r18, 0x07BA	; 0x8007ba <_ZN7TwoWire12transmittingE>
    4060:	22 23       	and	r18, r18
    4062:	d1 f0       	breq	.+52     	; 0x4098 <_ZN7TwoWire5writeEh+0x48>
    4064:	20 91 bb 07 	lds	r18, 0x07BB	; 0x8007bb <_ZN7TwoWire14txBufferLengthE>
    4068:	20 32       	cpi	r18, 0x20	; 32
    406a:	40 f0       	brcs	.+16     	; 0x407c <_ZN7TwoWire5writeEh+0x2c>
    406c:	21 e0       	ldi	r18, 0x01	; 1
    406e:	30 e0       	ldi	r19, 0x00	; 0
    4070:	fc 01       	movw	r30, r24
    4072:	33 83       	std	Z+3, r19	; 0x03
    4074:	22 83       	std	Z+2, r18	; 0x02
    4076:	80 e0       	ldi	r24, 0x00	; 0
    4078:	90 e0       	ldi	r25, 0x00	; 0
    407a:	14 c0       	rjmp	.+40     	; 0x40a4 <_ZN7TwoWire5writeEh+0x54>
    407c:	80 91 bc 07 	lds	r24, 0x07BC	; 0x8007bc <_ZN7TwoWire13txBufferIndexE>
    4080:	e8 2f       	mov	r30, r24
    4082:	f0 e0       	ldi	r31, 0x00	; 0
    4084:	e3 54       	subi	r30, 0x43	; 67
    4086:	f8 4f       	sbci	r31, 0xF8	; 248
    4088:	99 81       	ldd	r25, Y+1	; 0x01
    408a:	90 83       	st	Z, r25
    408c:	8f 5f       	subi	r24, 0xFF	; 255
    408e:	80 93 bc 07 	sts	0x07BC, r24	; 0x8007bc <_ZN7TwoWire13txBufferIndexE>
    4092:	80 93 bb 07 	sts	0x07BB, r24	; 0x8007bb <_ZN7TwoWire14txBufferLengthE>
    4096:	04 c0       	rjmp	.+8      	; 0x40a0 <_ZN7TwoWire5writeEh+0x50>
    4098:	61 e0       	ldi	r22, 0x01	; 1
    409a:	ce 01       	movw	r24, r28
    409c:	01 96       	adiw	r24, 0x01	; 1
    409e:	66 d1       	rcall	.+716    	; 0x436c <twi_transmit>
    40a0:	81 e0       	ldi	r24, 0x01	; 1
    40a2:	90 e0       	ldi	r25, 0x00	; 0
    40a4:	0f 90       	pop	r0
    40a6:	df 91       	pop	r29
    40a8:	cf 91       	pop	r28
    40aa:	08 95       	ret

000040ac <_ZN7TwoWireC1Ev>:
    40ac:	fc 01       	movw	r30, r24
    40ae:	13 82       	std	Z+3, r1	; 0x03
    40b0:	12 82       	std	Z+2, r1	; 0x02
    40b2:	88 ee       	ldi	r24, 0xE8	; 232
    40b4:	93 e0       	ldi	r25, 0x03	; 3
    40b6:	a0 e0       	ldi	r26, 0x00	; 0
    40b8:	b0 e0       	ldi	r27, 0x00	; 0
    40ba:	84 83       	std	Z+4, r24	; 0x04
    40bc:	95 83       	std	Z+5, r25	; 0x05
    40be:	a6 83       	std	Z+6, r26	; 0x06
    40c0:	b7 83       	std	Z+7, r27	; 0x07
    40c2:	81 e8       	ldi	r24, 0x81	; 129
    40c4:	95 e0       	ldi	r25, 0x05	; 5
    40c6:	91 83       	std	Z+1, r25	; 0x01
    40c8:	80 83       	st	Z, r24
    40ca:	08 95       	ret

000040cc <_ZN7TwoWire5beginEv>:
    40cc:	10 92 df 07 	sts	0x07DF, r1	; 0x8007df <_ZN7TwoWire13rxBufferIndexE>
    40d0:	10 92 de 07 	sts	0x07DE, r1	; 0x8007de <_ZN7TwoWire14rxBufferLengthE>
    40d4:	10 92 bc 07 	sts	0x07BC, r1	; 0x8007bc <_ZN7TwoWire13txBufferIndexE>
    40d8:	10 92 bb 07 	sts	0x07BB, r1	; 0x8007bb <_ZN7TwoWire14txBufferLengthE>
    40dc:	8b d0       	rcall	.+278    	; 0x41f4 <twi_init>
    40de:	80 ef       	ldi	r24, 0xF0	; 240
    40e0:	9f e1       	ldi	r25, 0x1F	; 31
    40e2:	71 d1       	rcall	.+738    	; 0x43c6 <twi_attachSlaveTxEvent>
    40e4:	86 ec       	ldi	r24, 0xC6	; 198
    40e6:	9f e1       	ldi	r25, 0x1F	; 31
    40e8:	69 c1       	rjmp	.+722    	; 0x43bc <twi_attachSlaveRxEvent>

000040ea <_ZN7TwoWire17beginTransmissionEh>:
    40ea:	81 e0       	ldi	r24, 0x01	; 1
    40ec:	80 93 ba 07 	sts	0x07BA, r24	; 0x8007ba <_ZN7TwoWire12transmittingE>
    40f0:	60 93 dd 07 	sts	0x07DD, r22	; 0x8007dd <_ZN7TwoWire9txAddressE>
    40f4:	10 92 bc 07 	sts	0x07BC, r1	; 0x8007bc <_ZN7TwoWire13txBufferIndexE>
    40f8:	10 92 bb 07 	sts	0x07BB, r1	; 0x8007bb <_ZN7TwoWire14txBufferLengthE>
    40fc:	08 95       	ret

000040fe <_ZN7TwoWire15endTransmissionEh>:
    40fe:	0f 93       	push	r16
    4100:	06 2f       	mov	r16, r22
    4102:	21 e0       	ldi	r18, 0x01	; 1
    4104:	40 91 bb 07 	lds	r20, 0x07BB	; 0x8007bb <_ZN7TwoWire14txBufferLengthE>
    4108:	6d eb       	ldi	r22, 0xBD	; 189
    410a:	77 e0       	ldi	r23, 0x07	; 7
    410c:	80 91 dd 07 	lds	r24, 0x07DD	; 0x8007dd <_ZN7TwoWire9txAddressE>
    4110:	d7 d0       	rcall	.+430    	; 0x42c0 <twi_writeTo>
    4112:	10 92 bc 07 	sts	0x07BC, r1	; 0x8007bc <_ZN7TwoWire13txBufferIndexE>
    4116:	10 92 bb 07 	sts	0x07BB, r1	; 0x8007bb <_ZN7TwoWire14txBufferLengthE>
    411a:	10 92 ba 07 	sts	0x07BA, r1	; 0x8007ba <_ZN7TwoWire12transmittingE>
    411e:	0f 91       	pop	r16
    4120:	08 95       	ret

00004122 <_ZN7TwoWire11requestFromEhhmhh>:
    4122:	4f 92       	push	r4
    4124:	5f 92       	push	r5
    4126:	6f 92       	push	r6
    4128:	7f 92       	push	r7
    412a:	af 92       	push	r10
    412c:	bf 92       	push	r11
    412e:	cf 92       	push	r12
    4130:	ef 92       	push	r14
    4132:	ff 92       	push	r15
    4134:	0f 93       	push	r16
    4136:	1f 93       	push	r17
    4138:	cf 93       	push	r28
    413a:	df 93       	push	r29
    413c:	5c 01       	movw	r10, r24
    413e:	f6 2e       	mov	r15, r22
    4140:	d4 2f       	mov	r29, r20
    4142:	28 01       	movw	r4, r16
    4144:	39 01       	movw	r6, r18
    4146:	ee 20       	and	r14, r14
    4148:	11 f1       	breq	.+68     	; 0x418e <_ZN7TwoWire11requestFromEhhmhh+0x6c>
    414a:	cf df       	rcall	.-98     	; 0x40ea <_ZN7TwoWire17beginTransmissionEh>
    414c:	ce 2d       	mov	r28, r14
    414e:	c4 30       	cpi	r28, 0x04	; 4
    4150:	08 f0       	brcs	.+2      	; 0x4154 <_ZN7TwoWire11requestFromEhhmhh+0x32>
    4152:	c3 e0       	ldi	r28, 0x03	; 3
    4154:	c1 50       	subi	r28, 0x01	; 1
    4156:	c0 f0       	brcs	.+48     	; 0x4188 <_ZN7TwoWire11requestFromEhhmhh+0x66>
    4158:	28 e0       	ldi	r18, 0x08	; 8
    415a:	c2 9f       	mul	r28, r18
    415c:	c0 01       	movw	r24, r0
    415e:	11 24       	eor	r1, r1
    4160:	a3 01       	movw	r20, r6
    4162:	92 01       	movw	r18, r4
    4164:	04 c0       	rjmp	.+8      	; 0x416e <_ZN7TwoWire11requestFromEhhmhh+0x4c>
    4166:	56 95       	lsr	r21
    4168:	47 95       	ror	r20
    416a:	37 95       	ror	r19
    416c:	27 95       	ror	r18
    416e:	8a 95       	dec	r24
    4170:	d2 f7       	brpl	.-12     	; 0x4166 <_ZN7TwoWire11requestFromEhhmhh+0x44>
    4172:	ca 01       	movw	r24, r20
    4174:	b9 01       	movw	r22, r18
    4176:	d5 01       	movw	r26, r10
    4178:	ed 91       	ld	r30, X+
    417a:	fc 91       	ld	r31, X
    417c:	01 90       	ld	r0, Z+
    417e:	f0 81       	ld	r31, Z
    4180:	e0 2d       	mov	r30, r0
    4182:	c5 01       	movw	r24, r10
    4184:	19 95       	eicall
    4186:	e6 cf       	rjmp	.-52     	; 0x4154 <_ZN7TwoWire11requestFromEhhmhh+0x32>
    4188:	60 e0       	ldi	r22, 0x00	; 0
    418a:	c5 01       	movw	r24, r10
    418c:	b8 df       	rcall	.-144    	; 0x40fe <_ZN7TwoWire15endTransmissionEh>
    418e:	4d 2f       	mov	r20, r29
    4190:	d1 32       	cpi	r29, 0x21	; 33
    4192:	08 f0       	brcs	.+2      	; 0x4196 <_ZN7TwoWire11requestFromEhhmhh+0x74>
    4194:	40 e2       	ldi	r20, 0x20	; 32
    4196:	2c 2d       	mov	r18, r12
    4198:	60 ee       	ldi	r22, 0xE0	; 224
    419a:	77 e0       	ldi	r23, 0x07	; 7
    419c:	8f 2d       	mov	r24, r15
    419e:	48 d0       	rcall	.+144    	; 0x4230 <twi_readFrom>
    41a0:	10 92 df 07 	sts	0x07DF, r1	; 0x8007df <_ZN7TwoWire13rxBufferIndexE>
    41a4:	80 93 de 07 	sts	0x07DE, r24	; 0x8007de <_ZN7TwoWire14rxBufferLengthE>
    41a8:	df 91       	pop	r29
    41aa:	cf 91       	pop	r28
    41ac:	1f 91       	pop	r17
    41ae:	0f 91       	pop	r16
    41b0:	ff 90       	pop	r15
    41b2:	ef 90       	pop	r14
    41b4:	cf 90       	pop	r12
    41b6:	bf 90       	pop	r11
    41b8:	af 90       	pop	r10
    41ba:	7f 90       	pop	r7
    41bc:	6f 90       	pop	r6
    41be:	5f 90       	pop	r5
    41c0:	4f 90       	pop	r4
    41c2:	08 95       	ret

000041c4 <_ZN7TwoWire11requestFromEhhh>:
    41c4:	cf 92       	push	r12
    41c6:	ef 92       	push	r14
    41c8:	0f 93       	push	r16
    41ca:	1f 93       	push	r17
    41cc:	c2 2e       	mov	r12, r18
    41ce:	e1 2c       	mov	r14, r1
    41d0:	00 e0       	ldi	r16, 0x00	; 0
    41d2:	10 e0       	ldi	r17, 0x00	; 0
    41d4:	98 01       	movw	r18, r16
    41d6:	a5 df       	rcall	.-182    	; 0x4122 <_ZN7TwoWire11requestFromEhhmhh>
    41d8:	1f 91       	pop	r17
    41da:	0f 91       	pop	r16
    41dc:	ef 90       	pop	r14
    41de:	cf 90       	pop	r12
    41e0:	08 95       	ret

000041e2 <_ZN7TwoWire11requestFromEhh>:
    41e2:	21 e0       	ldi	r18, 0x01	; 1
    41e4:	ef cf       	rjmp	.-34     	; 0x41c4 <_ZN7TwoWire11requestFromEhhh>

000041e6 <_ZN7TwoWire15endTransmissionEv>:
    41e6:	61 e0       	ldi	r22, 0x01	; 1
    41e8:	8a cf       	rjmp	.-236    	; 0x40fe <_ZN7TwoWire15endTransmissionEh>

000041ea <_GLOBAL__sub_I__ZN7TwoWire8rxBufferE>:
    41ea:	8a ea       	ldi	r24, 0xAA	; 170
    41ec:	97 e0       	ldi	r25, 0x07	; 7
    41ee:	5e cf       	rjmp	.-324    	; 0x40ac <_ZN7TwoWireC1Ev>

000041f0 <__cxa_pure_virtual>:
    41f0:	8e d3       	rcall	.+1820   	; 0x490e <abort>

000041f2 <yield>:
    41f2:	08 95       	ret

000041f4 <twi_init>:
    41f4:	10 92 6d 08 	sts	0x086D, r1	; 0x80086d <twi_state>
    41f8:	81 e0       	ldi	r24, 0x01	; 1
    41fa:	80 93 6b 08 	sts	0x086B, r24	; 0x80086b <twi_sendStop>
    41fe:	10 92 6a 08 	sts	0x086A, r1	; 0x80086a <twi_inRepStart>
    4202:	61 e0       	ldi	r22, 0x01	; 1
    4204:	84 e1       	ldi	r24, 0x14	; 20
    4206:	0e 94 a4 0d 	call	0x1b48	; 0x1b48 <digitalWrite>
    420a:	61 e0       	ldi	r22, 0x01	; 1
    420c:	85 e1       	ldi	r24, 0x15	; 21
    420e:	0e 94 a4 0d 	call	0x1b48	; 0x1b48 <digitalWrite>
    4212:	e9 eb       	ldi	r30, 0xB9	; 185
    4214:	f0 e0       	ldi	r31, 0x00	; 0
    4216:	80 81       	ld	r24, Z
    4218:	8e 7f       	andi	r24, 0xFE	; 254
    421a:	80 83       	st	Z, r24
    421c:	80 81       	ld	r24, Z
    421e:	8d 7f       	andi	r24, 0xFD	; 253
    4220:	80 83       	st	Z, r24
    4222:	88 e4       	ldi	r24, 0x48	; 72
    4224:	80 93 b8 00 	sts	0x00B8, r24	; 0x8000b8 <__TEXT_REGION_LENGTH__+0x7000b8>
    4228:	85 e4       	ldi	r24, 0x45	; 69
    422a:	80 93 bc 00 	sts	0x00BC, r24	; 0x8000bc <__TEXT_REGION_LENGTH__+0x7000bc>
    422e:	08 95       	ret

00004230 <twi_readFrom>:
    4230:	41 32       	cpi	r20, 0x21	; 33
    4232:	08 f0       	brcs	.+2      	; 0x4236 <twi_readFrom+0x6>
    4234:	43 c0       	rjmp	.+134    	; 0x42bc <twi_readFrom+0x8c>
    4236:	90 91 6d 08 	lds	r25, 0x086D	; 0x80086d <twi_state>
    423a:	91 11       	cpse	r25, r1
    423c:	fc cf       	rjmp	.-8      	; 0x4236 <twi_readFrom+0x6>
    423e:	91 e0       	ldi	r25, 0x01	; 1
    4240:	90 93 6d 08 	sts	0x086D, r25	; 0x80086d <twi_state>
    4244:	20 93 6b 08 	sts	0x086B, r18	; 0x80086b <twi_sendStop>
    4248:	2f ef       	ldi	r18, 0xFF	; 255
    424a:	20 93 00 08 	sts	0x0800, r18	; 0x800800 <twi_error>
    424e:	10 92 45 08 	sts	0x0845, r1	; 0x800845 <twi_masterBufferIndex>
    4252:	24 0f       	add	r18, r20
    4254:	20 93 44 08 	sts	0x0844, r18	; 0x800844 <twi_masterBufferLength>
    4258:	90 93 6c 08 	sts	0x086C, r25	; 0x80086c <twi_slarw>
    425c:	90 91 6c 08 	lds	r25, 0x086C	; 0x80086c <twi_slarw>
    4260:	88 0f       	add	r24, r24
    4262:	89 2b       	or	r24, r25
    4264:	80 93 6c 08 	sts	0x086C, r24	; 0x80086c <twi_slarw>
    4268:	80 91 6a 08 	lds	r24, 0x086A	; 0x80086a <twi_inRepStart>
    426c:	81 30       	cpi	r24, 0x01	; 1
    426e:	61 f4       	brne	.+24     	; 0x4288 <twi_readFrom+0x58>
    4270:	10 92 6a 08 	sts	0x086A, r1	; 0x80086a <twi_inRepStart>
    4274:	80 91 6c 08 	lds	r24, 0x086C	; 0x80086c <twi_slarw>
    4278:	80 93 bb 00 	sts	0x00BB, r24	; 0x8000bb <__TEXT_REGION_LENGTH__+0x7000bb>
    427c:	80 91 bc 00 	lds	r24, 0x00BC	; 0x8000bc <__TEXT_REGION_LENGTH__+0x7000bc>
    4280:	83 fd       	sbrc	r24, 3
    4282:	f8 cf       	rjmp	.-16     	; 0x4274 <twi_readFrom+0x44>
    4284:	85 ec       	ldi	r24, 0xC5	; 197
    4286:	01 c0       	rjmp	.+2      	; 0x428a <twi_readFrom+0x5a>
    4288:	85 ee       	ldi	r24, 0xE5	; 229
    428a:	80 93 bc 00 	sts	0x00BC, r24	; 0x8000bc <__TEXT_REGION_LENGTH__+0x7000bc>
    428e:	80 91 6d 08 	lds	r24, 0x086D	; 0x80086d <twi_state>
    4292:	81 30       	cpi	r24, 0x01	; 1
    4294:	e1 f3       	breq	.-8      	; 0x428e <twi_readFrom+0x5e>
    4296:	80 91 45 08 	lds	r24, 0x0845	; 0x800845 <twi_masterBufferIndex>
    429a:	84 17       	cp	r24, r20
    429c:	10 f4       	brcc	.+4      	; 0x42a2 <twi_readFrom+0x72>
    429e:	40 91 45 08 	lds	r20, 0x0845	; 0x800845 <twi_masterBufferIndex>
    42a2:	a6 e4       	ldi	r26, 0x46	; 70
    42a4:	b8 e0       	ldi	r27, 0x08	; 8
    42a6:	96 2f       	mov	r25, r22
    42a8:	fb 01       	movw	r30, r22
    42aa:	8e 2f       	mov	r24, r30
    42ac:	89 1b       	sub	r24, r25
    42ae:	84 17       	cp	r24, r20
    42b0:	18 f4       	brcc	.+6      	; 0x42b8 <twi_readFrom+0x88>
    42b2:	8d 91       	ld	r24, X+
    42b4:	81 93       	st	Z+, r24
    42b6:	f9 cf       	rjmp	.-14     	; 0x42aa <twi_readFrom+0x7a>
    42b8:	84 2f       	mov	r24, r20
    42ba:	08 95       	ret
    42bc:	80 e0       	ldi	r24, 0x00	; 0
    42be:	08 95       	ret

000042c0 <twi_writeTo>:
    42c0:	0f 93       	push	r16
    42c2:	41 32       	cpi	r20, 0x21	; 33
    42c4:	08 f0       	brcs	.+2      	; 0x42c8 <twi_writeTo+0x8>
    42c6:	4a c0       	rjmp	.+148    	; 0x435c <twi_writeTo+0x9c>
    42c8:	90 91 6d 08 	lds	r25, 0x086D	; 0x80086d <twi_state>
    42cc:	91 11       	cpse	r25, r1
    42ce:	fc cf       	rjmp	.-8      	; 0x42c8 <twi_writeTo+0x8>
    42d0:	32 e0       	ldi	r19, 0x02	; 2
    42d2:	30 93 6d 08 	sts	0x086D, r19	; 0x80086d <twi_state>
    42d6:	00 93 6b 08 	sts	0x086B, r16	; 0x80086b <twi_sendStop>
    42da:	3f ef       	ldi	r19, 0xFF	; 255
    42dc:	30 93 00 08 	sts	0x0800, r19	; 0x800800 <twi_error>
    42e0:	10 92 45 08 	sts	0x0845, r1	; 0x800845 <twi_masterBufferIndex>
    42e4:	40 93 44 08 	sts	0x0844, r20	; 0x800844 <twi_masterBufferLength>
    42e8:	56 2f       	mov	r21, r22
    42ea:	a6 e4       	ldi	r26, 0x46	; 70
    42ec:	b8 e0       	ldi	r27, 0x08	; 8
    42ee:	fb 01       	movw	r30, r22
    42f0:	3e 2f       	mov	r19, r30
    42f2:	35 1b       	sub	r19, r21
    42f4:	34 17       	cp	r19, r20
    42f6:	18 f4       	brcc	.+6      	; 0x42fe <twi_writeTo+0x3e>
    42f8:	31 91       	ld	r19, Z+
    42fa:	3d 93       	st	X+, r19
    42fc:	f9 cf       	rjmp	.-14     	; 0x42f0 <twi_writeTo+0x30>
    42fe:	10 92 6c 08 	sts	0x086C, r1	; 0x80086c <twi_slarw>
    4302:	30 91 6c 08 	lds	r19, 0x086C	; 0x80086c <twi_slarw>
    4306:	88 0f       	add	r24, r24
    4308:	83 2b       	or	r24, r19
    430a:	80 93 6c 08 	sts	0x086C, r24	; 0x80086c <twi_slarw>
    430e:	80 91 6a 08 	lds	r24, 0x086A	; 0x80086a <twi_inRepStart>
    4312:	81 30       	cpi	r24, 0x01	; 1
    4314:	61 f4       	brne	.+24     	; 0x432e <twi_writeTo+0x6e>
    4316:	10 92 6a 08 	sts	0x086A, r1	; 0x80086a <twi_inRepStart>
    431a:	80 91 6c 08 	lds	r24, 0x086C	; 0x80086c <twi_slarw>
    431e:	80 93 bb 00 	sts	0x00BB, r24	; 0x8000bb <__TEXT_REGION_LENGTH__+0x7000bb>
    4322:	80 91 bc 00 	lds	r24, 0x00BC	; 0x8000bc <__TEXT_REGION_LENGTH__+0x7000bc>
    4326:	83 fd       	sbrc	r24, 3
    4328:	f8 cf       	rjmp	.-16     	; 0x431a <twi_writeTo+0x5a>
    432a:	85 ec       	ldi	r24, 0xC5	; 197
    432c:	01 c0       	rjmp	.+2      	; 0x4330 <twi_writeTo+0x70>
    432e:	85 ee       	ldi	r24, 0xE5	; 229
    4330:	80 93 bc 00 	sts	0x00BC, r24	; 0x8000bc <__TEXT_REGION_LENGTH__+0x7000bc>
    4334:	22 23       	and	r18, r18
    4336:	21 f0       	breq	.+8      	; 0x4340 <twi_writeTo+0x80>
    4338:	80 91 6d 08 	lds	r24, 0x086D	; 0x80086d <twi_state>
    433c:	82 30       	cpi	r24, 0x02	; 2
    433e:	d1 f3       	breq	.-12     	; 0x4334 <twi_writeTo+0x74>
    4340:	80 91 00 08 	lds	r24, 0x0800	; 0x800800 <twi_error>
    4344:	8f 3f       	cpi	r24, 0xFF	; 255
    4346:	79 f0       	breq	.+30     	; 0x4366 <twi_writeTo+0xa6>
    4348:	80 91 00 08 	lds	r24, 0x0800	; 0x800800 <twi_error>
    434c:	80 32       	cpi	r24, 0x20	; 32
    434e:	41 f0       	breq	.+16     	; 0x4360 <twi_writeTo+0xa0>
    4350:	80 91 00 08 	lds	r24, 0x0800	; 0x800800 <twi_error>
    4354:	80 33       	cpi	r24, 0x30	; 48
    4356:	31 f0       	breq	.+12     	; 0x4364 <twi_writeTo+0xa4>
    4358:	94 e0       	ldi	r25, 0x04	; 4
    435a:	05 c0       	rjmp	.+10     	; 0x4366 <twi_writeTo+0xa6>
    435c:	91 e0       	ldi	r25, 0x01	; 1
    435e:	03 c0       	rjmp	.+6      	; 0x4366 <twi_writeTo+0xa6>
    4360:	92 e0       	ldi	r25, 0x02	; 2
    4362:	01 c0       	rjmp	.+2      	; 0x4366 <twi_writeTo+0xa6>
    4364:	93 e0       	ldi	r25, 0x03	; 3
    4366:	89 2f       	mov	r24, r25
    4368:	0f 91       	pop	r16
    436a:	08 95       	ret

0000436c <twi_transmit>:
    436c:	40 91 22 08 	lds	r20, 0x0822	; 0x800822 <twi_txBufferLength>
    4370:	26 2f       	mov	r18, r22
    4372:	30 e0       	ldi	r19, 0x00	; 0
    4374:	24 0f       	add	r18, r20
    4376:	31 1d       	adc	r19, r1
    4378:	21 32       	cpi	r18, 0x21	; 33
    437a:	31 05       	cpc	r19, r1
    437c:	dc f4       	brge	.+54     	; 0x43b4 <twi_transmit+0x48>
    437e:	20 91 6d 08 	lds	r18, 0x086D	; 0x80086d <twi_state>
    4382:	24 30       	cpi	r18, 0x04	; 4
    4384:	c9 f4       	brne	.+50     	; 0x43b8 <twi_transmit+0x4c>
    4386:	fc 01       	movw	r30, r24
    4388:	80 e0       	ldi	r24, 0x00	; 0
    438a:	90 e0       	ldi	r25, 0x00	; 0
    438c:	86 17       	cp	r24, r22
    438e:	58 f4       	brcc	.+22     	; 0x43a6 <twi_transmit+0x3a>
    4390:	30 91 22 08 	lds	r19, 0x0822	; 0x800822 <twi_txBufferLength>
    4394:	21 91       	ld	r18, Z+
    4396:	dc 01       	movw	r26, r24
    4398:	ac 5d       	subi	r26, 0xDC	; 220
    439a:	b7 4f       	sbci	r27, 0xF7	; 247
    439c:	a3 0f       	add	r26, r19
    439e:	b1 1d       	adc	r27, r1
    43a0:	2c 93       	st	X, r18
    43a2:	01 96       	adiw	r24, 0x01	; 1
    43a4:	f3 cf       	rjmp	.-26     	; 0x438c <twi_transmit+0x20>
    43a6:	80 91 22 08 	lds	r24, 0x0822	; 0x800822 <twi_txBufferLength>
    43aa:	68 0f       	add	r22, r24
    43ac:	60 93 22 08 	sts	0x0822, r22	; 0x800822 <twi_txBufferLength>
    43b0:	80 e0       	ldi	r24, 0x00	; 0
    43b2:	08 95       	ret
    43b4:	81 e0       	ldi	r24, 0x01	; 1
    43b6:	08 95       	ret
    43b8:	82 e0       	ldi	r24, 0x02	; 2
    43ba:	08 95       	ret

000043bc <twi_attachSlaveRxEvent>:
    43bc:	90 93 67 08 	sts	0x0867, r25	; 0x800867 <twi_onSlaveReceive+0x1>
    43c0:	80 93 66 08 	sts	0x0866, r24	; 0x800866 <twi_onSlaveReceive>
    43c4:	08 95       	ret

000043c6 <twi_attachSlaveTxEvent>:
    43c6:	90 93 69 08 	sts	0x0869, r25	; 0x800869 <twi_onSlaveTransmit+0x1>
    43ca:	80 93 68 08 	sts	0x0868, r24	; 0x800868 <twi_onSlaveTransmit>
    43ce:	08 95       	ret

000043d0 <twi_stop>:
    43d0:	85 ed       	ldi	r24, 0xD5	; 213
    43d2:	80 93 bc 00 	sts	0x00BC, r24	; 0x8000bc <__TEXT_REGION_LENGTH__+0x7000bc>
    43d6:	80 91 bc 00 	lds	r24, 0x00BC	; 0x8000bc <__TEXT_REGION_LENGTH__+0x7000bc>
    43da:	84 fd       	sbrc	r24, 4
    43dc:	fc cf       	rjmp	.-8      	; 0x43d6 <twi_stop+0x6>
    43de:	10 92 6d 08 	sts	0x086D, r1	; 0x80086d <twi_state>
    43e2:	08 95       	ret

000043e4 <twi_releaseBus>:
    43e4:	85 ec       	ldi	r24, 0xC5	; 197
    43e6:	80 93 bc 00 	sts	0x00BC, r24	; 0x8000bc <__TEXT_REGION_LENGTH__+0x7000bc>
    43ea:	10 92 6d 08 	sts	0x086D, r1	; 0x80086d <twi_state>
    43ee:	08 95       	ret

000043f0 <__vector_39>:
    43f0:	1f 92       	push	r1
    43f2:	0f 92       	push	r0
    43f4:	0f b6       	in	r0, 0x3f	; 63
    43f6:	0f 92       	push	r0
    43f8:	11 24       	eor	r1, r1
    43fa:	0b b6       	in	r0, 0x3b	; 59
    43fc:	0f 92       	push	r0
    43fe:	2f 93       	push	r18
    4400:	3f 93       	push	r19
    4402:	4f 93       	push	r20
    4404:	5f 93       	push	r21
    4406:	6f 93       	push	r22
    4408:	7f 93       	push	r23
    440a:	8f 93       	push	r24
    440c:	9f 93       	push	r25
    440e:	af 93       	push	r26
    4410:	bf 93       	push	r27
    4412:	ef 93       	push	r30
    4414:	ff 93       	push	r31
    4416:	80 91 b9 00 	lds	r24, 0x00B9	; 0x8000b9 <__TEXT_REGION_LENGTH__+0x7000b9>
    441a:	88 7f       	andi	r24, 0xF8	; 248
    441c:	80 36       	cpi	r24, 0x60	; 96
    441e:	09 f4       	brne	.+2      	; 0x4422 <__vector_39+0x32>
    4420:	9d c0       	rjmp	.+314    	; 0x455c <__vector_39+0x16c>
    4422:	70 f5       	brcc	.+92     	; 0x4480 <__vector_39+0x90>
    4424:	88 32       	cpi	r24, 0x28	; 40
    4426:	09 f4       	brne	.+2      	; 0x442a <__vector_39+0x3a>
    4428:	5c c0       	rjmp	.+184    	; 0x44e2 <__vector_39+0xf2>
    442a:	90 f4       	brcc	.+36     	; 0x4450 <__vector_39+0x60>
    442c:	80 31       	cpi	r24, 0x10	; 16
    442e:	09 f4       	brne	.+2      	; 0x4432 <__vector_39+0x42>
    4430:	55 c0       	rjmp	.+170    	; 0x44dc <__vector_39+0xec>
    4432:	38 f4       	brcc	.+14     	; 0x4442 <__vector_39+0x52>
    4434:	88 23       	and	r24, r24
    4436:	09 f4       	brne	.+2      	; 0x443a <__vector_39+0x4a>
    4438:	f3 c0       	rjmp	.+486    	; 0x4620 <__vector_39+0x230>
    443a:	88 30       	cpi	r24, 0x08	; 8
    443c:	09 f4       	brne	.+2      	; 0x4440 <__vector_39+0x50>
    443e:	4e c0       	rjmp	.+156    	; 0x44dc <__vector_39+0xec>
    4440:	f2 c0       	rjmp	.+484    	; 0x4626 <__vector_39+0x236>
    4442:	88 31       	cpi	r24, 0x18	; 24
    4444:	09 f4       	brne	.+2      	; 0x4448 <__vector_39+0x58>
    4446:	4d c0       	rjmp	.+154    	; 0x44e2 <__vector_39+0xf2>
    4448:	80 32       	cpi	r24, 0x20	; 32
    444a:	09 f4       	brne	.+2      	; 0x444e <__vector_39+0x5e>
    444c:	5e c0       	rjmp	.+188    	; 0x450a <__vector_39+0x11a>
    444e:	eb c0       	rjmp	.+470    	; 0x4626 <__vector_39+0x236>
    4450:	80 34       	cpi	r24, 0x40	; 64
    4452:	09 f4       	brne	.+2      	; 0x4456 <__vector_39+0x66>
    4454:	69 c0       	rjmp	.+210    	; 0x4528 <__vector_39+0x138>
    4456:	50 f4       	brcc	.+20     	; 0x446c <__vector_39+0x7c>
    4458:	80 33       	cpi	r24, 0x30	; 48
    445a:	09 f4       	brne	.+2      	; 0x445e <__vector_39+0x6e>
    445c:	56 c0       	rjmp	.+172    	; 0x450a <__vector_39+0x11a>
    445e:	88 33       	cpi	r24, 0x38	; 56
    4460:	09 f0       	breq	.+2      	; 0x4464 <__vector_39+0x74>
    4462:	e1 c0       	rjmp	.+450    	; 0x4626 <__vector_39+0x236>
    4464:	80 93 00 08 	sts	0x0800, r24	; 0x800800 <twi_error>
    4468:	bd df       	rcall	.-134    	; 0x43e4 <twi_releaseBus>
    446a:	dd c0       	rjmp	.+442    	; 0x4626 <__vector_39+0x236>
    446c:	80 35       	cpi	r24, 0x50	; 80
    446e:	09 f4       	brne	.+2      	; 0x4472 <__vector_39+0x82>
    4470:	4f c0       	rjmp	.+158    	; 0x4510 <__vector_39+0x120>
    4472:	88 35       	cpi	r24, 0x58	; 88
    4474:	09 f4       	brne	.+2      	; 0x4478 <__vector_39+0x88>
    4476:	5d c0       	rjmp	.+186    	; 0x4532 <__vector_39+0x142>
    4478:	88 34       	cpi	r24, 0x48	; 72
    447a:	09 f0       	breq	.+2      	; 0x447e <__vector_39+0x8e>
    447c:	d4 c0       	rjmp	.+424    	; 0x4626 <__vector_39+0x236>
    447e:	d2 c0       	rjmp	.+420    	; 0x4624 <__vector_39+0x234>
    4480:	88 39       	cpi	r24, 0x98	; 152
    4482:	09 f4       	brne	.+2      	; 0x4486 <__vector_39+0x96>
    4484:	c3 c0       	rjmp	.+390    	; 0x460c <__vector_39+0x21c>
    4486:	a8 f4       	brcc	.+42     	; 0x44b2 <__vector_39+0xc2>
    4488:	88 37       	cpi	r24, 0x78	; 120
    448a:	09 f4       	brne	.+2      	; 0x448e <__vector_39+0x9e>
    448c:	67 c0       	rjmp	.+206    	; 0x455c <__vector_39+0x16c>
    448e:	38 f4       	brcc	.+14     	; 0x449e <__vector_39+0xae>
    4490:	88 36       	cpi	r24, 0x68	; 104
    4492:	09 f4       	brne	.+2      	; 0x4496 <__vector_39+0xa6>
    4494:	63 c0       	rjmp	.+198    	; 0x455c <__vector_39+0x16c>
    4496:	80 37       	cpi	r24, 0x70	; 112
    4498:	09 f4       	brne	.+2      	; 0x449c <__vector_39+0xac>
    449a:	60 c0       	rjmp	.+192    	; 0x455c <__vector_39+0x16c>
    449c:	c4 c0       	rjmp	.+392    	; 0x4626 <__vector_39+0x236>
    449e:	88 38       	cpi	r24, 0x88	; 136
    44a0:	09 f4       	brne	.+2      	; 0x44a4 <__vector_39+0xb4>
    44a2:	b4 c0       	rjmp	.+360    	; 0x460c <__vector_39+0x21c>
    44a4:	80 39       	cpi	r24, 0x90	; 144
    44a6:	09 f4       	brne	.+2      	; 0x44aa <__vector_39+0xba>
    44a8:	5f c0       	rjmp	.+190    	; 0x4568 <__vector_39+0x178>
    44aa:	80 38       	cpi	r24, 0x80	; 128
    44ac:	09 f0       	breq	.+2      	; 0x44b0 <__vector_39+0xc0>
    44ae:	bb c0       	rjmp	.+374    	; 0x4626 <__vector_39+0x236>
    44b0:	5b c0       	rjmp	.+182    	; 0x4568 <__vector_39+0x178>
    44b2:	80 3b       	cpi	r24, 0xB0	; 176
    44b4:	09 f4       	brne	.+2      	; 0x44b8 <__vector_39+0xc8>
    44b6:	82 c0       	rjmp	.+260    	; 0x45bc <__vector_39+0x1cc>
    44b8:	38 f4       	brcc	.+14     	; 0x44c8 <__vector_39+0xd8>
    44ba:	80 3a       	cpi	r24, 0xA0	; 160
    44bc:	09 f4       	brne	.+2      	; 0x44c0 <__vector_39+0xd0>
    44be:	66 c0       	rjmp	.+204    	; 0x458c <__vector_39+0x19c>
    44c0:	88 3a       	cpi	r24, 0xA8	; 168
    44c2:	09 f4       	brne	.+2      	; 0x44c6 <__vector_39+0xd6>
    44c4:	7b c0       	rjmp	.+246    	; 0x45bc <__vector_39+0x1cc>
    44c6:	af c0       	rjmp	.+350    	; 0x4626 <__vector_39+0x236>
    44c8:	80 3c       	cpi	r24, 0xC0	; 192
    44ca:	09 f4       	brne	.+2      	; 0x44ce <__vector_39+0xde>
    44cc:	a3 c0       	rjmp	.+326    	; 0x4614 <__vector_39+0x224>
    44ce:	88 3c       	cpi	r24, 0xC8	; 200
    44d0:	09 f4       	brne	.+2      	; 0x44d4 <__vector_39+0xe4>
    44d2:	a0 c0       	rjmp	.+320    	; 0x4614 <__vector_39+0x224>
    44d4:	88 3b       	cpi	r24, 0xB8	; 184
    44d6:	09 f4       	brne	.+2      	; 0x44da <__vector_39+0xea>
    44d8:	86 c0       	rjmp	.+268    	; 0x45e6 <__vector_39+0x1f6>
    44da:	a5 c0       	rjmp	.+330    	; 0x4626 <__vector_39+0x236>
    44dc:	80 91 6c 08 	lds	r24, 0x086C	; 0x80086c <twi_slarw>
    44e0:	10 c0       	rjmp	.+32     	; 0x4502 <__vector_39+0x112>
    44e2:	90 91 45 08 	lds	r25, 0x0845	; 0x800845 <twi_masterBufferIndex>
    44e6:	80 91 44 08 	lds	r24, 0x0844	; 0x800844 <twi_masterBufferLength>
    44ea:	98 17       	cp	r25, r24
    44ec:	70 f5       	brcc	.+92     	; 0x454a <__vector_39+0x15a>
    44ee:	e0 91 45 08 	lds	r30, 0x0845	; 0x800845 <twi_masterBufferIndex>
    44f2:	81 e0       	ldi	r24, 0x01	; 1
    44f4:	8e 0f       	add	r24, r30
    44f6:	80 93 45 08 	sts	0x0845, r24	; 0x800845 <twi_masterBufferIndex>
    44fa:	f0 e0       	ldi	r31, 0x00	; 0
    44fc:	ea 5b       	subi	r30, 0xBA	; 186
    44fe:	f7 4f       	sbci	r31, 0xF7	; 247
    4500:	80 81       	ld	r24, Z
    4502:	80 93 bb 00 	sts	0x00BB, r24	; 0x8000bb <__TEXT_REGION_LENGTH__+0x7000bb>
    4506:	85 ec       	ldi	r24, 0xC5	; 197
    4508:	82 c0       	rjmp	.+260    	; 0x460e <__vector_39+0x21e>
    450a:	80 93 00 08 	sts	0x0800, r24	; 0x800800 <twi_error>
    450e:	8a c0       	rjmp	.+276    	; 0x4624 <__vector_39+0x234>
    4510:	e0 91 45 08 	lds	r30, 0x0845	; 0x800845 <twi_masterBufferIndex>
    4514:	81 e0       	ldi	r24, 0x01	; 1
    4516:	8e 0f       	add	r24, r30
    4518:	80 93 45 08 	sts	0x0845, r24	; 0x800845 <twi_masterBufferIndex>
    451c:	80 91 bb 00 	lds	r24, 0x00BB	; 0x8000bb <__TEXT_REGION_LENGTH__+0x7000bb>
    4520:	f0 e0       	ldi	r31, 0x00	; 0
    4522:	ea 5b       	subi	r30, 0xBA	; 186
    4524:	f7 4f       	sbci	r31, 0xF7	; 247
    4526:	80 83       	st	Z, r24
    4528:	90 91 45 08 	lds	r25, 0x0845	; 0x800845 <twi_masterBufferIndex>
    452c:	80 91 44 08 	lds	r24, 0x0844	; 0x800844 <twi_masterBufferLength>
    4530:	6a c0       	rjmp	.+212    	; 0x4606 <__vector_39+0x216>
    4532:	e0 91 45 08 	lds	r30, 0x0845	; 0x800845 <twi_masterBufferIndex>
    4536:	81 e0       	ldi	r24, 0x01	; 1
    4538:	8e 0f       	add	r24, r30
    453a:	80 93 45 08 	sts	0x0845, r24	; 0x800845 <twi_masterBufferIndex>
    453e:	80 91 bb 00 	lds	r24, 0x00BB	; 0x8000bb <__TEXT_REGION_LENGTH__+0x7000bb>
    4542:	f0 e0       	ldi	r31, 0x00	; 0
    4544:	ea 5b       	subi	r30, 0xBA	; 186
    4546:	f7 4f       	sbci	r31, 0xF7	; 247
    4548:	80 83       	st	Z, r24
    454a:	80 91 6b 08 	lds	r24, 0x086B	; 0x80086b <twi_sendStop>
    454e:	81 11       	cpse	r24, r1
    4550:	69 c0       	rjmp	.+210    	; 0x4624 <__vector_39+0x234>
    4552:	81 e0       	ldi	r24, 0x01	; 1
    4554:	80 93 6a 08 	sts	0x086A, r24	; 0x80086a <twi_inRepStart>
    4558:	84 ea       	ldi	r24, 0xA4	; 164
    455a:	5d c0       	rjmp	.+186    	; 0x4616 <__vector_39+0x226>
    455c:	83 e0       	ldi	r24, 0x03	; 3
    455e:	80 93 6d 08 	sts	0x086D, r24	; 0x80086d <twi_state>
    4562:	10 92 01 08 	sts	0x0801, r1	; 0x800801 <twi_rxBufferIndex>
    4566:	cf cf       	rjmp	.-98     	; 0x4506 <__vector_39+0x116>
    4568:	80 91 01 08 	lds	r24, 0x0801	; 0x800801 <twi_rxBufferIndex>
    456c:	80 32       	cpi	r24, 0x20	; 32
    456e:	08 f0       	brcs	.+2      	; 0x4572 <__vector_39+0x182>
    4570:	4d c0       	rjmp	.+154    	; 0x460c <__vector_39+0x21c>
    4572:	e0 91 01 08 	lds	r30, 0x0801	; 0x800801 <twi_rxBufferIndex>
    4576:	81 e0       	ldi	r24, 0x01	; 1
    4578:	8e 0f       	add	r24, r30
    457a:	80 93 01 08 	sts	0x0801, r24	; 0x800801 <twi_rxBufferIndex>
    457e:	80 91 bb 00 	lds	r24, 0x00BB	; 0x8000bb <__TEXT_REGION_LENGTH__+0x7000bb>
    4582:	f0 e0       	ldi	r31, 0x00	; 0
    4584:	ee 5f       	subi	r30, 0xFE	; 254
    4586:	f7 4f       	sbci	r31, 0xF7	; 247
    4588:	80 83       	st	Z, r24
    458a:	bd cf       	rjmp	.-134    	; 0x4506 <__vector_39+0x116>
    458c:	2b df       	rcall	.-426    	; 0x43e4 <twi_releaseBus>
    458e:	80 91 01 08 	lds	r24, 0x0801	; 0x800801 <twi_rxBufferIndex>
    4592:	80 32       	cpi	r24, 0x20	; 32
    4594:	30 f4       	brcc	.+12     	; 0x45a2 <__vector_39+0x1b2>
    4596:	e0 91 01 08 	lds	r30, 0x0801	; 0x800801 <twi_rxBufferIndex>
    459a:	f0 e0       	ldi	r31, 0x00	; 0
    459c:	ee 5f       	subi	r30, 0xFE	; 254
    459e:	f7 4f       	sbci	r31, 0xF7	; 247
    45a0:	10 82       	st	Z, r1
    45a2:	60 91 01 08 	lds	r22, 0x0801	; 0x800801 <twi_rxBufferIndex>
    45a6:	70 e0       	ldi	r23, 0x00	; 0
    45a8:	e0 91 66 08 	lds	r30, 0x0866	; 0x800866 <twi_onSlaveReceive>
    45ac:	f0 91 67 08 	lds	r31, 0x0867	; 0x800867 <twi_onSlaveReceive+0x1>
    45b0:	82 e0       	ldi	r24, 0x02	; 2
    45b2:	98 e0       	ldi	r25, 0x08	; 8
    45b4:	19 95       	eicall
    45b6:	10 92 01 08 	sts	0x0801, r1	; 0x800801 <twi_rxBufferIndex>
    45ba:	35 c0       	rjmp	.+106    	; 0x4626 <__vector_39+0x236>
    45bc:	84 e0       	ldi	r24, 0x04	; 4
    45be:	80 93 6d 08 	sts	0x086D, r24	; 0x80086d <twi_state>
    45c2:	10 92 23 08 	sts	0x0823, r1	; 0x800823 <twi_txBufferIndex>
    45c6:	10 92 22 08 	sts	0x0822, r1	; 0x800822 <twi_txBufferLength>
    45ca:	e0 91 68 08 	lds	r30, 0x0868	; 0x800868 <twi_onSlaveTransmit>
    45ce:	f0 91 69 08 	lds	r31, 0x0869	; 0x800869 <twi_onSlaveTransmit+0x1>
    45d2:	19 95       	eicall
    45d4:	80 91 22 08 	lds	r24, 0x0822	; 0x800822 <twi_txBufferLength>
    45d8:	81 11       	cpse	r24, r1
    45da:	05 c0       	rjmp	.+10     	; 0x45e6 <__vector_39+0x1f6>
    45dc:	81 e0       	ldi	r24, 0x01	; 1
    45de:	80 93 22 08 	sts	0x0822, r24	; 0x800822 <twi_txBufferLength>
    45e2:	10 92 24 08 	sts	0x0824, r1	; 0x800824 <twi_txBuffer>
    45e6:	e0 91 23 08 	lds	r30, 0x0823	; 0x800823 <twi_txBufferIndex>
    45ea:	81 e0       	ldi	r24, 0x01	; 1
    45ec:	8e 0f       	add	r24, r30
    45ee:	80 93 23 08 	sts	0x0823, r24	; 0x800823 <twi_txBufferIndex>
    45f2:	f0 e0       	ldi	r31, 0x00	; 0
    45f4:	ec 5d       	subi	r30, 0xDC	; 220
    45f6:	f7 4f       	sbci	r31, 0xF7	; 247
    45f8:	80 81       	ld	r24, Z
    45fa:	80 93 bb 00 	sts	0x00BB, r24	; 0x8000bb <__TEXT_REGION_LENGTH__+0x7000bb>
    45fe:	90 91 23 08 	lds	r25, 0x0823	; 0x800823 <twi_txBufferIndex>
    4602:	80 91 22 08 	lds	r24, 0x0822	; 0x800822 <twi_txBufferLength>
    4606:	98 17       	cp	r25, r24
    4608:	08 f4       	brcc	.+2      	; 0x460c <__vector_39+0x21c>
    460a:	7d cf       	rjmp	.-262    	; 0x4506 <__vector_39+0x116>
    460c:	85 e8       	ldi	r24, 0x85	; 133
    460e:	80 93 bc 00 	sts	0x00BC, r24	; 0x8000bc <__TEXT_REGION_LENGTH__+0x7000bc>
    4612:	09 c0       	rjmp	.+18     	; 0x4626 <__vector_39+0x236>
    4614:	85 ec       	ldi	r24, 0xC5	; 197
    4616:	80 93 bc 00 	sts	0x00BC, r24	; 0x8000bc <__TEXT_REGION_LENGTH__+0x7000bc>
    461a:	10 92 6d 08 	sts	0x086D, r1	; 0x80086d <twi_state>
    461e:	03 c0       	rjmp	.+6      	; 0x4626 <__vector_39+0x236>
    4620:	10 92 00 08 	sts	0x0800, r1	; 0x800800 <twi_error>
    4624:	d5 de       	rcall	.-598    	; 0x43d0 <twi_stop>
    4626:	ff 91       	pop	r31
    4628:	ef 91       	pop	r30
    462a:	bf 91       	pop	r27
    462c:	af 91       	pop	r26
    462e:	9f 91       	pop	r25
    4630:	8f 91       	pop	r24
    4632:	7f 91       	pop	r23
    4634:	6f 91       	pop	r22
    4636:	5f 91       	pop	r21
    4638:	4f 91       	pop	r20
    463a:	3f 91       	pop	r19
    463c:	2f 91       	pop	r18
    463e:	0f 90       	pop	r0
    4640:	0b be       	out	0x3b, r0	; 59
    4642:	0f 90       	pop	r0
    4644:	0f be       	out	0x3f, r0	; 63
    4646:	0f 90       	pop	r0
    4648:	1f 90       	pop	r1
    464a:	18 95       	reti

0000464c <__subsf3>:
    464c:	50 58       	subi	r21, 0x80	; 128

0000464e <__addsf3>:
    464e:	bb 27       	eor	r27, r27
    4650:	aa 27       	eor	r26, r26
    4652:	13 d0       	rcall	.+38     	; 0x467a <__addsf3x>
    4654:	0c 94 c7 07 	jmp	0xf8e	; 0xf8e <__fp_round>
    4658:	0e 94 b9 07 	call	0xf72	; 0xf72 <__fp_pscA>
    465c:	38 f0       	brcs	.+14     	; 0x466c <__addsf3+0x1e>
    465e:	0e 94 c0 07 	call	0xf80	; 0xf80 <__fp_pscB>
    4662:	20 f0       	brcs	.+8      	; 0x466c <__addsf3+0x1e>
    4664:	39 f4       	brne	.+14     	; 0x4674 <__addsf3+0x26>
    4666:	9f 3f       	cpi	r25, 0xFF	; 255
    4668:	19 f4       	brne	.+6      	; 0x4670 <__addsf3+0x22>
    466a:	26 f4       	brtc	.+8      	; 0x4674 <__addsf3+0x26>
    466c:	0c 94 b6 07 	jmp	0xf6c	; 0xf6c <__fp_nan>
    4670:	0e f4       	brtc	.+2      	; 0x4674 <__addsf3+0x26>
    4672:	e0 95       	com	r30
    4674:	e7 fb       	bst	r30, 7
    4676:	0c 94 b0 07 	jmp	0xf60	; 0xf60 <__fp_inf>

0000467a <__addsf3x>:
    467a:	e9 2f       	mov	r30, r25
    467c:	0e 94 e5 06 	call	0xdca	; 0xdca <__fp_split3>
    4680:	58 f3       	brcs	.-42     	; 0x4658 <__addsf3+0xa>
    4682:	ba 17       	cp	r27, r26
    4684:	62 07       	cpc	r22, r18
    4686:	73 07       	cpc	r23, r19
    4688:	84 07       	cpc	r24, r20
    468a:	95 07       	cpc	r25, r21
    468c:	20 f0       	brcs	.+8      	; 0x4696 <__addsf3x+0x1c>
    468e:	79 f4       	brne	.+30     	; 0x46ae <__addsf3x+0x34>
    4690:	a6 f5       	brtc	.+104    	; 0x46fa <__addsf3x+0x80>
    4692:	0c 94 1e 07 	jmp	0xe3c	; 0xe3c <__fp_zero>
    4696:	0e f4       	brtc	.+2      	; 0x469a <__addsf3x+0x20>
    4698:	e0 95       	com	r30
    469a:	0b 2e       	mov	r0, r27
    469c:	ba 2f       	mov	r27, r26
    469e:	a0 2d       	mov	r26, r0
    46a0:	0b 01       	movw	r0, r22
    46a2:	b9 01       	movw	r22, r18
    46a4:	90 01       	movw	r18, r0
    46a6:	0c 01       	movw	r0, r24
    46a8:	ca 01       	movw	r24, r20
    46aa:	a0 01       	movw	r20, r0
    46ac:	11 24       	eor	r1, r1
    46ae:	ff 27       	eor	r31, r31
    46b0:	59 1b       	sub	r21, r25
    46b2:	99 f0       	breq	.+38     	; 0x46da <__addsf3x+0x60>
    46b4:	59 3f       	cpi	r21, 0xF9	; 249
    46b6:	50 f4       	brcc	.+20     	; 0x46cc <__addsf3x+0x52>
    46b8:	50 3e       	cpi	r21, 0xE0	; 224
    46ba:	68 f1       	brcs	.+90     	; 0x4716 <__addsf3x+0x9c>
    46bc:	1a 16       	cp	r1, r26
    46be:	f0 40       	sbci	r31, 0x00	; 0
    46c0:	a2 2f       	mov	r26, r18
    46c2:	23 2f       	mov	r18, r19
    46c4:	34 2f       	mov	r19, r20
    46c6:	44 27       	eor	r20, r20
    46c8:	58 5f       	subi	r21, 0xF8	; 248
    46ca:	f3 cf       	rjmp	.-26     	; 0x46b2 <__addsf3x+0x38>
    46cc:	46 95       	lsr	r20
    46ce:	37 95       	ror	r19
    46d0:	27 95       	ror	r18
    46d2:	a7 95       	ror	r26
    46d4:	f0 40       	sbci	r31, 0x00	; 0
    46d6:	53 95       	inc	r21
    46d8:	c9 f7       	brne	.-14     	; 0x46cc <__addsf3x+0x52>
    46da:	7e f4       	brtc	.+30     	; 0x46fa <__addsf3x+0x80>
    46dc:	1f 16       	cp	r1, r31
    46de:	ba 0b       	sbc	r27, r26
    46e0:	62 0b       	sbc	r22, r18
    46e2:	73 0b       	sbc	r23, r19
    46e4:	84 0b       	sbc	r24, r20
    46e6:	ba f0       	brmi	.+46     	; 0x4716 <__addsf3x+0x9c>
    46e8:	91 50       	subi	r25, 0x01	; 1
    46ea:	a1 f0       	breq	.+40     	; 0x4714 <__addsf3x+0x9a>
    46ec:	ff 0f       	add	r31, r31
    46ee:	bb 1f       	adc	r27, r27
    46f0:	66 1f       	adc	r22, r22
    46f2:	77 1f       	adc	r23, r23
    46f4:	88 1f       	adc	r24, r24
    46f6:	c2 f7       	brpl	.-16     	; 0x46e8 <__addsf3x+0x6e>
    46f8:	0e c0       	rjmp	.+28     	; 0x4716 <__addsf3x+0x9c>
    46fa:	ba 0f       	add	r27, r26
    46fc:	62 1f       	adc	r22, r18
    46fe:	73 1f       	adc	r23, r19
    4700:	84 1f       	adc	r24, r20
    4702:	48 f4       	brcc	.+18     	; 0x4716 <__addsf3x+0x9c>
    4704:	87 95       	ror	r24
    4706:	77 95       	ror	r23
    4708:	67 95       	ror	r22
    470a:	b7 95       	ror	r27
    470c:	f7 95       	ror	r31
    470e:	9e 3f       	cpi	r25, 0xFE	; 254
    4710:	08 f0       	brcs	.+2      	; 0x4714 <__addsf3x+0x9a>
    4712:	b0 cf       	rjmp	.-160    	; 0x4674 <__addsf3+0x26>
    4714:	93 95       	inc	r25
    4716:	88 0f       	add	r24, r24
    4718:	08 f0       	brcs	.+2      	; 0x471c <__addsf3x+0xa2>
    471a:	99 27       	eor	r25, r25
    471c:	ee 0f       	add	r30, r30
    471e:	97 95       	ror	r25
    4720:	87 95       	ror	r24
    4722:	08 95       	ret

00004724 <__cmpsf2>:
    4724:	0e 94 8c 07 	call	0xf18	; 0xf18 <__fp_cmp>
    4728:	08 f4       	brcc	.+2      	; 0x472c <__cmpsf2+0x8>
    472a:	81 e0       	ldi	r24, 0x01	; 1
    472c:	08 95       	ret

0000472e <__divsf3>:
    472e:	12 d0       	rcall	.+36     	; 0x4754 <__divsf3x>
    4730:	0c 94 c7 07 	jmp	0xf8e	; 0xf8e <__fp_round>
    4734:	0e 94 c0 07 	call	0xf80	; 0xf80 <__fp_pscB>
    4738:	58 f0       	brcs	.+22     	; 0x4750 <__divsf3+0x22>
    473a:	0e 94 b9 07 	call	0xf72	; 0xf72 <__fp_pscA>
    473e:	40 f0       	brcs	.+16     	; 0x4750 <__divsf3+0x22>
    4740:	29 f4       	brne	.+10     	; 0x474c <__divsf3+0x1e>
    4742:	5f 3f       	cpi	r21, 0xFF	; 255
    4744:	29 f0       	breq	.+10     	; 0x4750 <__divsf3+0x22>
    4746:	0c 94 b0 07 	jmp	0xf60	; 0xf60 <__fp_inf>
    474a:	51 11       	cpse	r21, r1
    474c:	0c 94 1f 07 	jmp	0xe3e	; 0xe3e <__fp_szero>
    4750:	0c 94 b6 07 	jmp	0xf6c	; 0xf6c <__fp_nan>

00004754 <__divsf3x>:
    4754:	0e 94 e5 06 	call	0xdca	; 0xdca <__fp_split3>
    4758:	68 f3       	brcs	.-38     	; 0x4734 <__divsf3+0x6>

0000475a <__divsf3_pse>:
    475a:	99 23       	and	r25, r25
    475c:	b1 f3       	breq	.-20     	; 0x474a <__divsf3+0x1c>
    475e:	55 23       	and	r21, r21
    4760:	91 f3       	breq	.-28     	; 0x4746 <__divsf3+0x18>
    4762:	95 1b       	sub	r25, r21
    4764:	55 0b       	sbc	r21, r21
    4766:	bb 27       	eor	r27, r27
    4768:	aa 27       	eor	r26, r26
    476a:	62 17       	cp	r22, r18
    476c:	73 07       	cpc	r23, r19
    476e:	84 07       	cpc	r24, r20
    4770:	38 f0       	brcs	.+14     	; 0x4780 <__divsf3_pse+0x26>
    4772:	9f 5f       	subi	r25, 0xFF	; 255
    4774:	5f 4f       	sbci	r21, 0xFF	; 255
    4776:	22 0f       	add	r18, r18
    4778:	33 1f       	adc	r19, r19
    477a:	44 1f       	adc	r20, r20
    477c:	aa 1f       	adc	r26, r26
    477e:	a9 f3       	breq	.-22     	; 0x476a <__divsf3_pse+0x10>
    4780:	35 d0       	rcall	.+106    	; 0x47ec <__divsf3_pse+0x92>
    4782:	0e 2e       	mov	r0, r30
    4784:	3a f0       	brmi	.+14     	; 0x4794 <__divsf3_pse+0x3a>
    4786:	e0 e8       	ldi	r30, 0x80	; 128
    4788:	32 d0       	rcall	.+100    	; 0x47ee <__divsf3_pse+0x94>
    478a:	91 50       	subi	r25, 0x01	; 1
    478c:	50 40       	sbci	r21, 0x00	; 0
    478e:	e6 95       	lsr	r30
    4790:	00 1c       	adc	r0, r0
    4792:	ca f7       	brpl	.-14     	; 0x4786 <__divsf3_pse+0x2c>
    4794:	2b d0       	rcall	.+86     	; 0x47ec <__divsf3_pse+0x92>
    4796:	fe 2f       	mov	r31, r30
    4798:	29 d0       	rcall	.+82     	; 0x47ec <__divsf3_pse+0x92>
    479a:	66 0f       	add	r22, r22
    479c:	77 1f       	adc	r23, r23
    479e:	88 1f       	adc	r24, r24
    47a0:	bb 1f       	adc	r27, r27
    47a2:	26 17       	cp	r18, r22
    47a4:	37 07       	cpc	r19, r23
    47a6:	48 07       	cpc	r20, r24
    47a8:	ab 07       	cpc	r26, r27
    47aa:	b0 e8       	ldi	r27, 0x80	; 128
    47ac:	09 f0       	breq	.+2      	; 0x47b0 <__divsf3_pse+0x56>
    47ae:	bb 0b       	sbc	r27, r27
    47b0:	80 2d       	mov	r24, r0
    47b2:	bf 01       	movw	r22, r30
    47b4:	ff 27       	eor	r31, r31
    47b6:	93 58       	subi	r25, 0x83	; 131
    47b8:	5f 4f       	sbci	r21, 0xFF	; 255
    47ba:	3a f0       	brmi	.+14     	; 0x47ca <__divsf3_pse+0x70>
    47bc:	9e 3f       	cpi	r25, 0xFE	; 254
    47be:	51 05       	cpc	r21, r1
    47c0:	78 f0       	brcs	.+30     	; 0x47e0 <__divsf3_pse+0x86>
    47c2:	0c 94 b0 07 	jmp	0xf60	; 0xf60 <__fp_inf>
    47c6:	0c 94 1f 07 	jmp	0xe3e	; 0xe3e <__fp_szero>
    47ca:	5f 3f       	cpi	r21, 0xFF	; 255
    47cc:	e4 f3       	brlt	.-8      	; 0x47c6 <__divsf3_pse+0x6c>
    47ce:	98 3e       	cpi	r25, 0xE8	; 232
    47d0:	d4 f3       	brlt	.-12     	; 0x47c6 <__divsf3_pse+0x6c>
    47d2:	86 95       	lsr	r24
    47d4:	77 95       	ror	r23
    47d6:	67 95       	ror	r22
    47d8:	b7 95       	ror	r27
    47da:	f7 95       	ror	r31
    47dc:	9f 5f       	subi	r25, 0xFF	; 255
    47de:	c9 f7       	brne	.-14     	; 0x47d2 <__divsf3_pse+0x78>
    47e0:	88 0f       	add	r24, r24
    47e2:	91 1d       	adc	r25, r1
    47e4:	96 95       	lsr	r25
    47e6:	87 95       	ror	r24
    47e8:	97 f9       	bld	r25, 7
    47ea:	08 95       	ret
    47ec:	e1 e0       	ldi	r30, 0x01	; 1
    47ee:	66 0f       	add	r22, r22
    47f0:	77 1f       	adc	r23, r23
    47f2:	88 1f       	adc	r24, r24
    47f4:	bb 1f       	adc	r27, r27
    47f6:	62 17       	cp	r22, r18
    47f8:	73 07       	cpc	r23, r19
    47fa:	84 07       	cpc	r24, r20
    47fc:	ba 07       	cpc	r27, r26
    47fe:	20 f0       	brcs	.+8      	; 0x4808 <__divsf3_pse+0xae>
    4800:	62 1b       	sub	r22, r18
    4802:	73 0b       	sbc	r23, r19
    4804:	84 0b       	sbc	r24, r20
    4806:	ba 0b       	sbc	r27, r26
    4808:	ee 1f       	adc	r30, r30
    480a:	88 f7       	brcc	.-30     	; 0x47ee <__divsf3_pse+0x94>
    480c:	e0 95       	com	r30
    480e:	08 95       	ret

00004810 <__unordsf2>:
    4810:	0e 94 8c 07 	call	0xf18	; 0xf18 <__fp_cmp>
    4814:	88 0b       	sbc	r24, r24
    4816:	99 0b       	sbc	r25, r25
    4818:	08 95       	ret

0000481a <__mulsi3>:
    481a:	db 01       	movw	r26, r22
    481c:	8f 93       	push	r24
    481e:	9f 93       	push	r25
    4820:	6c d0       	rcall	.+216    	; 0x48fa <__muluhisi3>
    4822:	bf 91       	pop	r27
    4824:	af 91       	pop	r26
    4826:	a2 9f       	mul	r26, r18
    4828:	80 0d       	add	r24, r0
    482a:	91 1d       	adc	r25, r1
    482c:	a3 9f       	mul	r26, r19
    482e:	90 0d       	add	r25, r0
    4830:	b2 9f       	mul	r27, r18
    4832:	90 0d       	add	r25, r0
    4834:	11 24       	eor	r1, r1
    4836:	08 95       	ret

00004838 <__udivmodsi4>:
    4838:	a1 e2       	ldi	r26, 0x21	; 33
    483a:	1a 2e       	mov	r1, r26
    483c:	aa 1b       	sub	r26, r26
    483e:	bb 1b       	sub	r27, r27
    4840:	fd 01       	movw	r30, r26
    4842:	0d c0       	rjmp	.+26     	; 0x485e <__udivmodsi4_ep>

00004844 <__udivmodsi4_loop>:
    4844:	aa 1f       	adc	r26, r26
    4846:	bb 1f       	adc	r27, r27
    4848:	ee 1f       	adc	r30, r30
    484a:	ff 1f       	adc	r31, r31
    484c:	a2 17       	cp	r26, r18
    484e:	b3 07       	cpc	r27, r19
    4850:	e4 07       	cpc	r30, r20
    4852:	f5 07       	cpc	r31, r21
    4854:	20 f0       	brcs	.+8      	; 0x485e <__udivmodsi4_ep>
    4856:	a2 1b       	sub	r26, r18
    4858:	b3 0b       	sbc	r27, r19
    485a:	e4 0b       	sbc	r30, r20
    485c:	f5 0b       	sbc	r31, r21

0000485e <__udivmodsi4_ep>:
    485e:	66 1f       	adc	r22, r22
    4860:	77 1f       	adc	r23, r23
    4862:	88 1f       	adc	r24, r24
    4864:	99 1f       	adc	r25, r25
    4866:	1a 94       	dec	r1
    4868:	69 f7       	brne	.-38     	; 0x4844 <__udivmodsi4_loop>
    486a:	60 95       	com	r22
    486c:	70 95       	com	r23
    486e:	80 95       	com	r24
    4870:	90 95       	com	r25
    4872:	9b 01       	movw	r18, r22
    4874:	ac 01       	movw	r20, r24
    4876:	bd 01       	movw	r22, r26
    4878:	cf 01       	movw	r24, r30
    487a:	08 95       	ret

0000487c <__divmodsi4>:
    487c:	05 2e       	mov	r0, r21
    487e:	97 fb       	bst	r25, 7
    4880:	16 f4       	brtc	.+4      	; 0x4886 <__divmodsi4+0xa>
    4882:	00 94       	com	r0
    4884:	0f d0       	rcall	.+30     	; 0x48a4 <__negsi2>
    4886:	57 fd       	sbrc	r21, 7
    4888:	05 d0       	rcall	.+10     	; 0x4894 <__divmodsi4_neg2>
    488a:	d6 df       	rcall	.-84     	; 0x4838 <__udivmodsi4>
    488c:	07 fc       	sbrc	r0, 7
    488e:	02 d0       	rcall	.+4      	; 0x4894 <__divmodsi4_neg2>
    4890:	46 f4       	brtc	.+16     	; 0x48a2 <__divmodsi4_exit>
    4892:	08 c0       	rjmp	.+16     	; 0x48a4 <__negsi2>

00004894 <__divmodsi4_neg2>:
    4894:	50 95       	com	r21
    4896:	40 95       	com	r20
    4898:	30 95       	com	r19
    489a:	21 95       	neg	r18
    489c:	3f 4f       	sbci	r19, 0xFF	; 255
    489e:	4f 4f       	sbci	r20, 0xFF	; 255
    48a0:	5f 4f       	sbci	r21, 0xFF	; 255

000048a2 <__divmodsi4_exit>:
    48a2:	08 95       	ret

000048a4 <__negsi2>:
    48a4:	90 95       	com	r25
    48a6:	80 95       	com	r24
    48a8:	70 95       	com	r23
    48aa:	61 95       	neg	r22
    48ac:	7f 4f       	sbci	r23, 0xFF	; 255
    48ae:	8f 4f       	sbci	r24, 0xFF	; 255
    48b0:	9f 4f       	sbci	r25, 0xFF	; 255
    48b2:	08 95       	ret

000048b4 <__tablejump2__>:
    48b4:	ee 0f       	add	r30, r30
    48b6:	ff 1f       	adc	r31, r31
    48b8:	88 1f       	adc	r24, r24
    48ba:	8b bf       	out	0x3b, r24	; 59
    48bc:	07 90       	elpm	r0, Z+
    48be:	f6 91       	elpm	r31, Z
    48c0:	e0 2d       	mov	r30, r0
    48c2:	19 94       	eijmp

000048c4 <__mulhisi3>:
    48c4:	05 d0       	rcall	.+10     	; 0x48d0 <__umulhisi3>
    48c6:	33 23       	and	r19, r19
    48c8:	12 f4       	brpl	.+4      	; 0x48ce <__mulhisi3+0xa>
    48ca:	8a 1b       	sub	r24, r26
    48cc:	9b 0b       	sbc	r25, r27
    48ce:	10 c0       	rjmp	.+32     	; 0x48f0 <__usmulhisi3_tail>

000048d0 <__umulhisi3>:
    48d0:	a2 9f       	mul	r26, r18
    48d2:	b0 01       	movw	r22, r0
    48d4:	b3 9f       	mul	r27, r19
    48d6:	c0 01       	movw	r24, r0
    48d8:	a3 9f       	mul	r26, r19
    48da:	70 0d       	add	r23, r0
    48dc:	81 1d       	adc	r24, r1
    48de:	11 24       	eor	r1, r1
    48e0:	91 1d       	adc	r25, r1
    48e2:	b2 9f       	mul	r27, r18
    48e4:	70 0d       	add	r23, r0
    48e6:	81 1d       	adc	r24, r1
    48e8:	11 24       	eor	r1, r1
    48ea:	91 1d       	adc	r25, r1
    48ec:	08 95       	ret

000048ee <__usmulhisi3>:
    48ee:	f0 df       	rcall	.-32     	; 0x48d0 <__umulhisi3>

000048f0 <__usmulhisi3_tail>:
    48f0:	b7 ff       	sbrs	r27, 7
    48f2:	08 95       	ret
    48f4:	82 1b       	sub	r24, r18
    48f6:	93 0b       	sbc	r25, r19
    48f8:	08 95       	ret

000048fa <__muluhisi3>:
    48fa:	ea df       	rcall	.-44     	; 0x48d0 <__umulhisi3>
    48fc:	a5 9f       	mul	r26, r21
    48fe:	90 0d       	add	r25, r0
    4900:	b4 9f       	mul	r27, r20
    4902:	90 0d       	add	r25, r0
    4904:	a4 9f       	mul	r26, r20
    4906:	80 0d       	add	r24, r0
    4908:	91 1d       	adc	r25, r1
    490a:	11 24       	eor	r1, r1
    490c:	08 95       	ret

0000490e <abort>:
    490e:	81 e0       	ldi	r24, 0x01	; 1
    4910:	90 e0       	ldi	r25, 0x00	; 0
    4912:	f8 94       	cli
    4914:	00 c0       	rjmp	.+0      	; 0x4916 <_exit>

00004916 <_exit>:
    4916:	f8 94       	cli

00004918 <__stop_program>:
    4918:	ff cf       	rjmp	.-2      	; 0x4918 <__stop_program>
