
Occupancy_sketch.elf:     file format elf32-avr

Sections:
Idx Name          Size      VMA       LMA       File off  Algn
  0 .data         000005ce  00800200  00009126  000091ba  2**0
                  CONTENTS, ALLOC, LOAD, DATA
  1 .text         00009126  00000000  00000000  00000094  2**1
                  CONTENTS, ALLOC, LOAD, READONLY, CODE
  2 .bss          00000ad8  008007ce  008007ce  00009788  2**0
                  ALLOC
  3 .comment      0000005c  00000000  00000000  00009788  2**0
                  CONTENTS, READONLY
  4 .note.gnu.avr.deviceinfo 00000040  00000000  00000000  000097e4  2**2
                  CONTENTS, READONLY
  5 .debug_aranges 00001660  00000000  00000000  00009824  2**0
                  CONTENTS, READONLY, DEBUGGING
  6 .debug_info   0003df61  00000000  00000000  0000ae84  2**0
                  CONTENTS, READONLY, DEBUGGING
  7 .debug_abbrev 00008305  00000000  00000000  00048de5  2**0
                  CONTENTS, READONLY, DEBUGGING
  8 .debug_line   0000e981  00000000  00000000  000510ea  2**0
                  CONTENTS, READONLY, DEBUGGING
  9 .debug_frame  000061d0  00000000  00000000  0005fa6c  2**2
                  CONTENTS, READONLY, DEBUGGING
 10 .debug_str    00009721  00000000  00000000  00065c3c  2**0
                  CONTENTS, READONLY, DEBUGGING
 11 .debug_loc    00027a00  00000000  00000000  0006f35d  2**0
                  CONTENTS, READONLY, DEBUGGING
 12 .debug_ranges 000019f0  00000000  00000000  00096d5d  2**0
                  CONTENTS, READONLY, DEBUGGING

Disassembly of section .text:

00000000 <__vectors>:
       0:	a1 c4       	rjmp	.+2370   	; 0x944 <__ctors_end>
       2:	00 00       	nop
       4:	0c 94 17 30 	jmp	0x602e	; 0x602e <__vector_1>
       8:	0c 94 42 30 	jmp	0x6084	; 0x6084 <__vector_2>
       c:	0c 94 6d 30 	jmp	0x60da	; 0x60da <__vector_3>
      10:	0c 94 98 30 	jmp	0x6130	; 0x6130 <__vector_4>
      14:	0c 94 c3 30 	jmp	0x6186	; 0x6186 <__vector_5>
      18:	0c 94 ee 30 	jmp	0x61dc	; 0x61dc <__vector_6>
      1c:	0c 94 19 31 	jmp	0x6232	; 0x6232 <__vector_7>
      20:	0c 94 44 31 	jmp	0x6288	; 0x6288 <__vector_8>
      24:	0c 94 f1 27 	jmp	0x4fe2	; 0x4fe2 <__vector_10>
      28:	0c 94 f1 27 	jmp	0x4fe2	; 0x4fe2 <__vector_10>
      2c:	0c 94 f1 27 	jmp	0x4fe2	; 0x4fe2 <__vector_10>
      30:	ba c4       	rjmp	.+2420   	; 0x9a6 <__bad_interrupt>
      32:	00 00       	nop
      34:	b8 c4       	rjmp	.+2416   	; 0x9a6 <__bad_interrupt>
      36:	00 00       	nop
      38:	b6 c4       	rjmp	.+2412   	; 0x9a6 <__bad_interrupt>
      3a:	00 00       	nop
      3c:	b4 c4       	rjmp	.+2408   	; 0x9a6 <__bad_interrupt>
      3e:	00 00       	nop
      40:	b2 c4       	rjmp	.+2404   	; 0x9a6 <__bad_interrupt>
      42:	00 00       	nop
      44:	b0 c4       	rjmp	.+2400   	; 0x9a6 <__bad_interrupt>
      46:	00 00       	nop
      48:	ae c4       	rjmp	.+2396   	; 0x9a6 <__bad_interrupt>
      4a:	00 00       	nop
      4c:	ac c4       	rjmp	.+2392   	; 0x9a6 <__bad_interrupt>
      4e:	00 00       	nop
      50:	aa c4       	rjmp	.+2388   	; 0x9a6 <__bad_interrupt>
      52:	00 00       	nop
      54:	a8 c4       	rjmp	.+2384   	; 0x9a6 <__bad_interrupt>
      56:	00 00       	nop
      58:	a6 c4       	rjmp	.+2380   	; 0x9a6 <__bad_interrupt>
      5a:	00 00       	nop
      5c:	0c 94 97 18 	jmp	0x312e	; 0x312e <__vector_23>
      60:	a2 c4       	rjmp	.+2372   	; 0x9a6 <__bad_interrupt>
      62:	00 00       	nop
      64:	0c 94 90 13 	jmp	0x2720	; 0x2720 <__vector_25>
      68:	0c 94 c6 13 	jmp	0x278c	; 0x278c <__vector_26>
      6c:	9c c4       	rjmp	.+2360   	; 0x9a6 <__bad_interrupt>
      6e:	00 00       	nop
      70:	9a c4       	rjmp	.+2356   	; 0x9a6 <__bad_interrupt>
      72:	00 00       	nop
      74:	98 c4       	rjmp	.+2352   	; 0x9a6 <__bad_interrupt>
      76:	00 00       	nop
      78:	96 c4       	rjmp	.+2348   	; 0x9a6 <__bad_interrupt>
      7a:	00 00       	nop
      7c:	94 c4       	rjmp	.+2344   	; 0x9a6 <__bad_interrupt>
      7e:	00 00       	nop
      80:	92 c4       	rjmp	.+2340   	; 0x9a6 <__bad_interrupt>
      82:	00 00       	nop
      84:	90 c4       	rjmp	.+2336   	; 0x9a6 <__bad_interrupt>
      86:	00 00       	nop
      88:	8e c4       	rjmp	.+2332   	; 0x9a6 <__bad_interrupt>
      8a:	00 00       	nop
      8c:	8c c4       	rjmp	.+2328   	; 0x9a6 <__bad_interrupt>
      8e:	00 00       	nop
      90:	0c 94 25 14 	jmp	0x284a	; 0x284a <__vector_36>
      94:	0c 94 5b 14 	jmp	0x28b6	; 0x28b6 <__vector_37>
      98:	86 c4       	rjmp	.+2316   	; 0x9a6 <__bad_interrupt>
      9a:	00 00       	nop
      9c:	0c 94 f4 3e 	jmp	0x7de8	; 0x7de8 <__vector_39>
      a0:	82 c4       	rjmp	.+2308   	; 0x9a6 <__bad_interrupt>
      a2:	00 00       	nop
      a4:	80 c4       	rjmp	.+2304   	; 0x9a6 <__bad_interrupt>
      a6:	00 00       	nop
      a8:	7e c4       	rjmp	.+2300   	; 0x9a6 <__bad_interrupt>
      aa:	00 00       	nop
      ac:	7c c4       	rjmp	.+2296   	; 0x9a6 <__bad_interrupt>
      ae:	00 00       	nop
      b0:	7a c4       	rjmp	.+2292   	; 0x9a6 <__bad_interrupt>
      b2:	00 00       	nop
      b4:	78 c4       	rjmp	.+2288   	; 0x9a6 <__bad_interrupt>
      b6:	00 00       	nop
      b8:	76 c4       	rjmp	.+2284   	; 0x9a6 <__bad_interrupt>
      ba:	00 00       	nop
      bc:	74 c4       	rjmp	.+2280   	; 0x9a6 <__bad_interrupt>
      be:	00 00       	nop
      c0:	72 c4       	rjmp	.+2276   	; 0x9a6 <__bad_interrupt>
      c2:	00 00       	nop
      c4:	70 c4       	rjmp	.+2272   	; 0x9a6 <__bad_interrupt>
      c6:	00 00       	nop
      c8:	6e c4       	rjmp	.+2268   	; 0x9a6 <__bad_interrupt>
      ca:	00 00       	nop
      cc:	0c 94 ba 14 	jmp	0x2974	; 0x2974 <__vector_51>
      d0:	0c 94 f0 14 	jmp	0x29e0	; 0x29e0 <__vector_52>
      d4:	68 c4       	rjmp	.+2256   	; 0x9a6 <__bad_interrupt>
      d6:	00 00       	nop
      d8:	0c 94 4f 15 	jmp	0x2a9e	; 0x2a9e <__vector_54>
      dc:	0c 94 85 15 	jmp	0x2b0a	; 0x2b0a <__vector_55>
      e0:	62 c4       	rjmp	.+2244   	; 0x9a6 <__bad_interrupt>
      e2:	00 00       	nop
      e4:	4b 0b       	sbc	r20, r27
      e6:	1f 0c       	add	r1, r15
      e8:	64 0c       	add	r6, r4
      ea:	3f 0e       	add	r3, r31
      ec:	3f 0e       	add	r3, r31
      ee:	96 0c       	add	r9, r6
      f0:	f8 0c       	add	r15, r8
      f2:	53 0d       	add	r21, r3
      f4:	95 0d       	add	r25, r5
      f6:	f9 0d       	add	r31, r9
      f8:	f9 19       	sub	r31, r9
      fa:	fc 19       	sub	r31, r12
      fc:	eb 19       	sub	r30, r11
      fe:	ef 19       	sub	r30, r15
     100:	f5 19       	sub	r31, r5
     102:	33 1a       	sub	r3, r19
     104:	00 1a       	sub	r0, r16
     106:	04 1a       	sub	r0, r20
     108:	0a 1a       	sub	r0, r26
     10a:	0e 1a       	sub	r0, r30
     10c:	12 1a       	sub	r1, r18
     10e:	18 1a       	sub	r1, r24
     110:	1c 1a       	sub	r1, r28
     112:	20 1a       	sub	r2, r16
     114:	33 1a       	sub	r3, r19
     116:	26 1a       	sub	r2, r22
     118:	2a 1a       	sub	r2, r26
     11a:	2e 1a       	sub	r2, r30

0000011c <__trampolines_end>:
     11c:	63 64       	ori	r22, 0x43	; 67
     11e:	69 6e       	ori	r22, 0xE9	; 233
     120:	6f 70       	andi	r22, 0x0F	; 15
     122:	73 75       	andi	r23, 0x53	; 83
     124:	78 58       	subi	r23, 0x88	; 136
     126:	5b 00       	.word	0x005b	; ????

00000128 <pstr_nan>:
     128:	4e 41 4e                                            NAN

0000012b <pstr_inity>:
     12b:	49 4e 49 54 59                                      INITY

00000130 <pstr_inf>:
     130:	49 4e 46                                            INF

00000133 <pwr_m10>:
     133:	cd cc cc 3d 0a d7 23 3c 17 b7 d1 38 77 cc 2b 32     ...=..#<...8w.+2
     143:	95 95 e6 24 1f b1 4f 0a                             ...$..O.

0000014b <pwr_p10>:
     14b:	00 00 20 41 00 00 c8 42 00 40 1c 46 20 bc be 4c     .. A...B.@.F ..L
     15b:	ca 1b 0e 5a ae c5 9d 74                             ...Z...t

00000163 <_ZZ13Fona_Send_smsvE3__c>:
     163:	41 54 2b 43 4d 47 44 3d 3f 0d 0a 00                 AT+CMGD=?...

0000016f <_ZZ5setupE3__c>:
     16f:	53 65 74 74 69 6e 67 20 75 70 00                    Setting up.

0000017a <digital_pin_to_timer_PGM>:
     17a:	00 00 0a 0b 02 09 0c 0d 0e 08 07 03 04 01 00 00     ................
	...
     1a6:	12 11 10 00 00 00 00 00 00 00 00 00 00 00 00 00     ................
	...

000001c0 <digital_pin_to_bit_mask_PGM>:
     1c0:	01 02 10 20 20 08 08 10 20 40 10 20 40 80 02 01     ...  ... @. @...
     1d0:	02 01 08 04 02 01 01 02 04 08 10 20 40 80 80 40     ........... @..@
     1e0:	20 10 08 04 02 01 80 04 02 01 80 40 20 10 08 04      ..........@ ...
     1f0:	02 01 08 04 02 01 01 02 04 08 10 20 40 80 01 02     ........... @...
     200:	04 08 10 20 40 80                                   ... @.

00000206 <digital_pin_to_port_PGM>:
     206:	05 05 05 05 07 05 08 08 08 08 02 02 02 02 0a 0a     ................
     216:	08 08 04 04 04 04 01 01 01 01 01 01 01 01 03 03     ................
     226:	03 03 03 03 03 03 04 07 07 07 0c 0c 0c 0c 0c 0c     ................
     236:	0c 0c 02 02 02 02 06 06 06 06 06 06 06 06 0b 0b     ................
     246:	0b 0b 0b 0b 0b 0b                                   ......

0000024c <port_to_input_PGM>:
     24c:	00 00 20 00 23 00 26 00 29 00 2c 00 2f 00 32 00     .. .#.&.).,./.2.
     25c:	00 01 00 00 03 01 06 01 09 01                       ..........

00000266 <port_to_output_PGM>:
     266:	00 00 22 00 25 00 28 00 2b 00 2e 00 31 00 34 00     ..".%.(.+...1.4.
     276:	02 01 00 00 05 01 08 01 0b 01                       ..........

00000280 <port_to_mode_PGM>:
     280:	00 00 21 00 24 00 27 00 2a 00 2d 00 30 00 33 00     ..!.$.'.*.-.0.3.
     290:	01 01 00 00 04 01 07 01 0a 01                       ..........

0000029a <_ZZN13Adafruit_FONA8getReplyEPK19__FlashStringHelperjE3__c_0>:
     29a:	09 3c 2d 2d 2d 20 00                                .<--- .

000002a1 <_ZZN13Adafruit_FONA8getReplyEPK19__FlashStringHelperjE3__c>:
     2a1:	09 2d 2d 2d 3e 20 00                                .---> .

000002a8 <_ZZN13Adafruit_FONA8getReplyEPcjE3__c_0>:
     2a8:	09 3c 2d 2d 2d 20 00                                .<--- .

000002af <_ZZN13Adafruit_FONA8getReplyEPcjE3__c>:
     2af:	09 2d 2d 2d 3e 20 00                                .---> .

000002b6 <_ZZN13Adafruit_FONA9deleteSMSEhE3__c>:
     2b6:	41 54 2b 43 4d 47 46 3d 31 00                       AT+CMGF=1.

000002c0 <_ZZN13Adafruit_FONA7sendSMSEPcS0_E3__c_1>:
     2c0:	3e 20 00                                            > .

000002c3 <_ZZN13Adafruit_FONA7sendSMSEPcS0_E3__c_0>:
     2c3:	3e 20 00                                            > .

000002c6 <_ZZN13Adafruit_FONA7sendSMSEPcS0_E3__c>:
     2c6:	41 54 2b 43 4d 47 46 3d 31 00                       AT+CMGF=1.

000002d0 <_ZZN13Adafruit_FONA12getSMSSenderEhPciE3__c_3>:
     2d0:	2b 43 4d 47 52 3a 00                                +CMGR:.

000002d7 <_ZZN13Adafruit_FONA12getSMSSenderEhPciE3__c_2>:
     2d7:	41 54 2b 43 4d 47 52 3d 00                          AT+CMGR=.

000002e0 <_ZZN13Adafruit_FONA12getSMSSenderEhPciE3__c_1>:
     2e0:	41 54 2b 43 4d 47 52 3d 00                          AT+CMGR=.

000002e9 <_ZZN13Adafruit_FONA12getSMSSenderEhPciE3__c_0>:
     2e9:	41 54 2b 43 53 44 48 3d 31 00                       AT+CSDH=1.

000002f3 <_ZZN13Adafruit_FONA12getSMSSenderEhPciE3__c>:
     2f3:	41 54 2b 43 4d 47 46 3d 31 00                       AT+CMGF=1.

000002fd <_ZZN13Adafruit_FONA7readSMSEhPcjPjE3__c_3>:
     2fd:	2b 43 4d 47 52 3a 00                                +CMGR:.

00000304 <_ZZN13Adafruit_FONA7readSMSEhPcjPjE3__c_2>:
     304:	41 54 2b 43 4d 47 52 3d 00                          AT+CMGR=.

0000030d <_ZZN13Adafruit_FONA7readSMSEhPcjPjE3__c_1>:
     30d:	41 54 2b 43 4d 47 52 3d 00                          AT+CMGR=.

00000316 <_ZZN13Adafruit_FONA7readSMSEhPcjPjE3__c_0>:
     316:	41 54 2b 43 53 44 48 3d 31 00                       AT+CSDH=1.

00000320 <_ZZN13Adafruit_FONA7readSMSEhPcjPjE3__c>:
     320:	41 54 2b 43 4d 47 46 3d 31 00                       AT+CMGF=1.

0000032a <_ZZN13Adafruit_FONA5beginER6StreamE3__c_20>:
     32a:	41 54 2b 43 50 4d 53 3d 22 53 4d 22 2c 22 53 4d     AT+CPMS="SM","SM
     33a:	22 2c 22 53 4d 22 00                                ","SM".

00000341 <_ZZN13Adafruit_FONA5beginER6StreamE3__c_19>:
     341:	53 49 4d 38 30 30 48 00                             SIM800H.

00000349 <_ZZN13Adafruit_FONA5beginER6StreamE3__c_18>:
     349:	09 3c 2d 2d 2d 20 00                                .<--- .

00000350 <_ZZN13Adafruit_FONA5beginER6StreamE3__c_17>:
     350:	09 2d 2d 2d 3e 20 00                                .---> .

00000357 <_ZZN13Adafruit_FONA5beginER6StreamE3__c_16>:
     357:	53 49 4d 43 4f 4d 5f 53 49 4d 35 33 32 30 45 00     SIMCOM_SIM5320E.

00000367 <_ZZN13Adafruit_FONA5beginER6StreamE3__c_15>:
     367:	53 49 4d 43 4f 4d 5f 53 49 4d 35 33 32 30 41 00     SIMCOM_SIM5320A.

00000377 <_ZZN13Adafruit_FONA5beginER6StreamE3__c_14>:
     377:	53 49 4d 38 30 30 20 52 31 33 00                    SIM800 R13.

00000382 <_ZZN13Adafruit_FONA5beginER6StreamE3__c_13>:
     382:	53 49 4d 38 30 38 20 52 31 33 00                    SIM808 R13.

0000038d <_ZZN13Adafruit_FONA5beginER6StreamE3__c_12>:
     38d:	53 49 4d 38 30 38 20 52 31 34 00                    SIM808 R14.

00000398 <_ZZN13Adafruit_FONA5beginER6StreamE3__c_11>:
     398:	09 3c 2d 2d 2d 20 00                                .<--- .

0000039f <_ZZN13Adafruit_FONA5beginER6StreamE3__c_10>:
     39f:	09 2d 2d 2d 3e 20 00                                .---> .

000003a6 <_ZZN13Adafruit_FONA5beginER6StreamE3__c_9>:
     3a6:	41 54 2b 43 56 48 55 3d 30 00                       AT+CVHU=0.

000003b0 <_ZZN13Adafruit_FONA5beginER6StreamE3__c_8>:
     3b0:	41 54 45 30 00                                      ATE0.

000003b5 <_ZZN13Adafruit_FONA5beginER6StreamE3__c_7>:
     3b5:	41 54 45 30 00                                      ATE0.

000003ba <_ZZN13Adafruit_FONA5beginER6StreamE3__c_6>:
     3ba:	41 54 00                                            AT.

000003bd <_ZZN13Adafruit_FONA5beginER6StreamE3__c_5>:
     3bd:	41 54 00                                            AT.

000003c0 <_ZZN13Adafruit_FONA5beginER6StreamE3__c_4>:
     3c0:	41 54 00                                            AT.

000003c3 <_ZZN13Adafruit_FONA5beginER6StreamE3__c_3>:
     3c3:	54 69 6d 65 6f 75 74 3a 20 4e 6f 20 72 65 73 70     Timeout: No resp
     3d3:	6f 6e 73 65 20 74 6f 20 41 54 2e 2e 2e 20 6c 61     onse to AT... la
     3e3:	73 74 20 64 69 74 63 68 20 61 74 74 65 6d 70 74     st ditch attempt
     3f3:	2e 00                                               ..

000003f5 <_ZZN13Adafruit_FONA5beginER6StreamE3__c_1>:
     3f5:	41 54 00                                            AT.

000003f8 <_ZZN13Adafruit_FONA5beginER6StreamE3__c_2>:
     3f8:	41 54 00                                            AT.

000003fb <_ZZN13Adafruit_FONA5beginER6StreamE3__c_0>:
     3fb:	41 54 00                                            AT.

000003fe <_ZZN13Adafruit_FONA5beginER6StreamE3__c>:
     3fe:	41 74 74 65 6d 70 74 69 6e 67 20 74 6f 20 6f 70     Attempting to op
     40e:	65 6e 20 63 6f 6d 6d 20 77 69 74 68 20 41 54 73     en comm with ATs
	...

0000041f <_ZZN13Adafruit_FONAC4EaE3__c_1>:
     41f:	4f 4b 00                                            OK.

00000422 <_ZZN13Adafruit_FONAC4EaE3__c_0>:
     422:	46 4f 4e 41 00                                      FONA.

00000427 <_ZZN13Adafruit_FONAC4EaE3__c>:
     427:	46 4f 4e 41 6e 65 74 00                             FONAnet.

0000042f <_ZL4font>:
     42f:	00 00 00 00 00 3e 5b 4f 5b 3e 3e 6b 4f 6b 3e 1c     .....>[O[>>kOk>.
     43f:	3e 7c 3e 1c 18 3c 7e 3c 18 1c 57 7d 57 1c 1c 5e     >|>..<~<..W}W..^
     44f:	7f 5e 1c 00 18 3c 18 00 ff e7 c3 e7 ff 00 18 24     .^...<.........$
     45f:	18 00 ff e7 db e7 ff 30 48 3a 06 0e 26 29 79 29     .......0H:..&)y)
     46f:	26 40 7f 05 05 07 40 7f 05 25 3f 5a 3c e7 3c 5a     &@....@..%?Z<.<Z
     47f:	7f 3e 1c 1c 08 08 1c 1c 3e 7f 14 22 7f 22 14 5f     .>......>.."."._
     48f:	5f 00 5f 5f 06 09 7f 01 7f 00 66 89 95 6a 60 60     _.__......f..j``
     49f:	60 60 60 94 a2 ff a2 94 08 04 7e 04 08 10 20 7e     ```.......~... ~
     4af:	20 10 08 08 2a 1c 08 08 1c 2a 08 08 1e 10 10 10      ...*....*......
     4bf:	10 0c 1e 0c 1e 0c 30 38 3e 38 30 06 0e 3e 0e 06     ......08>80..>..
     4cf:	00 00 00 00 00 00 00 5f 00 00 00 07 00 07 00 14     ......._........
     4df:	7f 14 7f 14 24 2a 7f 2a 12 23 13 08 64 62 36 49     ....$*.*.#..db6I
     4ef:	56 20 50 00 08 07 03 00 00 1c 22 41 00 00 41 22     V P......."A..A"
     4ff:	1c 00 2a 1c 7f 1c 2a 08 08 3e 08 08 00 80 70 30     ..*...*..>....p0
     50f:	00 08 08 08 08 08 00 00 60 60 00 20 10 08 04 02     ........``. ....
     51f:	3e 51 49 45 3e 00 42 7f 40 00 72 49 49 49 46 21     >QIE>.B.@.rIIIF!
     52f:	41 49 4d 33 18 14 12 7f 10 27 45 45 45 39 3c 4a     AIM3.....'EEE9<J
     53f:	49 49 31 41 21 11 09 07 36 49 49 49 36 46 49 49     II1A!...6III6FII
     54f:	29 1e 00 00 14 00 00 00 40 34 00 00 00 08 14 22     ).......@4....."
     55f:	41 14 14 14 14 14 00 41 22 14 08 02 01 59 09 06     A......A"....Y..
     56f:	3e 41 5d 59 4e 7c 12 11 12 7c 7f 49 49 49 36 3e     >A]YN|...|.III6>
     57f:	41 41 41 22 7f 41 41 41 3e 7f 49 49 49 41 7f 09     AAA".AAA>.IIIA..
     58f:	09 09 01 3e 41 41 51 73 7f 08 08 08 7f 00 41 7f     ...>AAQs......A.
     59f:	41 00 20 40 41 3f 01 7f 08 14 22 41 7f 40 40 40     A. @A?...."A.@@@
     5af:	40 7f 02 1c 02 7f 7f 04 08 10 7f 3e 41 41 41 3e     @..........>AAA>
     5bf:	7f 09 09 09 06 3e 41 51 21 5e 7f 09 19 29 46 26     .....>AQ!^...)F&
     5cf:	49 49 49 32 03 01 7f 01 03 3f 40 40 40 3f 1f 20     III2.....?@@@?. 
     5df:	40 20 1f 3f 40 38 40 3f 63 14 08 14 63 03 04 78     @ .?@8@?c...c..x
     5ef:	04 03 61 59 49 4d 43 00 7f 41 41 41 02 04 08 10     ..aYIMC..AAA....
     5ff:	20 00 41 41 41 7f 04 02 01 02 04 40 40 40 40 40      .AAA......@@@@@
     60f:	00 03 07 08 00 20 54 54 78 40 7f 28 44 44 38 38     ..... TTx@.(DD88
     61f:	44 44 44 28 38 44 44 28 7f 38 54 54 54 18 00 08     DDD(8DD(.8TTT...
     62f:	7e 09 02 18 a4 a4 9c 78 7f 08 04 04 78 00 44 7d     ~......x....x.D}
     63f:	40 00 20 40 40 3d 00 7f 10 28 44 00 00 41 7f 40     @. @@=...(D..A.@
     64f:	00 7c 04 78 04 78 7c 08 04 04 78 38 44 44 44 38     .|.x.x|...x8DDD8
     65f:	fc 18 24 24 18 18 24 24 18 fc 7c 08 04 04 08 48     ..$$..$$..|....H
     66f:	54 54 54 24 04 04 3f 44 24 3c 40 40 20 7c 1c 20     TTT$..?D$<@@ |. 
     67f:	40 20 1c 3c 40 30 40 3c 44 28 10 28 44 4c 90 90     @ .<@0@<D(.(DL..
     68f:	90 7c 44 64 54 4c 44 00 08 36 41 00 00 00 77 00     .|DdTLD..6A...w.
     69f:	00 00 41 36 08 00 02 01 02 04 02 3c 26 23 26 3c     ..A6.......<&#&<
     6af:	1e a1 a1 61 12 3a 40 40 20 7a 38 54 54 55 59 21     ...a.:@@ z8TTUY!
     6bf:	55 55 79 41 22 54 54 78 42 21 55 54 78 40 20 54     UUyA"TTxB!UTx@ T
     6cf:	55 79 40 0c 1e 52 72 12 39 55 55 55 59 39 54 54     Uy@..Rr.9UUUY9TT
     6df:	54 59 39 55 54 54 58 00 00 45 7c 41 00 02 45 7d     TY9UTTX..E|A..E}
     6ef:	42 00 01 45 7c 40 7d 12 11 12 7d f0 28 25 28 f0     B..E|@}...}.(%(.
     6ff:	7c 54 55 45 00 20 54 54 7c 54 7c 0a 09 7f 49 32     |TUE. TT|T|...I2
     70f:	49 49 49 32 3a 44 44 44 3a 32 4a 48 48 30 3a 41     III2:DDD:2JHH0:A
     71f:	41 21 7a 3a 42 40 20 78 00 9d a0 a0 7d 3d 42 42     A!z:B@ x....}=BB
     72f:	42 3d 3d 40 40 40 3d 3c 24 ff 24 24 48 7e 49 43     B==@@@=<$.$$H~IC
     73f:	66 2b 2f fc 2f 2b ff 09 29 f6 20 c0 88 7e 09 03     f+/./+..). ..~..
     74f:	20 54 54 79 41 00 00 44 7d 41 30 48 48 4a 32 38      TTyA..D}A0HHJ28
     75f:	40 40 22 7a 00 7a 0a 0a 72 7d 0d 19 31 7d 26 29     @@"z.z..r}..1}&)
     76f:	29 2f 28 26 29 29 29 26 30 48 4d 40 20 38 08 08     )/(&)))&0HM@ 8..
     77f:	08 08 08 08 08 08 38 2f 10 c8 ac ba 2f 10 28 34     ......8/..../.(4
     78f:	fa 00 00 7b 00 00 08 14 2a 14 22 22 14 2a 14 08     ...{....*."".*..
     79f:	55 00 55 00 55 aa 55 aa 55 aa ff 55 ff 55 ff 00     U.U.U.U.U..U.U..
     7af:	00 00 ff 00 10 10 10 ff 00 14 14 14 ff 00 10 10     ................
     7bf:	ff 00 ff 10 10 f0 10 f0 14 14 14 fc 00 14 14 f7     ................
     7cf:	00 ff 00 00 ff 00 ff 14 14 f4 04 fc 14 14 17 10     ................
     7df:	1f 10 10 1f 10 1f 14 14 14 1f 00 10 10 10 f0 00     ................
     7ef:	00 00 00 1f 10 10 10 10 1f 10 10 10 10 f0 10 00     ................
     7ff:	00 00 ff 10 10 10 10 10 10 10 10 10 ff 10 00 00     ................
     80f:	00 ff 14 00 00 ff 00 ff 00 00 1f 10 17 00 00 fc     ................
     81f:	04 f4 14 14 17 10 17 14 14 f4 04 f4 00 00 ff 00     ................
     82f:	f7 14 14 14 14 14 14 14 f7 00 f7 14 14 14 17 14     ................
     83f:	10 10 1f 10 1f 14 14 14 f4 14 10 10 f0 10 f0 00     ................
     84f:	00 1f 10 1f 00 00 00 1f 14 00 00 00 fc 14 00 00     ................
     85f:	f0 10 f0 10 10 ff 10 ff 14 14 14 ff 14 10 10 10     ................
     86f:	1f 00 00 00 00 f0 10 ff ff ff ff ff f0 f0 f0 f0     ................
     87f:	f0 ff ff ff 00 00 00 00 00 ff ff 0f 0f 0f 0f 0f     ................
     88f:	38 44 44 38 44 fc 4a 4a 4a 34 7e 02 02 06 06 02     8DD8D.JJJ4~.....
     89f:	7e 02 7e 02 63 55 49 41 63 38 44 44 3c 04 40 7e     ~.~.cUIAc8DD<.@~
     8af:	20 1e 20 06 02 7e 02 02 99 a5 e7 a5 99 1c 2a 49      . ..~........*I
     8bf:	2a 1c 4c 72 01 72 4c 30 4a 4d 4d 30 30 48 78 48     *.Lr.rL0JMM00HxH
     8cf:	30 bc 62 5a 46 3d 3e 49 49 49 00 7e 01 01 01 7e     0.bZF=>III.~...~
     8df:	2a 2a 2a 2a 2a 44 44 5f 44 44 40 51 4a 44 40 40     *****DD_DD@QJD@@
     8ef:	44 4a 51 40 00 00 ff 01 03 e0 80 ff 00 00 08 08     DJQ@............
     8ff:	6b 6b 08 36 12 36 24 36 06 0f 09 0f 06 00 00 18     kk.6.6$6........
     90f:	18 00 00 00 10 10 00 30 40 ff 01 01 00 1f 01 01     .......0@.......
     91f:	1e 00 19 1d 17 12 00 3c 3c 3c 3c 00 00 00 00 00     .......<<<<.....
	...

00000930 <__ctors_start>:
     930:	42 07       	cpc	r20, r18
     932:	9d 07       	cpc	r25, r29
     934:	4a 09       	sbc	r20, r10
     936:	83 0f       	add	r24, r19
     938:	98 0f       	add	r25, r24
     93a:	f8 13       	cpse	r31, r24
     93c:	8d 14       	cp	r8, r13
     93e:	22 15       	cp	r18, r2
     940:	b7 15       	cp	r27, r7
     942:	09 2a       	or	r0, r25

00000944 <__ctors_end>:
     944:	11 24       	eor	r1, r1
     946:	1f be       	out	0x3f, r1	; 63
     948:	cf ef       	ldi	r28, 0xFF	; 255
     94a:	d1 e2       	ldi	r29, 0x21	; 33
     94c:	de bf       	out	0x3e, r29	; 62
     94e:	cd bf       	out	0x3d, r28	; 61
     950:	00 e0       	ldi	r16, 0x00	; 0
     952:	0c bf       	out	0x3c, r16	; 60

00000954 <__do_copy_data>:
     954:	17 e0       	ldi	r17, 0x07	; 7
     956:	a0 e0       	ldi	r26, 0x00	; 0
     958:	b2 e0       	ldi	r27, 0x02	; 2
     95a:	e6 e2       	ldi	r30, 0x26	; 38
     95c:	f1 e9       	ldi	r31, 0x91	; 145
     95e:	00 e0       	ldi	r16, 0x00	; 0
     960:	0b bf       	out	0x3b, r16	; 59
     962:	02 c0       	rjmp	.+4      	; 0x968 <__do_copy_data+0x14>
     964:	07 90       	elpm	r0, Z+
     966:	0d 92       	st	X+, r0
     968:	ae 3c       	cpi	r26, 0xCE	; 206
     96a:	b1 07       	cpc	r27, r17
     96c:	d9 f7       	brne	.-10     	; 0x964 <__do_copy_data+0x10>

0000096e <__do_clear_bss>:
     96e:	22 e1       	ldi	r18, 0x12	; 18
     970:	ae ec       	ldi	r26, 0xCE	; 206
     972:	b7 e0       	ldi	r27, 0x07	; 7
     974:	01 c0       	rjmp	.+2      	; 0x978 <.do_clear_bss_start>

00000976 <.do_clear_bss_loop>:
     976:	1d 92       	st	X+, r1

00000978 <.do_clear_bss_start>:
     978:	a6 3a       	cpi	r26, 0xA6	; 166
     97a:	b2 07       	cpc	r27, r18
     97c:	e1 f7       	brne	.-8      	; 0x976 <.do_clear_bss_loop>

0000097e <__do_global_ctors>:
     97e:	14 e0       	ldi	r17, 0x04	; 4
     980:	c2 ea       	ldi	r28, 0xA2	; 162
     982:	d4 e0       	ldi	r29, 0x04	; 4
     984:	00 e0       	ldi	r16, 0x00	; 0
     986:	06 c0       	rjmp	.+12     	; 0x994 <__do_global_ctors+0x16>
     988:	21 97       	sbiw	r28, 0x01	; 1
     98a:	01 09       	sbc	r16, r1
     98c:	80 2f       	mov	r24, r16
     98e:	fe 01       	movw	r30, r28
     990:	0e 94 93 40 	call	0x8126	; 0x8126 <__tablejump2__>
     994:	c8 39       	cpi	r28, 0x98	; 152
     996:	d1 07       	cpc	r29, r17
     998:	80 e0       	ldi	r24, 0x00	; 0
     99a:	08 07       	cpc	r16, r24
     99c:	a9 f7       	brne	.-22     	; 0x988 <__do_global_ctors+0xa>
     99e:	0e 94 e5 15 	call	0x2bca	; 0x2bca <main>
     9a2:	0c 94 91 48 	jmp	0x9122	; 0x9122 <_exit>

000009a6 <__bad_interrupt>:
     9a6:	2c cb       	rjmp	.-2472   	; 0x0 <__vectors>

000009a8 <_ZN7TwoWire5writeEi>:
     9a8:	dc 01       	movw	r26, r24
     9aa:	ed 91       	ld	r30, X+
     9ac:	fc 91       	ld	r31, X
     9ae:	01 90       	ld	r0, Z+
     9b0:	f0 81       	ld	r31, Z
     9b2:	e0 2d       	mov	r30, r0
     9b4:	19 94       	eijmp

000009b6 <_Z8setupMPUv>:
     9b6:	68 e6       	ldi	r22, 0x68	; 104
     9b8:	70 e0       	ldi	r23, 0x00	; 0
     9ba:	8c ed       	ldi	r24, 0xDC	; 220
     9bc:	91 e1       	ldi	r25, 0x11	; 17
     9be:	0e 94 8d 29 	call	0x531a	; 0x531a <_ZN7TwoWire17beginTransmissionEi>
     9c2:	6b e6       	ldi	r22, 0x6B	; 107
     9c4:	70 e0       	ldi	r23, 0x00	; 0
     9c6:	8c ed       	ldi	r24, 0xDC	; 220
     9c8:	91 e1       	ldi	r25, 0x11	; 17
     9ca:	ee df       	rcall	.-36     	; 0x9a8 <_ZN7TwoWire5writeEi>
     9cc:	60 e0       	ldi	r22, 0x00	; 0
     9ce:	70 e0       	ldi	r23, 0x00	; 0
     9d0:	8c ed       	ldi	r24, 0xDC	; 220
     9d2:	91 e1       	ldi	r25, 0x11	; 17
     9d4:	e9 df       	rcall	.-46     	; 0x9a8 <_ZN7TwoWire5writeEi>
     9d6:	8c ed       	ldi	r24, 0xDC	; 220
     9d8:	91 e1       	ldi	r25, 0x11	; 17
     9da:	0e 94 07 2a 	call	0x540e	; 0x540e <_ZN7TwoWire15endTransmissionEv>
     9de:	68 e6       	ldi	r22, 0x68	; 104
     9e0:	70 e0       	ldi	r23, 0x00	; 0
     9e2:	8c ed       	ldi	r24, 0xDC	; 220
     9e4:	91 e1       	ldi	r25, 0x11	; 17
     9e6:	0e 94 8d 29 	call	0x531a	; 0x531a <_ZN7TwoWire17beginTransmissionEi>
     9ea:	6b e1       	ldi	r22, 0x1B	; 27
     9ec:	70 e0       	ldi	r23, 0x00	; 0
     9ee:	8c ed       	ldi	r24, 0xDC	; 220
     9f0:	91 e1       	ldi	r25, 0x11	; 17
     9f2:	da df       	rcall	.-76     	; 0x9a8 <_ZN7TwoWire5writeEi>
     9f4:	60 e0       	ldi	r22, 0x00	; 0
     9f6:	70 e0       	ldi	r23, 0x00	; 0
     9f8:	8c ed       	ldi	r24, 0xDC	; 220
     9fa:	91 e1       	ldi	r25, 0x11	; 17
     9fc:	d5 df       	rcall	.-86     	; 0x9a8 <_ZN7TwoWire5writeEi>
     9fe:	8c ed       	ldi	r24, 0xDC	; 220
     a00:	91 e1       	ldi	r25, 0x11	; 17
     a02:	0e 94 07 2a 	call	0x540e	; 0x540e <_ZN7TwoWire15endTransmissionEv>
     a06:	68 e6       	ldi	r22, 0x68	; 104
     a08:	70 e0       	ldi	r23, 0x00	; 0
     a0a:	8c ed       	ldi	r24, 0xDC	; 220
     a0c:	91 e1       	ldi	r25, 0x11	; 17
     a0e:	0e 94 8d 29 	call	0x531a	; 0x531a <_ZN7TwoWire17beginTransmissionEi>
     a12:	6c e1       	ldi	r22, 0x1C	; 28
     a14:	70 e0       	ldi	r23, 0x00	; 0
     a16:	8c ed       	ldi	r24, 0xDC	; 220
     a18:	91 e1       	ldi	r25, 0x11	; 17
     a1a:	c6 df       	rcall	.-116    	; 0x9a8 <_ZN7TwoWire5writeEi>
     a1c:	68 e1       	ldi	r22, 0x18	; 24
     a1e:	70 e0       	ldi	r23, 0x00	; 0
     a20:	8c ed       	ldi	r24, 0xDC	; 220
     a22:	91 e1       	ldi	r25, 0x11	; 17
     a24:	c1 df       	rcall	.-126    	; 0x9a8 <_ZN7TwoWire5writeEi>
     a26:	8c ed       	ldi	r24, 0xDC	; 220
     a28:	91 e1       	ldi	r25, 0x11	; 17
     a2a:	0c 94 07 2a 	jmp	0x540e	; 0x540e <_ZN7TwoWire15endTransmissionEv>

00000a2e <_Z16processAccelDatav>:
     a2e:	cf 93       	push	r28
     a30:	df 93       	push	r29
     a32:	ce ec       	ldi	r28, 0xCE	; 206
     a34:	d7 e0       	ldi	r29, 0x07	; 7
     a36:	60 91 fa 07 	lds	r22, 0x07FA	; 0x8007fa <accelX>
     a3a:	70 91 fb 07 	lds	r23, 0x07FB	; 0x8007fb <accelX+0x1>
     a3e:	80 91 fc 07 	lds	r24, 0x07FC	; 0x8007fc <accelX+0x2>
     a42:	90 91 fd 07 	lds	r25, 0x07FD	; 0x8007fd <accelX+0x3>
     a46:	0e 94 0e 11 	call	0x221c	; 0x221c <__floatsisf>
     a4a:	20 e0       	ldi	r18, 0x00	; 0
     a4c:	30 e0       	ldi	r19, 0x00	; 0
     a4e:	40 e0       	ldi	r20, 0x00	; 0
     a50:	5a e3       	ldi	r21, 0x3A	; 58
     a52:	0e 94 c2 11 	call	0x2384	; 0x2384 <__mulsf3>
     a56:	68 83       	st	Y, r22
     a58:	79 83       	std	Y+1, r23	; 0x01
     a5a:	8a 83       	std	Y+2, r24	; 0x02
     a5c:	9b 83       	std	Y+3, r25	; 0x03
     a5e:	60 91 f6 07 	lds	r22, 0x07F6	; 0x8007f6 <accelY>
     a62:	70 91 f7 07 	lds	r23, 0x07F7	; 0x8007f7 <accelY+0x1>
     a66:	80 91 f8 07 	lds	r24, 0x07F8	; 0x8007f8 <accelY+0x2>
     a6a:	90 91 f9 07 	lds	r25, 0x07F9	; 0x8007f9 <accelY+0x3>
     a6e:	0e 94 0e 11 	call	0x221c	; 0x221c <__floatsisf>
     a72:	20 e0       	ldi	r18, 0x00	; 0
     a74:	30 e0       	ldi	r19, 0x00	; 0
     a76:	40 e0       	ldi	r20, 0x00	; 0
     a78:	5a e3       	ldi	r21, 0x3A	; 58
     a7a:	0e 94 c2 11 	call	0x2384	; 0x2384 <__mulsf3>
     a7e:	6c 83       	std	Y+4, r22	; 0x04
     a80:	7d 83       	std	Y+5, r23	; 0x05
     a82:	8e 83       	std	Y+6, r24	; 0x06
     a84:	9f 83       	std	Y+7, r25	; 0x07
     a86:	60 91 f2 07 	lds	r22, 0x07F2	; 0x8007f2 <accelZ>
     a8a:	70 91 f3 07 	lds	r23, 0x07F3	; 0x8007f3 <accelZ+0x1>
     a8e:	80 91 f4 07 	lds	r24, 0x07F4	; 0x8007f4 <accelZ+0x2>
     a92:	90 91 f5 07 	lds	r25, 0x07F5	; 0x8007f5 <accelZ+0x3>
     a96:	0e 94 0e 11 	call	0x221c	; 0x221c <__floatsisf>
     a9a:	20 e0       	ldi	r18, 0x00	; 0
     a9c:	30 e0       	ldi	r19, 0x00	; 0
     a9e:	40 e0       	ldi	r20, 0x00	; 0
     aa0:	5a e3       	ldi	r21, 0x3A	; 58
     aa2:	0e 94 c2 11 	call	0x2384	; 0x2384 <__mulsf3>
     aa6:	68 87       	std	Y+8, r22	; 0x08
     aa8:	79 87       	std	Y+9, r23	; 0x09
     aaa:	8a 87       	std	Y+10, r24	; 0x0a
     aac:	9b 87       	std	Y+11, r25	; 0x0b
     aae:	df 91       	pop	r29
     ab0:	cf 91       	pop	r28
     ab2:	08 95       	ret

00000ab4 <_Z15processGyroDatav>:
     ab4:	cf 93       	push	r28
     ab6:	df 93       	push	r29
     ab8:	ce ec       	ldi	r28, 0xCE	; 206
     aba:	d7 e0       	ldi	r29, 0x07	; 7
     abc:	60 91 ee 07 	lds	r22, 0x07EE	; 0x8007ee <gyroX>
     ac0:	70 91 ef 07 	lds	r23, 0x07EF	; 0x8007ef <gyroX+0x1>
     ac4:	80 91 f0 07 	lds	r24, 0x07F0	; 0x8007f0 <gyroX+0x2>
     ac8:	90 91 f1 07 	lds	r25, 0x07F1	; 0x8007f1 <gyroX+0x3>
     acc:	0e 94 0e 11 	call	0x221c	; 0x221c <__floatsisf>
     ad0:	20 e0       	ldi	r18, 0x00	; 0
     ad2:	30 e0       	ldi	r19, 0x00	; 0
     ad4:	44 e2       	ldi	r20, 0x24	; 36
     ad6:	53 e4       	ldi	r21, 0x43	; 67
     ad8:	0e 94 73 10 	call	0x20e6	; 0x20e6 <__divsf3>
     adc:	6c 87       	std	Y+12, r22	; 0x0c
     ade:	7d 87       	std	Y+13, r23	; 0x0d
     ae0:	8e 87       	std	Y+14, r24	; 0x0e
     ae2:	9f 87       	std	Y+15, r25	; 0x0f
     ae4:	60 91 ea 07 	lds	r22, 0x07EA	; 0x8007ea <gyroY>
     ae8:	70 91 eb 07 	lds	r23, 0x07EB	; 0x8007eb <gyroY+0x1>
     aec:	80 91 ec 07 	lds	r24, 0x07EC	; 0x8007ec <gyroY+0x2>
     af0:	90 91 ed 07 	lds	r25, 0x07ED	; 0x8007ed <gyroY+0x3>
     af4:	0e 94 0e 11 	call	0x221c	; 0x221c <__floatsisf>
     af8:	20 e0       	ldi	r18, 0x00	; 0
     afa:	30 e0       	ldi	r19, 0x00	; 0
     afc:	44 e2       	ldi	r20, 0x24	; 36
     afe:	53 e4       	ldi	r21, 0x43	; 67
     b00:	0e 94 73 10 	call	0x20e6	; 0x20e6 <__divsf3>
     b04:	68 8b       	std	Y+16, r22	; 0x10
     b06:	79 8b       	std	Y+17, r23	; 0x11
     b08:	8a 8b       	std	Y+18, r24	; 0x12
     b0a:	9b 8b       	std	Y+19, r25	; 0x13
     b0c:	60 91 e6 07 	lds	r22, 0x07E6	; 0x8007e6 <gyroZ>
     b10:	70 91 e7 07 	lds	r23, 0x07E7	; 0x8007e7 <gyroZ+0x1>
     b14:	80 91 e8 07 	lds	r24, 0x07E8	; 0x8007e8 <gyroZ+0x2>
     b18:	90 91 e9 07 	lds	r25, 0x07E9	; 0x8007e9 <gyroZ+0x3>
     b1c:	0e 94 0e 11 	call	0x221c	; 0x221c <__floatsisf>
     b20:	20 e0       	ldi	r18, 0x00	; 0
     b22:	30 e0       	ldi	r19, 0x00	; 0
     b24:	44 e2       	ldi	r20, 0x24	; 36
     b26:	53 e4       	ldi	r21, 0x43	; 67
     b28:	0e 94 73 10 	call	0x20e6	; 0x20e6 <__divsf3>
     b2c:	6c 8b       	std	Y+20, r22	; 0x14
     b2e:	7d 8b       	std	Y+21, r23	; 0x15
     b30:	8e 8b       	std	Y+22, r24	; 0x16
     b32:	9f 8b       	std	Y+23, r25	; 0x17
     b34:	df 91       	pop	r29
     b36:	cf 91       	pop	r28
     b38:	08 95       	ret

00000b3a <_Z20recordAccelRegistersv>:
     b3a:	cf 93       	push	r28
     b3c:	68 e6       	ldi	r22, 0x68	; 104
     b3e:	70 e0       	ldi	r23, 0x00	; 0
     b40:	8c ed       	ldi	r24, 0xDC	; 220
     b42:	91 e1       	ldi	r25, 0x11	; 17
     b44:	0e 94 8d 29 	call	0x531a	; 0x531a <_ZN7TwoWire17beginTransmissionEi>
     b48:	6b e3       	ldi	r22, 0x3B	; 59
     b4a:	70 e0       	ldi	r23, 0x00	; 0
     b4c:	8c ed       	ldi	r24, 0xDC	; 220
     b4e:	91 e1       	ldi	r25, 0x11	; 17
     b50:	2b df       	rcall	.-426    	; 0x9a8 <_ZN7TwoWire5writeEi>
     b52:	8c ed       	ldi	r24, 0xDC	; 220
     b54:	91 e1       	ldi	r25, 0x11	; 17
     b56:	0e 94 07 2a 	call	0x540e	; 0x540e <_ZN7TwoWire15endTransmissionEv>
     b5a:	46 e0       	ldi	r20, 0x06	; 6
     b5c:	50 e0       	ldi	r21, 0x00	; 0
     b5e:	68 e6       	ldi	r22, 0x68	; 104
     b60:	70 e0       	ldi	r23, 0x00	; 0
     b62:	8c ed       	ldi	r24, 0xDC	; 220
     b64:	91 e1       	ldi	r25, 0x11	; 17
     b66:	0e 94 04 2a 	call	0x5408	; 0x5408 <_ZN7TwoWire11requestFromEii>
     b6a:	8c ed       	ldi	r24, 0xDC	; 220
     b6c:	91 e1       	ldi	r25, 0x11	; 17
     b6e:	0e 94 a3 28 	call	0x5146	; 0x5146 <_ZN7TwoWire9availableEv>
     b72:	06 97       	sbiw	r24, 0x06	; 6
     b74:	d4 f3       	brlt	.-12     	; 0xb6a <_Z20recordAccelRegistersv+0x30>
     b76:	8c ed       	ldi	r24, 0xDC	; 220
     b78:	91 e1       	ldi	r25, 0x11	; 17
     b7a:	0e 94 ab 28 	call	0x5156	; 0x5156 <_ZN7TwoWire4readEv>
     b7e:	c8 2f       	mov	r28, r24
     b80:	8c ed       	ldi	r24, 0xDC	; 220
     b82:	91 e1       	ldi	r25, 0x11	; 17
     b84:	0e 94 ab 28 	call	0x5156	; 0x5156 <_ZN7TwoWire4readEv>
     b88:	20 e0       	ldi	r18, 0x00	; 0
     b8a:	30 e0       	ldi	r19, 0x00	; 0
     b8c:	3c 2f       	mov	r19, r28
     b8e:	82 2b       	or	r24, r18
     b90:	93 2b       	or	r25, r19
     b92:	09 2e       	mov	r0, r25
     b94:	00 0c       	add	r0, r0
     b96:	aa 0b       	sbc	r26, r26
     b98:	bb 0b       	sbc	r27, r27
     b9a:	80 93 fa 07 	sts	0x07FA, r24	; 0x8007fa <accelX>
     b9e:	90 93 fb 07 	sts	0x07FB, r25	; 0x8007fb <accelX+0x1>
     ba2:	a0 93 fc 07 	sts	0x07FC, r26	; 0x8007fc <accelX+0x2>
     ba6:	b0 93 fd 07 	sts	0x07FD, r27	; 0x8007fd <accelX+0x3>
     baa:	8c ed       	ldi	r24, 0xDC	; 220
     bac:	91 e1       	ldi	r25, 0x11	; 17
     bae:	0e 94 ab 28 	call	0x5156	; 0x5156 <_ZN7TwoWire4readEv>
     bb2:	c8 2f       	mov	r28, r24
     bb4:	8c ed       	ldi	r24, 0xDC	; 220
     bb6:	91 e1       	ldi	r25, 0x11	; 17
     bb8:	0e 94 ab 28 	call	0x5156	; 0x5156 <_ZN7TwoWire4readEv>
     bbc:	20 e0       	ldi	r18, 0x00	; 0
     bbe:	30 e0       	ldi	r19, 0x00	; 0
     bc0:	3c 2f       	mov	r19, r28
     bc2:	82 2b       	or	r24, r18
     bc4:	93 2b       	or	r25, r19
     bc6:	09 2e       	mov	r0, r25
     bc8:	00 0c       	add	r0, r0
     bca:	aa 0b       	sbc	r26, r26
     bcc:	bb 0b       	sbc	r27, r27
     bce:	80 93 f6 07 	sts	0x07F6, r24	; 0x8007f6 <accelY>
     bd2:	90 93 f7 07 	sts	0x07F7, r25	; 0x8007f7 <accelY+0x1>
     bd6:	a0 93 f8 07 	sts	0x07F8, r26	; 0x8007f8 <accelY+0x2>
     bda:	b0 93 f9 07 	sts	0x07F9, r27	; 0x8007f9 <accelY+0x3>
     bde:	8c ed       	ldi	r24, 0xDC	; 220
     be0:	91 e1       	ldi	r25, 0x11	; 17
     be2:	0e 94 ab 28 	call	0x5156	; 0x5156 <_ZN7TwoWire4readEv>
     be6:	c8 2f       	mov	r28, r24
     be8:	8c ed       	ldi	r24, 0xDC	; 220
     bea:	91 e1       	ldi	r25, 0x11	; 17
     bec:	0e 94 ab 28 	call	0x5156	; 0x5156 <_ZN7TwoWire4readEv>
     bf0:	20 e0       	ldi	r18, 0x00	; 0
     bf2:	30 e0       	ldi	r19, 0x00	; 0
     bf4:	3c 2f       	mov	r19, r28
     bf6:	82 2b       	or	r24, r18
     bf8:	93 2b       	or	r25, r19
     bfa:	09 2e       	mov	r0, r25
     bfc:	00 0c       	add	r0, r0
     bfe:	aa 0b       	sbc	r26, r26
     c00:	bb 0b       	sbc	r27, r27
     c02:	80 93 f2 07 	sts	0x07F2, r24	; 0x8007f2 <accelZ>
     c06:	90 93 f3 07 	sts	0x07F3, r25	; 0x8007f3 <accelZ+0x1>
     c0a:	a0 93 f4 07 	sts	0x07F4, r26	; 0x8007f4 <accelZ+0x2>
     c0e:	b0 93 f5 07 	sts	0x07F5, r27	; 0x8007f5 <accelZ+0x3>
     c12:	cf 91       	pop	r28
     c14:	0c cf       	rjmp	.-488    	; 0xa2e <_Z16processAccelDatav>

00000c16 <_Z19recordGyroRegistersv>:
     c16:	cf 93       	push	r28
     c18:	68 e6       	ldi	r22, 0x68	; 104
     c1a:	70 e0       	ldi	r23, 0x00	; 0
     c1c:	8c ed       	ldi	r24, 0xDC	; 220
     c1e:	91 e1       	ldi	r25, 0x11	; 17
     c20:	0e 94 8d 29 	call	0x531a	; 0x531a <_ZN7TwoWire17beginTransmissionEi>
     c24:	63 e4       	ldi	r22, 0x43	; 67
     c26:	70 e0       	ldi	r23, 0x00	; 0
     c28:	8c ed       	ldi	r24, 0xDC	; 220
     c2a:	91 e1       	ldi	r25, 0x11	; 17
     c2c:	bd de       	rcall	.-646    	; 0x9a8 <_ZN7TwoWire5writeEi>
     c2e:	8c ed       	ldi	r24, 0xDC	; 220
     c30:	91 e1       	ldi	r25, 0x11	; 17
     c32:	0e 94 07 2a 	call	0x540e	; 0x540e <_ZN7TwoWire15endTransmissionEv>
     c36:	46 e0       	ldi	r20, 0x06	; 6
     c38:	50 e0       	ldi	r21, 0x00	; 0
     c3a:	68 e6       	ldi	r22, 0x68	; 104
     c3c:	70 e0       	ldi	r23, 0x00	; 0
     c3e:	8c ed       	ldi	r24, 0xDC	; 220
     c40:	91 e1       	ldi	r25, 0x11	; 17
     c42:	0e 94 04 2a 	call	0x5408	; 0x5408 <_ZN7TwoWire11requestFromEii>
     c46:	8c ed       	ldi	r24, 0xDC	; 220
     c48:	91 e1       	ldi	r25, 0x11	; 17
     c4a:	0e 94 a3 28 	call	0x5146	; 0x5146 <_ZN7TwoWire9availableEv>
     c4e:	06 97       	sbiw	r24, 0x06	; 6
     c50:	d4 f3       	brlt	.-12     	; 0xc46 <_Z19recordGyroRegistersv+0x30>
     c52:	8c ed       	ldi	r24, 0xDC	; 220
     c54:	91 e1       	ldi	r25, 0x11	; 17
     c56:	0e 94 ab 28 	call	0x5156	; 0x5156 <_ZN7TwoWire4readEv>
     c5a:	c8 2f       	mov	r28, r24
     c5c:	8c ed       	ldi	r24, 0xDC	; 220
     c5e:	91 e1       	ldi	r25, 0x11	; 17
     c60:	0e 94 ab 28 	call	0x5156	; 0x5156 <_ZN7TwoWire4readEv>
     c64:	20 e0       	ldi	r18, 0x00	; 0
     c66:	30 e0       	ldi	r19, 0x00	; 0
     c68:	3c 2f       	mov	r19, r28
     c6a:	82 2b       	or	r24, r18
     c6c:	93 2b       	or	r25, r19
     c6e:	09 2e       	mov	r0, r25
     c70:	00 0c       	add	r0, r0
     c72:	aa 0b       	sbc	r26, r26
     c74:	bb 0b       	sbc	r27, r27
     c76:	80 93 ee 07 	sts	0x07EE, r24	; 0x8007ee <gyroX>
     c7a:	90 93 ef 07 	sts	0x07EF, r25	; 0x8007ef <gyroX+0x1>
     c7e:	a0 93 f0 07 	sts	0x07F0, r26	; 0x8007f0 <gyroX+0x2>
     c82:	b0 93 f1 07 	sts	0x07F1, r27	; 0x8007f1 <gyroX+0x3>
     c86:	8c ed       	ldi	r24, 0xDC	; 220
     c88:	91 e1       	ldi	r25, 0x11	; 17
     c8a:	0e 94 ab 28 	call	0x5156	; 0x5156 <_ZN7TwoWire4readEv>
     c8e:	c8 2f       	mov	r28, r24
     c90:	8c ed       	ldi	r24, 0xDC	; 220
     c92:	91 e1       	ldi	r25, 0x11	; 17
     c94:	0e 94 ab 28 	call	0x5156	; 0x5156 <_ZN7TwoWire4readEv>
     c98:	20 e0       	ldi	r18, 0x00	; 0
     c9a:	30 e0       	ldi	r19, 0x00	; 0
     c9c:	3c 2f       	mov	r19, r28
     c9e:	82 2b       	or	r24, r18
     ca0:	93 2b       	or	r25, r19
     ca2:	09 2e       	mov	r0, r25
     ca4:	00 0c       	add	r0, r0
     ca6:	aa 0b       	sbc	r26, r26
     ca8:	bb 0b       	sbc	r27, r27
     caa:	80 93 ea 07 	sts	0x07EA, r24	; 0x8007ea <gyroY>
     cae:	90 93 eb 07 	sts	0x07EB, r25	; 0x8007eb <gyroY+0x1>
     cb2:	a0 93 ec 07 	sts	0x07EC, r26	; 0x8007ec <gyroY+0x2>
     cb6:	b0 93 ed 07 	sts	0x07ED, r27	; 0x8007ed <gyroY+0x3>
     cba:	8c ed       	ldi	r24, 0xDC	; 220
     cbc:	91 e1       	ldi	r25, 0x11	; 17
     cbe:	0e 94 ab 28 	call	0x5156	; 0x5156 <_ZN7TwoWire4readEv>
     cc2:	c8 2f       	mov	r28, r24
     cc4:	8c ed       	ldi	r24, 0xDC	; 220
     cc6:	91 e1       	ldi	r25, 0x11	; 17
     cc8:	0e 94 ab 28 	call	0x5156	; 0x5156 <_ZN7TwoWire4readEv>
     ccc:	20 e0       	ldi	r18, 0x00	; 0
     cce:	30 e0       	ldi	r19, 0x00	; 0
     cd0:	3c 2f       	mov	r19, r28
     cd2:	82 2b       	or	r24, r18
     cd4:	93 2b       	or	r25, r19
     cd6:	09 2e       	mov	r0, r25
     cd8:	00 0c       	add	r0, r0
     cda:	aa 0b       	sbc	r26, r26
     cdc:	bb 0b       	sbc	r27, r27
     cde:	80 93 e6 07 	sts	0x07E6, r24	; 0x8007e6 <gyroZ>
     ce2:	90 93 e7 07 	sts	0x07E7, r25	; 0x8007e7 <gyroZ+0x1>
     ce6:	a0 93 e8 07 	sts	0x07E8, r26	; 0x8007e8 <gyroZ+0x2>
     cea:	b0 93 e9 07 	sts	0x07E9, r27	; 0x8007e9 <gyroZ+0x3>
     cee:	cf 91       	pop	r28
     cf0:	e1 ce       	rjmp	.-574    	; 0xab4 <_Z15processGyroDatav>

00000cf2 <_Z12Get_MPU_Datav>:
     cf2:	cf 93       	push	r28
     cf4:	df 93       	push	r29
     cf6:	ec 01       	movw	r28, r24
     cf8:	20 df       	rcall	.-448    	; 0xb3a <_Z20recordAccelRegistersv>
     cfa:	8d df       	rcall	.-230    	; 0xc16 <_Z19recordGyroRegistersv>
     cfc:	88 e1       	ldi	r24, 0x18	; 24
     cfe:	ee ec       	ldi	r30, 0xCE	; 206
     d00:	f7 e0       	ldi	r31, 0x07	; 7
     d02:	de 01       	movw	r26, r28
     d04:	01 90       	ld	r0, Z+
     d06:	0d 92       	st	X+, r0
     d08:	8a 95       	dec	r24
     d0a:	e1 f7       	brne	.-8      	; 0xd04 <_Z12Get_MPU_Datav+0x12>
     d0c:	ce 01       	movw	r24, r28
     d0e:	df 91       	pop	r29
     d10:	cf 91       	pop	r28
     d12:	08 95       	ret

00000d14 <_ZN5Print17availableForWriteEv>:
     d14:	80 e0       	ldi	r24, 0x00	; 0
     d16:	90 e0       	ldi	r25, 0x00	; 0
     d18:	08 95       	ret

00000d1a <_Z10Fona_setupv>:
     d1a:	26 e0       	ldi	r18, 0x06	; 6
     d1c:	40 ec       	ldi	r20, 0xC0	; 192
     d1e:	52 e1       	ldi	r21, 0x12	; 18
     d20:	60 e0       	ldi	r22, 0x00	; 0
     d22:	70 e0       	ldi	r23, 0x00	; 0
     d24:	80 91 06 02 	lds	r24, 0x0206	; 0x800206 <fonaSerial>
     d28:	90 91 07 02 	lds	r25, 0x0207	; 0x800207 <fonaSerial+0x1>
     d2c:	0e 94 2a 13 	call	0x2654	; 0x2654 <_ZN14HardwareSerial5beginEmh>
     d30:	60 91 06 02 	lds	r22, 0x0206	; 0x800206 <fonaSerial>
     d34:	70 91 07 02 	lds	r23, 0x0207	; 0x800207 <fonaSerial+0x1>
     d38:	8a e3       	ldi	r24, 0x3A	; 58
     d3a:	99 e0       	ldi	r25, 0x09	; 9
     d3c:	0e 94 cf 2b 	call	0x579e	; 0x579e <_ZN13Adafruit_FONA5beginER6Stream>
     d40:	65 e0       	ldi	r22, 0x05	; 5
     d42:	73 e0       	ldi	r23, 0x03	; 3
     d44:	80 91 06 02 	lds	r24, 0x0206	; 0x800206 <fonaSerial>
     d48:	90 91 07 02 	lds	r25, 0x0207	; 0x800207 <fonaSerial+0x1>
     d4c:	0c 94 62 16 	jmp	0x2cc4	; 0x2cc4 <_ZN5Print5printEPKc>

00000d50 <_Z16Fona_SMS_recievev>:
     d50:	ef 92       	push	r14
     d52:	ff 92       	push	r15
     d54:	0f 93       	push	r16
     d56:	1f 93       	push	r17
     d58:	cf 93       	push	r28
     d5a:	df 93       	push	r29
     d5c:	cd b7       	in	r28, 0x3d	; 61
     d5e:	de b7       	in	r29, 0x3e	; 62
     d60:	a2 97       	sbiw	r28, 0x22	; 34
     d62:	0f b6       	in	r0, 0x3f	; 63
     d64:	f8 94       	cli
     d66:	de bf       	out	0x3e, r29	; 62
     d68:	0f be       	out	0x3f, r0	; 63
     d6a:	cd bf       	out	0x3d, r28	; 61
     d6c:	8a e3       	ldi	r24, 0x3A	; 58
     d6e:	99 e0       	ldi	r25, 0x09	; 9
     d70:	0e 94 0c 2a 	call	0x5418	; 0x5418 <_ZN13Adafruit_FONA9availableEv>
     d74:	89 2b       	or	r24, r25
     d76:	09 f4       	brne	.+2      	; 0xd7a <_Z16Fona_SMS_recievev+0x2a>
     d78:	4e c0       	rjmp	.+156    	; 0xe16 <_Z16Fona_SMS_recievev+0xc6>
     d7a:	0a ef       	ldi	r16, 0xFA	; 250
     d7c:	18 e0       	ldi	r17, 0x08	; 8
     d7e:	78 01       	movw	r14, r16
     d80:	8a e3       	ldi	r24, 0x3A	; 58
     d82:	99 e0       	ldi	r25, 0x09	; 9
     d84:	0e 94 24 2a 	call	0x5448	; 0x5448 <_ZN13Adafruit_FONA4readEv>
     d88:	f8 01       	movw	r30, r16
     d8a:	81 93       	st	Z+, r24
     d8c:	8f 01       	movw	r16, r30
     d8e:	61 e0       	ldi	r22, 0x01	; 1
     d90:	70 e0       	ldi	r23, 0x00	; 0
     d92:	80 e0       	ldi	r24, 0x00	; 0
     d94:	90 e0       	ldi	r25, 0x00	; 0
     d96:	0e 94 12 19 	call	0x3224	; 0x3224 <delay>
     d9a:	f7 01       	movw	r30, r14
     d9c:	80 81       	ld	r24, Z
     d9e:	8a 30       	cpi	r24, 0x0A	; 10
     da0:	51 f0       	breq	.+20     	; 0xdb6 <_Z16Fona_SMS_recievev+0x66>
     da2:	8a e3       	ldi	r24, 0x3A	; 58
     da4:	99 e0       	ldi	r25, 0x09	; 9
     da6:	0e 94 0c 2a 	call	0x5418	; 0x5418 <_ZN13Adafruit_FONA9availableEv>
     daa:	89 2b       	or	r24, r25
     dac:	21 f0       	breq	.+8      	; 0xdb6 <_Z16Fona_SMS_recievev+0x66>
     dae:	f9 e0       	ldi	r31, 0x09	; 9
     db0:	09 33       	cpi	r16, 0x39	; 57
     db2:	1f 07       	cpc	r17, r31
     db4:	21 f7       	brne	.-56     	; 0xd7e <_Z16Fona_SMS_recievev+0x2e>
     db6:	f7 01       	movw	r30, r14
     db8:	11 82       	std	Z+1, r1	; 0x01
     dba:	8e ef       	ldi	r24, 0xFE	; 254
     dbc:	97 e0       	ldi	r25, 0x07	; 7
     dbe:	9f 93       	push	r25
     dc0:	8f 93       	push	r24
     dc2:	83 e1       	ldi	r24, 0x13	; 19
     dc4:	93 e0       	ldi	r25, 0x03	; 3
     dc6:	9f 93       	push	r25
     dc8:	8f 93       	push	r24
     dca:	8a ef       	ldi	r24, 0xFA	; 250
     dcc:	98 e0       	ldi	r25, 0x08	; 8
     dce:	9f 93       	push	r25
     dd0:	8f 93       	push	r24
     dd2:	0e 94 d3 43 	call	0x87a6	; 0x87a6 <sscanf>
     dd6:	0f 90       	pop	r0
     dd8:	0f 90       	pop	r0
     dda:	0f 90       	pop	r0
     ddc:	0f 90       	pop	r0
     dde:	0f 90       	pop	r0
     de0:	0f 90       	pop	r0
     de2:	01 97       	sbiw	r24, 0x01	; 1
     de4:	c1 f4       	brne	.+48     	; 0xe16 <_Z16Fona_SMS_recievev+0xc6>
     de6:	2f e1       	ldi	r18, 0x1F	; 31
     de8:	30 e0       	ldi	r19, 0x00	; 0
     dea:	ae 01       	movw	r20, r28
     dec:	4f 5f       	subi	r20, 0xFF	; 255
     dee:	5f 4f       	sbci	r21, 0xFF	; 255
     df0:	60 91 fe 07 	lds	r22, 0x07FE	; 0x8007fe <slot>
     df4:	8a e3       	ldi	r24, 0x3A	; 58
     df6:	99 e0       	ldi	r25, 0x09	; 9
     df8:	0e 94 a8 2f 	call	0x5f50	; 0x5f50 <_ZN13Adafruit_FONA12getSMSSenderEhPci>
     dfc:	8e 01       	movw	r16, r28
     dfe:	0f 5d       	subi	r16, 0xDF	; 223
     e00:	1f 4f       	sbci	r17, 0xFF	; 255
     e02:	2a ef       	ldi	r18, 0xFA	; 250
     e04:	30 e0       	ldi	r19, 0x00	; 0
     e06:	40 e0       	ldi	r20, 0x00	; 0
     e08:	58 e0       	ldi	r21, 0x08	; 8
     e0a:	60 91 fe 07 	lds	r22, 0x07FE	; 0x8007fe <slot>
     e0e:	8a e3       	ldi	r24, 0x3A	; 58
     e10:	99 e0       	ldi	r25, 0x09	; 9
     e12:	0e 94 a5 2e 	call	0x5d4a	; 0x5d4a <_ZN13Adafruit_FONA7readSMSEhPcjPj>
     e16:	a2 96       	adiw	r28, 0x22	; 34
     e18:	0f b6       	in	r0, 0x3f	; 63
     e1a:	f8 94       	cli
     e1c:	de bf       	out	0x3e, r29	; 62
     e1e:	0f be       	out	0x3f, r0	; 63
     e20:	cd bf       	out	0x3d, r28	; 61
     e22:	df 91       	pop	r29
     e24:	cf 91       	pop	r28
     e26:	1f 91       	pop	r17
     e28:	0f 91       	pop	r16
     e2a:	ff 90       	pop	r15
     e2c:	ef 90       	pop	r14
     e2e:	08 95       	ret

00000e30 <_Z13Fona_Send_smsv>:
     e30:	cf 93       	push	r28
     e32:	df 93       	push	r29
     e34:	cd b7       	in	r28, 0x3d	; 61
     e36:	de b7       	in	r29, 0x3e	; 62
     e38:	a0 97       	sbiw	r28, 0x20	; 32
     e3a:	0f b6       	in	r0, 0x3f	; 63
     e3c:	f8 94       	cli
     e3e:	de bf       	out	0x3e, r29	; 62
     e40:	0f be       	out	0x3f, r0	; 63
     e42:	cd bf       	out	0x3d, r28	; 61
     e44:	42 e2       	ldi	r20, 0x22	; 34
     e46:	53 e0       	ldi	r21, 0x03	; 3
     e48:	be 01       	movw	r22, r28
     e4a:	6f 5f       	subi	r22, 0xFF	; 255
     e4c:	7f 4f       	sbci	r23, 0xFF	; 255
     e4e:	8a e3       	ldi	r24, 0x3A	; 58
     e50:	99 e0       	ldi	r25, 0x09	; 9
     e52:	0e 94 67 2d 	call	0x5ace	; 0x5ace <_ZN13Adafruit_FONA7sendSMSEPcS0_>
     e56:	60 91 fe 07 	lds	r22, 0x07FE	; 0x8007fe <slot>
     e5a:	8a e3       	ldi	r24, 0x3A	; 58
     e5c:	99 e0       	ldi	r25, 0x09	; 9
     e5e:	0e 94 1f 2e 	call	0x5c3e	; 0x5c3e <_ZN13Adafruit_FONA9deleteSMSEh>
     e62:	81 11       	cpse	r24, r1
     e64:	06 c0       	rjmp	.+12     	; 0xe72 <_Z13Fona_Send_smsv+0x42>
     e66:	63 e6       	ldi	r22, 0x63	; 99
     e68:	71 e0       	ldi	r23, 0x01	; 1
     e6a:	8a e3       	ldi	r24, 0x3A	; 58
     e6c:	99 e0       	ldi	r25, 0x09	; 9
     e6e:	0e 94 30 16 	call	0x2c60	; 0x2c60 <_ZN5Print5printEPK19__FlashStringHelper>
     e72:	a0 96       	adiw	r28, 0x20	; 32
     e74:	0f b6       	in	r0, 0x3f	; 63
     e76:	f8 94       	cli
     e78:	de bf       	out	0x3e, r29	; 62
     e7a:	0f be       	out	0x3f, r0	; 63
     e7c:	cd bf       	out	0x3d, r28	; 61
     e7e:	df 91       	pop	r29
     e80:	cf 91       	pop	r28
     e82:	08 95       	ret

00000e84 <_GLOBAL__sub_I_fonaSerial>:
     e84:	66 e1       	ldi	r22, 0x16	; 22
     e86:	8a e3       	ldi	r24, 0x3A	; 58
     e88:	99 e0       	ldi	r25, 0x09	; 9
     e8a:	0e 94 48 2a 	call	0x5490	; 0x5490 <_ZN13Adafruit_FONAC1Ea>
     e8e:	ea e3       	ldi	r30, 0x3A	; 58
     e90:	f9 e0       	ldi	r31, 0x09	; 9
     e92:	8c e3       	ldi	r24, 0x3C	; 60
     e94:	93 e0       	ldi	r25, 0x03	; 3
     e96:	91 83       	std	Z+1, r25	; 0x01
     e98:	80 83       	st	Z, r24
     e9a:	84 e0       	ldi	r24, 0x04	; 4
     e9c:	85 87       	std	Z+13, r24	; 0x0d
     e9e:	08 95       	ret

00000ea0 <_Z8GPS_readv>:
     ea0:	cf 93       	push	r28
     ea2:	df 93       	push	r29
     ea4:	ec 01       	movw	r28, r24
     ea6:	84 e5       	ldi	r24, 0x54	; 84
     ea8:	9a e0       	ldi	r25, 0x0A	; 10
     eaa:	0e 94 48 20 	call	0x4090	; 0x4090 <_ZN12Adafruit_GPS4readEv>
     eae:	1b 86       	std	Y+11, r1	; 0x0b
     eb0:	84 e5       	ldi	r24, 0x54	; 84
     eb2:	9a e0       	ldi	r25, 0x0A	; 10
     eb4:	0e 94 db 22 	call	0x45b6	; 0x45b6 <_ZN12Adafruit_GPS15newNMEAreceivedEv>
     eb8:	88 23       	and	r24, r24
     eba:	71 f0       	breq	.+28     	; 0xed8 <_Z8GPS_readv+0x38>
     ebc:	84 e5       	ldi	r24, 0x54	; 84
     ebe:	9a e0       	ldi	r25, 0x0A	; 10
     ec0:	0e 94 e0 22 	call	0x45c0	; 0x45c0 <_ZN12Adafruit_GPS8lastNMEAEv>
     ec4:	bc 01       	movw	r22, r24
     ec6:	84 e5       	ldi	r24, 0x54	; 84
     ec8:	9a e0       	ldi	r25, 0x0A	; 10
     eca:	0e 94 87 23 	call	0x470e	; 0x470e <_ZN12Adafruit_GPS5parseEPc>
     ece:	81 11       	cpse	r24, r1
     ed0:	30 c0       	rjmp	.+96     	; 0xf32 <_Z8GPS_readv+0x92>
     ed2:	81 e0       	ldi	r24, 0x01	; 1
     ed4:	8b 87       	std	Y+11, r24	; 0x0b
     ed6:	2d c0       	rjmp	.+90     	; 0xf32 <_Z8GPS_readv+0x92>
     ed8:	20 91 cb 0a 	lds	r18, 0x0ACB	; 0x800acb <GPS+0x77>
     edc:	28 83       	st	Y, r18
     ede:	80 91 cc 0a 	lds	r24, 0x0ACC	; 0x800acc <GPS+0x78>
     ee2:	90 e0       	ldi	r25, 0x00	; 0
     ee4:	9a 83       	std	Y+2, r25	; 0x02
     ee6:	89 83       	std	Y+1, r24	; 0x01
     ee8:	22 23       	and	r18, r18
     eea:	19 f1       	breq	.+70     	; 0xf32 <_Z8GPS_readv+0x92>
     eec:	60 91 90 0a 	lds	r22, 0x0A90	; 0x800a90 <GPS+0x3c>
     ef0:	70 91 91 0a 	lds	r23, 0x0A91	; 0x800a91 <GPS+0x3d>
     ef4:	80 91 92 0a 	lds	r24, 0x0A92	; 0x800a92 <GPS+0x3e>
     ef8:	90 91 93 0a 	lds	r25, 0x0A93	; 0x800a93 <GPS+0x3f>
     efc:	0e 94 db 10 	call	0x21b6	; 0x21b6 <__fixsfsi>
     f00:	7c 83       	std	Y+4, r23	; 0x04
     f02:	6b 83       	std	Y+3, r22	; 0x03
     f04:	80 91 c8 0a 	lds	r24, 0x0AC8	; 0x800ac8 <GPS+0x74>
     f08:	8d 83       	std	Y+5, r24	; 0x05
     f0a:	60 91 94 0a 	lds	r22, 0x0A94	; 0x800a94 <GPS+0x40>
     f0e:	70 91 95 0a 	lds	r23, 0x0A95	; 0x800a95 <GPS+0x41>
     f12:	80 91 96 0a 	lds	r24, 0x0A96	; 0x800a96 <GPS+0x42>
     f16:	90 91 97 0a 	lds	r25, 0x0A97	; 0x800a97 <GPS+0x43>
     f1a:	0e 94 db 10 	call	0x21b6	; 0x21b6 <__fixsfsi>
     f1e:	7f 83       	std	Y+7, r23	; 0x07
     f20:	6e 83       	std	Y+6, r22	; 0x06
     f22:	80 91 c9 0a 	lds	r24, 0x0AC9	; 0x800ac9 <GPS+0x75>
     f26:	88 87       	std	Y+8, r24	; 0x08
     f28:	80 91 ce 0a 	lds	r24, 0x0ACE	; 0x800ace <GPS+0x7a>
     f2c:	90 e0       	ldi	r25, 0x00	; 0
     f2e:	9a 87       	std	Y+10, r25	; 0x0a
     f30:	89 87       	std	Y+9, r24	; 0x09
     f32:	ce 01       	movw	r24, r28
     f34:	df 91       	pop	r29
     f36:	cf 91       	pop	r28
     f38:	08 95       	ret

00000f3a <_GLOBAL__sub_I_GPS>:
     f3a:	6c e8       	ldi	r22, 0x8C	; 140
     f3c:	7f e0       	ldi	r23, 0x0F	; 15
     f3e:	84 e5       	ldi	r24, 0x54	; 84
     f40:	9a e0       	ldi	r25, 0x0A	; 10
     f42:	0c 94 56 22 	jmp	0x44ac	; 0x44ac <_ZN12Adafruit_GPSC1EP14HardwareSerial>

00000f46 <_Z15Occupant_detectv>:
occupancy_data previous;
GPS_data gps;

bool Occupant_detect(){
	
	if (Print_mode)
     f46:	80 91 09 02 	lds	r24, 0x0209	; 0x800209 <Print_mode>
     f4a:	88 23       	and	r24, r24
     f4c:	31 f0       	breq	.+12     	; 0xf5a <_Z15Occupant_detectv+0x14>
	{
		Serial.println("occupant detect");
     f4e:	6a e4       	ldi	r22, 0x4A	; 74
     f50:	73 e0       	ldi	r23, 0x03	; 3
     f52:	82 e5       	ldi	r24, 0x52	; 82
     f54:	9e e0       	ldi	r25, 0x0E	; 14
     f56:	0e 94 8d 16 	call	0x2d1a	; 0x2d1a <_ZN5Print7printlnEPKc>
	}
	
	if (!Testing_mode){
     f5a:	80 91 0a 02 	lds	r24, 0x020A	; 0x80020a <Testing_mode>
     f5e:	81 11       	cpse	r24, r1
     f60:	f8 c0       	rjmp	.+496    	; 0x1152 <_Z15Occupant_detectv+0x20c>
		//turn on Ping and IR camera
		digitalWrite(Ping_enable_pin, HIGH);
     f62:	61 e0       	ldi	r22, 0x01	; 1
     f64:	87 e2       	ldi	r24, 0x27	; 39
     f66:	0e 94 70 1a 	call	0x34e0	; 0x34e0 <digitalWrite>
		digitalWrite(Camera_enable_pin, HIGH);
     f6a:	61 e0       	ldi	r22, 0x01	; 1
     f6c:	83 e2       	ldi	r24, 0x23	; 35
     f6e:	0e 94 70 1a 	call	0x34e0	; 0x34e0 <digitalWrite>
		delay(1000); //allow camera and Ping to boot
     f72:	68 ee       	ldi	r22, 0xE8	; 232
     f74:	73 e0       	ldi	r23, 0x03	; 3
     f76:	80 e0       	ldi	r24, 0x00	; 0
     f78:	90 e0       	ldi	r25, 0x00	; 0
     f7a:	0e 94 12 19 	call	0x3224	; 0x3224 <delay>
		Thermal_setup(); //blocking code, communicate with IR camera
     f7e:	a6 d6       	rcall	.+3404   	; 0x1ccc <_Z13Thermal_setupv>
		//digitalWrite(PIR_enable_pin, LOW);
		
		//sun check
		current.Distance = hcsr04.distanceInMillimeters();
     f80:	8c ed       	ldi	r24, 0xDC	; 220
     f82:	9c e0       	ldi	r25, 0x0C	; 12
     f84:	0e 94 c0 27 	call	0x4f80	; 0x4f80 <_ZN6HCSR0421distanceInMillimetersEv>
     f88:	90 93 b0 0c 	sts	0x0CB0, r25	; 0x800cb0 <current+0x1>
     f8c:	80 93 af 0c 	sts	0x0CAF, r24	; 0x800caf <current>
		if (Print_mode){
     f90:	80 91 09 02 	lds	r24, 0x0209	; 0x800209 <Print_mode>
     f94:	88 23       	and	r24, r24
     f96:	81 f0       	breq	.+32     	; 0xfb8 <_Z15Occupant_detectv+0x72>
			Serial.print("distance read: ");
     f98:	6a e5       	ldi	r22, 0x5A	; 90
     f9a:	73 e0       	ldi	r23, 0x03	; 3
     f9c:	82 e5       	ldi	r24, 0x52	; 82
     f9e:	9e e0       	ldi	r25, 0x0E	; 14
     fa0:	0e 94 62 16 	call	0x2cc4	; 0x2cc4 <_ZN5Print5printEPKc>
			Serial.println(current.Distance);
     fa4:	60 91 af 0c 	lds	r22, 0x0CAF	; 0x800caf <current>
     fa8:	70 91 b0 0c 	lds	r23, 0x0CB0	; 0x800cb0 <current+0x1>
     fac:	4a e0       	ldi	r20, 0x0A	; 10
     fae:	50 e0       	ldi	r21, 0x00	; 0
     fb0:	82 e5       	ldi	r24, 0x52	; 82
     fb2:	9e e0       	ldi	r25, 0x0E	; 14
     fb4:	0e 94 67 17 	call	0x2ece	; 0x2ece <_ZN5Print7printlnEii>
		}
		current.PIR = PIR_flag; //Tie PIR to ISR and turn on using the sleep timer.
     fb8:	80 91 b7 0c 	lds	r24, 0x0CB7	; 0x800cb7 <PIR_flag>
     fbc:	80 93 b3 0c 	sts	0x0CB3, r24	; 0x800cb3 <current+0x4>
		current.Seat_load = 1; // hard coded for positive reading, to be backed by logic when module is designed
     fc0:	81 e0       	ldi	r24, 0x01	; 1
     fc2:	80 93 b4 0c 	sts	0x0CB4, r24	; 0x800cb4 <current+0x5>
		Thermal_parsed = Thermal_read();
     fc6:	9d d6       	rcall	.+3386   	; 0x1d02 <_Z12Thermal_readv>
     fc8:	20 93 d6 0c 	sts	0x0CD6, r18	; 0x800cd6 <Thermal_parsed>
     fcc:	30 93 d7 0c 	sts	0x0CD7, r19	; 0x800cd7 <Thermal_parsed+0x1>
     fd0:	40 93 d8 0c 	sts	0x0CD8, r20	; 0x800cd8 <Thermal_parsed+0x2>
     fd4:	50 93 d9 0c 	sts	0x0CD9, r21	; 0x800cd9 <Thermal_parsed+0x3>
     fd8:	60 93 da 0c 	sts	0x0CDA, r22	; 0x800cda <Thermal_parsed+0x4>
     fdc:	70 93 db 0c 	sts	0x0CDB, r23	; 0x800cdb <Thermal_parsed+0x5>
		current.IR = Thermal_parsed.detected;
     fe0:	81 e0       	ldi	r24, 0x01	; 1
     fe2:	20 91 da 0c 	lds	r18, 0x0CDA	; 0x800cda <Thermal_parsed+0x4>
     fe6:	30 91 db 0c 	lds	r19, 0x0CDB	; 0x800cdb <Thermal_parsed+0x5>
     fea:	23 2b       	or	r18, r19
     fec:	09 f4       	brne	.+2      	; 0xff0 <_Z15Occupant_detectv+0xaa>
     fee:	80 e0       	ldi	r24, 0x00	; 0
     ff0:	80 93 b5 0c 	sts	0x0CB5, r24	; 0x800cb5 <current+0x6>
		
		if (Print_mode){
     ff4:	80 91 09 02 	lds	r24, 0x0209	; 0x800209 <Print_mode>
     ff8:	88 23       	and	r24, r24
     ffa:	31 f1       	breq	.+76     	; 0x1048 <_Z15Occupant_detectv+0x102>
			Serial.print(current.Distance); Serial.print(current.PIR); Serial.print(current.Seat_load); Serial.print(Thermal_parsed.detected);
     ffc:	60 91 af 0c 	lds	r22, 0x0CAF	; 0x800caf <current>
    1000:	70 91 b0 0c 	lds	r23, 0x0CB0	; 0x800cb0 <current+0x1>
    1004:	4a e0       	ldi	r20, 0x0A	; 10
    1006:	50 e0       	ldi	r21, 0x00	; 0
    1008:	82 e5       	ldi	r24, 0x52	; 82
    100a:	9e e0       	ldi	r25, 0x0E	; 14
    100c:	0e 94 61 17 	call	0x2ec2	; 0x2ec2 <_ZN5Print5printEii>
    1010:	60 91 b3 0c 	lds	r22, 0x0CB3	; 0x800cb3 <current+0x4>
    1014:	70 e0       	ldi	r23, 0x00	; 0
    1016:	4a e0       	ldi	r20, 0x0A	; 10
    1018:	50 e0       	ldi	r21, 0x00	; 0
    101a:	82 e5       	ldi	r24, 0x52	; 82
    101c:	9e e0       	ldi	r25, 0x0E	; 14
    101e:	0e 94 61 17 	call	0x2ec2	; 0x2ec2 <_ZN5Print5printEii>
    1022:	60 91 b4 0c 	lds	r22, 0x0CB4	; 0x800cb4 <current+0x5>
    1026:	70 e0       	ldi	r23, 0x00	; 0
    1028:	4a e0       	ldi	r20, 0x0A	; 10
    102a:	50 e0       	ldi	r21, 0x00	; 0
    102c:	82 e5       	ldi	r24, 0x52	; 82
    102e:	9e e0       	ldi	r25, 0x0E	; 14
    1030:	0e 94 61 17 	call	0x2ec2	; 0x2ec2 <_ZN5Print5printEii>
    1034:	60 91 da 0c 	lds	r22, 0x0CDA	; 0x800cda <Thermal_parsed+0x4>
    1038:	70 91 db 0c 	lds	r23, 0x0CDB	; 0x800cdb <Thermal_parsed+0x5>
    103c:	4a e0       	ldi	r20, 0x0A	; 10
    103e:	50 e0       	ldi	r21, 0x00	; 0
    1040:	82 e5       	ldi	r24, 0x52	; 82
    1042:	9e e0       	ldi	r25, 0x0E	; 14
    1044:	0e 94 61 17 	call	0x2ec2	; 0x2ec2 <_ZN5Print5printEii>
	}
	
	bool Object;
	bool IR;
	
	current.Object_size = Seat_Distance - current.Distance;
    1048:	80 91 0d 02 	lds	r24, 0x020D	; 0x80020d <Seat_Distance>
    104c:	90 91 0e 02 	lds	r25, 0x020E	; 0x80020e <Seat_Distance+0x1>
    1050:	20 91 af 0c 	lds	r18, 0x0CAF	; 0x800caf <current>
    1054:	30 91 b0 0c 	lds	r19, 0x0CB0	; 0x800cb0 <current+0x1>
    1058:	82 1b       	sub	r24, r18
    105a:	93 0b       	sbc	r25, r19
    105c:	90 93 b2 0c 	sts	0x0CB2, r25	; 0x800cb2 <current+0x3>
    1060:	80 93 b1 0c 	sts	0x0CB1, r24	; 0x800cb1 <current+0x2>
	
	if (!Occupant_flag){
    1064:	90 91 b8 0c 	lds	r25, 0x0CB8	; 0x800cb8 <Occupant_flag>
    1068:	80 91 b9 0c 	lds	r24, 0x0CB9	; 0x800cb9 <State>
    106c:	91 11       	cpse	r25, r1
    106e:	25 c0       	rjmp	.+74     	; 0x10ba <_Z15Occupant_detectv+0x174>
		switch (State) //Need to add in CO states
    1070:	85 30       	cpi	r24, 0x05	; 5
    1072:	51 f0       	breq	.+20     	; 0x1088 <_Z15Occupant_detectv+0x142>
    1074:	30 f4       	brcc	.+12     	; 0x1082 <_Z15Occupant_detectv+0x13c>
    1076:	88 23       	and	r24, r24
    1078:	39 f0       	breq	.+14     	; 0x1088 <_Z15Occupant_detectv+0x142>
    107a:	82 30       	cpi	r24, 0x02	; 2
    107c:	09 f0       	breq	.+2      	; 0x1080 <_Z15Occupant_detectv+0x13a>
    107e:	68 c0       	rjmp	.+208    	; 0x1150 <_Z15Occupant_detectv+0x20a>
    1080:	03 c0       	rjmp	.+6      	; 0x1088 <_Z15Occupant_detectv+0x142>
    1082:	8a 30       	cpi	r24, 0x0A	; 10
    1084:	98 f0       	brcs	.+38     	; 0x10ac <_Z15Occupant_detectv+0x166>
    1086:	64 c0       	rjmp	.+200    	; 0x1150 <_Z15Occupant_detectv+0x20a>
		{
			case Running: //Under 80 deg F`
			case Stopped:
			case TH0:
			
			if (Print_mode){
    1088:	80 91 09 02 	lds	r24, 0x0209	; 0x800209 <Print_mode>
    108c:	88 23       	and	r24, r24
    108e:	61 f0       	breq	.+24     	; 0x10a8 <_Z15Occupant_detectv+0x162>
				Serial.println("Occupancy detection < 80");
    1090:	6a e6       	ldi	r22, 0x6A	; 106
    1092:	73 e0       	ldi	r23, 0x03	; 3
    1094:	82 e5       	ldi	r24, 0x52	; 82
    1096:	9e e0       	ldi	r25, 0x0E	; 14
    1098:	0e 94 8d 16 	call	0x2d1a	; 0x2d1a <_ZN5Print7printlnEPKc>
				delay (500);
    109c:	64 ef       	ldi	r22, 0xF4	; 244
    109e:	71 e0       	ldi	r23, 0x01	; 1
    10a0:	80 e0       	ldi	r24, 0x00	; 0
    10a2:	90 e0       	ldi	r25, 0x00	; 0
    10a4:	0e 94 12 19 	call	0x3224	; 0x3224 <delay>
			}
			if ((current.PIR)||(Thermal_parsed.detected)){
				IR = true;
			}
			if (Object && IR){
				return 1;
    10a8:	81 e0       	ldi	r24, 0x01	; 1
    10aa:	08 95       	ret
			case TH1: //Above 80 deg F
			case TH2:
			case TH3:
			case TH4:
			
			if (Print_mode){
    10ac:	80 91 09 02 	lds	r24, 0x0209	; 0x800209 <Print_mode>
    10b0:	88 23       	and	r24, r24
    10b2:	d1 f3       	breq	.-12     	; 0x10a8 <_Z15Occupant_detectv+0x162>
				Serial.println("Occupancy detection > 80");
    10b4:	63 e8       	ldi	r22, 0x83	; 131
    10b6:	73 e0       	ldi	r23, 0x03	; 3
    10b8:	ed cf       	rjmp	.-38     	; 0x1094 <_Z15Occupant_detectv+0x14e>
			
			default:
			break;
		}
		} else if (Occupant_flag){ //if an occupant was detected before, we check if the occupant has left
		switch (State) //Need to add in CO states
    10ba:	85 30       	cpi	r24, 0x05	; 5
    10bc:	51 f0       	breq	.+20     	; 0x10d2 <_Z15Occupant_detectv+0x18c>
    10be:	30 f4       	brcc	.+12     	; 0x10cc <_Z15Occupant_detectv+0x186>
    10c0:	88 23       	and	r24, r24
    10c2:	39 f0       	breq	.+14     	; 0x10d2 <_Z15Occupant_detectv+0x18c>
    10c4:	82 30       	cpi	r24, 0x02	; 2
    10c6:	09 f0       	breq	.+2      	; 0x10ca <_Z15Occupant_detectv+0x184>
    10c8:	43 c0       	rjmp	.+134    	; 0x1150 <_Z15Occupant_detectv+0x20a>
    10ca:	03 c0       	rjmp	.+6      	; 0x10d2 <_Z15Occupant_detectv+0x18c>
    10cc:	8a 30       	cpi	r24, 0x0A	; 10
    10ce:	78 f1       	brcs	.+94     	; 0x112e <_Z15Occupant_detectv+0x1e8>
    10d0:	3f c0       	rjmp	.+126    	; 0x1150 <_Z15Occupant_detectv+0x20a>
		{
			case Running: //Under 80 deg F`
			case Stopped:
			case TH0:
			
			if (Print_mode){
    10d2:	80 91 09 02 	lds	r24, 0x0209	; 0x800209 <Print_mode>
    10d6:	88 23       	and	r24, r24
    10d8:	61 f0       	breq	.+24     	; 0x10f2 <_Z15Occupant_detectv+0x1ac>
				Serial.println("Occupancy cancel <80");
    10da:	6c e9       	ldi	r22, 0x9C	; 156
    10dc:	73 e0       	ldi	r23, 0x03	; 3
    10de:	82 e5       	ldi	r24, 0x52	; 82
    10e0:	9e e0       	ldi	r25, 0x0E	; 14
    10e2:	0e 94 8d 16 	call	0x2d1a	; 0x2d1a <_ZN5Print7printlnEPKc>
				delay(500);
    10e6:	64 ef       	ldi	r22, 0xF4	; 244
    10e8:	71 e0       	ldi	r23, 0x01	; 1
    10ea:	80 e0       	ldi	r24, 0x00	; 0
    10ec:	90 e0       	ldi	r25, 0x00	; 0
    10ee:	0e 94 12 19 	call	0x3224	; 0x3224 <delay>
			}
			
			//PIR will likely turn up negative on a second read if the occupant has kept still, so we do not check if the occupant has left using PIR. PIR only used to transition from no occupant to occupant.
			//if occupant no longer appears on ping sensor, update memory
			if(previous.Object_size > Occupant_thickness){
    10f2:	80 91 aa 0c 	lds	r24, 0x0CAA	; 0x800caa <previous+0x2>
    10f6:	90 91 ab 0c 	lds	r25, 0x0CAB	; 0x800cab <previous+0x3>
    10fa:	8b 3a       	cpi	r24, 0xAB	; 171
    10fc:	91 05       	cpc	r25, r1
    10fe:	5c f0       	brlt	.+22     	; 0x1116 <_Z15Occupant_detectv+0x1d0>
				if(current.Object_size < Occupant_thickness){
    1100:	80 91 b1 0c 	lds	r24, 0x0CB1	; 0x800cb1 <current+0x2>
    1104:	90 91 b2 0c 	lds	r25, 0x0CB2	; 0x800cb2 <current+0x3>
    1108:	8a 3a       	cpi	r24, 0xAA	; 170
    110a:	91 05       	cpc	r25, r1
    110c:	24 f4       	brge	.+8      	; 0x1116 <_Z15Occupant_detectv+0x1d0>
					Object = false; //since the flag can be set by either object sensor, the change in state of either object sensor can unset the flag
					previous.Object_size = current.Object_size;
    110e:	90 93 ab 0c 	sts	0x0CAB, r25	; 0x800cab <previous+0x3>
    1112:	80 93 aa 0c 	sts	0x0CAA, r24	; 0x800caa <previous+0x2>
					IR = false;
					previous.IR = current.IR;
				}
			}
			if (!Object && !IR){
				Occupant_flag = false;
    1116:	10 92 b8 0c 	sts	0x0CB8, r1	; 0x800cb8 <Occupant_flag>
				previous = current;
    111a:	87 e0       	ldi	r24, 0x07	; 7
    111c:	ef ea       	ldi	r30, 0xAF	; 175
    111e:	fc e0       	ldi	r31, 0x0C	; 12
    1120:	a8 ea       	ldi	r26, 0xA8	; 168
    1122:	bc e0       	ldi	r27, 0x0C	; 12
    1124:	01 90       	ld	r0, Z+
    1126:	0d 92       	st	X+, r0
    1128:	8a 95       	dec	r24
    112a:	e1 f7       	brne	.-8      	; 0x1124 <_Z15Occupant_detectv+0x1de>
    112c:	11 c0       	rjmp	.+34     	; 0x1150 <_Z15Occupant_detectv+0x20a>
			case TH1: //Above 80 deg F, using only object sensors to show that occupant has moved
			case TH2:
			case TH3:
			case TH4:
			
			if (Print_mode){
    112e:	80 91 09 02 	lds	r24, 0x0209	; 0x800209 <Print_mode>
    1132:	88 23       	and	r24, r24
    1134:	81 f3       	breq	.-32     	; 0x1116 <_Z15Occupant_detectv+0x1d0>
				Serial.println("Occupancy cancel > 80");
    1136:	61 eb       	ldi	r22, 0xB1	; 177
    1138:	73 e0       	ldi	r23, 0x03	; 3
    113a:	82 e5       	ldi	r24, 0x52	; 82
    113c:	9e e0       	ldi	r25, 0x0E	; 14
    113e:	0e 94 8d 16 	call	0x2d1a	; 0x2d1a <_ZN5Print7printlnEPKc>
				delay(500);
    1142:	64 ef       	ldi	r22, 0xF4	; 244
    1144:	71 e0       	ldi	r23, 0x01	; 1
    1146:	80 e0       	ldi	r24, 0x00	; 0
    1148:	90 e0       	ldi	r25, 0x00	; 0
    114a:	0e 94 12 19 	call	0x3224	; 0x3224 <delay>
    114e:	e3 cf       	rjmp	.-58     	; 0x1116 <_Z15Occupant_detectv+0x1d0>
			
			default:
			break;
		}
	}
}
    1150:	08 95       	ret
		
		if (Print_mode){
			Serial.print(current.Distance); Serial.print(current.PIR); Serial.print(current.Seat_load); Serial.print(Thermal_parsed.detected);
		}
		} else {		
		return 0;
    1152:	80 e0       	ldi	r24, 0x00	; 0
			
			default:
			break;
		}
	}
}
    1154:	08 95       	ret

00001156 <setup>:

void setup() {
	// put your setup code here, to run once:
	
	pinMode(PIR_read_pin, INPUT);
    1156:	60 e0       	ldi	r22, 0x00	; 0
    1158:	8f e1       	ldi	r24, 0x1F	; 31
    115a:	0e 94 34 1a 	call	0x3468	; 0x3468 <pinMode>
	pinMode(PIR_enable_pin, OUTPUT);
    115e:	61 e0       	ldi	r22, 0x01	; 1
    1160:	82 e2       	ldi	r24, 0x22	; 34
    1162:	0e 94 34 1a 	call	0x3468	; 0x3468 <pinMode>
	pinMode(Ping_enable_pin, OUTPUT);
    1166:	61 e0       	ldi	r22, 0x01	; 1
    1168:	87 e2       	ldi	r24, 0x27	; 39
    116a:	0e 94 34 1a 	call	0x3468	; 0x3468 <pinMode>
	pinMode(Alarm_Lights_Unlock_pin, OUTPUT);
    116e:	61 e0       	ldi	r22, 0x01	; 1
    1170:	89 e2       	ldi	r24, 0x29	; 41
    1172:	0e 94 34 1a 	call	0x3468	; 0x3468 <pinMode>
	pinMode(WiFi_wake_pin, OUTPUT);
    1176:	61 e0       	ldi	r22, 0x01	; 1
    1178:	8d e2       	ldi	r24, 0x2D	; 45
    117a:	0e 94 34 1a 	call	0x3468	; 0x3468 <pinMode>
	pinMode(GPS_enable_pin, OUTPUT);
    117e:	61 e0       	ldi	r22, 0x01	; 1
    1180:	85 e2       	ldi	r24, 0x25	; 37
    1182:	0e 94 34 1a 	call	0x3468	; 0x3468 <pinMode>
	pinMode(Camera_enable_pin, OUTPUT);
    1186:	61 e0       	ldi	r22, 0x01	; 1
    1188:	83 e2       	ldi	r24, 0x23	; 35
    118a:	0e 94 34 1a 	call	0x3468	; 0x3468 <pinMode>
	
	digitalWrite(Ping_enable_pin, LOW);
    118e:	60 e0       	ldi	r22, 0x00	; 0
    1190:	87 e2       	ldi	r24, 0x27	; 39
    1192:	0e 94 70 1a 	call	0x34e0	; 0x34e0 <digitalWrite>
	digitalWrite(PIR_enable_pin, HIGH); //PIR pin is high for testing. set low for implementation
    1196:	61 e0       	ldi	r22, 0x01	; 1
    1198:	82 e2       	ldi	r24, 0x22	; 34
    119a:	0e 94 70 1a 	call	0x34e0	; 0x34e0 <digitalWrite>
	digitalWrite(Alarm_Lights_Unlock_pin, LOW);
    119e:	60 e0       	ldi	r22, 0x00	; 0
    11a0:	89 e2       	ldi	r24, 0x29	; 41
    11a2:	0e 94 70 1a 	call	0x34e0	; 0x34e0 <digitalWrite>
	digitalWrite(WiFi_wake_pin, LOW);
    11a6:	60 e0       	ldi	r22, 0x00	; 0
    11a8:	8d e2       	ldi	r24, 0x2D	; 45
    11aa:	0e 94 70 1a 	call	0x34e0	; 0x34e0 <digitalWrite>
	digitalWrite(GPS_enable_pin, HIGH); //pin is high for testing, set low for implementation
    11ae:	61 e0       	ldi	r22, 0x01	; 1
    11b0:	85 e2       	ldi	r24, 0x25	; 37
    11b2:	0e 94 70 1a 	call	0x34e0	; 0x34e0 <digitalWrite>
	digitalWrite(Camera_enable_pin, LOW);
    11b6:	60 e0       	ldi	r22, 0x00	; 0
    11b8:	83 e2       	ldi	r24, 0x23	; 35
    11ba:	0e 94 70 1a 	call	0x34e0	; 0x34e0 <digitalWrite>
  public:
    inline HardwareSerial(
      volatile uint8_t *ubrrh, volatile uint8_t *ubrrl,
      volatile uint8_t *ucsra, volatile uint8_t *ucsrb,
      volatile uint8_t *ucsrc, volatile uint8_t *udr);
    void begin(unsigned long baud) { begin(baud, SERIAL_8N1); }
    11be:	26 e0       	ldi	r18, 0x06	; 6
    11c0:	40 e8       	ldi	r20, 0x80	; 128
    11c2:	55 e2       	ldi	r21, 0x25	; 37
    11c4:	60 e0       	ldi	r22, 0x00	; 0
    11c6:	70 e0       	ldi	r23, 0x00	; 0
    11c8:	82 e5       	ldi	r24, 0x52	; 82
    11ca:	9e e0       	ldi	r25, 0x0E	; 14
    11cc:	0e 94 2a 13 	call	0x2654	; 0x2654 <_ZN14HardwareSerial5beginEmh>
	
	Serial.begin(9600);
	if (Print_mode)
    11d0:	80 91 09 02 	lds	r24, 0x0209	; 0x800209 <Print_mode>
    11d4:	88 23       	and	r24, r24
    11d6:	31 f0       	breq	.+12     	; 0x11e4 <setup+0x8e>
	{
		Serial.println(F("Setting up"));
    11d8:	6f e6       	ldi	r22, 0x6F	; 111
    11da:	71 e0       	ldi	r23, 0x01	; 1
    11dc:	82 e5       	ldi	r24, 0x52	; 82
    11de:	9e e0       	ldi	r25, 0x0E	; 14
    11e0:	0e 94 6d 16 	call	0x2cda	; 0x2cda <_ZN5Print7printlnEPK19__FlashStringHelper>
    11e4:	26 e0       	ldi	r18, 0x06	; 6
    11e6:	40 e8       	ldi	r20, 0x80	; 128
    11e8:	55 e2       	ldi	r21, 0x25	; 37
    11ea:	60 e0       	ldi	r22, 0x00	; 0
    11ec:	70 e0       	ldi	r23, 0x00	; 0
    11ee:	8f ee       	ldi	r24, 0xEF	; 239
    11f0:	9e e0       	ldi	r25, 0x0E	; 14
    11f2:	0e 94 2a 13 	call	0x2654	; 0x2654 <_ZN14HardwareSerial5beginEmh>
    11f6:	26 e0       	ldi	r18, 0x06	; 6
    11f8:	40 e8       	ldi	r20, 0x80	; 128
    11fa:	55 e2       	ldi	r21, 0x25	; 37
    11fc:	60 e0       	ldi	r22, 0x00	; 0
    11fe:	70 e0       	ldi	r23, 0x00	; 0
    1200:	8c e8       	ldi	r24, 0x8C	; 140
    1202:	9f e0       	ldi	r25, 0x0F	; 15
    1204:	0e 94 2a 13 	call	0x2654	; 0x2654 <_ZN14HardwareSerial5beginEmh>
    1208:	26 e0       	ldi	r18, 0x06	; 6
    120a:	40 e8       	ldi	r20, 0x80	; 128
    120c:	55 e2       	ldi	r21, 0x25	; 37
    120e:	60 e0       	ldi	r22, 0x00	; 0
    1210:	70 e0       	ldi	r23, 0x00	; 0
    1212:	89 e2       	ldi	r24, 0x29	; 41
    1214:	90 e1       	ldi	r25, 0x10	; 16
    1216:	0e 94 2a 13 	call	0x2654	; 0x2654 <_ZN14HardwareSerial5beginEmh>
	Fona_serial.begin(9600);
	GPS_serial.begin(9600);
	Wifi_serial.begin(9600);

	//Thermal_setup();
	setupMPU();
    121a:	cd db       	rcall	.-2150   	; 0x9b6 <_Z8setupMPUv>
	if (Print_mode){
    121c:	80 91 09 02 	lds	r24, 0x0209	; 0x800209 <Print_mode>
    1220:	88 23       	and	r24, r24
    1222:	31 f0       	breq	.+12     	; 0x1230 <setup+0xda>
		Serial.println("MPU in");
    1224:	67 ec       	ldi	r22, 0xC7	; 199
    1226:	73 e0       	ldi	r23, 0x03	; 3
    1228:	82 e5       	ldi	r24, 0x52	; 82
    122a:	9e e0       	ldi	r25, 0x0E	; 14
    122c:	0c 94 8d 16 	jmp	0x2d1a	; 0x2d1a <_ZN5Print7printlnEPKc>
    1230:	08 95       	ret

00001232 <_Z16Ping_calibrationv>:

float Felt_temp;

unsigned long Time_stop_start; // time variables are reserved exclusively for reading the onboard clock. This clock overflows approximately ever 50 days.

int Ping_calibration(){
    1232:	0f 93       	push	r16
    1234:	1f 93       	push	r17
    1236:	cf 93       	push	r28
    1238:	df 93       	push	r29
	
	if (Print_mode)
    123a:	80 91 09 02 	lds	r24, 0x0209	; 0x800209 <Print_mode>
    123e:	88 23       	and	r24, r24
    1240:	31 f0       	breq	.+12     	; 0x124e <_Z16Ping_calibrationv+0x1c>
	{
		Serial.println("Ping calibration");
    1242:	6e ec       	ldi	r22, 0xCE	; 206
    1244:	73 e0       	ldi	r23, 0x03	; 3
    1246:	82 e5       	ldi	r24, 0x52	; 82
    1248:	9e e0       	ldi	r25, 0x0E	; 14
    124a:	0e 94 8d 16 	call	0x2d1a	; 0x2d1a <_ZN5Print7printlnEPKc>
	}
	
	int Sample_size = 10;
	int Reading;
	
	digitalWrite(Ping_enable_pin, HIGH);
    124e:	61 e0       	ldi	r22, 0x01	; 1
    1250:	87 e2       	ldi	r24, 0x27	; 39
    1252:	0e 94 70 1a 	call	0x34e0	; 0x34e0 <digitalWrite>
	delay(500); //allow sensor to stabilize
    1256:	64 ef       	ldi	r22, 0xF4	; 244
    1258:	71 e0       	ldi	r23, 0x01	; 1
    125a:	80 e0       	ldi	r24, 0x00	; 0
    125c:	90 e0       	ldi	r25, 0x00	; 0
    125e:	0e 94 12 19 	call	0x3224	; 0x3224 <delay>
    1262:	ca e0       	ldi	r28, 0x0A	; 10
    1264:	d0 e0       	ldi	r29, 0x00	; 0
	
	for (int i = 0; i < Sample_size ; i++)
	{
		Reading += hcsr04.distanceInMillimeters();
    1266:	8c ed       	ldi	r24, 0xDC	; 220
    1268:	9c e0       	ldi	r25, 0x0C	; 12
    126a:	0e 94 c0 27 	call	0x4f80	; 0x4f80 <_ZN6HCSR0421distanceInMillimetersEv>
    126e:	08 0f       	add	r16, r24
    1270:	19 1f       	adc	r17, r25
    1272:	21 97       	sbiw	r28, 0x01	; 1
	int Reading;
	
	digitalWrite(Ping_enable_pin, HIGH);
	delay(500); //allow sensor to stabilize
	
	for (int i = 0; i < Sample_size ; i++)
    1274:	c1 f7       	brne	.-16     	; 0x1266 <_Z16Ping_calibrationv+0x34>
		Reading += hcsr04.distanceInMillimeters();
	}
	
	Reading = Reading/Sample_size;
	
	digitalWrite(Ping_enable_pin, LOW); //turn off sensor after calibration
    1276:	60 e0       	ldi	r22, 0x00	; 0
    1278:	87 e2       	ldi	r24, 0x27	; 39
    127a:	0e 94 70 1a 	call	0x34e0	; 0x34e0 <digitalWrite>
	
	return Reading;
    127e:	c8 01       	movw	r24, r16
    1280:	6a e0       	ldi	r22, 0x0A	; 10
    1282:	70 e0       	ldi	r23, 0x00	; 0
    1284:	0e 94 42 40 	call	0x8084	; 0x8084 <__divmodhi4>
    1288:	cb 01       	movw	r24, r22
	
};
    128a:	df 91       	pop	r29
    128c:	cf 91       	pop	r28
    128e:	1f 91       	pop	r17
    1290:	0f 91       	pop	r16
    1292:	08 95       	ret

00001294 <_GLOBAL__sub_I_hcsr04>:
	//} else if (!PIR_on) {
	//PIR_on = true;
	//}
	//

}
    1294:	0f 93       	push	r16
    1296:	1f 93       	push	r17
#define Fona_power_status_pin 25
#define Fona_serial Serial1
#define GPS_serial Serial2
#define Wifi_serial Serial3

HCSR04 hcsr04(TRIG_PIN, ECHO_PIN, 20, 4000); //setup ping sensor
    1298:	00 ea       	ldi	r16, 0xA0	; 160
    129a:	1f e0       	ldi	r17, 0x0F	; 15
    129c:	24 e1       	ldi	r18, 0x14	; 20
    129e:	30 e0       	ldi	r19, 0x00	; 0
    12a0:	4d e1       	ldi	r20, 0x1D	; 29
    12a2:	50 e0       	ldi	r21, 0x00	; 0
    12a4:	6b e1       	ldi	r22, 0x1B	; 27
    12a6:	70 e0       	ldi	r23, 0x00	; 0
    12a8:	8c ed       	ldi	r24, 0xDC	; 220
    12aa:	9c e0       	ldi	r25, 0x0C	; 12
    12ac:	0e 94 5a 27 	call	0x4eb4	; 0x4eb4 <_ZN6HCSR04C1Eiiii>
	//} else if (!PIR_on) {
	//PIR_on = true;
	//}
	//

}
    12b0:	1f 91       	pop	r17
    12b2:	0f 91       	pop	r16
    12b4:	08 95       	ret

000012b6 <loop>:
	
	return Reading;
	
};

void loop() { //main loop here
    12b6:	cf 92       	push	r12
    12b8:	df 92       	push	r13
    12ba:	ef 92       	push	r14
    12bc:	ff 92       	push	r15
    12be:	0f 93       	push	r16
    12c0:	1f 93       	push	r17
    12c2:	cf 93       	push	r28
    12c4:	df 93       	push	r29
    12c6:	cd b7       	in	r28, 0x3d	; 61
    12c8:	de b7       	in	r29, 0x3e	; 62
    12ca:	aa 97       	sbiw	r28, 0x2a	; 42
    12cc:	0f b6       	in	r0, 0x3f	; 63
    12ce:	f8 94       	cli
    12d0:	de bf       	out	0x3e, r29	; 62
    12d2:	0f be       	out	0x3f, r0	; 63
    12d4:	cd bf       	out	0x3d, r28	; 61
	
	bool Go_to_sleep = false; //start with this false, to be set true by state dependent logic. This variable is declared inside the loop because it does not have be consistent between loops.
	
	//check wifi, 3G, and GPS
	if (Fona_serial.available()){ //Implement flow control
    12d6:	8f ee       	ldi	r24, 0xEF	; 239
    12d8:	9e e0       	ldi	r25, 0x0E	; 14
    12da:	0e 94 25 12 	call	0x244a	; 0x244a <_ZN14HardwareSerial9availableEv>
    12de:	89 2b       	or	r24, r25
    12e0:	59 f0       	breq	.+22     	; 0x12f8 <loop+0x42>
		//insert function here to read and update main device with 3G data
		//String Read_3G = Serial1.readString();
		Fona_SMS_recieve();
    12e2:	36 dd       	rcall	.-1428   	; 0xd50 <_Z16Fona_SMS_recievev>
		
		if (Print_mode){
    12e4:	80 91 09 02 	lds	r24, 0x0209	; 0x800209 <Print_mode>
    12e8:	88 23       	and	r24, r24
    12ea:	31 f0       	breq	.+12     	; 0x12f8 <loop+0x42>
			Serial.println("receiving SMS");
    12ec:	6f ed       	ldi	r22, 0xDF	; 223
    12ee:	73 e0       	ldi	r23, 0x03	; 3
    12f0:	82 e5       	ldi	r24, 0x52	; 82
    12f2:	9e e0       	ldi	r25, 0x0E	; 14
    12f4:	0e 94 8d 16 	call	0x2d1a	; 0x2d1a <_ZN5Print7printlnEPKc>
		}
		
	}
	if (Wifi_serial.available()){
    12f8:	89 e2       	ldi	r24, 0x29	; 41
    12fa:	90 e1       	ldi	r25, 0x10	; 16
    12fc:	0e 94 25 12 	call	0x244a	; 0x244a <_ZN14HardwareSerial9availableEv>
    1300:	89 2b       	or	r24, r25
    1302:	d9 f1       	breq	.+118    	; 0x137a <loop+0xc4>
		
		if (Print_mode){
    1304:	80 91 09 02 	lds	r24, 0x0209	; 0x800209 <Print_mode>
    1308:	88 23       	and	r24, r24
    130a:	31 f0       	breq	.+12     	; 0x1318 <loop+0x62>
			Serial.println("receiving WiFi char");
    130c:	6d ee       	ldi	r22, 0xED	; 237
    130e:	73 e0       	ldi	r23, 0x03	; 3
    1310:	82 e5       	ldi	r24, 0x52	; 82
    1312:	9e e0       	ldi	r25, 0x0E	; 14
    1314:	0e 94 8d 16 	call	0x2d1a	; 0x2d1a <_ZN5Print7printlnEPKc>
				case 'E': //driver not present
				Driver_flag = false;
				break;
				
				case 'S': //Seat Load positive
				current.Seat_load = true;
    1318:	ff 24       	eor	r15, r15
    131a:	f3 94       	inc	r15
		
		if (Print_mode){
			Serial.println("receiving WiFi char");
		}
		
		while (Wifi_serial.available())
    131c:	89 e2       	ldi	r24, 0x29	; 41
    131e:	90 e1       	ldi	r25, 0x10	; 16
    1320:	0e 94 25 12 	call	0x244a	; 0x244a <_ZN14HardwareSerial9availableEv>
    1324:	89 2b       	or	r24, r25
    1326:	49 f1       	breq	.+82     	; 0x137a <loop+0xc4>
		{
			char c = Wifi_serial.read();
    1328:	89 e2       	ldi	r24, 0x29	; 41
    132a:	90 e1       	ldi	r25, 0x10	; 16
    132c:	0e 94 3f 12 	call	0x247e	; 0x247e <_ZN14HardwareSerial4readEv>
    1330:	8c 01       	movw	r16, r24
			if (Print_mode){
    1332:	80 91 09 02 	lds	r24, 0x0209	; 0x800209 <Print_mode>
    1336:	88 23       	and	r24, r24
    1338:	29 f0       	breq	.+10     	; 0x1344 <loop+0x8e>
				Serial.print(c);
    133a:	60 2f       	mov	r22, r16
    133c:	82 e5       	ldi	r24, 0x52	; 82
    133e:	9e e0       	ldi	r25, 0x0E	; 14
    1340:	0e 94 63 16 	call	0x2cc6	; 0x2cc6 <_ZN5Print5printEc>
			}
			switch (c){
    1344:	c8 01       	movw	r24, r16
    1346:	99 27       	eor	r25, r25
    1348:	85 34       	cpi	r24, 0x45	; 69
    134a:	91 05       	cpc	r25, r1
    134c:	81 f0       	breq	.+32     	; 0x136e <loop+0xb8>
    134e:	34 f4       	brge	.+12     	; 0x135c <loop+0xa6>
    1350:	84 34       	cpi	r24, 0x44	; 68
    1352:	91 05       	cpc	r25, r1
    1354:	19 f7       	brne	.-58     	; 0x131c <loop+0x66>
				case 'D': //driver present
				Driver_flag = true;
    1356:	f0 92 08 02 	sts	0x0208, r15	; 0x800208 <Driver_flag>
				break;
    135a:	e0 cf       	rjmp	.-64     	; 0x131c <loop+0x66>
		{
			char c = Wifi_serial.read();
			if (Print_mode){
				Serial.print(c);
			}
			switch (c){
    135c:	83 35       	cpi	r24, 0x53	; 83
    135e:	91 05       	cpc	r25, r1
    1360:	49 f0       	breq	.+18     	; 0x1374 <loop+0xbe>
    1362:	84 35       	cpi	r24, 0x54	; 84
    1364:	91 05       	cpc	r25, r1
    1366:	d1 f6       	brne	.-76     	; 0x131c <loop+0x66>
				case 'S': //Seat Load positive
				current.Seat_load = true;
				break;
				
				case 'T': //Seat Load negative
				current.Seat_load = false;
    1368:	10 92 b4 0c 	sts	0x0CB4, r1	; 0x800cb4 <current+0x5>
				break;
    136c:	d7 cf       	rjmp	.-82     	; 0x131c <loop+0x66>
				case 'D': //driver present
				Driver_flag = true;
				break;
				
				case 'E': //driver not present
				Driver_flag = false;
    136e:	10 92 08 02 	sts	0x0208, r1	; 0x800208 <Driver_flag>
				break;
    1372:	d4 cf       	rjmp	.-88     	; 0x131c <loop+0x66>
				
				case 'S': //Seat Load positive
				current.Seat_load = true;
    1374:	f0 92 b4 0c 	sts	0x0CB4, r15	; 0x800cb4 <current+0x5>
				break;
    1378:	d1 cf       	rjmp	.-94     	; 0x131c <loop+0x66>
				break;
			}
		}
		
	}
	if (GPS_serial.available()){
    137a:	8c e8       	ldi	r24, 0x8C	; 140
    137c:	9f e0       	ldi	r25, 0x0F	; 15
    137e:	0e 94 25 12 	call	0x244a	; 0x244a <_ZN14HardwareSerial9availableEv>
    1382:	89 2b       	or	r24, r25
    1384:	09 f4       	brne	.+2      	; 0x1388 <loop+0xd2>
    1386:	7a c0       	rjmp	.+244    	; 0x147c <loop+0x1c6>
		
		if (Print_mode){
    1388:	80 91 09 02 	lds	r24, 0x0209	; 0x800209 <Print_mode>
    138c:	88 23       	and	r24, r24
    138e:	31 f0       	breq	.+12     	; 0x139c <loop+0xe6>
			Serial.println("receiving GPS");
    1390:	61 e0       	ldi	r22, 0x01	; 1
    1392:	74 e0       	ldi	r23, 0x04	; 4
    1394:	82 e5       	ldi	r24, 0x52	; 82
    1396:	9e e0       	ldi	r25, 0x0E	; 14
    1398:	0e 94 8d 16 	call	0x2d1a	; 0x2d1a <_ZN5Print7printlnEPKc>
		}
		
		gps = GPS_read();
    139c:	ce 01       	movw	r24, r28
    139e:	07 96       	adiw	r24, 0x07	; 7
    13a0:	7f dd       	rcall	.-1282   	; 0xea0 <_Z8GPS_readv>
    13a2:	8c e0       	ldi	r24, 0x0C	; 12
    13a4:	fe 01       	movw	r30, r28
    13a6:	37 96       	adiw	r30, 0x07	; 7
    13a8:	ac e9       	ldi	r26, 0x9C	; 156
    13aa:	bc e0       	ldi	r27, 0x0C	; 12
    13ac:	01 90       	ld	r0, Z+
    13ae:	0d 92       	st	X+, r0
    13b0:	8a 95       	dec	r24
    13b2:	e1 f7       	brne	.-8      	; 0x13ac <loop+0xf6>
		if (Print_mode){
    13b4:	80 91 09 02 	lds	r24, 0x0209	; 0x800209 <Print_mode>
    13b8:	88 23       	and	r24, r24
    13ba:	09 f4       	brne	.+2      	; 0x13be <loop+0x108>
    13bc:	5f c0       	rjmp	.+190    	; 0x147c <loop+0x1c6>
			
			Serial.print("Fix: "); Serial.print((int)gps.fix);
    13be:	6f e0       	ldi	r22, 0x0F	; 15
    13c0:	74 e0       	ldi	r23, 0x04	; 4
    13c2:	82 e5       	ldi	r24, 0x52	; 82
    13c4:	9e e0       	ldi	r25, 0x0E	; 14
    13c6:	0e 94 62 16 	call	0x2cc4	; 0x2cc4 <_ZN5Print5printEPKc>
    13ca:	60 91 9c 0c 	lds	r22, 0x0C9C	; 0x800c9c <gps>
    13ce:	70 e0       	ldi	r23, 0x00	; 0
    13d0:	4a e0       	ldi	r20, 0x0A	; 10
    13d2:	50 e0       	ldi	r21, 0x00	; 0
    13d4:	82 e5       	ldi	r24, 0x52	; 82
    13d6:	9e e0       	ldi	r25, 0x0E	; 14
    13d8:	0e 94 61 17 	call	0x2ec2	; 0x2ec2 <_ZN5Print5printEii>
			Serial.print(" quality: "); Serial.println((int)gps.quality);
    13dc:	65 e1       	ldi	r22, 0x15	; 21
    13de:	74 e0       	ldi	r23, 0x04	; 4
    13e0:	82 e5       	ldi	r24, 0x52	; 82
    13e2:	9e e0       	ldi	r25, 0x0E	; 14
    13e4:	0e 94 62 16 	call	0x2cc4	; 0x2cc4 <_ZN5Print5printEPKc>
    13e8:	60 91 9d 0c 	lds	r22, 0x0C9D	; 0x800c9d <gps+0x1>
    13ec:	70 91 9e 0c 	lds	r23, 0x0C9E	; 0x800c9e <gps+0x2>
    13f0:	4a e0       	ldi	r20, 0x0A	; 10
    13f2:	50 e0       	ldi	r21, 0x00	; 0
    13f4:	82 e5       	ldi	r24, 0x52	; 82
    13f6:	9e e0       	ldi	r25, 0x0E	; 14
    13f8:	0e 94 67 17 	call	0x2ece	; 0x2ece <_ZN5Print7printlnEii>
			if (gps.fix) {
    13fc:	80 91 9c 0c 	lds	r24, 0x0C9C	; 0x800c9c <gps>
    1400:	88 23       	and	r24, r24
    1402:	e1 f1       	breq	.+120    	; 0x147c <loop+0x1c6>
				Serial.print("Location: ");
    1404:	60 e2       	ldi	r22, 0x20	; 32
    1406:	74 e0       	ldi	r23, 0x04	; 4
    1408:	82 e5       	ldi	r24, 0x52	; 82
    140a:	9e e0       	ldi	r25, 0x0E	; 14
    140c:	0e 94 62 16 	call	0x2cc4	; 0x2cc4 <_ZN5Print5printEPKc>
				Serial.print(gps.latitude, 4); Serial.print(gps.N_S);
    1410:	60 91 9f 0c 	lds	r22, 0x0C9F	; 0x800c9f <gps+0x3>
    1414:	70 91 a0 0c 	lds	r23, 0x0CA0	; 0x800ca0 <gps+0x4>
    1418:	44 e0       	ldi	r20, 0x04	; 4
    141a:	50 e0       	ldi	r21, 0x00	; 0
    141c:	82 e5       	ldi	r24, 0x52	; 82
    141e:	9e e0       	ldi	r25, 0x0E	; 14
    1420:	0e 94 61 17 	call	0x2ec2	; 0x2ec2 <_ZN5Print5printEii>
    1424:	60 91 a1 0c 	lds	r22, 0x0CA1	; 0x800ca1 <gps+0x5>
    1428:	82 e5       	ldi	r24, 0x52	; 82
    142a:	9e e0       	ldi	r25, 0x0E	; 14
    142c:	0e 94 63 16 	call	0x2cc6	; 0x2cc6 <_ZN5Print5printEc>
				Serial.print(", ");
    1430:	6b e2       	ldi	r22, 0x2B	; 43
    1432:	74 e0       	ldi	r23, 0x04	; 4
    1434:	82 e5       	ldi	r24, 0x52	; 82
    1436:	9e e0       	ldi	r25, 0x0E	; 14
    1438:	0e 94 62 16 	call	0x2cc4	; 0x2cc4 <_ZN5Print5printEPKc>
				Serial.print(gps.longitude, 4); Serial.println(gps.E_W);
    143c:	60 91 a2 0c 	lds	r22, 0x0CA2	; 0x800ca2 <gps+0x6>
    1440:	70 91 a3 0c 	lds	r23, 0x0CA3	; 0x800ca3 <gps+0x7>
    1444:	44 e0       	ldi	r20, 0x04	; 4
    1446:	50 e0       	ldi	r21, 0x00	; 0
    1448:	82 e5       	ldi	r24, 0x52	; 82
    144a:	9e e0       	ldi	r25, 0x0E	; 14
    144c:	0e 94 61 17 	call	0x2ec2	; 0x2ec2 <_ZN5Print5printEii>
    1450:	60 91 a4 0c 	lds	r22, 0x0CA4	; 0x800ca4 <gps+0x8>
    1454:	82 e5       	ldi	r24, 0x52	; 82
    1456:	9e e0       	ldi	r25, 0x0E	; 14
    1458:	0e 94 9d 16 	call	0x2d3a	; 0x2d3a <_ZN5Print7printlnEc>
				Serial.print("Satellites: "); Serial.println((int)gps.satellites);
    145c:	6e e2       	ldi	r22, 0x2E	; 46
    145e:	74 e0       	ldi	r23, 0x04	; 4
    1460:	82 e5       	ldi	r24, 0x52	; 82
    1462:	9e e0       	ldi	r25, 0x0E	; 14
    1464:	0e 94 62 16 	call	0x2cc4	; 0x2cc4 <_ZN5Print5printEPKc>
    1468:	60 91 a5 0c 	lds	r22, 0x0CA5	; 0x800ca5 <gps+0x9>
    146c:	70 91 a6 0c 	lds	r23, 0x0CA6	; 0x800ca6 <gps+0xa>
    1470:	4a e0       	ldi	r20, 0x0A	; 10
    1472:	50 e0       	ldi	r21, 0x00	; 0
    1474:	82 e5       	ldi	r24, 0x52	; 82
    1476:	9e e0       	ldi	r25, 0x0E	; 14
    1478:	0e 94 67 17 	call	0x2ece	; 0x2ece <_ZN5Print7printlnEii>
		}
	}
	
	
	//guardian statement for not running car
	if (State != Running){
    147c:	80 91 b9 0c 	lds	r24, 0x0CB9	; 0x800cb9 <State>
    1480:	88 23       	and	r24, r24
    1482:	09 f4       	brne	.+2      	; 0x1486 <loop+0x1d0>
    1484:	f2 c0       	rjmp	.+484    	; 0x166a <loop+0x3b4>
		
		//since we are not running, check if the GPS needs to be on. GPS only needs to be on if occupant present
		if (!Occupant_flag){
    1486:	80 91 b8 0c 	lds	r24, 0x0CB8	; 0x800cb8 <Occupant_flag>
    148a:	81 11       	cpse	r24, r1
    148c:	0b c0       	rjmp	.+22     	; 0x14a4 <loop+0x1ee>
			if (digitalRead(GPS_enable_pin)){
    148e:	85 e2       	ldi	r24, 0x25	; 37
    1490:	0e 94 9e 1a 	call	0x353c	; 0x353c <digitalRead>
    1494:	89 2b       	or	r24, r25
    1496:	31 f0       	breq	.+12     	; 0x14a4 <loop+0x1ee>
				digitalWrite(GPS_enable_pin, LOW);
    1498:	60 e0       	ldi	r22, 0x00	; 0
    149a:	85 e2       	ldi	r24, 0x25	; 37
    149c:	0e 94 70 1a 	call	0x34e0	; 0x34e0 <digitalWrite>
				PIR_enable = false;
    14a0:	10 92 b6 0c 	sts	0x0CB6, r1	; 0x800cb6 <PIR_enable>
			}
		}
		//check temperature
		Felt_temp = Get_Felt_Temperature();
    14a4:	44 d5       	rcall	.+2696   	; 0x1f2e <_Z20Get_Felt_Temperaturev>
    14a6:	60 93 98 0c 	sts	0x0C98, r22	; 0x800c98 <Felt_temp>
    14aa:	70 93 99 0c 	sts	0x0C99, r23	; 0x800c99 <Felt_temp+0x1>
    14ae:	80 93 9a 0c 	sts	0x0C9A, r24	; 0x800c9a <Felt_temp+0x2>
    14b2:	90 93 9b 0c 	sts	0x0C9B, r25	; 0x800c9b <Felt_temp+0x3>
		
		if(Print_mode){
    14b6:	80 91 09 02 	lds	r24, 0x0209	; 0x800209 <Print_mode>
    14ba:	88 23       	and	r24, r24
    14bc:	a1 f0       	breq	.+40     	; 0x14e6 <loop+0x230>
			Serial.print("temperature "); Serial.println(Felt_temp);
    14be:	6b e3       	ldi	r22, 0x3B	; 59
    14c0:	74 e0       	ldi	r23, 0x04	; 4
    14c2:	82 e5       	ldi	r24, 0x52	; 82
    14c4:	9e e0       	ldi	r25, 0x0E	; 14
    14c6:	0e 94 62 16 	call	0x2cc4	; 0x2cc4 <_ZN5Print5printEPKc>
    14ca:	40 91 98 0c 	lds	r20, 0x0C98	; 0x800c98 <Felt_temp>
    14ce:	50 91 99 0c 	lds	r21, 0x0C99	; 0x800c99 <Felt_temp+0x1>
    14d2:	60 91 9a 0c 	lds	r22, 0x0C9A	; 0x800c9a <Felt_temp+0x2>
    14d6:	70 91 9b 0c 	lds	r23, 0x0C9B	; 0x800c9b <Felt_temp+0x3>
    14da:	22 e0       	ldi	r18, 0x02	; 2
    14dc:	30 e0       	ldi	r19, 0x00	; 0
    14de:	82 e5       	ldi	r24, 0x52	; 82
    14e0:	9e e0       	ldi	r25, 0x0E	; 14
    14e2:	0e 94 42 18 	call	0x3084	; 0x3084 <_ZN5Print7printlnEdi>
		}
		
		if (Testing_mode){ //receive serial inputs in testing mode
    14e6:	80 91 0a 02 	lds	r24, 0x020A	; 0x80020a <Testing_mode>
    14ea:	88 23       	and	r24, r24
    14ec:	49 f1       	breq	.+82     	; 0x1540 <loop+0x28a>
			Serial.println("input felt temperature");
    14ee:	68 e4       	ldi	r22, 0x48	; 72
    14f0:	74 e0       	ldi	r23, 0x04	; 4
    14f2:	82 e5       	ldi	r24, 0x52	; 82
    14f4:	9e e0       	ldi	r25, 0x0E	; 14
    14f6:	0e 94 8d 16 	call	0x2d1a	; 0x2d1a <_ZN5Print7printlnEPKc>
			while(!Serial.available());
    14fa:	82 e5       	ldi	r24, 0x52	; 82
    14fc:	9e e0       	ldi	r25, 0x0E	; 14
    14fe:	a5 d7       	rcall	.+3914   	; 0x244a <_ZN14HardwareSerial9availableEv>
    1500:	89 2b       	or	r24, r25
    1502:	d9 f3       	breq	.-10     	; 0x14fa <loop+0x244>
			String Testing_input = Serial.readString();
    1504:	62 e5       	ldi	r22, 0x52	; 82
    1506:	7e e0       	ldi	r23, 0x0E	; 14
    1508:	ce 01       	movw	r24, r28
    150a:	01 96       	adiw	r24, 0x01	; 1
    150c:	0e 94 80 18 	call	0x3100	; 0x3100 <_ZN6Stream10readStringEv>
			Serial.println(Testing_input);
    1510:	be 01       	movw	r22, r28
    1512:	6f 5f       	subi	r22, 0xFF	; 255
    1514:	7f 4f       	sbci	r23, 0xFF	; 255
    1516:	82 e5       	ldi	r24, 0x52	; 82
    1518:	9e e0       	ldi	r25, 0x0E	; 14
    151a:	0e 94 7d 16 	call	0x2cfa	; 0x2cfa <_ZN5Print7printlnERK6String>
			Felt_temp = Testing_input.toInt();
    151e:	ce 01       	movw	r24, r28
    1520:	01 96       	adiw	r24, 0x01	; 1
    1522:	0e 94 88 1b 	call	0x3710	; 0x3710 <_ZNK6String5toIntEv>
    1526:	7a d6       	rcall	.+3316   	; 0x221c <__floatsisf>
    1528:	60 93 98 0c 	sts	0x0C98, r22	; 0x800c98 <Felt_temp>
    152c:	70 93 99 0c 	sts	0x0C99, r23	; 0x800c99 <Felt_temp+0x1>
    1530:	80 93 9a 0c 	sts	0x0C9A, r24	; 0x800c9a <Felt_temp+0x2>
    1534:	90 93 9b 0c 	sts	0x0C9B, r25	; 0x800c9b <Felt_temp+0x3>
		}
		
		if (Testing_mode){ //receive serial inputs in testing mode
			Serial.println("input felt temperature");
			while(!Serial.available());
			String Testing_input = Serial.readString();
    1538:	ce 01       	movw	r24, r28
    153a:	01 96       	adiw	r24, 0x01	; 1
    153c:	0e 94 c6 1a 	call	0x358c	; 0x358c <_ZN6StringD1Ev>
			Serial.println(Testing_input);
			Felt_temp = Testing_input.toInt();
		}
		
		//In real mode, get MPU data
		if (!Testing_mode){
    1540:	80 91 0a 02 	lds	r24, 0x020A	; 0x80020a <Testing_mode>
    1544:	81 11       	cpse	r24, r1
			MPU_read = Get_MPU_Data();
    1546:	42 c0       	rjmp	.+132    	; 0x15cc <loop+0x316>
    1548:	ce 01       	movw	r24, r28
    154a:	43 96       	adiw	r24, 0x13	; 19
    154c:	d2 db       	rcall	.-2140   	; 0xcf2 <_Z12Get_MPU_Datav>
    154e:	88 e1       	ldi	r24, 0x18	; 24
    1550:	fe 01       	movw	r30, r28
    1552:	73 96       	adiw	r30, 0x13	; 19
    1554:	ae eb       	ldi	r26, 0xBE	; 190
    1556:	bc e0       	ldi	r27, 0x0C	; 12
    1558:	01 90       	ld	r0, Z+
    155a:	0d 92       	st	X+, r0
    155c:	8a 95       	dec	r24
    155e:	e1 f7       	brne	.-8      	; 0x1558 <loop+0x2a2>
			if (Print_mode){
    1560:	80 91 09 02 	lds	r24, 0x0209	; 0x800209 <Print_mode>
    1564:	88 23       	and	r24, r24
    1566:	09 f4       	brne	.+2      	; 0x156a <loop+0x2b4>
    1568:	53 c0       	rjmp	.+166    	; 0x1610 <loop+0x35a>
				Serial.print("MPU: "); Serial.print(MPU_read.gForceX); Serial.print(MPU_read.gForceY); Serial.println(MPU_read.gForceZ);
    156a:	6f e5       	ldi	r22, 0x5F	; 95
    156c:	74 e0       	ldi	r23, 0x04	; 4
    156e:	82 e5       	ldi	r24, 0x52	; 82
    1570:	9e e0       	ldi	r25, 0x0E	; 14
    1572:	0e 94 62 16 	call	0x2cc4	; 0x2cc4 <_ZN5Print5printEPKc>
    1576:	40 91 be 0c 	lds	r20, 0x0CBE	; 0x800cbe <MPU_read>
    157a:	50 91 bf 0c 	lds	r21, 0x0CBF	; 0x800cbf <MPU_read+0x1>
    157e:	60 91 c0 0c 	lds	r22, 0x0CC0	; 0x800cc0 <MPU_read+0x2>
    1582:	70 91 c1 0c 	lds	r23, 0x0CC1	; 0x800cc1 <MPU_read+0x3>
    1586:	22 e0       	ldi	r18, 0x02	; 2
    1588:	30 e0       	ldi	r19, 0x00	; 0
    158a:	82 e5       	ldi	r24, 0x52	; 82
    158c:	9e e0       	ldi	r25, 0x0E	; 14
    158e:	0e 94 41 18 	call	0x3082	; 0x3082 <_ZN5Print5printEdi>
    1592:	40 91 c2 0c 	lds	r20, 0x0CC2	; 0x800cc2 <MPU_read+0x4>
    1596:	50 91 c3 0c 	lds	r21, 0x0CC3	; 0x800cc3 <MPU_read+0x5>
    159a:	60 91 c4 0c 	lds	r22, 0x0CC4	; 0x800cc4 <MPU_read+0x6>
    159e:	70 91 c5 0c 	lds	r23, 0x0CC5	; 0x800cc5 <MPU_read+0x7>
    15a2:	22 e0       	ldi	r18, 0x02	; 2
    15a4:	30 e0       	ldi	r19, 0x00	; 0
    15a6:	82 e5       	ldi	r24, 0x52	; 82
    15a8:	9e e0       	ldi	r25, 0x0E	; 14
    15aa:	0e 94 41 18 	call	0x3082	; 0x3082 <_ZN5Print5printEdi>
    15ae:	40 91 c6 0c 	lds	r20, 0x0CC6	; 0x800cc6 <MPU_read+0x8>
    15b2:	50 91 c7 0c 	lds	r21, 0x0CC7	; 0x800cc7 <MPU_read+0x9>
    15b6:	60 91 c8 0c 	lds	r22, 0x0CC8	; 0x800cc8 <MPU_read+0xa>
    15ba:	70 91 c9 0c 	lds	r23, 0x0CC9	; 0x800cc9 <MPU_read+0xb>
    15be:	22 e0       	ldi	r18, 0x02	; 2
    15c0:	30 e0       	ldi	r19, 0x00	; 0
    15c2:	82 e5       	ldi	r24, 0x52	; 82
    15c4:	9e e0       	ldi	r25, 0x0E	; 14
    15c6:	0e 94 42 18 	call	0x3084	; 0x3084 <_ZN5Print7printlnEdi>
    15ca:	22 c0       	rjmp	.+68     	; 0x1610 <loop+0x35a>
			}
			} else {
			Serial.println("Car not running accel check");
    15cc:	65 e6       	ldi	r22, 0x65	; 101
    15ce:	74 e0       	ldi	r23, 0x04	; 4
    15d0:	82 e5       	ldi	r24, 0x52	; 82
    15d2:	9e e0       	ldi	r25, 0x0E	; 14
    15d4:	0e 94 8d 16 	call	0x2d1a	; 0x2d1a <_ZN5Print7printlnEPKc>
			Serial.println("Input MPU force; 1 or 2g");
    15d8:	61 e8       	ldi	r22, 0x81	; 129
    15da:	74 e0       	ldi	r23, 0x04	; 4
    15dc:	82 e5       	ldi	r24, 0x52	; 82
    15de:	9e e0       	ldi	r25, 0x0E	; 14
    15e0:	0e 94 8d 16 	call	0x2d1a	; 0x2d1a <_ZN5Print7printlnEPKc>
			while(!Serial.available()); //block program while waiting for serial input
    15e4:	82 e5       	ldi	r24, 0x52	; 82
    15e6:	9e e0       	ldi	r25, 0x0E	; 14
    15e8:	30 d7       	rcall	.+3680   	; 0x244a <_ZN14HardwareSerial9availableEv>
    15ea:	89 2b       	or	r24, r25
			int Testing_input = Serial.read();
    15ec:	d9 f3       	breq	.-10     	; 0x15e4 <loop+0x32e>
    15ee:	82 e5       	ldi	r24, 0x52	; 82
    15f0:	9e e0       	ldi	r25, 0x0E	; 14
			//Serial.println(Testing_input);
			MPU_read.gForceX = Testing_input - 48;
    15f2:	45 d7       	rcall	.+3722   	; 0x247e <_ZN14HardwareSerial4readEv>
    15f4:	c0 97       	sbiw	r24, 0x30	; 48
    15f6:	bc 01       	movw	r22, r24
    15f8:	99 0f       	add	r25, r25
    15fa:	88 0b       	sbc	r24, r24
    15fc:	99 0b       	sbc	r25, r25
    15fe:	0e d6       	rcall	.+3100   	; 0x221c <__floatsisf>
    1600:	60 93 be 0c 	sts	0x0CBE, r22	; 0x800cbe <MPU_read>
    1604:	70 93 bf 0c 	sts	0x0CBF, r23	; 0x800cbf <MPU_read+0x1>
    1608:	80 93 c0 0c 	sts	0x0CC0, r24	; 0x800cc0 <MPU_read+0x2>
    160c:	90 93 c1 0c 	sts	0x0CC1, r25	; 0x800cc1 <MPU_read+0x3>
		}
		if ((MPU_read.gForceX + MPU_read.gForceY + MPU_read.gForceZ) >= 1.1){ //car is running if g forces read from all three axis is above 1.1G
    1610:	20 91 c2 0c 	lds	r18, 0x0CC2	; 0x800cc2 <MPU_read+0x4>
    1614:	30 91 c3 0c 	lds	r19, 0x0CC3	; 0x800cc3 <MPU_read+0x5>
    1618:	40 91 c4 0c 	lds	r20, 0x0CC4	; 0x800cc4 <MPU_read+0x6>
    161c:	50 91 c5 0c 	lds	r21, 0x0CC5	; 0x800cc5 <MPU_read+0x7>
    1620:	60 91 be 0c 	lds	r22, 0x0CBE	; 0x800cbe <MPU_read>
    1624:	70 91 bf 0c 	lds	r23, 0x0CBF	; 0x800cbf <MPU_read+0x1>
    1628:	80 91 c0 0c 	lds	r24, 0x0CC0	; 0x800cc0 <MPU_read+0x2>
    162c:	90 91 c1 0c 	lds	r25, 0x0CC1	; 0x800cc1 <MPU_read+0x3>
    1630:	f2 d4       	rcall	.+2532   	; 0x2016 <__addsf3>
    1632:	20 91 c6 0c 	lds	r18, 0x0CC6	; 0x800cc6 <MPU_read+0x8>
    1636:	30 91 c7 0c 	lds	r19, 0x0CC7	; 0x800cc7 <MPU_read+0x9>
    163a:	40 91 c8 0c 	lds	r20, 0x0CC8	; 0x800cc8 <MPU_read+0xa>
    163e:	50 91 c9 0c 	lds	r21, 0x0CC9	; 0x800cc9 <MPU_read+0xb>
    1642:	e9 d4       	rcall	.+2514   	; 0x2016 <__addsf3>
    1644:	2d ec       	ldi	r18, 0xCD	; 205
    1646:	3c ec       	ldi	r19, 0xCC	; 204
    1648:	4c e8       	ldi	r20, 0x8C	; 140
    164a:	5f e3       	ldi	r21, 0x3F	; 63
    164c:	97 d6       	rcall	.+3374   	; 0x237c <__gesf2>
    164e:	87 fd       	sbrc	r24, 7
    1650:	0c c0       	rjmp	.+24     	; 0x166a <loop+0x3b4>
			State = Running;
    1652:	10 92 b9 0c 	sts	0x0CB9, r1	; 0x800cb9 <State>
			
			if (Print_mode)
    1656:	80 91 09 02 	lds	r24, 0x0209	; 0x800209 <Print_mode>
    165a:	88 23       	and	r24, r24
    165c:	31 f0       	breq	.+12     	; 0x166a <loop+0x3b4>
			{
				Serial.print("Movement detected");
    165e:	6a e9       	ldi	r22, 0x9A	; 154
    1660:	74 e0       	ldi	r23, 0x04	; 4
    1662:	82 e5       	ldi	r24, 0x52	; 82
    1664:	9e e0       	ldi	r25, 0x0E	; 14
    1666:	0e 94 62 16 	call	0x2cc4	; 0x2cc4 <_ZN5Print5printEPKc>
			}
			
		}
	}
	if (User_dismiss){ //user dismissal flag, resets the next time the car is said to be in use
    166a:	80 91 bd 0c 	lds	r24, 0x0CBD	; 0x800cbd <User_dismiss>
    166e:	88 23       	and	r24, r24
		State = TH0;
    1670:	19 f0       	breq	.+6      	; 0x1678 <loop+0x3c2>
    1672:	85 e0       	ldi	r24, 0x05	; 5
    1674:	80 93 b9 0c 	sts	0x0CB9, r24	; 0x800cb9 <State>
	}
	
	//Run Occupancy sensors each wake up
	Occupant_detect();
    1678:	66 dc       	rcall	.-1844   	; 0xf46 <_Z15Occupant_detectv>

	switch (State)
    167a:	80 91 b9 0c 	lds	r24, 0x0CB9	; 0x800cb9 <State>
    167e:	90 e0       	ldi	r25, 0x00	; 0
    1680:	8a 30       	cpi	r24, 0x0A	; 10
    1682:	91 05       	cpc	r25, r1
    1684:	08 f0       	brcs	.+2      	; 0x1688 <loop+0x3d2>
    1686:	fb c2       	rjmp	.+1526   	; 0x1c7e <loop+0x9c8>
    1688:	fc 01       	movw	r30, r24
    168a:	88 27       	eor	r24, r24
    168c:	ee 58       	subi	r30, 0x8E	; 142
    168e:	ff 4f       	sbci	r31, 0xFF	; 255
    1690:	8f 4f       	sbci	r24, 0xFF	; 255
    1692:	0c 94 93 40 	jmp	0x8126	; 0x8126 <__tablejump2__>
	{
		case Running:
		
		if (Print_mode){
    1696:	80 91 09 02 	lds	r24, 0x0209	; 0x800209 <Print_mode>
    169a:	88 23       	and	r24, r24
    169c:	61 f0       	breq	.+24     	; 0x16b6 <loop+0x400>
			Serial.println("State: Running");
    169e:	6c ea       	ldi	r22, 0xAC	; 172
    16a0:	74 e0       	ldi	r23, 0x04	; 4
    16a2:	82 e5       	ldi	r24, 0x52	; 82
    16a4:	9e e0       	ldi	r25, 0x0E	; 14
    16a6:	0e 94 8d 16 	call	0x2d1a	; 0x2d1a <_ZN5Print7printlnEPKc>
			delay(500);
    16aa:	64 ef       	ldi	r22, 0xF4	; 244
    16ac:	71 e0       	ldi	r23, 0x01	; 1
    16ae:	80 e0       	ldi	r24, 0x00	; 0
    16b0:	90 e0       	ldi	r25, 0x00	; 0
    16b2:	0e 94 12 19 	call	0x3224	; 0x3224 <delay>
		}
		
		if (!TH1_enable){ //all actions will result in TH1 having activated
    16b6:	80 91 0c 02 	lds	r24, 0x020C	; 0x80020c <TH1_enable>
    16ba:	81 11       	cpse	r24, r1
    16bc:	03 c0       	rjmp	.+6      	; 0x16c4 <loop+0x40e>
			TH1_enable, TH2_enable, TH3_enable, TH4_enable = true;
    16be:	81 e0       	ldi	r24, 0x01	; 1
    16c0:	80 93 0b 02 	sts	0x020B, r24	; 0x80020b <TH4_enable>
		}
		
		//reset user dismissal flag when car is in use
		User_dismiss = false;
    16c4:	10 92 bd 0c 	sts	0x0CBD, r1	; 0x800cbd <User_dismiss>
		
		//turn off GPS, WiFi, and PIR
		if (digitalRead(GPS_enable_pin)){
    16c8:	85 e2       	ldi	r24, 0x25	; 37
    16ca:	0e 94 9e 1a 	call	0x353c	; 0x353c <digitalRead>
    16ce:	89 2b       	or	r24, r25
    16d0:	21 f0       	breq	.+8      	; 0x16da <loop+0x424>
			digitalWrite(GPS_enable_pin, LOW);
    16d2:	60 e0       	ldi	r22, 0x00	; 0
    16d4:	85 e2       	ldi	r24, 0x25	; 37
    16d6:	0e 94 70 1a 	call	0x34e0	; 0x34e0 <digitalWrite>
		}
		if (digitalRead(PIR_enable_pin)){
    16da:	82 e2       	ldi	r24, 0x22	; 34
    16dc:	0e 94 9e 1a 	call	0x353c	; 0x353c <digitalRead>
    16e0:	89 2b       	or	r24, r25
			digitalWrite(PIR_enable_pin, LOW);
    16e2:	21 f0       	breq	.+8      	; 0x16ec <loop+0x436>
    16e4:	60 e0       	ldi	r22, 0x00	; 0
    16e6:	82 e2       	ldi	r24, 0x22	; 34
    16e8:	0e 94 70 1a 	call	0x34e0	; 0x34e0 <digitalWrite>
		}
		
		//guardian statement: car stopped
		if (!Testing_mode){
    16ec:	80 91 0a 02 	lds	r24, 0x020A	; 0x80020a <Testing_mode>
    16f0:	81 11       	cpse	r24, r1
			MPU_read = Get_MPU_Data();
    16f2:	3a c0       	rjmp	.+116    	; 0x1768 <loop+0x4b2>
    16f4:	ce 01       	movw	r24, r28
    16f6:	43 96       	adiw	r24, 0x13	; 19
    16f8:	fc da       	rcall	.-2568   	; 0xcf2 <_Z12Get_MPU_Datav>
    16fa:	88 e1       	ldi	r24, 0x18	; 24
    16fc:	fe 01       	movw	r30, r28
    16fe:	73 96       	adiw	r30, 0x13	; 19
    1700:	ae eb       	ldi	r26, 0xBE	; 190
    1702:	bc e0       	ldi	r27, 0x0C	; 12
    1704:	01 90       	ld	r0, Z+
    1706:	0d 92       	st	X+, r0
    1708:	8a 95       	dec	r24
    170a:	e1 f7       	brne	.-8      	; 0x1704 <loop+0x44e>
			if (Print_mode){
    170c:	80 91 09 02 	lds	r24, 0x0209	; 0x800209 <Print_mode>
    1710:	88 23       	and	r24, r24
    1712:	09 f4       	brne	.+2      	; 0x1716 <loop+0x460>
    1714:	55 c0       	rjmp	.+170    	; 0x17c0 <loop+0x50a>
				Serial.print("MPU"); Serial.println((MPU_read.gForceZ + MPU_read.gForceY + MPU_read.gForceX));
    1716:	6b eb       	ldi	r22, 0xBB	; 187
    1718:	74 e0       	ldi	r23, 0x04	; 4
    171a:	82 e5       	ldi	r24, 0x52	; 82
    171c:	9e e0       	ldi	r25, 0x0E	; 14
    171e:	0e 94 62 16 	call	0x2cc4	; 0x2cc4 <_ZN5Print5printEPKc>
    1722:	20 91 c2 0c 	lds	r18, 0x0CC2	; 0x800cc2 <MPU_read+0x4>
    1726:	30 91 c3 0c 	lds	r19, 0x0CC3	; 0x800cc3 <MPU_read+0x5>
    172a:	40 91 c4 0c 	lds	r20, 0x0CC4	; 0x800cc4 <MPU_read+0x6>
    172e:	50 91 c5 0c 	lds	r21, 0x0CC5	; 0x800cc5 <MPU_read+0x7>
    1732:	60 91 c6 0c 	lds	r22, 0x0CC6	; 0x800cc6 <MPU_read+0x8>
    1736:	70 91 c7 0c 	lds	r23, 0x0CC7	; 0x800cc7 <MPU_read+0x9>
    173a:	80 91 c8 0c 	lds	r24, 0x0CC8	; 0x800cc8 <MPU_read+0xa>
    173e:	90 91 c9 0c 	lds	r25, 0x0CC9	; 0x800cc9 <MPU_read+0xb>
    1742:	69 d4       	rcall	.+2258   	; 0x2016 <__addsf3>
    1744:	20 91 be 0c 	lds	r18, 0x0CBE	; 0x800cbe <MPU_read>
    1748:	30 91 bf 0c 	lds	r19, 0x0CBF	; 0x800cbf <MPU_read+0x1>
    174c:	40 91 c0 0c 	lds	r20, 0x0CC0	; 0x800cc0 <MPU_read+0x2>
    1750:	50 91 c1 0c 	lds	r21, 0x0CC1	; 0x800cc1 <MPU_read+0x3>
    1754:	60 d4       	rcall	.+2240   	; 0x2016 <__addsf3>
    1756:	ab 01       	movw	r20, r22
    1758:	bc 01       	movw	r22, r24
    175a:	22 e0       	ldi	r18, 0x02	; 2
    175c:	30 e0       	ldi	r19, 0x00	; 0
    175e:	82 e5       	ldi	r24, 0x52	; 82
    1760:	9e e0       	ldi	r25, 0x0E	; 14
    1762:	0e 94 42 18 	call	0x3084	; 0x3084 <_ZN5Print7printlnEdi>
    1766:	2c c0       	rjmp	.+88     	; 0x17c0 <loop+0x50a>
			}
			//Occupant_flag = Occupant_detect();
			} else {
			Serial.println("Car Running");
    1768:	6f eb       	ldi	r22, 0xBF	; 191
    176a:	74 e0       	ldi	r23, 0x04	; 4
    176c:	82 e5       	ldi	r24, 0x52	; 82
    176e:	9e e0       	ldi	r25, 0x0E	; 14
    1770:	0e 94 8d 16 	call	0x2d1a	; 0x2d1a <_ZN5Print7printlnEPKc>
			Serial.println("Input MPU force; 1 or 2g");
    1774:	61 e8       	ldi	r22, 0x81	; 129
    1776:	74 e0       	ldi	r23, 0x04	; 4
    1778:	82 e5       	ldi	r24, 0x52	; 82
    177a:	9e e0       	ldi	r25, 0x0E	; 14
    177c:	0e 94 8d 16 	call	0x2d1a	; 0x2d1a <_ZN5Print7printlnEPKc>
			while(!Serial.available()); //block program while waiting for serial input
    1780:	82 e5       	ldi	r24, 0x52	; 82
    1782:	9e e0       	ldi	r25, 0x0E	; 14
    1784:	62 d6       	rcall	.+3268   	; 0x244a <_ZN14HardwareSerial9availableEv>
    1786:	89 2b       	or	r24, r25
    1788:	d9 f3       	breq	.-10     	; 0x1780 <loop+0x4ca>
			int Testing_input = Serial.read();
    178a:	82 e5       	ldi	r24, 0x52	; 82
    178c:	9e e0       	ldi	r25, 0x0E	; 14
    178e:	77 d6       	rcall	.+3310   	; 0x247e <_ZN14HardwareSerial4readEv>
    1790:	8c 01       	movw	r16, r24
			Serial.println(Testing_input);
    1792:	4a e0       	ldi	r20, 0x0A	; 10
    1794:	50 e0       	ldi	r21, 0x00	; 0
    1796:	bc 01       	movw	r22, r24
    1798:	82 e5       	ldi	r24, 0x52	; 82
    179a:	9e e0       	ldi	r25, 0x0E	; 14
    179c:	0e 94 67 17 	call	0x2ece	; 0x2ece <_ZN5Print7printlnEii>
			MPU_read.gForceX = Testing_input - 48;
    17a0:	b8 01       	movw	r22, r16
    17a2:	60 53       	subi	r22, 0x30	; 48
    17a4:	71 09       	sbc	r23, r1
    17a6:	07 2e       	mov	r0, r23
    17a8:	00 0c       	add	r0, r0
    17aa:	88 0b       	sbc	r24, r24
    17ac:	99 0b       	sbc	r25, r25
    17ae:	36 d5       	rcall	.+2668   	; 0x221c <__floatsisf>
    17b0:	60 93 be 0c 	sts	0x0CBE, r22	; 0x800cbe <MPU_read>
    17b4:	70 93 bf 0c 	sts	0x0CBF, r23	; 0x800cbf <MPU_read+0x1>
    17b8:	80 93 c0 0c 	sts	0x0CC0, r24	; 0x800cc0 <MPU_read+0x2>
    17bc:	90 93 c1 0c 	sts	0x0CC1, r25	; 0x800cc1 <MPU_read+0x3>
		}
		
		if ((MPU_read.gForceX + MPU_read.gForceY + MPU_read.gForceZ) <= 1.1){ //if total g forces read is less than 1.1 g, the car is stopped. Most often should come out to 1g, the force of gravity
    17c0:	20 91 c2 0c 	lds	r18, 0x0CC2	; 0x800cc2 <MPU_read+0x4>
    17c4:	30 91 c3 0c 	lds	r19, 0x0CC3	; 0x800cc3 <MPU_read+0x5>
    17c8:	40 91 c4 0c 	lds	r20, 0x0CC4	; 0x800cc4 <MPU_read+0x6>
    17cc:	50 91 c5 0c 	lds	r21, 0x0CC5	; 0x800cc5 <MPU_read+0x7>
    17d0:	60 91 be 0c 	lds	r22, 0x0CBE	; 0x800cbe <MPU_read>
    17d4:	70 91 bf 0c 	lds	r23, 0x0CBF	; 0x800cbf <MPU_read+0x1>
    17d8:	80 91 c0 0c 	lds	r24, 0x0CC0	; 0x800cc0 <MPU_read+0x2>
    17dc:	90 91 c1 0c 	lds	r25, 0x0CC1	; 0x800cc1 <MPU_read+0x3>
    17e0:	1a d4       	rcall	.+2100   	; 0x2016 <__addsf3>
    17e2:	20 91 c6 0c 	lds	r18, 0x0CC6	; 0x800cc6 <MPU_read+0x8>
    17e6:	30 91 c7 0c 	lds	r19, 0x0CC7	; 0x800cc7 <MPU_read+0x9>
    17ea:	40 91 c8 0c 	lds	r20, 0x0CC8	; 0x800cc8 <MPU_read+0xa>
    17ee:	50 91 c9 0c 	lds	r21, 0x0CC9	; 0x800cc9 <MPU_read+0xb>
    17f2:	11 d4       	rcall	.+2082   	; 0x2016 <__addsf3>
    17f4:	2d ec       	ldi	r18, 0xCD	; 205
    17f6:	3c ec       	ldi	r19, 0xCC	; 204
    17f8:	4c e8       	ldi	r20, 0x8C	; 140
    17fa:	5f e3       	ldi	r21, 0x3F	; 63
    17fc:	70 d4       	rcall	.+2272   	; 0x20de <__cmpsf2>
    17fe:	18 16       	cp	r1, r24
    1800:	0c f4       	brge	.+2      	; 0x1804 <loop+0x54e>
    1802:	3f c2       	rjmp	.+1150   	; 0x1c82 <loop+0x9cc>
    1804:	81 e0       	ldi	r24, 0x01	; 1
			State = Pause;
    1806:	80 93 b9 0c 	sts	0x0CB9, r24	; 0x800cb9 <State>
    180a:	0e 94 e1 18 	call	0x31c2	; 0x31c2 <millis>
			Time_stop_start = millis(); //On transition to stop, record start timer so we only start systems if the accelerometer records 1G for more than 10 seconds.
    180e:	60 93 94 0c 	sts	0x0C94, r22	; 0x800c94 <Time_stop_start>
    1812:	70 93 95 0c 	sts	0x0C95, r23	; 0x800c95 <Time_stop_start+0x1>
    1816:	80 93 96 0c 	sts	0x0C96, r24	; 0x800c96 <Time_stop_start+0x2>
    181a:	90 93 97 0c 	sts	0x0C97, r25	; 0x800c97 <Time_stop_start+0x3>
    181e:	80 91 09 02 	lds	r24, 0x0209	; 0x800209 <Print_mode>
			if (Print_mode){
    1822:	88 23       	and	r24, r24
    1824:	09 f4       	brne	.+2      	; 0x1828 <loop+0x572>
    1826:	43 c2       	rjmp	.+1158   	; 0x1cae <loop+0x9f8>
    1828:	6b ec       	ldi	r22, 0xCB	; 203
				Serial.println("No movement and no driver");
    182a:	74 e0       	ldi	r23, 0x04	; 4
    182c:	82 e5       	ldi	r24, 0x52	; 82
    182e:	9e e0       	ldi	r25, 0x0E	; 14
    1830:	0e 94 8d 16 	call	0x2d1a	; 0x2d1a <_ZN5Print7printlnEPKc>
    1834:	64 ef       	ldi	r22, 0xF4	; 244
				delay(500);
    1836:	71 e0       	ldi	r23, 0x01	; 1
    1838:	80 e0       	ldi	r24, 0x00	; 0
    183a:	90 e0       	ldi	r25, 0x00	; 0
    183c:	2e c2       	rjmp	.+1116   	; 0x1c9a <loop+0x9e4>
    183e:	80 91 09 02 	lds	r24, 0x0209	; 0x800209 <Print_mode>
		
		break; //this does not account for traffic lights and stop signs, need to figure out how to incorporate WiFi to check for the driver
		
		case Pause: //This state does not go to sleep because it needs to wait 10 seconds for the MPU
		
		if (Print_mode){
    1842:	88 23       	and	r24, r24
    1844:	61 f0       	breq	.+24     	; 0x185e <loop+0x5a8>
    1846:	65 ee       	ldi	r22, 0xE5	; 229
			Serial.println("State: Pause");
    1848:	74 e0       	ldi	r23, 0x04	; 4
    184a:	82 e5       	ldi	r24, 0x52	; 82
    184c:	9e e0       	ldi	r25, 0x0E	; 14
    184e:	0e 94 8d 16 	call	0x2d1a	; 0x2d1a <_ZN5Print7printlnEPKc>
    1852:	64 ef       	ldi	r22, 0xF4	; 244
			//Serial.println("time:"); Serial.println(Time_stop_start);
			delay(500);
    1854:	71 e0       	ldi	r23, 0x01	; 1
    1856:	80 e0       	ldi	r24, 0x00	; 0
    1858:	90 e0       	ldi	r25, 0x00	; 0
    185a:	0e 94 12 19 	call	0x3224	; 0x3224 <delay>
    185e:	0e 94 e1 18 	call	0x31c2	; 0x31c2 <millis>
		}
		
		if ((millis() - Time_stop_start) > 10000){ //if Accelerometer has been stopped for 10 seconds
    1862:	00 91 94 0c 	lds	r16, 0x0C94	; 0x800c94 <Time_stop_start>
    1866:	10 91 95 0c 	lds	r17, 0x0C95	; 0x800c95 <Time_stop_start+0x1>
    186a:	20 91 96 0c 	lds	r18, 0x0C96	; 0x800c96 <Time_stop_start+0x2>
    186e:	30 91 97 0c 	lds	r19, 0x0C97	; 0x800c97 <Time_stop_start+0x3>
    1872:	dc 01       	movw	r26, r24
    1874:	cb 01       	movw	r24, r22
    1876:	80 1b       	sub	r24, r16
    1878:	91 0b       	sbc	r25, r17
    187a:	a2 0b       	sbc	r26, r18
    187c:	b3 0b       	sbc	r27, r19
    187e:	81 31       	cpi	r24, 0x11	; 17
    1880:	97 42       	sbci	r25, 0x27	; 39
    1882:	a1 05       	cpc	r26, r1
    1884:	b1 05       	cpc	r27, r1
    1886:	08 f4       	brcc	.+2      	; 0x188a <loop+0x5d4>
    1888:	12 c2       	rjmp	.+1060   	; 0x1cae <loop+0x9f8>
			
			if (Print_mode){
    188a:	80 91 09 02 	lds	r24, 0x0209	; 0x800209 <Print_mode>
    188e:	88 23       	and	r24, r24
    1890:	31 f0       	breq	.+12     	; 0x189e <loop+0x5e8>
				Serial.println("timeout accelerometer");
    1892:	62 ef       	ldi	r22, 0xF2	; 242
    1894:	74 e0       	ldi	r23, 0x04	; 4
    1896:	82 e5       	ldi	r24, 0x52	; 82
    1898:	9e e0       	ldi	r25, 0x0E	; 14
    189a:	0e 94 8d 16 	call	0x2d1a	; 0x2d1a <_ZN5Print7printlnEPKc>
			}
			
			//turn on GPS to get fix on location and run occupant check
			if(Occupant_detect())
    189e:	53 db       	rcall	.-2394   	; 0xf46 <_Z15Occupant_detectv>
    18a0:	88 23       	and	r24, r24
    18a2:	21 f0       	breq	.+8      	; 0x18ac <loop+0x5f6>
    18a4:	61 e0       	ldi	r22, 0x01	; 1
			{
				digitalWrite(GPS_enable_pin, HIGH);
    18a6:	85 e2       	ldi	r24, 0x25	; 37
    18a8:	0e 94 70 1a 	call	0x34e0	; 0x34e0 <digitalWrite>
    18ac:	41 e0       	ldi	r20, 0x01	; 1
    void clearWriteError() { setWriteError(0); }
  
    virtual size_t write(uint8_t) = 0;
    size_t write(const char *str) {
      if (str == NULL) return 0;
      return write((const uint8_t *)str, strlen(str));
    18ae:	50 e0       	ldi	r21, 0x00	; 0
    18b0:	67 e4       	ldi	r22, 0x47	; 71
    18b2:	76 e0       	ldi	r23, 0x06	; 6
    18b4:	89 e2       	ldi	r24, 0x29	; 41
    18b6:	90 e1       	ldi	r25, 0x10	; 16
    18b8:	0e 94 f1 15 	call	0x2be2	; 0x2be2 <_ZN5Print5writeEPKhj>
    18bc:	10 92 08 02 	sts	0x0208, r1	; 0x800208 <Driver_flag>
			
			//check for driver
			Serial3.write("C");
			
			//for testing, set Driver_flag low
			Driver_flag = false;
    18c0:	82 e0       	ldi	r24, 0x02	; 2
			
			if(!Driver_flag){
				State = Stopped;
    18c2:	80 93 b9 0c 	sts	0x0CB9, r24	; 0x800cb9 <State>
    18c6:	f3 c1       	rjmp	.+998    	; 0x1cae <loop+0x9f8>
    18c8:	80 91 09 02 	lds	r24, 0x0209	; 0x800209 <Print_mode>
		
		break;
		
		case Stopped: //this state does not go to sleep either. simply goes through the transition to th0 or th1
		
		if (Print_mode){
    18cc:	88 23       	and	r24, r24
    18ce:	61 f0       	breq	.+24     	; 0x18e8 <loop+0x632>
    18d0:	68 e0       	ldi	r22, 0x08	; 8
			Serial.println("State: Stopped");
    18d2:	75 e0       	ldi	r23, 0x05	; 5
    18d4:	82 e5       	ldi	r24, 0x52	; 82
    18d6:	9e e0       	ldi	r25, 0x0E	; 14
    18d8:	0e 94 8d 16 	call	0x2d1a	; 0x2d1a <_ZN5Print7printlnEPKc>
    18dc:	64 ef       	ldi	r22, 0xF4	; 244
			delay(500);
    18de:	71 e0       	ldi	r23, 0x01	; 1
    18e0:	80 e0       	ldi	r24, 0x00	; 0
    18e2:	90 e0       	ldi	r25, 0x00	; 0
    18e4:	0e 94 12 19 	call	0x3224	; 0x3224 <delay>
    18e8:	80 91 0a 02 	lds	r24, 0x020A	; 0x80020a <Testing_mode>
		}
		
		if (Testing_mode){
    18ec:	88 23       	and	r24, r24
    18ee:	31 f0       	breq	.+12     	; 0x18fc <loop+0x646>
			Serial.println("Car Stopped");
    18f0:	67 e1       	ldi	r22, 0x17	; 23
    18f2:	75 e0       	ldi	r23, 0x05	; 5
    18f4:	82 e5       	ldi	r24, 0x52	; 82
    18f6:	9e e0       	ldi	r25, 0x0E	; 14
    18f8:	0e 94 8d 16 	call	0x2d1a	; 0x2d1a <_ZN5Print7printlnEPKc>
			//Time_stop_start = 0;
		}
		
		if (Felt_temp >= 80){
    18fc:	20 e0       	ldi	r18, 0x00	; 0
    18fe:	30 e0       	ldi	r19, 0x00	; 0
    1900:	40 ea       	ldi	r20, 0xA0	; 160
    1902:	52 e4       	ldi	r21, 0x42	; 66
    1904:	60 91 98 0c 	lds	r22, 0x0C98	; 0x800c98 <Felt_temp>
    1908:	70 91 99 0c 	lds	r23, 0x0C99	; 0x800c99 <Felt_temp+0x1>
    190c:	80 91 9a 0c 	lds	r24, 0x0C9A	; 0x800c9a <Felt_temp+0x2>
    1910:	90 91 9b 0c 	lds	r25, 0x0C9B	; 0x800c9b <Felt_temp+0x3>
    1914:	33 d5       	rcall	.+2662   	; 0x237c <__gesf2>
    1916:	87 fd       	sbrc	r24, 7
    1918:	02 c0       	rjmp	.+4      	; 0x191e <loop+0x668>
    191a:	86 e0       	ldi	r24, 0x06	; 6
			State = TH1;
    191c:	01 c0       	rjmp	.+2      	; 0x1920 <loop+0x66a>
    191e:	85 e0       	ldi	r24, 0x05	; 5
			} else {
			State = TH0;
    1920:	80 93 b9 0c 	sts	0x0CB9, r24	; 0x800cb9 <State>
    1924:	81 e0       	ldi	r24, 0x01	; 1
		}
		
		Calibrate_enable = true; //enable calibration in TH0
    1926:	80 93 bb 0c 	sts	0x0CBB, r24	; 0x800cbb <Calibrate_enable>
    192a:	5b c1       	rjmp	.+694    	; 0x1be2 <loop+0x92c>
    192c:	80 91 09 02 	lds	r24, 0x0209	; 0x800209 <Print_mode>
		
		break;
		
		case TH0: //no threat to life
		
		if (Print_mode){
    1930:	88 23       	and	r24, r24
    1932:	61 f0       	breq	.+24     	; 0x194c <loop+0x696>
    1934:	63 e2       	ldi	r22, 0x23	; 35
			Serial.println("State: TH0");
    1936:	75 e0       	ldi	r23, 0x05	; 5
    1938:	82 e5       	ldi	r24, 0x52	; 82
    193a:	9e e0       	ldi	r25, 0x0E	; 14
    193c:	0e 94 8d 16 	call	0x2d1a	; 0x2d1a <_ZN5Print7printlnEPKc>
    1940:	64 ef       	ldi	r22, 0xF4	; 244
			delay(500);
    1942:	71 e0       	ldi	r23, 0x01	; 1
    1944:	80 e0       	ldi	r24, 0x00	; 0
    1946:	90 e0       	ldi	r25, 0x00	; 0
    1948:	0e 94 12 19 	call	0x3224	; 0x3224 <delay>
    194c:	82 e2       	ldi	r24, 0x22	; 34
		}
		
		//turn off PIR in TH0 to save power
		if (digitalRead(PIR_enable_pin)){
    194e:	0e 94 9e 1a 	call	0x353c	; 0x353c <digitalRead>
    1952:	89 2b       	or	r24, r25
    1954:	31 f0       	breq	.+12     	; 0x1962 <loop+0x6ac>
    1956:	60 e0       	ldi	r22, 0x00	; 0
			digitalWrite(PIR_enable_pin, LOW);
    1958:	82 e2       	ldi	r24, 0x22	; 34
    195a:	0e 94 70 1a 	call	0x34e0	; 0x34e0 <digitalWrite>
    195e:	10 92 b6 0c 	sts	0x0CB6, r1	; 0x800cb6 <PIR_enable>
			PIR_enable = false;
    1962:	80 91 bc 0c 	lds	r24, 0x0CBC	; 0x800cbc <Deescalation_dismiss>
		}
		
		if (Deescalation_dismiss)
    1966:	81 11       	cpse	r24, r1
    1968:	10 92 bc 0c 	sts	0x0CBC, r1	; 0x800cbc <Deescalation_dismiss>
		{
			Deescalation_dismiss = false;
    196c:	80 91 0a 02 	lds	r24, 0x020A	; 0x80020a <Testing_mode>
		}
		
		if (Testing_mode){
    1970:	88 23       	and	r24, r24
    1972:	31 f0       	breq	.+12     	; 0x1980 <loop+0x6ca>
			Serial.println("TH0");
    1974:	6a e2       	ldi	r22, 0x2A	; 42
    1976:	75 e0       	ldi	r23, 0x05	; 5
    1978:	82 e5       	ldi	r24, 0x52	; 82
    197a:	9e e0       	ldi	r25, 0x0E	; 14
    197c:	0e 94 8d 16 	call	0x2d1a	; 0x2d1a <_ZN5Print7printlnEPKc>
		}
		
		if (!Occupant_flag && Calibrate_enable){
    1980:	80 91 b8 0c 	lds	r24, 0x0CB8	; 0x800cb8 <Occupant_flag>
    1984:	81 11       	cpse	r24, r1
    1986:	10 c0       	rjmp	.+32     	; 0x19a8 <loop+0x6f2>
    1988:	80 91 bb 0c 	lds	r24, 0x0CBB	; 0x800cbb <Calibrate_enable>
    198c:	88 23       	and	r24, r24
    198e:	d9 f0       	breq	.+54     	; 0x19c6 <loop+0x710>
			/*Calibrate Ping sensor*/
			Calibrate_enable = false; //run calibration only once
    1990:	10 92 bb 0c 	sts	0x0CBB, r1	; 0x800cbb <Calibrate_enable>
			
			if(!Testing_mode)
    1994:	80 91 0a 02 	lds	r24, 0x020A	; 0x80020a <Testing_mode>
    1998:	81 11       	cpse	r24, r1
			Seat_Distance = Ping_calibration(); //the call to Ping_calibration when the sensor is not connected will crash the system because of its blocking nature
    199a:	15 c0       	rjmp	.+42     	; 0x19c6 <loop+0x710>
    199c:	4a dc       	rcall	.-1900   	; 0x1232 <_Z16Ping_calibrationv>
    199e:	90 93 0e 02 	sts	0x020E, r25	; 0x80020e <Seat_Distance+0x1>
    19a2:	80 93 0d 02 	sts	0x020D, r24	; 0x80020d <Seat_Distance>
    19a6:	0f c0       	rjmp	.+30     	; 0x19c6 <loop+0x710>
			
			} else if (Occupant_flag){ //if occupant detected, check that GPS and 3G modules are turned on.
			
			if (!digitalRead(GPS_enable_pin))
    19a8:	85 e2       	ldi	r24, 0x25	; 37
    19aa:	0e 94 9e 1a 	call	0x353c	; 0x353c <digitalRead>
    19ae:	89 2b       	or	r24, r25
			{
				digitalWrite(GPS_enable_pin, HIGH);
    19b0:	21 f4       	brne	.+8      	; 0x19ba <loop+0x704>
    19b2:	61 e0       	ldi	r22, 0x01	; 1
    19b4:	85 e2       	ldi	r24, 0x25	; 37
    19b6:	0e 94 70 1a 	call	0x34e0	; 0x34e0 <digitalWrite>
			}
			if (!digitalRead(Fona_power_status_pin))
    19ba:	89 e1       	ldi	r24, 0x19	; 25
    19bc:	0e 94 9e 1a 	call	0x353c	; 0x353c <digitalRead>
    19c0:	89 2b       	or	r24, r25
			{
				Fona_setup(); //turns on and sets up 3G. Is blocking for 7 seconds. We do not receive GPS during this time. PIR should be attached to an interrupt to detect motion
    19c2:	09 f4       	brne	.+2      	; 0x19c6 <loop+0x710>
    19c4:	aa d9       	rcall	.-3244   	; 0xd1a <_Z10Fona_setupv>
			}
			
		}
		
		if (Felt_temp >= 80 && !User_dismiss){
    19c6:	20 e0       	ldi	r18, 0x00	; 0
    19c8:	30 e0       	ldi	r19, 0x00	; 0
    19ca:	40 ea       	ldi	r20, 0xA0	; 160
    19cc:	52 e4       	ldi	r21, 0x42	; 66
    19ce:	60 91 98 0c 	lds	r22, 0x0C98	; 0x800c98 <Felt_temp>
    19d2:	70 91 99 0c 	lds	r23, 0x0C99	; 0x800c99 <Felt_temp+0x1>
    19d6:	80 91 9a 0c 	lds	r24, 0x0C9A	; 0x800c9a <Felt_temp+0x2>
    19da:	90 91 9b 0c 	lds	r25, 0x0C9B	; 0x800c9b <Felt_temp+0x3>
    19de:	ce d4       	rcall	.+2460   	; 0x237c <__gesf2>
    19e0:	87 fd       	sbrc	r24, 7
    19e2:	4f c1       	rjmp	.+670    	; 0x1c82 <loop+0x9cc>
    19e4:	80 91 bd 0c 	lds	r24, 0x0CBD	; 0x800cbd <User_dismiss>
    19e8:	81 11       	cpse	r24, r1
    19ea:	4b c1       	rjmp	.+662    	; 0x1c82 <loop+0x9cc>
    19ec:	86 e0       	ldi	r24, 0x06	; 6
			State = TH1;
    19ee:	f7 c0       	rjmp	.+494    	; 0x1bde <loop+0x928>
    19f0:	80 91 09 02 	lds	r24, 0x0209	; 0x800209 <Print_mode>
		
		break;
		
		case TH1:
		
		if (Print_mode){
    19f4:	88 23       	and	r24, r24
    19f6:	61 f0       	breq	.+24     	; 0x1a10 <loop+0x75a>
    19f8:	6e e2       	ldi	r22, 0x2E	; 46
			Serial.println("State: TH1");
    19fa:	75 e0       	ldi	r23, 0x05	; 5
    19fc:	82 e5       	ldi	r24, 0x52	; 82
    19fe:	9e e0       	ldi	r25, 0x0E	; 14
    1a00:	0e 94 8d 16 	call	0x2d1a	; 0x2d1a <_ZN5Print7printlnEPKc>
    1a04:	64 ef       	ldi	r22, 0xF4	; 244
			delay(500);
    1a06:	71 e0       	ldi	r23, 0x01	; 1
    1a08:	80 e0       	ldi	r24, 0x00	; 0
    1a0a:	90 e0       	ldi	r25, 0x00	; 0
    1a0c:	0e 94 12 19 	call	0x3224	; 0x3224 <delay>
		}
		
		//turn on PIR from this threat level forward
		PIR_enable = true;
    1a10:	81 e0       	ldi	r24, 0x01	; 1
    1a12:	80 93 b6 0c 	sts	0x0CB6, r24	; 0x800cb6 <PIR_enable>
		
		
		if (Testing_mode){
    1a16:	80 91 0a 02 	lds	r24, 0x020A	; 0x80020a <Testing_mode>
    1a1a:	88 23       	and	r24, r24
    1a1c:	31 f0       	breq	.+12     	; 0x1a2a <loop+0x774>
			Serial.println("TH1");
    1a1e:	65 e3       	ldi	r22, 0x35	; 53
    1a20:	75 e0       	ldi	r23, 0x05	; 5
    1a22:	82 e5       	ldi	r24, 0x52	; 82
    1a24:	9e e0       	ldi	r25, 0x0E	; 14
    1a26:	0e 94 8d 16 	call	0x2d1a	; 0x2d1a <_ZN5Print7printlnEPKc>
		}
		
		//send notification
		if (Occupant_flag && TH1_enable){
    1a2a:	80 91 b8 0c 	lds	r24, 0x0CB8	; 0x800cb8 <Occupant_flag>
    1a2e:	88 23       	and	r24, r24
    1a30:	b9 f0       	breq	.+46     	; 0x1a60 <loop+0x7aa>
    1a32:	80 91 0c 02 	lds	r24, 0x020C	; 0x80020c <TH1_enable>
    1a36:	88 23       	and	r24, r24
    1a38:	99 f0       	breq	.+38     	; 0x1a60 <loop+0x7aa>
			Fona_Send_sms();
    1a3a:	fa d9       	rcall	.-3084   	; 0xe30 <_Z13Fona_Send_smsv>
    1a3c:	10 92 0c 02 	sts	0x020C, r1	; 0x80020c <TH1_enable>
			TH1_enable = false;
    1a40:	80 91 09 02 	lds	r24, 0x0209	; 0x800209 <Print_mode>
			
			if (Print_mode){
    1a44:	88 23       	and	r24, r24
    1a46:	61 f0       	breq	.+24     	; 0x1a60 <loop+0x7aa>
				Serial.println("Sending SMS");
    1a48:	69 e3       	ldi	r22, 0x39	; 57
    1a4a:	75 e0       	ldi	r23, 0x05	; 5
    1a4c:	82 e5       	ldi	r24, 0x52	; 82
    1a4e:	9e e0       	ldi	r25, 0x0E	; 14
    1a50:	0e 94 8d 16 	call	0x2d1a	; 0x2d1a <_ZN5Print7printlnEPKc>
				delay(500);
    1a54:	64 ef       	ldi	r22, 0xF4	; 244
    1a56:	71 e0       	ldi	r23, 0x01	; 1
    1a58:	80 e0       	ldi	r24, 0x00	; 0
    1a5a:	90 e0       	ldi	r25, 0x00	; 0
    1a5c:	0e 94 12 19 	call	0x3224	; 0x3224 <delay>
			}
		}
		
		if (Felt_temp > 86){
    1a60:	c0 90 98 0c 	lds	r12, 0x0C98	; 0x800c98 <Felt_temp>
    1a64:	d0 90 99 0c 	lds	r13, 0x0C99	; 0x800c99 <Felt_temp+0x1>
    1a68:	e0 90 9a 0c 	lds	r14, 0x0C9A	; 0x800c9a <Felt_temp+0x2>
    1a6c:	f0 90 9b 0c 	lds	r15, 0x0C9B	; 0x800c9b <Felt_temp+0x3>
    1a70:	20 e0       	ldi	r18, 0x00	; 0
    1a72:	30 e0       	ldi	r19, 0x00	; 0
    1a74:	4c ea       	ldi	r20, 0xAC	; 172
    1a76:	52 e4       	ldi	r21, 0x42	; 66
    1a78:	c7 01       	movw	r24, r14
    1a7a:	b6 01       	movw	r22, r12
    1a7c:	7f d4       	rcall	.+2302   	; 0x237c <__gesf2>
    1a7e:	18 16       	cp	r1, r24
    1a80:	14 f4       	brge	.+4      	; 0x1a86 <loop+0x7d0>
			State = TH2;
    1a82:	87 e0       	ldi	r24, 0x07	; 7
    1a84:	ac c0       	rjmp	.+344    	; 0x1bde <loop+0x928>
			Deescalation_dismiss = false;
			} else if (Felt_temp < 80){
    1a86:	20 e0       	ldi	r18, 0x00	; 0
    1a88:	30 e0       	ldi	r19, 0x00	; 0
    1a8a:	40 ea       	ldi	r20, 0xA0	; 160
    1a8c:	52 e4       	ldi	r21, 0x42	; 66
    1a8e:	c7 01       	movw	r24, r14
    1a90:	b6 01       	movw	r22, r12
    1a92:	25 d3       	rcall	.+1610   	; 0x20de <__cmpsf2>
    1a94:	87 ff       	sbrs	r24, 7
    1a96:	f5 c0       	rjmp	.+490    	; 0x1c82 <loop+0x9cc>
    1a98:	82 e0       	ldi	r24, 0x02	; 2
			State = Stopped;
    1a9a:	80 93 b9 0c 	sts	0x0CB9, r24	; 0x800cb9 <State>
    1a9e:	81 e0       	ldi	r24, 0x01	; 1
			Deescalation_dismiss = true;
    1aa0:	80 93 bc 0c 	sts	0x0CBC, r24	; 0x800cbc <Deescalation_dismiss>
    1aa4:	04 c1       	rjmp	.+520    	; 0x1cae <loop+0x9f8>
    1aa6:	80 91 09 02 	lds	r24, 0x0209	; 0x800209 <Print_mode>
		}
		break;
		
		case TH2:
		
		if (Print_mode){
    1aaa:	88 23       	and	r24, r24
    1aac:	61 f0       	breq	.+24     	; 0x1ac6 <loop+0x810>
    1aae:	65 e4       	ldi	r22, 0x45	; 69
			Serial.println("State: TH2");
    1ab0:	75 e0       	ldi	r23, 0x05	; 5
    1ab2:	82 e5       	ldi	r24, 0x52	; 82
    1ab4:	9e e0       	ldi	r25, 0x0E	; 14
    1ab6:	0e 94 8d 16 	call	0x2d1a	; 0x2d1a <_ZN5Print7printlnEPKc>
    1aba:	64 ef       	ldi	r22, 0xF4	; 244
			delay(500);
    1abc:	71 e0       	ldi	r23, 0x01	; 1
    1abe:	80 e0       	ldi	r24, 0x00	; 0
    1ac0:	90 e0       	ldi	r25, 0x00	; 0
    1ac2:	0e 94 12 19 	call	0x3224	; 0x3224 <delay>
    1ac6:	80 91 0a 02 	lds	r24, 0x020A	; 0x80020a <Testing_mode>
		}
		
		if (Testing_mode){
    1aca:	88 23       	and	r24, r24
    1acc:	31 f0       	breq	.+12     	; 0x1ada <loop+0x824>
    1ace:	6c e4       	ldi	r22, 0x4C	; 76
			Serial.println("TH2");
    1ad0:	75 e0       	ldi	r23, 0x05	; 5
    1ad2:	82 e5       	ldi	r24, 0x52	; 82
    1ad4:	9e e0       	ldi	r25, 0x0E	; 14
    1ad6:	0e 94 8d 16 	call	0x2d1a	; 0x2d1a <_ZN5Print7printlnEPKc>
    1ada:	80 91 09 02 	lds	r24, 0x0209	; 0x800209 <Print_mode>
		}
		
		//lower windows, send notification to owners
		//lower windows never implemented
		if (Print_mode){
    1ade:	88 23       	and	r24, r24
    1ae0:	61 f0       	breq	.+24     	; 0x1afa <loop+0x844>
			Serial.println("Lower Windows");
    1ae2:	60 e5       	ldi	r22, 0x50	; 80
    1ae4:	75 e0       	ldi	r23, 0x05	; 5
    1ae6:	82 e5       	ldi	r24, 0x52	; 82
    1ae8:	9e e0       	ldi	r25, 0x0E	; 14
    1aea:	0e 94 8d 16 	call	0x2d1a	; 0x2d1a <_ZN5Print7printlnEPKc>
			delay(500);
    1aee:	64 ef       	ldi	r22, 0xF4	; 244
    1af0:	71 e0       	ldi	r23, 0x01	; 1
    1af2:	80 e0       	ldi	r24, 0x00	; 0
    1af4:	90 e0       	ldi	r25, 0x00	; 0
    1af6:	0e 94 12 19 	call	0x3224	; 0x3224 <delay>
		}
		
		if (Felt_temp > 91){
    1afa:	c0 90 98 0c 	lds	r12, 0x0C98	; 0x800c98 <Felt_temp>
    1afe:	d0 90 99 0c 	lds	r13, 0x0C99	; 0x800c99 <Felt_temp+0x1>
    1b02:	e0 90 9a 0c 	lds	r14, 0x0C9A	; 0x800c9a <Felt_temp+0x2>
    1b06:	f0 90 9b 0c 	lds	r15, 0x0C9B	; 0x800c9b <Felt_temp+0x3>
    1b0a:	20 e0       	ldi	r18, 0x00	; 0
    1b0c:	30 e0       	ldi	r19, 0x00	; 0
    1b0e:	46 eb       	ldi	r20, 0xB6	; 182
    1b10:	52 e4       	ldi	r21, 0x42	; 66
    1b12:	c7 01       	movw	r24, r14
    1b14:	b6 01       	movw	r22, r12
    1b16:	32 d4       	rcall	.+2148   	; 0x237c <__gesf2>
    1b18:	18 16       	cp	r1, r24
    1b1a:	14 f4       	brge	.+4      	; 0x1b20 <loop+0x86a>
    1b1c:	88 e0       	ldi	r24, 0x08	; 8
			State = TH3;
    1b1e:	5f c0       	rjmp	.+190    	; 0x1bde <loop+0x928>
    1b20:	20 e0       	ldi	r18, 0x00	; 0
			Deescalation_dismiss = false;
		} else if (Felt_temp < 86)
    1b22:	30 e0       	ldi	r19, 0x00	; 0
    1b24:	4c ea       	ldi	r20, 0xAC	; 172
    1b26:	52 e4       	ldi	r21, 0x42	; 66
    1b28:	b2 cf       	rjmp	.-156    	; 0x1a8e <loop+0x7d8>
    1b2a:	80 91 09 02 	lds	r24, 0x0209	; 0x800209 <Print_mode>
		}
		break;
		
		case TH3:
		
		if (Print_mode){
    1b2e:	88 23       	and	r24, r24
    1b30:	61 f0       	breq	.+24     	; 0x1b4a <loop+0x894>
    1b32:	6e e5       	ldi	r22, 0x5E	; 94
			Serial.println("State: TH3");
    1b34:	75 e0       	ldi	r23, 0x05	; 5
    1b36:	82 e5       	ldi	r24, 0x52	; 82
    1b38:	9e e0       	ldi	r25, 0x0E	; 14
    1b3a:	0e 94 8d 16 	call	0x2d1a	; 0x2d1a <_ZN5Print7printlnEPKc>
    1b3e:	64 ef       	ldi	r22, 0xF4	; 244
			delay(500);
    1b40:	71 e0       	ldi	r23, 0x01	; 1
    1b42:	80 e0       	ldi	r24, 0x00	; 0
    1b44:	90 e0       	ldi	r25, 0x00	; 0
    1b46:	0e 94 12 19 	call	0x3224	; 0x3224 <delay>
    1b4a:	80 91 0a 02 	lds	r24, 0x020A	; 0x80020a <Testing_mode>
		}
		
		if (Testing_mode){
    1b4e:	88 23       	and	r24, r24
    1b50:	31 f0       	breq	.+12     	; 0x1b5e <loop+0x8a8>
    1b52:	65 e6       	ldi	r22, 0x65	; 101
			Serial.println("TH3");
    1b54:	75 e0       	ldi	r23, 0x05	; 5
    1b56:	82 e5       	ldi	r24, 0x52	; 82
    1b58:	9e e0       	ldi	r25, 0x0E	; 14
    1b5a:	0e 94 8d 16 	call	0x2d1a	; 0x2d1a <_ZN5Print7printlnEPKc>
    1b5e:	80 91 ba 0c 	lds	r24, 0x0CBA	; 0x800cba <TH3_enable>
		}
		
		//911 alert, lights and alarms, send notification to owners
		if(TH3_enable && Occupant_flag){
    1b62:	88 23       	and	r24, r24
    1b64:	51 f1       	breq	.+84     	; 0x1bba <loop+0x904>
    1b66:	80 91 b8 0c 	lds	r24, 0x0CB8	; 0x800cb8 <Occupant_flag>
    1b6a:	88 23       	and	r24, r24
    1b6c:	31 f1       	breq	.+76     	; 0x1bba <loop+0x904>
    1b6e:	80 91 09 02 	lds	r24, 0x0209	; 0x800209 <Print_mode>
			
			if (Print_mode){
    1b72:	88 23       	and	r24, r24
    1b74:	61 f0       	breq	.+24     	; 0x1b8e <loop+0x8d8>
    1b76:	69 e6       	ldi	r22, 0x69	; 105
				Serial.println("911 alert");
    1b78:	75 e0       	ldi	r23, 0x05	; 5
    1b7a:	82 e5       	ldi	r24, 0x52	; 82
    1b7c:	9e e0       	ldi	r25, 0x0E	; 14
    1b7e:	0e 94 8d 16 	call	0x2d1a	; 0x2d1a <_ZN5Print7printlnEPKc>
				delay(500);
    1b82:	64 ef       	ldi	r22, 0xF4	; 244
    1b84:	71 e0       	ldi	r23, 0x01	; 1
    1b86:	80 e0       	ldi	r24, 0x00	; 0
    1b88:	90 e0       	ldi	r25, 0x00	; 0
    1b8a:	0e 94 12 19 	call	0x3224	; 0x3224 <delay>
			}
			
			if (!digitalRead(Alarm_Lights_Unlock_pin))
    1b8e:	89 e2       	ldi	r24, 0x29	; 41
    1b90:	0e 94 9e 1a 	call	0x353c	; 0x353c <digitalRead>
    1b94:	89 2b       	or	r24, r25
    1b96:	71 f4       	brne	.+28     	; 0x1bb4 <loop+0x8fe>
			{
				//press pin for 1 second
				digitalWrite(Alarm_Lights_Unlock_pin, HIGH);
    1b98:	61 e0       	ldi	r22, 0x01	; 1
    1b9a:	89 e2       	ldi	r24, 0x29	; 41
    1b9c:	0e 94 70 1a 	call	0x34e0	; 0x34e0 <digitalWrite>
				delay (1000);
    1ba0:	68 ee       	ldi	r22, 0xE8	; 232
    1ba2:	73 e0       	ldi	r23, 0x03	; 3
    1ba4:	80 e0       	ldi	r24, 0x00	; 0
    1ba6:	90 e0       	ldi	r25, 0x00	; 0
    1ba8:	0e 94 12 19 	call	0x3224	; 0x3224 <delay>
				digitalWrite(Alarm_Lights_Unlock_pin, LOW);
    1bac:	60 e0       	ldi	r22, 0x00	; 0
    1bae:	89 e2       	ldi	r24, 0x29	; 41
    1bb0:	0e 94 70 1a 	call	0x34e0	; 0x34e0 <digitalWrite>
			}
			
			Fona_Send_sms();
    1bb4:	3d d9       	rcall	.-3462   	; 0xe30 <_Z13Fona_Send_smsv>
			
			TH3_enable = false;
    1bb6:	10 92 ba 0c 	sts	0x0CBA, r1	; 0x800cba <TH3_enable>
		}
		
		if (Felt_temp > 105){
    1bba:	c0 90 98 0c 	lds	r12, 0x0C98	; 0x800c98 <Felt_temp>
    1bbe:	d0 90 99 0c 	lds	r13, 0x0C99	; 0x800c99 <Felt_temp+0x1>
    1bc2:	e0 90 9a 0c 	lds	r14, 0x0C9A	; 0x800c9a <Felt_temp+0x2>
    1bc6:	f0 90 9b 0c 	lds	r15, 0x0C9B	; 0x800c9b <Felt_temp+0x3>
    1bca:	20 e0       	ldi	r18, 0x00	; 0
    1bcc:	30 e0       	ldi	r19, 0x00	; 0
    1bce:	42 ed       	ldi	r20, 0xD2	; 210
    1bd0:	52 e4       	ldi	r21, 0x42	; 66
    1bd2:	c7 01       	movw	r24, r14
    1bd4:	b6 01       	movw	r22, r12
    1bd6:	d2 d3       	rcall	.+1956   	; 0x237c <__gesf2>
    1bd8:	18 16       	cp	r1, r24
    1bda:	34 f4       	brge	.+12     	; 0x1be8 <loop+0x932>
    1bdc:	89 e0       	ldi	r24, 0x09	; 9
			State = TH4;
    1bde:	80 93 b9 0c 	sts	0x0CB9, r24	; 0x800cb9 <State>
    1be2:	10 92 bc 0c 	sts	0x0CBC, r1	; 0x800cbc <Deescalation_dismiss>
			Deescalation_dismiss = false;
    1be6:	63 c0       	rjmp	.+198    	; 0x1cae <loop+0x9f8>
    1be8:	20 e0       	ldi	r18, 0x00	; 0
		} else if (Felt_temp < 91)
    1bea:	30 e0       	ldi	r19, 0x00	; 0
    1bec:	46 eb       	ldi	r20, 0xB6	; 182
    1bee:	52 e4       	ldi	r21, 0x42	; 66
    1bf0:	4e cf       	rjmp	.-356    	; 0x1a8e <loop+0x7d8>
    1bf2:	80 91 09 02 	lds	r24, 0x0209	; 0x800209 <Print_mode>
		}
		break;
		
		case TH4:
		
		if (Print_mode){
    1bf6:	88 23       	and	r24, r24
    1bf8:	61 f0       	breq	.+24     	; 0x1c12 <loop+0x95c>
    1bfa:	63 e7       	ldi	r22, 0x73	; 115
			Serial.println("State: TH4");
    1bfc:	75 e0       	ldi	r23, 0x05	; 5
    1bfe:	82 e5       	ldi	r24, 0x52	; 82
    1c00:	9e e0       	ldi	r25, 0x0E	; 14
    1c02:	0e 94 8d 16 	call	0x2d1a	; 0x2d1a <_ZN5Print7printlnEPKc>
			delay(500);
    1c06:	64 ef       	ldi	r22, 0xF4	; 244
    1c08:	71 e0       	ldi	r23, 0x01	; 1
    1c0a:	80 e0       	ldi	r24, 0x00	; 0
    1c0c:	90 e0       	ldi	r25, 0x00	; 0
    1c0e:	0e 94 12 19 	call	0x3224	; 0x3224 <delay>
		}
		
		if (Testing_mode){
    1c12:	80 91 0a 02 	lds	r24, 0x020A	; 0x80020a <Testing_mode>
    1c16:	88 23       	and	r24, r24
    1c18:	31 f0       	breq	.+12     	; 0x1c26 <loop+0x970>
			Serial.println("TH4");
    1c1a:	6a e7       	ldi	r22, 0x7A	; 122
    1c1c:	75 e0       	ldi	r23, 0x05	; 5
    1c1e:	82 e5       	ldi	r24, 0x52	; 82
    1c20:	9e e0       	ldi	r25, 0x0E	; 14
    1c22:	0e 94 8d 16 	call	0x2d1a	; 0x2d1a <_ZN5Print7printlnEPKc>
		}
		
		//open car door
		if (TH4_enable && Occupant_flag)
    1c26:	80 91 0b 02 	lds	r24, 0x020B	; 0x80020b <TH4_enable>
    1c2a:	88 23       	and	r24, r24
    1c2c:	d9 f0       	breq	.+54     	; 0x1c64 <loop+0x9ae>
    1c2e:	80 91 b8 0c 	lds	r24, 0x0CB8	; 0x800cb8 <Occupant_flag>
    1c32:	88 23       	and	r24, r24
    1c34:	b9 f0       	breq	.+46     	; 0x1c64 <loop+0x9ae>
    1c36:	41 e0       	ldi	r20, 0x01	; 1
    1c38:	50 e0       	ldi	r21, 0x00	; 0
    1c3a:	6e e7       	ldi	r22, 0x7E	; 126
    1c3c:	75 e0       	ldi	r23, 0x05	; 5
    1c3e:	89 e2       	ldi	r24, 0x29	; 41
    1c40:	90 e1       	ldi	r25, 0x10	; 16
    1c42:	cf d7       	rcall	.+3998   	; 0x2be2 <_ZN5Print5writeEPKhj>
    1c44:	80 91 09 02 	lds	r24, 0x0209	; 0x800209 <Print_mode>
		{
			Serial3.write("O");
			
			if (Print_mode){
    1c48:	88 23       	and	r24, r24
    1c4a:	61 f0       	breq	.+24     	; 0x1c64 <loop+0x9ae>
    1c4c:	60 e8       	ldi	r22, 0x80	; 128
				Serial.println("Open Door");
    1c4e:	75 e0       	ldi	r23, 0x05	; 5
    1c50:	82 e5       	ldi	r24, 0x52	; 82
    1c52:	9e e0       	ldi	r25, 0x0E	; 14
    1c54:	0e 94 8d 16 	call	0x2d1a	; 0x2d1a <_ZN5Print7printlnEPKc>
    1c58:	64 ef       	ldi	r22, 0xF4	; 244
				delay(500);
    1c5a:	71 e0       	ldi	r23, 0x01	; 1
    1c5c:	80 e0       	ldi	r24, 0x00	; 0
    1c5e:	90 e0       	ldi	r25, 0x00	; 0
    1c60:	0e 94 12 19 	call	0x3224	; 0x3224 <delay>
    1c64:	20 e0       	ldi	r18, 0x00	; 0
			}
			
		}
		
		if (Felt_temp < 105){
    1c66:	30 e0       	ldi	r19, 0x00	; 0
    1c68:	42 ed       	ldi	r20, 0xD2	; 210
    1c6a:	52 e4       	ldi	r21, 0x42	; 66
    1c6c:	60 91 98 0c 	lds	r22, 0x0C98	; 0x800c98 <Felt_temp>
    1c70:	70 91 99 0c 	lds	r23, 0x0C99	; 0x800c99 <Felt_temp+0x1>
    1c74:	80 91 9a 0c 	lds	r24, 0x0C9A	; 0x800c9a <Felt_temp+0x2>
    1c78:	90 91 9b 0c 	lds	r25, 0x0C9B	; 0x800c9b <Felt_temp+0x3>
    1c7c:	0a cf       	rjmp	.-492    	; 0x1a92 <loop+0x7dc>
    1c7e:	10 92 b9 0c 	sts	0x0CB9, r1	; 0x800cb9 <State>
			Go_to_sleep = true;
		}
		break;
		
		default:
		State = Running;
    1c82:	80 91 0a 02 	lds	r24, 0x020A	; 0x80020a <Testing_mode>
	
	
	if (Go_to_sleep)
	{
		
		if(Testing_mode || Print_mode){
    1c86:	81 11       	cpse	r24, r1
    1c88:	0b c0       	rjmp	.+22     	; 0x1ca0 <loop+0x9ea>
    1c8a:	80 91 09 02 	lds	r24, 0x0209	; 0x800209 <Print_mode>
    1c8e:	81 11       	cpse	r24, r1
    1c90:	07 c0       	rjmp	.+14     	; 0x1ca0 <loop+0x9ea>
    1c92:	68 ee       	ldi	r22, 0xE8	; 232
			Serial.println("Sleep");
		}
		delay(1000); //delay 10 seconds for testing
    1c94:	73 e0       	ldi	r23, 0x03	; 3
    1c96:	80 e0       	ldi	r24, 0x00	; 0
    1c98:	90 e0       	ldi	r25, 0x00	; 0
    1c9a:	0e 94 12 19 	call	0x3224	; 0x3224 <delay>
    1c9e:	07 c0       	rjmp	.+14     	; 0x1cae <loop+0x9f8>
	//} else if (!PIR_on) {
	//PIR_on = true;
	//}
	//

}
    1ca0:	6a e8       	ldi	r22, 0x8A	; 138
	
	if (Go_to_sleep)
	{
		
		if(Testing_mode || Print_mode){
			Serial.println("Sleep");
    1ca2:	75 e0       	ldi	r23, 0x05	; 5
    1ca4:	82 e5       	ldi	r24, 0x52	; 82
    1ca6:	9e e0       	ldi	r25, 0x0E	; 14
    1ca8:	0e 94 8d 16 	call	0x2d1a	; 0x2d1a <_ZN5Print7printlnEPKc>
    1cac:	f2 cf       	rjmp	.-28     	; 0x1c92 <loop+0x9dc>
    1cae:	aa 96       	adiw	r28, 0x2a	; 42
	//} else if (!PIR_on) {
	//PIR_on = true;
	//}
	//

}
    1cb0:	0f b6       	in	r0, 0x3f	; 63
    1cb2:	f8 94       	cli
    1cb4:	de bf       	out	0x3e, r29	; 62
    1cb6:	0f be       	out	0x3f, r0	; 63
    1cb8:	cd bf       	out	0x3d, r28	; 61
    1cba:	df 91       	pop	r29
    1cbc:	cf 91       	pop	r28
    1cbe:	1f 91       	pop	r17
    1cc0:	0f 91       	pop	r16
    1cc2:	ff 90       	pop	r15
    1cc4:	ef 90       	pop	r14
    1cc6:	df 90       	pop	r13
    1cc8:	cf 90       	pop	r12
    1cca:	08 95       	ret

00001ccc <_Z13Thermal_setupv>:
	//tft.setRotation(3);
	
	bool status;
	
	// default settings
	status = amg.begin();
    1ccc:	69 e6       	ldi	r22, 0x69	; 105
    1cce:	84 ee       	ldi	r24, 0xE4	; 228
    1cd0:	9c e0       	ldi	r25, 0x0C	; 12
    1cd2:	0e 94 da 1b 	call	0x37b4	; 0x37b4 <_ZN16Adafruit_AMG88xx5beginEh>
	if (!status) {
    1cd6:	81 11       	cpse	r24, r1
    1cd8:	07 c0       	rjmp	.+14     	; 0x1ce8 <_Z13Thermal_setupv+0x1c>
		Serial.println("Could not find a valid AMG88xx sensor, check wiring!");
    1cda:	60 e9       	ldi	r22, 0x90	; 144
    1cdc:	75 e0       	ldi	r23, 0x05	; 5
    1cde:	82 e5       	ldi	r24, 0x52	; 82
    1ce0:	9e e0       	ldi	r25, 0x0E	; 14
    1ce2:	0e 94 8d 16 	call	0x2d1a	; 0x2d1a <_ZN5Print7printlnEPKc>
    1ce6:	ff cf       	rjmp	.-2      	; 0x1ce6 <_Z13Thermal_setupv+0x1a>
		while (1);
	}
	
	Serial.println("-- Thermal Camera Test --");
    1ce8:	65 ec       	ldi	r22, 0xC5	; 197
    1cea:	75 e0       	ldi	r23, 0x05	; 5
    1cec:	82 e5       	ldi	r24, 0x52	; 82
    1cee:	9e e0       	ldi	r25, 0x0E	; 14
    1cf0:	0e 94 8d 16 	call	0x2d1a	; 0x2d1a <_ZN5Print7printlnEPKc>
	delay(100); // let sensor boot up
    1cf4:	64 e6       	ldi	r22, 0x64	; 100
    1cf6:	70 e0       	ldi	r23, 0x00	; 0
    1cf8:	80 e0       	ldi	r24, 0x00	; 0
    1cfa:	90 e0       	ldi	r25, 0x00	; 0
    1cfc:	0c 94 12 19 	jmp	0x3224	; 0x3224 <delay>

}
    1d00:	08 95       	ret

00001d02 <_Z12Thermal_readv>:

//int Print_raw_data = false;
//int Temp_print_delay;

Thermal_SizeTemp_Struct Thermal_read(){
    1d02:	2f 92       	push	r2
    1d04:	3f 92       	push	r3
    1d06:	4f 92       	push	r4
    1d08:	5f 92       	push	r5
    1d0a:	6f 92       	push	r6
    1d0c:	7f 92       	push	r7
    1d0e:	8f 92       	push	r8
    1d10:	9f 92       	push	r9
    1d12:	af 92       	push	r10
    1d14:	bf 92       	push	r11
    1d16:	cf 92       	push	r12
    1d18:	df 92       	push	r13
    1d1a:	ef 92       	push	r14
    1d1c:	ff 92       	push	r15
    1d1e:	0f 93       	push	r16
    1d20:	1f 93       	push	r17
    1d22:	cf 93       	push	r28
    1d24:	df 93       	push	r29
    1d26:	cd b7       	in	r28, 0x3d	; 61
    1d28:	de b7       	in	r29, 0x3e	; 62
    1d2a:	60 97       	sbiw	r28, 0x10	; 16
    1d2c:	0f b6       	in	r0, 0x3f	; 63
    1d2e:	f8 94       	cli
    1d30:	de bf       	out	0x3e, r29	; 62
    1d32:	0f be       	out	0x3f, r0	; 63
    1d34:	cd bf       	out	0x3d, r28	; 61
	
	amg.readPixels(pixels);
    1d36:	40 e4       	ldi	r20, 0x40	; 64
    1d38:	6b e3       	ldi	r22, 0x3B	; 59
    1d3a:	7d e0       	ldi	r23, 0x0D	; 13
    1d3c:	84 ee       	ldi	r24, 0xE4	; 228
    1d3e:	9c e0       	ldi	r25, 0x0C	; 12
    1d40:	0e 94 57 1c 	call	0x38ae	; 0x38ae <_ZN16Adafruit_AMG88xx10readPixelsEPfh>
	//if (Temp_print_delay >= 25){
		//Print_raw_data = true;
		//Temp_print_delay = 0;
		//} 
		//if(Print_raw_data == true) {
		Serial.print("[");
    1d44:	6f ed       	ldi	r22, 0xDF	; 223
    1d46:	75 e0       	ldi	r23, 0x05	; 5
    1d48:	82 e5       	ldi	r24, 0x52	; 82
    1d4a:	9e e0       	ldi	r25, 0x0E	; 14
    1d4c:	bb d7       	rcall	.+3958   	; 0x2cc4 <_ZN5Print5printEPKc>
    1d4e:	2b e3       	ldi	r18, 0x3B	; 59
    1d50:	c2 2e       	mov	r12, r18
    1d52:	2d e0       	ldi	r18, 0x0D	; 13
    1d54:	d2 2e       	mov	r13, r18
		for(int i=1; i<=AMG88xx_PIXEL_ARRAY_SIZE; i++){
    1d56:	01 e0       	ldi	r16, 0x01	; 1
    1d58:	10 e0       	ldi	r17, 0x00	; 0
			Serial.print(pixels[i-1]);
    1d5a:	f6 01       	movw	r30, r12
    1d5c:	41 91       	ld	r20, Z+
    1d5e:	51 91       	ld	r21, Z+
    1d60:	61 91       	ld	r22, Z+
    1d62:	71 91       	ld	r23, Z+
    1d64:	6f 01       	movw	r12, r30
    1d66:	22 e0       	ldi	r18, 0x02	; 2
    1d68:	30 e0       	ldi	r19, 0x00	; 0
    1d6a:	82 e5       	ldi	r24, 0x52	; 82
    1d6c:	9e e0       	ldi	r25, 0x0E	; 14
    1d6e:	0e 94 41 18 	call	0x3082	; 0x3082 <_ZN5Print5printEdi>
			Serial.print(", ");
    1d72:	6b e2       	ldi	r22, 0x2B	; 43
    1d74:	74 e0       	ldi	r23, 0x04	; 4
    1d76:	82 e5       	ldi	r24, 0x52	; 82
    1d78:	9e e0       	ldi	r25, 0x0E	; 14
    1d7a:	a4 d7       	rcall	.+3912   	; 0x2cc4 <_ZN5Print5printEPKc>
			if( i%8 == 0 ) Serial.println();
    1d7c:	c8 01       	movw	r24, r16
    1d7e:	87 70       	andi	r24, 0x07	; 7
    1d80:	99 27       	eor	r25, r25
    1d82:	89 2b       	or	r24, r25
    1d84:	19 f4       	brne	.+6      	; 0x1d8c <_Z12Thermal_readv+0x8a>
    1d86:	82 e5       	ldi	r24, 0x52	; 82
    1d88:	9e e0       	ldi	r25, 0x0E	; 14
    1d8a:	a4 d7       	rcall	.+3912   	; 0x2cd4 <_ZN5Print7printlnEv>
		//Print_raw_data = true;
		//Temp_print_delay = 0;
		//} 
		//if(Print_raw_data == true) {
		Serial.print("[");
		for(int i=1; i<=AMG88xx_PIXEL_ARRAY_SIZE; i++){
    1d8c:	0f 5f       	subi	r16, 0xFF	; 255
    1d8e:	1f 4f       	sbci	r17, 0xFF	; 255
    1d90:	01 34       	cpi	r16, 0x41	; 65
    1d92:	11 05       	cpc	r17, r1
    1d94:	11 f7       	brne	.-60     	; 0x1d5a <_Z12Thermal_readv+0x58>
			Serial.print(pixels[i-1]);
			Serial.print(", ");
			if( i%8 == 0 ) Serial.println();
		}
		Serial.println("]");
    1d96:	61 ee       	ldi	r22, 0xE1	; 225
    1d98:	75 e0       	ldi	r23, 0x05	; 5
    1d9a:	82 e5       	ldi	r24, 0x52	; 82
    1d9c:	9e e0       	ldi	r25, 0x0E	; 14
    1d9e:	bd d7       	rcall	.+3962   	; 0x2d1a <_ZN5Print7printlnEPKc>
		Serial.println();
    1da0:	82 e5       	ldi	r24, 0x52	; 82
    1da2:	9e e0       	ldi	r25, 0x0E	; 14
    1da4:	97 d7       	rcall	.+3886   	; 0x2cd4 <_ZN5Print7printlnEv>
    1da6:	9b e3       	ldi	r25, 0x3B	; 59
    1da8:	c9 2e       	mov	r12, r25
    1daa:	9d e0       	ldi	r25, 0x0D	; 13
    1dac:	d9 2e       	mov	r13, r25
Thermal_SizeTemp_Struct Thermal_read(){
	
	amg.readPixels(pixels);
	struct Thermal_SizeTemp_Struct Size_temp_read;
	//int cold = 40;
	Size_temp_read.max_temp = 0;
    1dae:	00 e0       	ldi	r16, 0x00	; 0
    1db0:	10 e0       	ldi	r17, 0x00	; 0
	Size_temp_read.size = 0;
    1db2:	a1 2c       	mov	r10, r1
    1db4:	b1 2c       	mov	r11, r1
		//Print_raw_data = false;
	//}

	//search for the max temperature
	for(int i=0; i<AMG88xx_PIXEL_ARRAY_SIZE; i++){
		if(pixels[i] > Size_temp_read.max_temp){
    1db6:	f6 01       	movw	r30, r12
    1db8:	41 90       	ld	r4, Z+
    1dba:	51 90       	ld	r5, Z+
    1dbc:	61 90       	ld	r6, Z+
    1dbe:	71 90       	ld	r7, Z+
    1dc0:	6f 01       	movw	r12, r30
    1dc2:	b8 01       	movw	r22, r16
    1dc4:	01 2e       	mov	r0, r17
    1dc6:	00 0c       	add	r0, r0
    1dc8:	88 0b       	sbc	r24, r24
    1dca:	99 0b       	sbc	r25, r25
    1dcc:	27 d2       	rcall	.+1102   	; 0x221c <__floatsisf>
    1dce:	9b 01       	movw	r18, r22
    1dd0:	ac 01       	movw	r20, r24
    1dd2:	c3 01       	movw	r24, r6
    1dd4:	b2 01       	movw	r22, r4
    1dd6:	d2 d2       	rcall	.+1444   	; 0x237c <__gesf2>
    1dd8:	18 16       	cp	r1, r24
			Size_temp_read.max_temp = pixels[i];
    1dda:	24 f4       	brge	.+8      	; 0x1de4 <_Z12Thermal_readv+0xe2>
    1ddc:	c3 01       	movw	r24, r6
    1dde:	b2 01       	movw	r22, r4
    1de0:	ea d1       	rcall	.+980    	; 0x21b6 <__fixsfsi>
    1de2:	8b 01       	movw	r16, r22
		}
		if(pixels[i] >= DETECTEMP){
    1de4:	20 e0       	ldi	r18, 0x00	; 0
    1de6:	30 e0       	ldi	r19, 0x00	; 0
    1de8:	48 eb       	ldi	r20, 0xB8	; 184
    1dea:	51 e4       	ldi	r21, 0x41	; 65
    1dec:	c3 01       	movw	r24, r6
    1dee:	b2 01       	movw	r22, r4
    1df0:	c5 d2       	rcall	.+1418   	; 0x237c <__gesf2>
    1df2:	87 fd       	sbrc	r24, 7
    1df4:	03 c0       	rjmp	.+6      	; 0x1dfc <_Z12Thermal_readv+0xfa>
			Size_temp_read.size++;
    1df6:	ff ef       	ldi	r31, 0xFF	; 255
    1df8:	af 1a       	sub	r10, r31
    1dfa:	bf 0a       	sbc	r11, r31
		Serial.println();
		//Print_raw_data = false;
	//}

	//search for the max temperature
	for(int i=0; i<AMG88xx_PIXEL_ARRAY_SIZE; i++){
    1dfc:	8b e3       	ldi	r24, 0x3B	; 59
    1dfe:	c8 16       	cp	r12, r24
    1e00:	8e e0       	ldi	r24, 0x0E	; 14
    1e02:	d8 06       	cpc	r13, r24
    1e04:	c1 f6       	brne	.-80     	; 0x1db6 <_Z12Thermal_readv+0xb4>
	}
	
	int top_temps[5]; 
	int j = 0; //index for top temps
	int pixels_sum;
	top_temps[0] =  Size_temp_read.max_temp; //save max temp to start of array
    1e06:	1a 83       	std	Y+2, r17	; 0x02
    1e08:	09 83       	std	Y+1, r16	; 0x01
    1e0a:	fe 01       	movw	r30, r28
    1e0c:	31 96       	adiw	r30, 0x01	; 1
    1e0e:	6f 01       	movw	r12, r30
    1e10:	1e 01       	movw	r2, r28
    1e12:	f9 e0       	ldi	r31, 0x09	; 9
    1e14:	2f 0e       	add	r2, r31
    1e16:	31 1c       	adc	r3, r1
	
	amg.readPixels(pixels);
	struct Thermal_SizeTemp_Struct Size_temp_read;
	//int cold = 40;
	Size_temp_read.max_temp = 0;
	Size_temp_read.size = 0;
    1e18:	8b e3       	ldi	r24, 0x3B	; 59
    1e1a:	88 2e       	mov	r8, r24
    1e1c:	8d e0       	ldi	r24, 0x0D	; 13
    1e1e:	98 2e       	mov	r9, r24
	top_temps[0] =  Size_temp_read.max_temp; //save max temp to start of array
	
	//find top 5 temperatures in the array
	for (j=1; j<5; j++){
		for(int i=0; i <AMG88xx_PIXEL_ARRAY_SIZE; i++){
			if((pixels[i] > top_temps[j]) && (pixels[i] < top_temps[j-1])){ //each consecutive value will be lower than before
    1e20:	f4 01       	movw	r30, r8
    1e22:	41 90       	ld	r4, Z+
    1e24:	51 90       	ld	r5, Z+
    1e26:	61 90       	ld	r6, Z+
    1e28:	71 90       	ld	r7, Z+
    1e2a:	4f 01       	movw	r8, r30
    1e2c:	f6 01       	movw	r30, r12
    1e2e:	62 81       	ldd	r22, Z+2	; 0x02
    1e30:	73 81       	ldd	r23, Z+3	; 0x03
    1e32:	07 2e       	mov	r0, r23
    1e34:	00 0c       	add	r0, r0
    1e36:	88 0b       	sbc	r24, r24
    1e38:	99 0b       	sbc	r25, r25
    1e3a:	f0 d1       	rcall	.+992    	; 0x221c <__floatsisf>
    1e3c:	9b 01       	movw	r18, r22
    1e3e:	ac 01       	movw	r20, r24
    1e40:	c3 01       	movw	r24, r6
    1e42:	b2 01       	movw	r22, r4
    1e44:	9b d2       	rcall	.+1334   	; 0x237c <__gesf2>
    1e46:	18 16       	cp	r1, r24
    1e48:	b4 f4       	brge	.+44     	; 0x1e76 <_Z12Thermal_readv+0x174>
    1e4a:	f6 01       	movw	r30, r12
    1e4c:	60 81       	ld	r22, Z
    1e4e:	71 81       	ldd	r23, Z+1	; 0x01
    1e50:	07 2e       	mov	r0, r23
    1e52:	00 0c       	add	r0, r0
    1e54:	88 0b       	sbc	r24, r24
    1e56:	99 0b       	sbc	r25, r25
    1e58:	e1 d1       	rcall	.+962    	; 0x221c <__floatsisf>
    1e5a:	9b 01       	movw	r18, r22
    1e5c:	ac 01       	movw	r20, r24
    1e5e:	c3 01       	movw	r24, r6
    1e60:	b2 01       	movw	r22, r4
    1e62:	3d d1       	rcall	.+634    	; 0x20de <__cmpsf2>
    1e64:	87 ff       	sbrs	r24, 7
    1e66:	07 c0       	rjmp	.+14     	; 0x1e76 <_Z12Thermal_readv+0x174>
				top_temps[j] = pixels[i];
    1e68:	c3 01       	movw	r24, r6
    1e6a:	b2 01       	movw	r22, r4
    1e6c:	a4 d1       	rcall	.+840    	; 0x21b6 <__fixsfsi>
    1e6e:	f6 01       	movw	r30, r12
    1e70:	73 83       	std	Z+3, r23	; 0x03
			} else { //otherwise, add it to the average sum
				pixels_sum = pixels_sum + pixels[i];
    1e72:	62 83       	std	Z+2, r22	; 0x02
    1e74:	0a c0       	rjmp	.+20     	; 0x1e8a <_Z12Thermal_readv+0x188>
    1e76:	b7 01       	movw	r22, r14
    1e78:	ff 0c       	add	r15, r15
    1e7a:	88 0b       	sbc	r24, r24
    1e7c:	99 0b       	sbc	r25, r25
    1e7e:	ce d1       	rcall	.+924    	; 0x221c <__floatsisf>
    1e80:	a3 01       	movw	r20, r6
    1e82:	92 01       	movw	r18, r4
    1e84:	c8 d0       	rcall	.+400    	; 0x2016 <__addsf3>
    1e86:	97 d1       	rcall	.+814    	; 0x21b6 <__fixsfsi>
    1e88:	7b 01       	movw	r14, r22
    1e8a:	fb e3       	ldi	r31, 0x3B	; 59
	int pixels_sum;
	top_temps[0] =  Size_temp_read.max_temp; //save max temp to start of array
	
	//find top 5 temperatures in the array
	for (j=1; j<5; j++){
		for(int i=0; i <AMG88xx_PIXEL_ARRAY_SIZE; i++){
    1e8c:	8f 16       	cp	r8, r31
    1e8e:	fe e0       	ldi	r31, 0x0E	; 14
    1e90:	9f 06       	cpc	r9, r31
    1e92:	09 f0       	breq	.+2      	; 0x1e96 <_Z12Thermal_readv+0x194>
    1e94:	c5 cf       	rjmp	.-118    	; 0x1e20 <_Z12Thermal_readv+0x11e>
    1e96:	82 e0       	ldi	r24, 0x02	; 2
    1e98:	c8 0e       	add	r12, r24
    1e9a:	d1 1c       	adc	r13, r1
    1e9c:	2c 14       	cp	r2, r12
	int j = 0; //index for top temps
	int pixels_sum;
	top_temps[0] =  Size_temp_read.max_temp; //save max temp to start of array
	
	//find top 5 temperatures in the array
	for (j=1; j<5; j++){
    1e9e:	3d 04       	cpc	r3, r13
    1ea0:	09 f0       	breq	.+2      	; 0x1ea4 <_Z12Thermal_readv+0x1a2>
    1ea2:	ba cf       	rjmp	.-140    	; 0x1e18 <_Z12Thermal_readv+0x116>
    1ea4:	1c 87       	std	Y+12, r17	; 0x0c
		//displayPixelHeight, displayPixelWidth, camColors[colorIndex]);
	//}
	
	
	
	return Size_temp_read;
    1ea6:	0b 87       	std	Y+11, r16	; 0x0b
    1ea8:	be 86       	std	Y+14, r11	; 0x0e
    1eaa:	ad 86       	std	Y+13, r10	; 0x0d
    1eac:	c7 01       	movw	r24, r14
    1eae:	6b e3       	ldi	r22, 0x3B	; 59
    1eb0:	70 e0       	ldi	r23, 0x00	; 0
    1eb2:	0e 94 42 40 	call	0x8084	; 0x8084 <__divmodhi4>
    1eb6:	02 50       	subi	r16, 0x02	; 2
    1eb8:	11 09       	sbc	r17, r1
    1eba:	81 e0       	ldi	r24, 0x01	; 1
    1ebc:	90 e0       	ldi	r25, 0x00	; 0
    1ebe:	60 17       	cp	r22, r16
    1ec0:	71 07       	cpc	r23, r17
    1ec2:	0c f0       	brlt	.+2      	; 0x1ec6 <_Z12Thermal_readv+0x1c4>
    1ec4:	80 e0       	ldi	r24, 0x00	; 0
    1ec6:	2b 85       	ldd	r18, Y+11	; 0x0b
    1ec8:	3c 85       	ldd	r19, Y+12	; 0x0c
    1eca:	4d 85       	ldd	r20, Y+13	; 0x0d
    1ecc:	5e 85       	ldd	r21, Y+14	; 0x0e
    1ece:	bc 01       	movw	r22, r24
    1ed0:	80 e0       	ldi	r24, 0x00	; 0
}
    1ed2:	90 e0       	ldi	r25, 0x00	; 0
    1ed4:	60 96       	adiw	r28, 0x10	; 16
    1ed6:	0f b6       	in	r0, 0x3f	; 63
    1ed8:	f8 94       	cli
    1eda:	de bf       	out	0x3e, r29	; 62
    1edc:	0f be       	out	0x3f, r0	; 63
    1ede:	cd bf       	out	0x3d, r28	; 61
    1ee0:	df 91       	pop	r29
    1ee2:	cf 91       	pop	r28
    1ee4:	1f 91       	pop	r17
    1ee6:	0f 91       	pop	r16
    1ee8:	ff 90       	pop	r15
    1eea:	ef 90       	pop	r14
    1eec:	df 90       	pop	r13
    1eee:	cf 90       	pop	r12
    1ef0:	bf 90       	pop	r11
    1ef2:	af 90       	pop	r10
    1ef4:	9f 90       	pop	r9
    1ef6:	8f 90       	pop	r8
    1ef8:	7f 90       	pop	r7
    1efa:	6f 90       	pop	r6
    1efc:	5f 90       	pop	r5
    1efe:	4f 90       	pop	r4
    1f00:	3f 90       	pop	r3
    1f02:	2f 90       	pop	r2
    1f04:	08 95       	ret

00001f06 <_GLOBAL__sub_I_displayPixelWidth>:
    1f06:	20 e3       	ldi	r18, 0x30	; 48
unsigned long delayTime;
/*
Adafruit_ST7735 tft = Adafruit_ST7735(TFT_CS,  TFT_DC, TFT_RST);
*/

Adafruit_ST7735 tft = Adafruit_ST7735(TFT_CS,  TFT_DC, TFT_RST);
    1f08:	41 e3       	ldi	r20, 0x31	; 49
    1f0a:	65 e3       	ldi	r22, 0x35	; 53
    1f0c:	84 ef       	ldi	r24, 0xF4	; 244
    1f0e:	9c e0       	ldi	r25, 0x0C	; 12
    1f10:	0c 94 7d 26 	jmp	0x4cfa	; 0x4cfa <_ZN15Adafruit_ST7735C1Eaaa>

00001f14 <_ZN7HIH4030C1Ehf>:
    1f14:	fc 01       	movw	r30, r24
    1f16:	86 2f       	mov	r24, r22
    1f18:	60 83       	st	Z, r22
    1f1a:	21 83       	std	Z+1, r18	; 0x01
    1f1c:	32 83       	std	Z+2, r19	; 0x02
    1f1e:	43 83       	std	Z+3, r20	; 0x03
    1f20:	54 83       	std	Z+4, r21	; 0x04
    1f22:	60 e0       	ldi	r22, 0x00	; 0
    1f24:	0c 94 34 1a 	jmp	0x3468	; 0x3468 <pinMode>

00001f28 <_Z15Get_temperaturev>:
    1f28:	80 e4       	ldi	r24, 0x40	; 64
    1f2a:	9e e0       	ldi	r25, 0x0E	; 14
    1f2c:	68 c0       	rjmp	.+208    	; 0x1ffe <_ZN5TMP368getTempFEv>

00001f2e <_Z20Get_Felt_Temperaturev>:
    1f2e:	fc cf       	rjmp	.-8      	; 0x1f28 <_Z15Get_temperaturev>

00001f30 <_GLOBAL__sub_I_myTMP36>:
    1f30:	20 e0       	ldi	r18, 0x00	; 0
    1f32:	30 e0       	ldi	r19, 0x00	; 0
    1f34:	40 ea       	ldi	r20, 0xA0	; 160
    1f36:	50 e4       	ldi	r21, 0x40	; 64
    1f38:	67 e3       	ldi	r22, 0x37	; 55
    1f3a:	80 e4       	ldi	r24, 0x40	; 64
    1f3c:	9e e0       	ldi	r25, 0x0E	; 14
    1f3e:	08 d0       	rcall	.+16     	; 0x1f50 <_ZN5TMP36C1Ehf>
    1f40:	20 e0       	ldi	r18, 0x00	; 0
    1f42:	30 e0       	ldi	r19, 0x00	; 0
    1f44:	40 ea       	ldi	r20, 0xA0	; 160
    1f46:	50 e4       	ldi	r21, 0x40	; 64
    1f48:	67 e3       	ldi	r22, 0x37	; 55
    1f4a:	8b e3       	ldi	r24, 0x3B	; 59
    1f4c:	9e e0       	ldi	r25, 0x0E	; 14
    1f4e:	e2 cf       	rjmp	.-60     	; 0x1f14 <_ZN7HIH4030C1Ehf>

00001f50 <_ZN5TMP36C1Ehf>:
    1f50:	cf 92       	push	r12
    1f52:	df 92       	push	r13
    1f54:	ef 92       	push	r14
    1f56:	ff 92       	push	r15
    1f58:	1f 93       	push	r17
    1f5a:	cf 93       	push	r28
    1f5c:	df 93       	push	r29
    1f5e:	ec 01       	movw	r28, r24
    1f60:	16 2f       	mov	r17, r22
    1f62:	69 01       	movw	r12, r18
    1f64:	7a 01       	movw	r14, r20
    1f66:	60 e0       	ldi	r22, 0x00	; 0
    1f68:	81 2f       	mov	r24, r17
    1f6a:	0e 94 34 1a 	call	0x3468	; 0x3468 <pinMode>
    1f6e:	ca 82       	std	Y+2, r12	; 0x02
    1f70:	db 82       	std	Y+3, r13	; 0x03
    1f72:	ec 82       	std	Y+4, r14	; 0x04
    1f74:	fd 82       	std	Y+5, r15	; 0x05
    1f76:	18 83       	st	Y, r17
    1f78:	df 91       	pop	r29
    1f7a:	cf 91       	pop	r28
    1f7c:	1f 91       	pop	r17
    1f7e:	ff 90       	pop	r15
    1f80:	ef 90       	pop	r14
    1f82:	df 90       	pop	r13
    1f84:	cf 90       	pop	r12
    1f86:	08 95       	ret

00001f88 <_ZN5TMP369getValuesEv>:
    1f88:	cf 93       	push	r28
    1f8a:	df 93       	push	r29
    1f8c:	ec 01       	movw	r28, r24
    1f8e:	88 81       	ld	r24, Y
    1f90:	0e 94 b9 19 	call	0x3372	; 0x3372 <analogRead>
    1f94:	89 83       	std	Y+1, r24	; 0x01
    1f96:	bc 01       	movw	r22, r24
    1f98:	77 27       	eor	r23, r23
    1f9a:	07 2e       	mov	r0, r23
    1f9c:	00 0c       	add	r0, r0
    1f9e:	88 0b       	sbc	r24, r24
    1fa0:	99 0b       	sbc	r25, r25
    1fa2:	3c d1       	rcall	.+632    	; 0x221c <__floatsisf>
    1fa4:	20 e0       	ldi	r18, 0x00	; 0
    1fa6:	30 e0       	ldi	r19, 0x00	; 0
    1fa8:	40 e8       	ldi	r20, 0x80	; 128
    1faa:	5a e3       	ldi	r21, 0x3A	; 58
    1fac:	eb d1       	rcall	.+982    	; 0x2384 <__mulsf3>
    1fae:	2a 81       	ldd	r18, Y+2	; 0x02
    1fb0:	3b 81       	ldd	r19, Y+3	; 0x03
    1fb2:	4c 81       	ldd	r20, Y+4	; 0x04
    1fb4:	5d 81       	ldd	r21, Y+5	; 0x05
    1fb6:	e6 d1       	rcall	.+972    	; 0x2384 <__mulsf3>
    1fb8:	6e 83       	std	Y+6, r22	; 0x06
    1fba:	7f 83       	std	Y+7, r23	; 0x07
    1fbc:	88 87       	std	Y+8, r24	; 0x08
    1fbe:	99 87       	std	Y+9, r25	; 0x09
    1fc0:	20 e0       	ldi	r18, 0x00	; 0
    1fc2:	30 e0       	ldi	r19, 0x00	; 0
    1fc4:	40 e0       	ldi	r20, 0x00	; 0
    1fc6:	5f e3       	ldi	r21, 0x3F	; 63
    1fc8:	25 d0       	rcall	.+74     	; 0x2014 <__subsf3>
    1fca:	20 e0       	ldi	r18, 0x00	; 0
    1fcc:	30 e0       	ldi	r19, 0x00	; 0
    1fce:	48 ec       	ldi	r20, 0xC8	; 200
    1fd0:	52 e4       	ldi	r21, 0x42	; 66
    1fd2:	d8 d1       	rcall	.+944    	; 0x2384 <__mulsf3>
    1fd4:	6a 87       	std	Y+10, r22	; 0x0a
    1fd6:	7b 87       	std	Y+11, r23	; 0x0b
    1fd8:	8c 87       	std	Y+12, r24	; 0x0c
    1fda:	9d 87       	std	Y+13, r25	; 0x0d
    1fdc:	26 e6       	ldi	r18, 0x66	; 102
    1fde:	36 e6       	ldi	r19, 0x66	; 102
    1fe0:	46 ee       	ldi	r20, 0xE6	; 230
    1fe2:	5f e3       	ldi	r21, 0x3F	; 63
    1fe4:	cf d1       	rcall	.+926    	; 0x2384 <__mulsf3>
    1fe6:	20 e0       	ldi	r18, 0x00	; 0
    1fe8:	30 e0       	ldi	r19, 0x00	; 0
    1fea:	40 e0       	ldi	r20, 0x00	; 0
    1fec:	52 e4       	ldi	r21, 0x42	; 66
    1fee:	13 d0       	rcall	.+38     	; 0x2016 <__addsf3>
    1ff0:	6e 87       	std	Y+14, r22	; 0x0e
    1ff2:	7f 87       	std	Y+15, r23	; 0x0f
    1ff4:	88 8b       	std	Y+16, r24	; 0x10
    1ff6:	99 8b       	std	Y+17, r25	; 0x11
    1ff8:	df 91       	pop	r29
    1ffa:	cf 91       	pop	r28
    1ffc:	08 95       	ret

00001ffe <_ZN5TMP368getTempFEv>:
    1ffe:	cf 93       	push	r28
    2000:	df 93       	push	r29
    2002:	ec 01       	movw	r28, r24
    2004:	c1 df       	rcall	.-126    	; 0x1f88 <_ZN5TMP369getValuesEv>
    2006:	6e 85       	ldd	r22, Y+14	; 0x0e
    2008:	7f 85       	ldd	r23, Y+15	; 0x0f
    200a:	88 89       	ldd	r24, Y+16	; 0x10
    200c:	99 89       	ldd	r25, Y+17	; 0x11
    200e:	df 91       	pop	r29
    2010:	cf 91       	pop	r28
    2012:	08 95       	ret

00002014 <__subsf3>:
    2014:	50 58       	subi	r21, 0x80	; 128

00002016 <__addsf3>:
    2016:	bb 27       	eor	r27, r27
    2018:	aa 27       	eor	r26, r26
    201a:	0e d0       	rcall	.+28     	; 0x2038 <__addsf3x>
    201c:	75 c1       	rjmp	.+746    	; 0x2308 <__fp_round>
    201e:	66 d1       	rcall	.+716    	; 0x22ec <__fp_pscA>
    2020:	30 f0       	brcs	.+12     	; 0x202e <__addsf3+0x18>
    2022:	6b d1       	rcall	.+726    	; 0x22fa <__fp_pscB>
    2024:	20 f0       	brcs	.+8      	; 0x202e <__addsf3+0x18>
    2026:	31 f4       	brne	.+12     	; 0x2034 <__addsf3+0x1e>
    2028:	9f 3f       	cpi	r25, 0xFF	; 255
    202a:	11 f4       	brne	.+4      	; 0x2030 <__addsf3+0x1a>
    202c:	1e f4       	brtc	.+6      	; 0x2034 <__addsf3+0x1e>
    202e:	5b c1       	rjmp	.+694    	; 0x22e6 <__fp_nan>
    2030:	0e f4       	brtc	.+2      	; 0x2034 <__addsf3+0x1e>
    2032:	e0 95       	com	r30
    2034:	e7 fb       	bst	r30, 7
    2036:	51 c1       	rjmp	.+674    	; 0x22da <__fp_inf>

00002038 <__addsf3x>:
    2038:	e9 2f       	mov	r30, r25
    203a:	77 d1       	rcall	.+750    	; 0x232a <__fp_split3>
    203c:	80 f3       	brcs	.-32     	; 0x201e <__addsf3+0x8>
    203e:	ba 17       	cp	r27, r26
    2040:	62 07       	cpc	r22, r18
    2042:	73 07       	cpc	r23, r19
    2044:	84 07       	cpc	r24, r20
    2046:	95 07       	cpc	r25, r21
    2048:	18 f0       	brcs	.+6      	; 0x2050 <__addsf3x+0x18>
    204a:	71 f4       	brne	.+28     	; 0x2068 <__addsf3x+0x30>
    204c:	9e f5       	brtc	.+102    	; 0x20b4 <__addsf3x+0x7c>
    204e:	8f c1       	rjmp	.+798    	; 0x236e <__fp_zero>
    2050:	0e f4       	brtc	.+2      	; 0x2054 <__addsf3x+0x1c>
    2052:	e0 95       	com	r30
    2054:	0b 2e       	mov	r0, r27
    2056:	ba 2f       	mov	r27, r26
    2058:	a0 2d       	mov	r26, r0
    205a:	0b 01       	movw	r0, r22
    205c:	b9 01       	movw	r22, r18
    205e:	90 01       	movw	r18, r0
    2060:	0c 01       	movw	r0, r24
    2062:	ca 01       	movw	r24, r20
    2064:	a0 01       	movw	r20, r0
    2066:	11 24       	eor	r1, r1
    2068:	ff 27       	eor	r31, r31
    206a:	59 1b       	sub	r21, r25
    206c:	99 f0       	breq	.+38     	; 0x2094 <__addsf3x+0x5c>
    206e:	59 3f       	cpi	r21, 0xF9	; 249
    2070:	50 f4       	brcc	.+20     	; 0x2086 <__addsf3x+0x4e>
    2072:	50 3e       	cpi	r21, 0xE0	; 224
    2074:	68 f1       	brcs	.+90     	; 0x20d0 <__addsf3x+0x98>
    2076:	1a 16       	cp	r1, r26
    2078:	f0 40       	sbci	r31, 0x00	; 0
    207a:	a2 2f       	mov	r26, r18
    207c:	23 2f       	mov	r18, r19
    207e:	34 2f       	mov	r19, r20
    2080:	44 27       	eor	r20, r20
    2082:	58 5f       	subi	r21, 0xF8	; 248
    2084:	f3 cf       	rjmp	.-26     	; 0x206c <__addsf3x+0x34>
    2086:	46 95       	lsr	r20
    2088:	37 95       	ror	r19
    208a:	27 95       	ror	r18
    208c:	a7 95       	ror	r26
    208e:	f0 40       	sbci	r31, 0x00	; 0
    2090:	53 95       	inc	r21
    2092:	c9 f7       	brne	.-14     	; 0x2086 <__addsf3x+0x4e>
    2094:	7e f4       	brtc	.+30     	; 0x20b4 <__addsf3x+0x7c>
    2096:	1f 16       	cp	r1, r31
    2098:	ba 0b       	sbc	r27, r26
    209a:	62 0b       	sbc	r22, r18
    209c:	73 0b       	sbc	r23, r19
    209e:	84 0b       	sbc	r24, r20
    20a0:	ba f0       	brmi	.+46     	; 0x20d0 <__addsf3x+0x98>
    20a2:	91 50       	subi	r25, 0x01	; 1
    20a4:	a1 f0       	breq	.+40     	; 0x20ce <__addsf3x+0x96>
    20a6:	ff 0f       	add	r31, r31
    20a8:	bb 1f       	adc	r27, r27
    20aa:	66 1f       	adc	r22, r22
    20ac:	77 1f       	adc	r23, r23
    20ae:	88 1f       	adc	r24, r24
    20b0:	c2 f7       	brpl	.-16     	; 0x20a2 <__addsf3x+0x6a>
    20b2:	0e c0       	rjmp	.+28     	; 0x20d0 <__addsf3x+0x98>
    20b4:	ba 0f       	add	r27, r26
    20b6:	62 1f       	adc	r22, r18
    20b8:	73 1f       	adc	r23, r19
    20ba:	84 1f       	adc	r24, r20
    20bc:	48 f4       	brcc	.+18     	; 0x20d0 <__addsf3x+0x98>
    20be:	87 95       	ror	r24
    20c0:	77 95       	ror	r23
    20c2:	67 95       	ror	r22
    20c4:	b7 95       	ror	r27
    20c6:	f7 95       	ror	r31
    20c8:	9e 3f       	cpi	r25, 0xFE	; 254
    20ca:	08 f0       	brcs	.+2      	; 0x20ce <__addsf3x+0x96>
    20cc:	b3 cf       	rjmp	.-154    	; 0x2034 <__addsf3+0x1e>
    20ce:	93 95       	inc	r25
    20d0:	88 0f       	add	r24, r24
    20d2:	08 f0       	brcs	.+2      	; 0x20d6 <__addsf3x+0x9e>
    20d4:	99 27       	eor	r25, r25
    20d6:	ee 0f       	add	r30, r30
    20d8:	97 95       	ror	r25
    20da:	87 95       	ror	r24
    20dc:	08 95       	ret

000020de <__cmpsf2>:
    20de:	d9 d0       	rcall	.+434    	; 0x2292 <__fp_cmp>
    20e0:	08 f4       	brcc	.+2      	; 0x20e4 <__cmpsf2+0x6>
    20e2:	81 e0       	ldi	r24, 0x01	; 1
    20e4:	08 95       	ret

000020e6 <__divsf3>:
    20e6:	0c d0       	rcall	.+24     	; 0x2100 <__divsf3x>
    20e8:	0f c1       	rjmp	.+542    	; 0x2308 <__fp_round>
    20ea:	07 d1       	rcall	.+526    	; 0x22fa <__fp_pscB>
    20ec:	40 f0       	brcs	.+16     	; 0x20fe <__divsf3+0x18>
    20ee:	fe d0       	rcall	.+508    	; 0x22ec <__fp_pscA>
    20f0:	30 f0       	brcs	.+12     	; 0x20fe <__divsf3+0x18>
    20f2:	21 f4       	brne	.+8      	; 0x20fc <__divsf3+0x16>
    20f4:	5f 3f       	cpi	r21, 0xFF	; 255
    20f6:	19 f0       	breq	.+6      	; 0x20fe <__divsf3+0x18>
    20f8:	f0 c0       	rjmp	.+480    	; 0x22da <__fp_inf>
    20fa:	51 11       	cpse	r21, r1
    20fc:	39 c1       	rjmp	.+626    	; 0x2370 <__fp_szero>
    20fe:	f3 c0       	rjmp	.+486    	; 0x22e6 <__fp_nan>

00002100 <__divsf3x>:
    2100:	14 d1       	rcall	.+552    	; 0x232a <__fp_split3>
    2102:	98 f3       	brcs	.-26     	; 0x20ea <__divsf3+0x4>

00002104 <__divsf3_pse>:
    2104:	99 23       	and	r25, r25
    2106:	c9 f3       	breq	.-14     	; 0x20fa <__divsf3+0x14>
    2108:	55 23       	and	r21, r21
    210a:	b1 f3       	breq	.-20     	; 0x20f8 <__divsf3+0x12>
    210c:	95 1b       	sub	r25, r21
    210e:	55 0b       	sbc	r21, r21
    2110:	bb 27       	eor	r27, r27
    2112:	aa 27       	eor	r26, r26
    2114:	62 17       	cp	r22, r18
    2116:	73 07       	cpc	r23, r19
    2118:	84 07       	cpc	r24, r20
    211a:	38 f0       	brcs	.+14     	; 0x212a <__divsf3_pse+0x26>
    211c:	9f 5f       	subi	r25, 0xFF	; 255
    211e:	5f 4f       	sbci	r21, 0xFF	; 255
    2120:	22 0f       	add	r18, r18
    2122:	33 1f       	adc	r19, r19
    2124:	44 1f       	adc	r20, r20
    2126:	aa 1f       	adc	r26, r26
    2128:	a9 f3       	breq	.-22     	; 0x2114 <__divsf3_pse+0x10>
    212a:	33 d0       	rcall	.+102    	; 0x2192 <__divsf3_pse+0x8e>
    212c:	0e 2e       	mov	r0, r30
    212e:	3a f0       	brmi	.+14     	; 0x213e <__divsf3_pse+0x3a>
    2130:	e0 e8       	ldi	r30, 0x80	; 128
    2132:	30 d0       	rcall	.+96     	; 0x2194 <__divsf3_pse+0x90>
    2134:	91 50       	subi	r25, 0x01	; 1
    2136:	50 40       	sbci	r21, 0x00	; 0
    2138:	e6 95       	lsr	r30
    213a:	00 1c       	adc	r0, r0
    213c:	ca f7       	brpl	.-14     	; 0x2130 <__divsf3_pse+0x2c>
    213e:	29 d0       	rcall	.+82     	; 0x2192 <__divsf3_pse+0x8e>
    2140:	fe 2f       	mov	r31, r30
    2142:	27 d0       	rcall	.+78     	; 0x2192 <__divsf3_pse+0x8e>
    2144:	66 0f       	add	r22, r22
    2146:	77 1f       	adc	r23, r23
    2148:	88 1f       	adc	r24, r24
    214a:	bb 1f       	adc	r27, r27
    214c:	26 17       	cp	r18, r22
    214e:	37 07       	cpc	r19, r23
    2150:	48 07       	cpc	r20, r24
    2152:	ab 07       	cpc	r26, r27
    2154:	b0 e8       	ldi	r27, 0x80	; 128
    2156:	09 f0       	breq	.+2      	; 0x215a <__divsf3_pse+0x56>
    2158:	bb 0b       	sbc	r27, r27
    215a:	80 2d       	mov	r24, r0
    215c:	bf 01       	movw	r22, r30
    215e:	ff 27       	eor	r31, r31
    2160:	93 58       	subi	r25, 0x83	; 131
    2162:	5f 4f       	sbci	r21, 0xFF	; 255
    2164:	2a f0       	brmi	.+10     	; 0x2170 <__divsf3_pse+0x6c>
    2166:	9e 3f       	cpi	r25, 0xFE	; 254
    2168:	51 05       	cpc	r21, r1
    216a:	68 f0       	brcs	.+26     	; 0x2186 <__divsf3_pse+0x82>
    216c:	b6 c0       	rjmp	.+364    	; 0x22da <__fp_inf>
    216e:	00 c1       	rjmp	.+512    	; 0x2370 <__fp_szero>
    2170:	5f 3f       	cpi	r21, 0xFF	; 255
    2172:	ec f3       	brlt	.-6      	; 0x216e <__divsf3_pse+0x6a>
    2174:	98 3e       	cpi	r25, 0xE8	; 232
    2176:	dc f3       	brlt	.-10     	; 0x216e <__divsf3_pse+0x6a>
    2178:	86 95       	lsr	r24
    217a:	77 95       	ror	r23
    217c:	67 95       	ror	r22
    217e:	b7 95       	ror	r27
    2180:	f7 95       	ror	r31
    2182:	9f 5f       	subi	r25, 0xFF	; 255
    2184:	c9 f7       	brne	.-14     	; 0x2178 <__divsf3_pse+0x74>
    2186:	88 0f       	add	r24, r24
    2188:	91 1d       	adc	r25, r1
    218a:	96 95       	lsr	r25
    218c:	87 95       	ror	r24
    218e:	97 f9       	bld	r25, 7
    2190:	08 95       	ret
    2192:	e1 e0       	ldi	r30, 0x01	; 1
    2194:	66 0f       	add	r22, r22
    2196:	77 1f       	adc	r23, r23
    2198:	88 1f       	adc	r24, r24
    219a:	bb 1f       	adc	r27, r27
    219c:	62 17       	cp	r22, r18
    219e:	73 07       	cpc	r23, r19
    21a0:	84 07       	cpc	r24, r20
    21a2:	ba 07       	cpc	r27, r26
    21a4:	20 f0       	brcs	.+8      	; 0x21ae <__divsf3_pse+0xaa>
    21a6:	62 1b       	sub	r22, r18
    21a8:	73 0b       	sbc	r23, r19
    21aa:	84 0b       	sbc	r24, r20
    21ac:	ba 0b       	sbc	r27, r26
    21ae:	ee 1f       	adc	r30, r30
    21b0:	88 f7       	brcc	.-30     	; 0x2194 <__divsf3_pse+0x90>
    21b2:	e0 95       	com	r30
    21b4:	08 95       	ret

000021b6 <__fixsfsi>:
    21b6:	04 d0       	rcall	.+8      	; 0x21c0 <__fixunssfsi>
    21b8:	68 94       	set
    21ba:	b1 11       	cpse	r27, r1
    21bc:	d9 c0       	rjmp	.+434    	; 0x2370 <__fp_szero>
    21be:	08 95       	ret

000021c0 <__fixunssfsi>:
    21c0:	bc d0       	rcall	.+376    	; 0x233a <__fp_splitA>
    21c2:	88 f0       	brcs	.+34     	; 0x21e6 <__fixunssfsi+0x26>
    21c4:	9f 57       	subi	r25, 0x7F	; 127
    21c6:	90 f0       	brcs	.+36     	; 0x21ec <__fixunssfsi+0x2c>
    21c8:	b9 2f       	mov	r27, r25
    21ca:	99 27       	eor	r25, r25
    21cc:	b7 51       	subi	r27, 0x17	; 23
    21ce:	a0 f0       	brcs	.+40     	; 0x21f8 <__fixunssfsi+0x38>
    21d0:	d1 f0       	breq	.+52     	; 0x2206 <__stack+0x7>
    21d2:	66 0f       	add	r22, r22
    21d4:	77 1f       	adc	r23, r23
    21d6:	88 1f       	adc	r24, r24
    21d8:	99 1f       	adc	r25, r25
    21da:	1a f0       	brmi	.+6      	; 0x21e2 <__fixunssfsi+0x22>
    21dc:	ba 95       	dec	r27
    21de:	c9 f7       	brne	.-14     	; 0x21d2 <__fixunssfsi+0x12>
    21e0:	12 c0       	rjmp	.+36     	; 0x2206 <__stack+0x7>
    21e2:	b1 30       	cpi	r27, 0x01	; 1
    21e4:	81 f0       	breq	.+32     	; 0x2206 <__stack+0x7>
    21e6:	c3 d0       	rcall	.+390    	; 0x236e <__fp_zero>
    21e8:	b1 e0       	ldi	r27, 0x01	; 1
    21ea:	08 95       	ret
    21ec:	c0 c0       	rjmp	.+384    	; 0x236e <__fp_zero>
    21ee:	67 2f       	mov	r22, r23
    21f0:	78 2f       	mov	r23, r24
    21f2:	88 27       	eor	r24, r24
    21f4:	b8 5f       	subi	r27, 0xF8	; 248
    21f6:	39 f0       	breq	.+14     	; 0x2206 <__stack+0x7>
    21f8:	b9 3f       	cpi	r27, 0xF9	; 249
    21fa:	cc f3       	brlt	.-14     	; 0x21ee <__fixunssfsi+0x2e>
    21fc:	86 95       	lsr	r24
    21fe:	77 95       	ror	r23
    2200:	67 95       	ror	r22
    2202:	b3 95       	inc	r27
    2204:	d9 f7       	brne	.-10     	; 0x21fc <__fixunssfsi+0x3c>
    2206:	3e f4       	brtc	.+14     	; 0x2216 <__stack+0x17>
    2208:	90 95       	com	r25
    220a:	80 95       	com	r24
    220c:	70 95       	com	r23
    220e:	61 95       	neg	r22
    2210:	7f 4f       	sbci	r23, 0xFF	; 255
    2212:	8f 4f       	sbci	r24, 0xFF	; 255
    2214:	9f 4f       	sbci	r25, 0xFF	; 255
    2216:	08 95       	ret

00002218 <__floatunsisf>:
    2218:	e8 94       	clt
    221a:	09 c0       	rjmp	.+18     	; 0x222e <__floatsisf+0x12>

0000221c <__floatsisf>:
    221c:	97 fb       	bst	r25, 7
    221e:	3e f4       	brtc	.+14     	; 0x222e <__floatsisf+0x12>
    2220:	90 95       	com	r25
    2222:	80 95       	com	r24
    2224:	70 95       	com	r23
    2226:	61 95       	neg	r22
    2228:	7f 4f       	sbci	r23, 0xFF	; 255
    222a:	8f 4f       	sbci	r24, 0xFF	; 255
    222c:	9f 4f       	sbci	r25, 0xFF	; 255
    222e:	99 23       	and	r25, r25
    2230:	a9 f0       	breq	.+42     	; 0x225c <__floatsisf+0x40>
    2232:	f9 2f       	mov	r31, r25
    2234:	96 e9       	ldi	r25, 0x96	; 150
    2236:	bb 27       	eor	r27, r27
    2238:	93 95       	inc	r25
    223a:	f6 95       	lsr	r31
    223c:	87 95       	ror	r24
    223e:	77 95       	ror	r23
    2240:	67 95       	ror	r22
    2242:	b7 95       	ror	r27
    2244:	f1 11       	cpse	r31, r1
    2246:	f8 cf       	rjmp	.-16     	; 0x2238 <__floatsisf+0x1c>
    2248:	fa f4       	brpl	.+62     	; 0x2288 <__floatsisf+0x6c>
    224a:	bb 0f       	add	r27, r27
    224c:	11 f4       	brne	.+4      	; 0x2252 <__floatsisf+0x36>
    224e:	60 ff       	sbrs	r22, 0
    2250:	1b c0       	rjmp	.+54     	; 0x2288 <__floatsisf+0x6c>
    2252:	6f 5f       	subi	r22, 0xFF	; 255
    2254:	7f 4f       	sbci	r23, 0xFF	; 255
    2256:	8f 4f       	sbci	r24, 0xFF	; 255
    2258:	9f 4f       	sbci	r25, 0xFF	; 255
    225a:	16 c0       	rjmp	.+44     	; 0x2288 <__floatsisf+0x6c>
    225c:	88 23       	and	r24, r24
    225e:	11 f0       	breq	.+4      	; 0x2264 <__floatsisf+0x48>
    2260:	96 e9       	ldi	r25, 0x96	; 150
    2262:	11 c0       	rjmp	.+34     	; 0x2286 <__floatsisf+0x6a>
    2264:	77 23       	and	r23, r23
    2266:	21 f0       	breq	.+8      	; 0x2270 <__floatsisf+0x54>
    2268:	9e e8       	ldi	r25, 0x8E	; 142
    226a:	87 2f       	mov	r24, r23
    226c:	76 2f       	mov	r23, r22
    226e:	05 c0       	rjmp	.+10     	; 0x227a <__floatsisf+0x5e>
    2270:	66 23       	and	r22, r22
    2272:	71 f0       	breq	.+28     	; 0x2290 <__floatsisf+0x74>
    2274:	96 e8       	ldi	r25, 0x86	; 134
    2276:	86 2f       	mov	r24, r22
    2278:	70 e0       	ldi	r23, 0x00	; 0
    227a:	60 e0       	ldi	r22, 0x00	; 0
    227c:	2a f0       	brmi	.+10     	; 0x2288 <__floatsisf+0x6c>
    227e:	9a 95       	dec	r25
    2280:	66 0f       	add	r22, r22
    2282:	77 1f       	adc	r23, r23
    2284:	88 1f       	adc	r24, r24
    2286:	da f7       	brpl	.-10     	; 0x227e <__floatsisf+0x62>
    2288:	88 0f       	add	r24, r24
    228a:	96 95       	lsr	r25
    228c:	87 95       	ror	r24
    228e:	97 f9       	bld	r25, 7
    2290:	08 95       	ret

00002292 <__fp_cmp>:
    2292:	99 0f       	add	r25, r25
    2294:	00 08       	sbc	r0, r0
    2296:	55 0f       	add	r21, r21
    2298:	aa 0b       	sbc	r26, r26
    229a:	e0 e8       	ldi	r30, 0x80	; 128
    229c:	fe ef       	ldi	r31, 0xFE	; 254
    229e:	16 16       	cp	r1, r22
    22a0:	17 06       	cpc	r1, r23
    22a2:	e8 07       	cpc	r30, r24
    22a4:	f9 07       	cpc	r31, r25
    22a6:	c0 f0       	brcs	.+48     	; 0x22d8 <__fp_cmp+0x46>
    22a8:	12 16       	cp	r1, r18
    22aa:	13 06       	cpc	r1, r19
    22ac:	e4 07       	cpc	r30, r20
    22ae:	f5 07       	cpc	r31, r21
    22b0:	98 f0       	brcs	.+38     	; 0x22d8 <__fp_cmp+0x46>
    22b2:	62 1b       	sub	r22, r18
    22b4:	73 0b       	sbc	r23, r19
    22b6:	84 0b       	sbc	r24, r20
    22b8:	95 0b       	sbc	r25, r21
    22ba:	39 f4       	brne	.+14     	; 0x22ca <__fp_cmp+0x38>
    22bc:	0a 26       	eor	r0, r26
    22be:	61 f0       	breq	.+24     	; 0x22d8 <__fp_cmp+0x46>
    22c0:	23 2b       	or	r18, r19
    22c2:	24 2b       	or	r18, r20
    22c4:	25 2b       	or	r18, r21
    22c6:	21 f4       	brne	.+8      	; 0x22d0 <__fp_cmp+0x3e>
    22c8:	08 95       	ret
    22ca:	0a 26       	eor	r0, r26
    22cc:	09 f4       	brne	.+2      	; 0x22d0 <__fp_cmp+0x3e>
    22ce:	a1 40       	sbci	r26, 0x01	; 1
    22d0:	a6 95       	lsr	r26
    22d2:	8f ef       	ldi	r24, 0xFF	; 255
    22d4:	81 1d       	adc	r24, r1
    22d6:	81 1d       	adc	r24, r1
    22d8:	08 95       	ret

000022da <__fp_inf>:
    22da:	97 f9       	bld	r25, 7
    22dc:	9f 67       	ori	r25, 0x7F	; 127
    22de:	80 e8       	ldi	r24, 0x80	; 128
    22e0:	70 e0       	ldi	r23, 0x00	; 0
    22e2:	60 e0       	ldi	r22, 0x00	; 0
    22e4:	08 95       	ret

000022e6 <__fp_nan>:
    22e6:	9f ef       	ldi	r25, 0xFF	; 255
    22e8:	80 ec       	ldi	r24, 0xC0	; 192
    22ea:	08 95       	ret

000022ec <__fp_pscA>:
    22ec:	00 24       	eor	r0, r0
    22ee:	0a 94       	dec	r0
    22f0:	16 16       	cp	r1, r22
    22f2:	17 06       	cpc	r1, r23
    22f4:	18 06       	cpc	r1, r24
    22f6:	09 06       	cpc	r0, r25
    22f8:	08 95       	ret

000022fa <__fp_pscB>:
    22fa:	00 24       	eor	r0, r0
    22fc:	0a 94       	dec	r0
    22fe:	12 16       	cp	r1, r18
    2300:	13 06       	cpc	r1, r19
    2302:	14 06       	cpc	r1, r20
    2304:	05 06       	cpc	r0, r21
    2306:	08 95       	ret

00002308 <__fp_round>:
    2308:	09 2e       	mov	r0, r25
    230a:	03 94       	inc	r0
    230c:	00 0c       	add	r0, r0
    230e:	11 f4       	brne	.+4      	; 0x2314 <__fp_round+0xc>
    2310:	88 23       	and	r24, r24
    2312:	52 f0       	brmi	.+20     	; 0x2328 <__fp_round+0x20>
    2314:	bb 0f       	add	r27, r27
    2316:	40 f4       	brcc	.+16     	; 0x2328 <__fp_round+0x20>
    2318:	bf 2b       	or	r27, r31
    231a:	11 f4       	brne	.+4      	; 0x2320 <__fp_round+0x18>
    231c:	60 ff       	sbrs	r22, 0
    231e:	04 c0       	rjmp	.+8      	; 0x2328 <__fp_round+0x20>
    2320:	6f 5f       	subi	r22, 0xFF	; 255
    2322:	7f 4f       	sbci	r23, 0xFF	; 255
    2324:	8f 4f       	sbci	r24, 0xFF	; 255
    2326:	9f 4f       	sbci	r25, 0xFF	; 255
    2328:	08 95       	ret

0000232a <__fp_split3>:
    232a:	57 fd       	sbrc	r21, 7
    232c:	90 58       	subi	r25, 0x80	; 128
    232e:	44 0f       	add	r20, r20
    2330:	55 1f       	adc	r21, r21
    2332:	59 f0       	breq	.+22     	; 0x234a <__fp_splitA+0x10>
    2334:	5f 3f       	cpi	r21, 0xFF	; 255
    2336:	71 f0       	breq	.+28     	; 0x2354 <__fp_splitA+0x1a>
    2338:	47 95       	ror	r20

0000233a <__fp_splitA>:
    233a:	88 0f       	add	r24, r24
    233c:	97 fb       	bst	r25, 7
    233e:	99 1f       	adc	r25, r25
    2340:	61 f0       	breq	.+24     	; 0x235a <__fp_splitA+0x20>
    2342:	9f 3f       	cpi	r25, 0xFF	; 255
    2344:	79 f0       	breq	.+30     	; 0x2364 <__fp_splitA+0x2a>
    2346:	87 95       	ror	r24
    2348:	08 95       	ret
    234a:	12 16       	cp	r1, r18
    234c:	13 06       	cpc	r1, r19
    234e:	14 06       	cpc	r1, r20
    2350:	55 1f       	adc	r21, r21
    2352:	f2 cf       	rjmp	.-28     	; 0x2338 <__fp_split3+0xe>
    2354:	46 95       	lsr	r20
    2356:	f1 df       	rcall	.-30     	; 0x233a <__fp_splitA>
    2358:	08 c0       	rjmp	.+16     	; 0x236a <__fp_splitA+0x30>
    235a:	16 16       	cp	r1, r22
    235c:	17 06       	cpc	r1, r23
    235e:	18 06       	cpc	r1, r24
    2360:	99 1f       	adc	r25, r25
    2362:	f1 cf       	rjmp	.-30     	; 0x2346 <__fp_splitA+0xc>
    2364:	86 95       	lsr	r24
    2366:	71 05       	cpc	r23, r1
    2368:	61 05       	cpc	r22, r1
    236a:	08 94       	sec
    236c:	08 95       	ret

0000236e <__fp_zero>:
    236e:	e8 94       	clt

00002370 <__fp_szero>:
    2370:	bb 27       	eor	r27, r27
    2372:	66 27       	eor	r22, r22
    2374:	77 27       	eor	r23, r23
    2376:	cb 01       	movw	r24, r22
    2378:	97 f9       	bld	r25, 7
    237a:	08 95       	ret

0000237c <__gesf2>:
    237c:	8a df       	rcall	.-236    	; 0x2292 <__fp_cmp>
    237e:	08 f4       	brcc	.+2      	; 0x2382 <__gesf2+0x6>
    2380:	8f ef       	ldi	r24, 0xFF	; 255
    2382:	08 95       	ret

00002384 <__mulsf3>:
    2384:	0b d0       	rcall	.+22     	; 0x239c <__mulsf3x>
    2386:	c0 cf       	rjmp	.-128    	; 0x2308 <__fp_round>
    2388:	b1 df       	rcall	.-158    	; 0x22ec <__fp_pscA>
    238a:	28 f0       	brcs	.+10     	; 0x2396 <__mulsf3+0x12>
    238c:	b6 df       	rcall	.-148    	; 0x22fa <__fp_pscB>
    238e:	18 f0       	brcs	.+6      	; 0x2396 <__mulsf3+0x12>
    2390:	95 23       	and	r25, r21
    2392:	09 f0       	breq	.+2      	; 0x2396 <__mulsf3+0x12>
    2394:	a2 cf       	rjmp	.-188    	; 0x22da <__fp_inf>
    2396:	a7 cf       	rjmp	.-178    	; 0x22e6 <__fp_nan>
    2398:	11 24       	eor	r1, r1
    239a:	ea cf       	rjmp	.-44     	; 0x2370 <__fp_szero>

0000239c <__mulsf3x>:
    239c:	c6 df       	rcall	.-116    	; 0x232a <__fp_split3>
    239e:	a0 f3       	brcs	.-24     	; 0x2388 <__mulsf3+0x4>

000023a0 <__mulsf3_pse>:
    23a0:	95 9f       	mul	r25, r21
    23a2:	d1 f3       	breq	.-12     	; 0x2398 <__mulsf3+0x14>
    23a4:	95 0f       	add	r25, r21
    23a6:	50 e0       	ldi	r21, 0x00	; 0
    23a8:	55 1f       	adc	r21, r21
    23aa:	62 9f       	mul	r22, r18
    23ac:	f0 01       	movw	r30, r0
    23ae:	72 9f       	mul	r23, r18
    23b0:	bb 27       	eor	r27, r27
    23b2:	f0 0d       	add	r31, r0
    23b4:	b1 1d       	adc	r27, r1
    23b6:	63 9f       	mul	r22, r19
    23b8:	aa 27       	eor	r26, r26
    23ba:	f0 0d       	add	r31, r0
    23bc:	b1 1d       	adc	r27, r1
    23be:	aa 1f       	adc	r26, r26
    23c0:	64 9f       	mul	r22, r20
    23c2:	66 27       	eor	r22, r22
    23c4:	b0 0d       	add	r27, r0
    23c6:	a1 1d       	adc	r26, r1
    23c8:	66 1f       	adc	r22, r22
    23ca:	82 9f       	mul	r24, r18
    23cc:	22 27       	eor	r18, r18
    23ce:	b0 0d       	add	r27, r0
    23d0:	a1 1d       	adc	r26, r1
    23d2:	62 1f       	adc	r22, r18
    23d4:	73 9f       	mul	r23, r19
    23d6:	b0 0d       	add	r27, r0
    23d8:	a1 1d       	adc	r26, r1
    23da:	62 1f       	adc	r22, r18
    23dc:	83 9f       	mul	r24, r19
    23de:	a0 0d       	add	r26, r0
    23e0:	61 1d       	adc	r22, r1
    23e2:	22 1f       	adc	r18, r18
    23e4:	74 9f       	mul	r23, r20
    23e6:	33 27       	eor	r19, r19
    23e8:	a0 0d       	add	r26, r0
    23ea:	61 1d       	adc	r22, r1
    23ec:	23 1f       	adc	r18, r19
    23ee:	84 9f       	mul	r24, r20
    23f0:	60 0d       	add	r22, r0
    23f2:	21 1d       	adc	r18, r1
    23f4:	82 2f       	mov	r24, r18
    23f6:	76 2f       	mov	r23, r22
    23f8:	6a 2f       	mov	r22, r26
    23fa:	11 24       	eor	r1, r1
    23fc:	9f 57       	subi	r25, 0x7F	; 127
    23fe:	50 40       	sbci	r21, 0x00	; 0
    2400:	8a f0       	brmi	.+34     	; 0x2424 <__mulsf3_pse+0x84>
    2402:	e1 f0       	breq	.+56     	; 0x243c <__mulsf3_pse+0x9c>
    2404:	88 23       	and	r24, r24
    2406:	4a f0       	brmi	.+18     	; 0x241a <__mulsf3_pse+0x7a>
    2408:	ee 0f       	add	r30, r30
    240a:	ff 1f       	adc	r31, r31
    240c:	bb 1f       	adc	r27, r27
    240e:	66 1f       	adc	r22, r22
    2410:	77 1f       	adc	r23, r23
    2412:	88 1f       	adc	r24, r24
    2414:	91 50       	subi	r25, 0x01	; 1
    2416:	50 40       	sbci	r21, 0x00	; 0
    2418:	a9 f7       	brne	.-22     	; 0x2404 <__mulsf3_pse+0x64>
    241a:	9e 3f       	cpi	r25, 0xFE	; 254
    241c:	51 05       	cpc	r21, r1
    241e:	70 f0       	brcs	.+28     	; 0x243c <__mulsf3_pse+0x9c>
    2420:	5c cf       	rjmp	.-328    	; 0x22da <__fp_inf>
    2422:	a6 cf       	rjmp	.-180    	; 0x2370 <__fp_szero>
    2424:	5f 3f       	cpi	r21, 0xFF	; 255
    2426:	ec f3       	brlt	.-6      	; 0x2422 <__mulsf3_pse+0x82>
    2428:	98 3e       	cpi	r25, 0xE8	; 232
    242a:	dc f3       	brlt	.-10     	; 0x2422 <__mulsf3_pse+0x82>
    242c:	86 95       	lsr	r24
    242e:	77 95       	ror	r23
    2430:	67 95       	ror	r22
    2432:	b7 95       	ror	r27
    2434:	f7 95       	ror	r31
    2436:	e7 95       	ror	r30
    2438:	9f 5f       	subi	r25, 0xFF	; 255
    243a:	c1 f7       	brne	.-16     	; 0x242c <__mulsf3_pse+0x8c>
    243c:	fe 2b       	or	r31, r30
    243e:	88 0f       	add	r24, r24
    2440:	91 1d       	adc	r25, r1
    2442:	96 95       	lsr	r25
    2444:	87 95       	ror	r24
    2446:	97 f9       	bld	r25, 7
    2448:	08 95       	ret

0000244a <_ZN14HardwareSerial9availableEv>:
    244a:	fc 01       	movw	r30, r24
    244c:	91 8d       	ldd	r25, Z+25	; 0x19
    244e:	22 8d       	ldd	r18, Z+26	; 0x1a
    2450:	89 2f       	mov	r24, r25
    2452:	90 e0       	ldi	r25, 0x00	; 0
    2454:	80 5c       	subi	r24, 0xC0	; 192
    2456:	9f 4f       	sbci	r25, 0xFF	; 255
    2458:	82 1b       	sub	r24, r18
    245a:	91 09       	sbc	r25, r1
    245c:	8f 73       	andi	r24, 0x3F	; 63
    245e:	99 27       	eor	r25, r25
    2460:	08 95       	ret

00002462 <_ZN14HardwareSerial4peekEv>:
    2462:	fc 01       	movw	r30, r24
    2464:	91 8d       	ldd	r25, Z+25	; 0x19
    2466:	82 8d       	ldd	r24, Z+26	; 0x1a
    2468:	98 17       	cp	r25, r24
    246a:	31 f0       	breq	.+12     	; 0x2478 <_ZN14HardwareSerial4peekEv+0x16>
    246c:	82 8d       	ldd	r24, Z+26	; 0x1a
    246e:	e8 0f       	add	r30, r24
    2470:	f1 1d       	adc	r31, r1
    2472:	85 8d       	ldd	r24, Z+29	; 0x1d
    2474:	90 e0       	ldi	r25, 0x00	; 0
    2476:	08 95       	ret
    2478:	8f ef       	ldi	r24, 0xFF	; 255
    247a:	9f ef       	ldi	r25, 0xFF	; 255
    247c:	08 95       	ret

0000247e <_ZN14HardwareSerial4readEv>:
    247e:	fc 01       	movw	r30, r24
    2480:	91 8d       	ldd	r25, Z+25	; 0x19
    2482:	82 8d       	ldd	r24, Z+26	; 0x1a
    2484:	98 17       	cp	r25, r24
    2486:	61 f0       	breq	.+24     	; 0x24a0 <_ZN14HardwareSerial4readEv+0x22>
    2488:	82 8d       	ldd	r24, Z+26	; 0x1a
    248a:	df 01       	movw	r26, r30
    248c:	a8 0f       	add	r26, r24
    248e:	b1 1d       	adc	r27, r1
    2490:	5d 96       	adiw	r26, 0x1d	; 29
    2492:	8c 91       	ld	r24, X
    2494:	92 8d       	ldd	r25, Z+26	; 0x1a
    2496:	9f 5f       	subi	r25, 0xFF	; 255
    2498:	9f 73       	andi	r25, 0x3F	; 63
    249a:	92 8f       	std	Z+26, r25	; 0x1a
    249c:	90 e0       	ldi	r25, 0x00	; 0
    249e:	08 95       	ret
    24a0:	8f ef       	ldi	r24, 0xFF	; 255
    24a2:	9f ef       	ldi	r25, 0xFF	; 255
    24a4:	08 95       	ret

000024a6 <_ZN14HardwareSerial17availableForWriteEv>:
    24a6:	fc 01       	movw	r30, r24
    24a8:	53 8d       	ldd	r21, Z+27	; 0x1b
    24aa:	44 8d       	ldd	r20, Z+28	; 0x1c
    24ac:	25 2f       	mov	r18, r21
    24ae:	30 e0       	ldi	r19, 0x00	; 0
    24b0:	84 2f       	mov	r24, r20
    24b2:	90 e0       	ldi	r25, 0x00	; 0
    24b4:	82 1b       	sub	r24, r18
    24b6:	93 0b       	sbc	r25, r19
    24b8:	54 17       	cp	r21, r20
    24ba:	10 f0       	brcs	.+4      	; 0x24c0 <_ZN14HardwareSerial17availableForWriteEv+0x1a>
    24bc:	cf 96       	adiw	r24, 0x3f	; 63
    24be:	08 95       	ret
    24c0:	01 97       	sbiw	r24, 0x01	; 1
    24c2:	08 95       	ret

000024c4 <_Z14serialEventRunv>:
    24c4:	8f ee       	ldi	r24, 0xEF	; 239
    24c6:	93 e1       	ldi	r25, 0x13	; 19
    24c8:	89 2b       	or	r24, r25
    24ca:	39 f0       	breq	.+14     	; 0x24da <_Z14serialEventRunv+0x16>
    24cc:	80 e0       	ldi	r24, 0x00	; 0
    24ce:	90 e0       	ldi	r25, 0x00	; 0
    24d0:	89 2b       	or	r24, r25
    24d2:	19 f0       	breq	.+6      	; 0x24da <_Z14serialEventRunv+0x16>
    24d4:	84 d1       	rcall	.+776    	; 0x27de <_Z17Serial0_availablev>
    24d6:	81 11       	cpse	r24, r1
    24d8:	22 c0       	rjmp	.+68     	; 0x251e <_Z14serialEventRunv+0x5a>
    24da:	84 e8       	ldi	r24, 0x84	; 132
    24dc:	94 e1       	ldi	r25, 0x14	; 20
    24de:	89 2b       	or	r24, r25
    24e0:	39 f0       	breq	.+14     	; 0x24f0 <_Z14serialEventRunv+0x2c>
    24e2:	80 e0       	ldi	r24, 0x00	; 0
    24e4:	90 e0       	ldi	r25, 0x00	; 0
    24e6:	89 2b       	or	r24, r25
    24e8:	19 f0       	breq	.+6      	; 0x24f0 <_Z14serialEventRunv+0x2c>
    24ea:	0e d2       	rcall	.+1052   	; 0x2908 <_Z17Serial1_availablev>
    24ec:	81 11       	cpse	r24, r1
    24ee:	1a c0       	rjmp	.+52     	; 0x2524 <_Z14serialEventRunv+0x60>
    24f0:	89 e1       	ldi	r24, 0x19	; 25
    24f2:	95 e1       	ldi	r25, 0x15	; 21
    24f4:	89 2b       	or	r24, r25
    24f6:	39 f0       	breq	.+14     	; 0x2506 <_Z14serialEventRunv+0x42>
    24f8:	80 e0       	ldi	r24, 0x00	; 0
    24fa:	90 e0       	ldi	r25, 0x00	; 0
    24fc:	89 2b       	or	r24, r25
    24fe:	19 f0       	breq	.+6      	; 0x2506 <_Z14serialEventRunv+0x42>
    2500:	98 d2       	rcall	.+1328   	; 0x2a32 <_Z17Serial2_availablev>
    2502:	81 11       	cpse	r24, r1
    2504:	12 c0       	rjmp	.+36     	; 0x252a <_Z14serialEventRunv+0x66>
    2506:	8e ea       	ldi	r24, 0xAE	; 174
    2508:	95 e1       	ldi	r25, 0x15	; 21
    250a:	89 2b       	or	r24, r25
    250c:	99 f0       	breq	.+38     	; 0x2534 <_Z14serialEventRunv+0x70>
    250e:	80 e0       	ldi	r24, 0x00	; 0
    2510:	90 e0       	ldi	r25, 0x00	; 0
    2512:	89 2b       	or	r24, r25
    2514:	79 f0       	breq	.+30     	; 0x2534 <_Z14serialEventRunv+0x70>
    2516:	22 d3       	rcall	.+1604   	; 0x2b5c <_Z17Serial3_availablev>
    2518:	81 11       	cpse	r24, r1
    251a:	0a c0       	rjmp	.+20     	; 0x2530 <_Z14serialEventRunv+0x6c>
    251c:	08 95       	ret
    251e:	0e 94 00 00 	call	0	; 0x0 <__vectors>
    2522:	db cf       	rjmp	.-74     	; 0x24da <_Z14serialEventRunv+0x16>
    2524:	0e 94 00 00 	call	0	; 0x0 <__vectors>
    2528:	e3 cf       	rjmp	.-58     	; 0x24f0 <_Z14serialEventRunv+0x2c>
    252a:	0e 94 00 00 	call	0	; 0x0 <__vectors>
    252e:	eb cf       	rjmp	.-42     	; 0x2506 <_Z14serialEventRunv+0x42>
    2530:	0c 94 00 00 	jmp	0	; 0x0 <__vectors>
    2534:	08 95       	ret

00002536 <_ZN14HardwareSerial17_tx_udr_empty_irqEv>:
    2536:	fc 01       	movw	r30, r24
    2538:	84 8d       	ldd	r24, Z+28	; 0x1c
    253a:	df 01       	movw	r26, r30
    253c:	a8 0f       	add	r26, r24
    253e:	b1 1d       	adc	r27, r1
    2540:	a3 5a       	subi	r26, 0xA3	; 163
    2542:	bf 4f       	sbci	r27, 0xFF	; 255
    2544:	2c 91       	ld	r18, X
    2546:	84 8d       	ldd	r24, Z+28	; 0x1c
    2548:	90 e0       	ldi	r25, 0x00	; 0
    254a:	01 96       	adiw	r24, 0x01	; 1
    254c:	8f 73       	andi	r24, 0x3F	; 63
    254e:	99 27       	eor	r25, r25
    2550:	84 8f       	std	Z+28, r24	; 0x1c
    2552:	a6 89       	ldd	r26, Z+22	; 0x16
    2554:	b7 89       	ldd	r27, Z+23	; 0x17
    2556:	2c 93       	st	X, r18
    2558:	a0 89       	ldd	r26, Z+16	; 0x10
    255a:	b1 89       	ldd	r27, Z+17	; 0x11
    255c:	8c 91       	ld	r24, X
    255e:	83 70       	andi	r24, 0x03	; 3
    2560:	80 64       	ori	r24, 0x40	; 64
    2562:	8c 93       	st	X, r24
    2564:	93 8d       	ldd	r25, Z+27	; 0x1b
    2566:	84 8d       	ldd	r24, Z+28	; 0x1c
    2568:	98 13       	cpse	r25, r24
    256a:	06 c0       	rjmp	.+12     	; 0x2578 <_ZN14HardwareSerial17_tx_udr_empty_irqEv+0x42>
    256c:	02 88       	ldd	r0, Z+18	; 0x12
    256e:	f3 89       	ldd	r31, Z+19	; 0x13
    2570:	e0 2d       	mov	r30, r0
    2572:	80 81       	ld	r24, Z
    2574:	8f 7d       	andi	r24, 0xDF	; 223
    2576:	80 83       	st	Z, r24
    2578:	08 95       	ret

0000257a <_ZN14HardwareSerial5writeEh>:
    257a:	ef 92       	push	r14
    257c:	ff 92       	push	r15
    257e:	0f 93       	push	r16
    2580:	1f 93       	push	r17
    2582:	cf 93       	push	r28
    2584:	df 93       	push	r29
    2586:	ec 01       	movw	r28, r24
    2588:	81 e0       	ldi	r24, 0x01	; 1
    258a:	88 8f       	std	Y+24, r24	; 0x18
    258c:	9b 8d       	ldd	r25, Y+27	; 0x1b
    258e:	8c 8d       	ldd	r24, Y+28	; 0x1c
    2590:	98 13       	cpse	r25, r24
    2592:	05 c0       	rjmp	.+10     	; 0x259e <_ZN14HardwareSerial5writeEh+0x24>
    2594:	e8 89       	ldd	r30, Y+16	; 0x10
    2596:	f9 89       	ldd	r31, Y+17	; 0x11
    2598:	80 81       	ld	r24, Z
    259a:	85 fd       	sbrc	r24, 5
    259c:	25 c0       	rjmp	.+74     	; 0x25e8 <_ZN14HardwareSerial5writeEh+0x6e>
    259e:	f6 2e       	mov	r15, r22
    25a0:	0b 8d       	ldd	r16, Y+27	; 0x1b
    25a2:	10 e0       	ldi	r17, 0x00	; 0
    25a4:	0f 5f       	subi	r16, 0xFF	; 255
    25a6:	1f 4f       	sbci	r17, 0xFF	; 255
    25a8:	0f 73       	andi	r16, 0x3F	; 63
    25aa:	11 27       	eor	r17, r17
    25ac:	e0 2e       	mov	r14, r16
    25ae:	8c 8d       	ldd	r24, Y+28	; 0x1c
    25b0:	e8 12       	cpse	r14, r24
    25b2:	0b c0       	rjmp	.+22     	; 0x25ca <_ZN14HardwareSerial5writeEh+0x50>
    25b4:	0f b6       	in	r0, 0x3f	; 63
    25b6:	07 fc       	sbrc	r0, 7
    25b8:	fa cf       	rjmp	.-12     	; 0x25ae <_ZN14HardwareSerial5writeEh+0x34>
    25ba:	e8 89       	ldd	r30, Y+16	; 0x10
    25bc:	f9 89       	ldd	r31, Y+17	; 0x11
    25be:	80 81       	ld	r24, Z
    25c0:	85 ff       	sbrs	r24, 5
    25c2:	f5 cf       	rjmp	.-22     	; 0x25ae <_ZN14HardwareSerial5writeEh+0x34>
    25c4:	ce 01       	movw	r24, r28
    25c6:	b7 df       	rcall	.-146    	; 0x2536 <_ZN14HardwareSerial17_tx_udr_empty_irqEv>
    25c8:	f2 cf       	rjmp	.-28     	; 0x25ae <_ZN14HardwareSerial5writeEh+0x34>
    25ca:	8b 8d       	ldd	r24, Y+27	; 0x1b
    25cc:	fe 01       	movw	r30, r28
    25ce:	e8 0f       	add	r30, r24
    25d0:	f1 1d       	adc	r31, r1
    25d2:	e3 5a       	subi	r30, 0xA3	; 163
    25d4:	ff 4f       	sbci	r31, 0xFF	; 255
    25d6:	f0 82       	st	Z, r15
    25d8:	9f b7       	in	r25, 0x3f	; 63
    return 1;
}

static __inline__ uint8_t __iCliRetVal(void)
{
    cli();
    25da:	f8 94       	cli
    25dc:	0b 8f       	std	Y+27, r16	; 0x1b
    25de:	ea 89       	ldd	r30, Y+18	; 0x12
    25e0:	fb 89       	ldd	r31, Y+19	; 0x13
    25e2:	80 81       	ld	r24, Z
    25e4:	80 62       	ori	r24, 0x20	; 32
    25e6:	0a c0       	rjmp	.+20     	; 0x25fc <_ZN14HardwareSerial5writeEh+0x82>
    25e8:	9f b7       	in	r25, 0x3f	; 63
    25ea:	f8 94       	cli
    25ec:	ee 89       	ldd	r30, Y+22	; 0x16
    25ee:	ff 89       	ldd	r31, Y+23	; 0x17
    25f0:	60 83       	st	Z, r22
    25f2:	e8 89       	ldd	r30, Y+16	; 0x10
    25f4:	f9 89       	ldd	r31, Y+17	; 0x11
    25f6:	80 81       	ld	r24, Z
    25f8:	83 70       	andi	r24, 0x03	; 3
    25fa:	80 64       	ori	r24, 0x40	; 64
    25fc:	80 83       	st	Z, r24
    (void)__s;
}

static __inline__ void __iRestore(const  uint8_t *__s)
{
    SREG = *__s;
    25fe:	9f bf       	out	0x3f, r25	; 63
    2600:	81 e0       	ldi	r24, 0x01	; 1
    2602:	90 e0       	ldi	r25, 0x00	; 0
    2604:	df 91       	pop	r29
    2606:	cf 91       	pop	r28
    2608:	1f 91       	pop	r17
    260a:	0f 91       	pop	r16
    260c:	ff 90       	pop	r15
    260e:	ef 90       	pop	r14
    2610:	08 95       	ret

00002612 <_ZN14HardwareSerial5flushEv>:
    2612:	cf 93       	push	r28
    2614:	df 93       	push	r29
    2616:	ec 01       	movw	r28, r24
    2618:	88 8d       	ldd	r24, Y+24	; 0x18
    261a:	88 23       	and	r24, r24
    261c:	c1 f0       	breq	.+48     	; 0x264e <_ZN14HardwareSerial5flushEv+0x3c>
    261e:	ea 89       	ldd	r30, Y+18	; 0x12
    2620:	fb 89       	ldd	r31, Y+19	; 0x13
    2622:	80 81       	ld	r24, Z
    2624:	85 fd       	sbrc	r24, 5
    2626:	05 c0       	rjmp	.+10     	; 0x2632 <_ZN14HardwareSerial5flushEv+0x20>
    2628:	a8 89       	ldd	r26, Y+16	; 0x10
    262a:	b9 89       	ldd	r27, Y+17	; 0x11
    262c:	8c 91       	ld	r24, X
    262e:	86 fd       	sbrc	r24, 6
    2630:	0e c0       	rjmp	.+28     	; 0x264e <_ZN14HardwareSerial5flushEv+0x3c>
    2632:	0f b6       	in	r0, 0x3f	; 63
    2634:	07 fc       	sbrc	r0, 7
    2636:	f5 cf       	rjmp	.-22     	; 0x2622 <_ZN14HardwareSerial5flushEv+0x10>
    2638:	80 81       	ld	r24, Z
    263a:	85 ff       	sbrs	r24, 5
    263c:	f2 cf       	rjmp	.-28     	; 0x2622 <_ZN14HardwareSerial5flushEv+0x10>
    263e:	a8 89       	ldd	r26, Y+16	; 0x10
    2640:	b9 89       	ldd	r27, Y+17	; 0x11
    2642:	8c 91       	ld	r24, X
    2644:	85 ff       	sbrs	r24, 5
    2646:	ed cf       	rjmp	.-38     	; 0x2622 <_ZN14HardwareSerial5flushEv+0x10>
    2648:	ce 01       	movw	r24, r28
    264a:	75 df       	rcall	.-278    	; 0x2536 <_ZN14HardwareSerial17_tx_udr_empty_irqEv>
    264c:	e8 cf       	rjmp	.-48     	; 0x261e <_ZN14HardwareSerial5flushEv+0xc>
    264e:	df 91       	pop	r29
    2650:	cf 91       	pop	r28
    2652:	08 95       	ret

00002654 <_ZN14HardwareSerial5beginEmh>:
    2654:	cf 92       	push	r12
    2656:	df 92       	push	r13
    2658:	ef 92       	push	r14
    265a:	ff 92       	push	r15
    265c:	1f 93       	push	r17
    265e:	cf 93       	push	r28
    2660:	df 93       	push	r29
    2662:	ec 01       	movw	r28, r24
    2664:	6a 01       	movw	r12, r20
    2666:	7b 01       	movw	r14, r22
    2668:	12 2f       	mov	r17, r18
    266a:	e8 89       	ldd	r30, Y+16	; 0x10
    266c:	f9 89       	ldd	r31, Y+17	; 0x11
    266e:	82 e0       	ldi	r24, 0x02	; 2
    2670:	80 83       	st	Z, r24
    2672:	41 15       	cp	r20, r1
    2674:	51 4e       	sbci	r21, 0xE1	; 225
    2676:	61 05       	cpc	r22, r1
    2678:	71 05       	cpc	r23, r1
    267a:	b1 f0       	breq	.+44     	; 0x26a8 <_ZN14HardwareSerial5beginEmh+0x54>
    267c:	60 e0       	ldi	r22, 0x00	; 0
    267e:	79 e0       	ldi	r23, 0x09	; 9
    2680:	8d e3       	ldi	r24, 0x3D	; 61
    2682:	90 e0       	ldi	r25, 0x00	; 0
    2684:	a7 01       	movw	r20, r14
    2686:	96 01       	movw	r18, r12
    2688:	0e 94 55 40 	call	0x80aa	; 0x80aa <__udivmodsi4>
    268c:	da 01       	movw	r26, r20
    268e:	c9 01       	movw	r24, r18
    2690:	01 97       	sbiw	r24, 0x01	; 1
    2692:	a1 09       	sbc	r26, r1
    2694:	b1 09       	sbc	r27, r1
    2696:	b6 95       	lsr	r27
    2698:	a7 95       	ror	r26
    269a:	97 95       	ror	r25
    269c:	87 95       	ror	r24
    269e:	9c 01       	movw	r18, r24
    26a0:	21 15       	cp	r18, r1
    26a2:	80 e1       	ldi	r24, 0x10	; 16
    26a4:	38 07       	cpc	r19, r24
    26a6:	a8 f0       	brcs	.+42     	; 0x26d2 <_ZN14HardwareSerial5beginEmh+0x7e>
    26a8:	e8 89       	ldd	r30, Y+16	; 0x10
    26aa:	f9 89       	ldd	r31, Y+17	; 0x11
    26ac:	10 82       	st	Z, r1
    26ae:	60 e8       	ldi	r22, 0x80	; 128
    26b0:	74 e8       	ldi	r23, 0x84	; 132
    26b2:	8e e1       	ldi	r24, 0x1E	; 30
    26b4:	90 e0       	ldi	r25, 0x00	; 0
    26b6:	a7 01       	movw	r20, r14
    26b8:	96 01       	movw	r18, r12
    26ba:	0e 94 55 40 	call	0x80aa	; 0x80aa <__udivmodsi4>
    26be:	da 01       	movw	r26, r20
    26c0:	c9 01       	movw	r24, r18
    26c2:	01 97       	sbiw	r24, 0x01	; 1
    26c4:	a1 09       	sbc	r26, r1
    26c6:	b1 09       	sbc	r27, r1
    26c8:	b6 95       	lsr	r27
    26ca:	a7 95       	ror	r26
    26cc:	97 95       	ror	r25
    26ce:	87 95       	ror	r24
    26d0:	9c 01       	movw	r18, r24
    26d2:	ec 85       	ldd	r30, Y+12	; 0x0c
    26d4:	fd 85       	ldd	r31, Y+13	; 0x0d
    26d6:	30 83       	st	Z, r19
    26d8:	ee 85       	ldd	r30, Y+14	; 0x0e
    26da:	ff 85       	ldd	r31, Y+15	; 0x0f
    26dc:	20 83       	st	Z, r18
    26de:	18 8e       	std	Y+24, r1	; 0x18
    26e0:	ec 89       	ldd	r30, Y+20	; 0x14
    26e2:	fd 89       	ldd	r31, Y+21	; 0x15
    26e4:	10 83       	st	Z, r17
    26e6:	ea 89       	ldd	r30, Y+18	; 0x12
    26e8:	fb 89       	ldd	r31, Y+19	; 0x13
    26ea:	80 81       	ld	r24, Z
    26ec:	80 61       	ori	r24, 0x10	; 16
    26ee:	80 83       	st	Z, r24
    26f0:	ea 89       	ldd	r30, Y+18	; 0x12
    26f2:	fb 89       	ldd	r31, Y+19	; 0x13
    26f4:	80 81       	ld	r24, Z
    26f6:	88 60       	ori	r24, 0x08	; 8
    26f8:	80 83       	st	Z, r24
    26fa:	ea 89       	ldd	r30, Y+18	; 0x12
    26fc:	fb 89       	ldd	r31, Y+19	; 0x13
    26fe:	80 81       	ld	r24, Z
    2700:	80 68       	ori	r24, 0x80	; 128
    2702:	80 83       	st	Z, r24
    2704:	ea 89       	ldd	r30, Y+18	; 0x12
    2706:	fb 89       	ldd	r31, Y+19	; 0x13
    2708:	80 81       	ld	r24, Z
    270a:	8f 7d       	andi	r24, 0xDF	; 223
    270c:	80 83       	st	Z, r24
    270e:	df 91       	pop	r29
    2710:	cf 91       	pop	r28
    2712:	1f 91       	pop	r17
    2714:	ff 90       	pop	r15
    2716:	ef 90       	pop	r14
    2718:	df 90       	pop	r13
    271a:	cf 90       	pop	r12
    271c:	08 95       	ret

0000271e <_ZN5Print5flushEv>:
    271e:	08 95       	ret

00002720 <__vector_25>:
    2720:	1f 92       	push	r1
    2722:	0f 92       	push	r0
    2724:	0f b6       	in	r0, 0x3f	; 63
    2726:	0f 92       	push	r0
    2728:	11 24       	eor	r1, r1
    272a:	0b b6       	in	r0, 0x3b	; 59
    272c:	0f 92       	push	r0
    272e:	2f 93       	push	r18
    2730:	8f 93       	push	r24
    2732:	9f 93       	push	r25
    2734:	ef 93       	push	r30
    2736:	ff 93       	push	r31
    2738:	e0 91 62 0e 	lds	r30, 0x0E62	; 0x800e62 <Serial+0x10>
    273c:	f0 91 63 0e 	lds	r31, 0x0E63	; 0x800e63 <Serial+0x11>
    2740:	80 81       	ld	r24, Z
    2742:	e0 91 68 0e 	lds	r30, 0x0E68	; 0x800e68 <Serial+0x16>
    2746:	f0 91 69 0e 	lds	r31, 0x0E69	; 0x800e69 <Serial+0x17>
    274a:	82 fd       	sbrc	r24, 2
    274c:	12 c0       	rjmp	.+36     	; 0x2772 <__vector_25+0x52>
    274e:	90 81       	ld	r25, Z
    2750:	80 91 6b 0e 	lds	r24, 0x0E6B	; 0x800e6b <Serial+0x19>
    2754:	8f 5f       	subi	r24, 0xFF	; 255
    2756:	8f 73       	andi	r24, 0x3F	; 63
    2758:	20 91 6c 0e 	lds	r18, 0x0E6C	; 0x800e6c <Serial+0x1a>
    275c:	82 17       	cp	r24, r18
    275e:	51 f0       	breq	.+20     	; 0x2774 <__vector_25+0x54>
    2760:	e0 91 6b 0e 	lds	r30, 0x0E6B	; 0x800e6b <Serial+0x19>
    2764:	f0 e0       	ldi	r31, 0x00	; 0
    2766:	ee 5a       	subi	r30, 0xAE	; 174
    2768:	f1 4f       	sbci	r31, 0xF1	; 241
    276a:	95 8f       	std	Z+29, r25	; 0x1d
    276c:	80 93 6b 0e 	sts	0x0E6B, r24	; 0x800e6b <Serial+0x19>
    2770:	01 c0       	rjmp	.+2      	; 0x2774 <__vector_25+0x54>
    2772:	80 81       	ld	r24, Z
    2774:	ff 91       	pop	r31
    2776:	ef 91       	pop	r30
    2778:	9f 91       	pop	r25
    277a:	8f 91       	pop	r24
    277c:	2f 91       	pop	r18
    277e:	0f 90       	pop	r0
    2780:	0b be       	out	0x3b, r0	; 59
    2782:	0f 90       	pop	r0
    2784:	0f be       	out	0x3f, r0	; 63
    2786:	0f 90       	pop	r0
    2788:	1f 90       	pop	r1
    278a:	18 95       	reti

0000278c <__vector_26>:
    278c:	1f 92       	push	r1
    278e:	0f 92       	push	r0
    2790:	0f b6       	in	r0, 0x3f	; 63
    2792:	0f 92       	push	r0
    2794:	11 24       	eor	r1, r1
    2796:	0b b6       	in	r0, 0x3b	; 59
    2798:	0f 92       	push	r0
    279a:	2f 93       	push	r18
    279c:	3f 93       	push	r19
    279e:	4f 93       	push	r20
    27a0:	5f 93       	push	r21
    27a2:	6f 93       	push	r22
    27a4:	7f 93       	push	r23
    27a6:	8f 93       	push	r24
    27a8:	9f 93       	push	r25
    27aa:	af 93       	push	r26
    27ac:	bf 93       	push	r27
    27ae:	ef 93       	push	r30
    27b0:	ff 93       	push	r31
    27b2:	82 e5       	ldi	r24, 0x52	; 82
    27b4:	9e e0       	ldi	r25, 0x0E	; 14
    27b6:	bf de       	rcall	.-642    	; 0x2536 <_ZN14HardwareSerial17_tx_udr_empty_irqEv>
    27b8:	ff 91       	pop	r31
    27ba:	ef 91       	pop	r30
    27bc:	bf 91       	pop	r27
    27be:	af 91       	pop	r26
    27c0:	9f 91       	pop	r25
    27c2:	8f 91       	pop	r24
    27c4:	7f 91       	pop	r23
    27c6:	6f 91       	pop	r22
    27c8:	5f 91       	pop	r21
    27ca:	4f 91       	pop	r20
    27cc:	3f 91       	pop	r19
    27ce:	2f 91       	pop	r18
    27d0:	0f 90       	pop	r0
    27d2:	0b be       	out	0x3b, r0	; 59
    27d4:	0f 90       	pop	r0
    27d6:	0f be       	out	0x3f, r0	; 63
    27d8:	0f 90       	pop	r0
    27da:	1f 90       	pop	r1
    27dc:	18 95       	reti

000027de <_Z17Serial0_availablev>:
    27de:	82 e5       	ldi	r24, 0x52	; 82
    27e0:	9e e0       	ldi	r25, 0x0E	; 14
    27e2:	33 de       	rcall	.-922    	; 0x244a <_ZN14HardwareSerial9availableEv>
    27e4:	21 e0       	ldi	r18, 0x01	; 1
    27e6:	89 2b       	or	r24, r25
    27e8:	09 f4       	brne	.+2      	; 0x27ec <_Z17Serial0_availablev+0xe>
    27ea:	20 e0       	ldi	r18, 0x00	; 0
    27ec:	82 2f       	mov	r24, r18
    27ee:	08 95       	ret

000027f0 <_GLOBAL__sub_I___vector_25>:
    27f0:	e2 e5       	ldi	r30, 0x52	; 82
    27f2:	fe e0       	ldi	r31, 0x0E	; 14
    27f4:	13 82       	std	Z+3, r1	; 0x03
    27f6:	12 82       	std	Z+2, r1	; 0x02
    27f8:	88 ee       	ldi	r24, 0xE8	; 232
    27fa:	93 e0       	ldi	r25, 0x03	; 3
    27fc:	a0 e0       	ldi	r26, 0x00	; 0
    27fe:	b0 e0       	ldi	r27, 0x00	; 0
    2800:	84 83       	std	Z+4, r24	; 0x04
    2802:	95 83       	std	Z+5, r25	; 0x05
    2804:	a6 83       	std	Z+6, r26	; 0x06
    2806:	b7 83       	std	Z+7, r27	; 0x07
    2808:	87 ee       	ldi	r24, 0xE7	; 231
    280a:	95 e0       	ldi	r25, 0x05	; 5
    280c:	91 83       	std	Z+1, r25	; 0x01
    280e:	80 83       	st	Z, r24
    2810:	85 ec       	ldi	r24, 0xC5	; 197
    2812:	90 e0       	ldi	r25, 0x00	; 0
    2814:	95 87       	std	Z+13, r25	; 0x0d
    2816:	84 87       	std	Z+12, r24	; 0x0c
    2818:	84 ec       	ldi	r24, 0xC4	; 196
    281a:	90 e0       	ldi	r25, 0x00	; 0
    281c:	97 87       	std	Z+15, r25	; 0x0f
    281e:	86 87       	std	Z+14, r24	; 0x0e
    2820:	80 ec       	ldi	r24, 0xC0	; 192
    2822:	90 e0       	ldi	r25, 0x00	; 0
    2824:	91 8b       	std	Z+17, r25	; 0x11
    2826:	80 8b       	std	Z+16, r24	; 0x10
    2828:	81 ec       	ldi	r24, 0xC1	; 193
    282a:	90 e0       	ldi	r25, 0x00	; 0
    282c:	93 8b       	std	Z+19, r25	; 0x13
    282e:	82 8b       	std	Z+18, r24	; 0x12
    2830:	82 ec       	ldi	r24, 0xC2	; 194
    2832:	90 e0       	ldi	r25, 0x00	; 0
    2834:	95 8b       	std	Z+21, r25	; 0x15
    2836:	84 8b       	std	Z+20, r24	; 0x14
    2838:	86 ec       	ldi	r24, 0xC6	; 198
    283a:	90 e0       	ldi	r25, 0x00	; 0
    283c:	97 8b       	std	Z+23, r25	; 0x17
    283e:	86 8b       	std	Z+22, r24	; 0x16
    2840:	11 8e       	std	Z+25, r1	; 0x19
    2842:	12 8e       	std	Z+26, r1	; 0x1a
    2844:	13 8e       	std	Z+27, r1	; 0x1b
    2846:	14 8e       	std	Z+28, r1	; 0x1c
    2848:	08 95       	ret

0000284a <__vector_36>:
    284a:	1f 92       	push	r1
    284c:	0f 92       	push	r0
    284e:	0f b6       	in	r0, 0x3f	; 63
    2850:	0f 92       	push	r0
    2852:	11 24       	eor	r1, r1
    2854:	0b b6       	in	r0, 0x3b	; 59
    2856:	0f 92       	push	r0
    2858:	2f 93       	push	r18
    285a:	8f 93       	push	r24
    285c:	9f 93       	push	r25
    285e:	ef 93       	push	r30
    2860:	ff 93       	push	r31
    2862:	e0 91 ff 0e 	lds	r30, 0x0EFF	; 0x800eff <Serial1+0x10>
    2866:	f0 91 00 0f 	lds	r31, 0x0F00	; 0x800f00 <Serial1+0x11>
    286a:	80 81       	ld	r24, Z
    286c:	e0 91 05 0f 	lds	r30, 0x0F05	; 0x800f05 <Serial1+0x16>
    2870:	f0 91 06 0f 	lds	r31, 0x0F06	; 0x800f06 <Serial1+0x17>
    2874:	82 fd       	sbrc	r24, 2
    2876:	12 c0       	rjmp	.+36     	; 0x289c <__vector_36+0x52>
    2878:	90 81       	ld	r25, Z
    287a:	80 91 08 0f 	lds	r24, 0x0F08	; 0x800f08 <Serial1+0x19>
    287e:	8f 5f       	subi	r24, 0xFF	; 255
    2880:	8f 73       	andi	r24, 0x3F	; 63
    2882:	20 91 09 0f 	lds	r18, 0x0F09	; 0x800f09 <Serial1+0x1a>
    2886:	82 17       	cp	r24, r18
    2888:	51 f0       	breq	.+20     	; 0x289e <__vector_36+0x54>
    288a:	e0 91 08 0f 	lds	r30, 0x0F08	; 0x800f08 <Serial1+0x19>
    288e:	f0 e0       	ldi	r31, 0x00	; 0
    2890:	e1 51       	subi	r30, 0x11	; 17
    2892:	f1 4f       	sbci	r31, 0xF1	; 241
    2894:	95 8f       	std	Z+29, r25	; 0x1d
    2896:	80 93 08 0f 	sts	0x0F08, r24	; 0x800f08 <Serial1+0x19>
    289a:	01 c0       	rjmp	.+2      	; 0x289e <__vector_36+0x54>
    289c:	80 81       	ld	r24, Z
    289e:	ff 91       	pop	r31
    28a0:	ef 91       	pop	r30
    28a2:	9f 91       	pop	r25
    28a4:	8f 91       	pop	r24
    28a6:	2f 91       	pop	r18
    28a8:	0f 90       	pop	r0
    28aa:	0b be       	out	0x3b, r0	; 59
    28ac:	0f 90       	pop	r0
    28ae:	0f be       	out	0x3f, r0	; 63
    28b0:	0f 90       	pop	r0
    28b2:	1f 90       	pop	r1
    28b4:	18 95       	reti

000028b6 <__vector_37>:
    28b6:	1f 92       	push	r1
    28b8:	0f 92       	push	r0
    28ba:	0f b6       	in	r0, 0x3f	; 63
    28bc:	0f 92       	push	r0
    28be:	11 24       	eor	r1, r1
    28c0:	0b b6       	in	r0, 0x3b	; 59
    28c2:	0f 92       	push	r0
    28c4:	2f 93       	push	r18
    28c6:	3f 93       	push	r19
    28c8:	4f 93       	push	r20
    28ca:	5f 93       	push	r21
    28cc:	6f 93       	push	r22
    28ce:	7f 93       	push	r23
    28d0:	8f 93       	push	r24
    28d2:	9f 93       	push	r25
    28d4:	af 93       	push	r26
    28d6:	bf 93       	push	r27
    28d8:	ef 93       	push	r30
    28da:	ff 93       	push	r31
    28dc:	8f ee       	ldi	r24, 0xEF	; 239
    28de:	9e e0       	ldi	r25, 0x0E	; 14
    28e0:	2a de       	rcall	.-940    	; 0x2536 <_ZN14HardwareSerial17_tx_udr_empty_irqEv>
    28e2:	ff 91       	pop	r31
    28e4:	ef 91       	pop	r30
    28e6:	bf 91       	pop	r27
    28e8:	af 91       	pop	r26
    28ea:	9f 91       	pop	r25
    28ec:	8f 91       	pop	r24
    28ee:	7f 91       	pop	r23
    28f0:	6f 91       	pop	r22
    28f2:	5f 91       	pop	r21
    28f4:	4f 91       	pop	r20
    28f6:	3f 91       	pop	r19
    28f8:	2f 91       	pop	r18
    28fa:	0f 90       	pop	r0
    28fc:	0b be       	out	0x3b, r0	; 59
    28fe:	0f 90       	pop	r0
    2900:	0f be       	out	0x3f, r0	; 63
    2902:	0f 90       	pop	r0
    2904:	1f 90       	pop	r1
    2906:	18 95       	reti

00002908 <_Z17Serial1_availablev>:
    2908:	8f ee       	ldi	r24, 0xEF	; 239
    290a:	9e e0       	ldi	r25, 0x0E	; 14
    290c:	9e dd       	rcall	.-1220   	; 0x244a <_ZN14HardwareSerial9availableEv>
    290e:	21 e0       	ldi	r18, 0x01	; 1
    2910:	89 2b       	or	r24, r25
    2912:	09 f4       	brne	.+2      	; 0x2916 <_Z17Serial1_availablev+0xe>
    2914:	20 e0       	ldi	r18, 0x00	; 0
    2916:	82 2f       	mov	r24, r18
    2918:	08 95       	ret

0000291a <_GLOBAL__sub_I___vector_36>:
    291a:	ef ee       	ldi	r30, 0xEF	; 239
    291c:	fe e0       	ldi	r31, 0x0E	; 14
    291e:	13 82       	std	Z+3, r1	; 0x03
    2920:	12 82       	std	Z+2, r1	; 0x02
    2922:	88 ee       	ldi	r24, 0xE8	; 232
    2924:	93 e0       	ldi	r25, 0x03	; 3
    2926:	a0 e0       	ldi	r26, 0x00	; 0
    2928:	b0 e0       	ldi	r27, 0x00	; 0
    292a:	84 83       	std	Z+4, r24	; 0x04
    292c:	95 83       	std	Z+5, r25	; 0x05
    292e:	a6 83       	std	Z+6, r26	; 0x06
    2930:	b7 83       	std	Z+7, r27	; 0x07
    2932:	87 ee       	ldi	r24, 0xE7	; 231
    2934:	95 e0       	ldi	r25, 0x05	; 5
    2936:	91 83       	std	Z+1, r25	; 0x01
    2938:	80 83       	st	Z, r24
    293a:	8d ec       	ldi	r24, 0xCD	; 205
    293c:	90 e0       	ldi	r25, 0x00	; 0
    293e:	95 87       	std	Z+13, r25	; 0x0d
    2940:	84 87       	std	Z+12, r24	; 0x0c
    2942:	8c ec       	ldi	r24, 0xCC	; 204
    2944:	90 e0       	ldi	r25, 0x00	; 0
    2946:	97 87       	std	Z+15, r25	; 0x0f
    2948:	86 87       	std	Z+14, r24	; 0x0e
    294a:	88 ec       	ldi	r24, 0xC8	; 200
    294c:	90 e0       	ldi	r25, 0x00	; 0
    294e:	91 8b       	std	Z+17, r25	; 0x11
    2950:	80 8b       	std	Z+16, r24	; 0x10
    2952:	89 ec       	ldi	r24, 0xC9	; 201
    2954:	90 e0       	ldi	r25, 0x00	; 0
    2956:	93 8b       	std	Z+19, r25	; 0x13
    2958:	82 8b       	std	Z+18, r24	; 0x12
    295a:	8a ec       	ldi	r24, 0xCA	; 202
    295c:	90 e0       	ldi	r25, 0x00	; 0
    295e:	95 8b       	std	Z+21, r25	; 0x15
    2960:	84 8b       	std	Z+20, r24	; 0x14
    2962:	8e ec       	ldi	r24, 0xCE	; 206
    2964:	90 e0       	ldi	r25, 0x00	; 0
    2966:	97 8b       	std	Z+23, r25	; 0x17
    2968:	86 8b       	std	Z+22, r24	; 0x16
    296a:	11 8e       	std	Z+25, r1	; 0x19
    296c:	12 8e       	std	Z+26, r1	; 0x1a
    296e:	13 8e       	std	Z+27, r1	; 0x1b
    2970:	14 8e       	std	Z+28, r1	; 0x1c
    2972:	08 95       	ret

00002974 <__vector_51>:
    2974:	1f 92       	push	r1
    2976:	0f 92       	push	r0
    2978:	0f b6       	in	r0, 0x3f	; 63
    297a:	0f 92       	push	r0
    297c:	11 24       	eor	r1, r1
    297e:	0b b6       	in	r0, 0x3b	; 59
    2980:	0f 92       	push	r0
    2982:	2f 93       	push	r18
    2984:	8f 93       	push	r24
    2986:	9f 93       	push	r25
    2988:	ef 93       	push	r30
    298a:	ff 93       	push	r31
    298c:	e0 91 9c 0f 	lds	r30, 0x0F9C	; 0x800f9c <Serial2+0x10>
    2990:	f0 91 9d 0f 	lds	r31, 0x0F9D	; 0x800f9d <Serial2+0x11>
    2994:	80 81       	ld	r24, Z
    2996:	e0 91 a2 0f 	lds	r30, 0x0FA2	; 0x800fa2 <Serial2+0x16>
    299a:	f0 91 a3 0f 	lds	r31, 0x0FA3	; 0x800fa3 <Serial2+0x17>
    299e:	82 fd       	sbrc	r24, 2
    29a0:	12 c0       	rjmp	.+36     	; 0x29c6 <__vector_51+0x52>
    29a2:	90 81       	ld	r25, Z
    29a4:	80 91 a5 0f 	lds	r24, 0x0FA5	; 0x800fa5 <Serial2+0x19>
    29a8:	8f 5f       	subi	r24, 0xFF	; 255
    29aa:	8f 73       	andi	r24, 0x3F	; 63
    29ac:	20 91 a6 0f 	lds	r18, 0x0FA6	; 0x800fa6 <Serial2+0x1a>
    29b0:	82 17       	cp	r24, r18
    29b2:	51 f0       	breq	.+20     	; 0x29c8 <__vector_51+0x54>
    29b4:	e0 91 a5 0f 	lds	r30, 0x0FA5	; 0x800fa5 <Serial2+0x19>
    29b8:	f0 e0       	ldi	r31, 0x00	; 0
    29ba:	e4 57       	subi	r30, 0x74	; 116
    29bc:	f0 4f       	sbci	r31, 0xF0	; 240
    29be:	95 8f       	std	Z+29, r25	; 0x1d
    29c0:	80 93 a5 0f 	sts	0x0FA5, r24	; 0x800fa5 <Serial2+0x19>
    29c4:	01 c0       	rjmp	.+2      	; 0x29c8 <__vector_51+0x54>
    29c6:	80 81       	ld	r24, Z
    29c8:	ff 91       	pop	r31
    29ca:	ef 91       	pop	r30
    29cc:	9f 91       	pop	r25
    29ce:	8f 91       	pop	r24
    29d0:	2f 91       	pop	r18
    29d2:	0f 90       	pop	r0
    29d4:	0b be       	out	0x3b, r0	; 59
    29d6:	0f 90       	pop	r0
    29d8:	0f be       	out	0x3f, r0	; 63
    29da:	0f 90       	pop	r0
    29dc:	1f 90       	pop	r1
    29de:	18 95       	reti

000029e0 <__vector_52>:
    29e0:	1f 92       	push	r1
    29e2:	0f 92       	push	r0
    29e4:	0f b6       	in	r0, 0x3f	; 63
    29e6:	0f 92       	push	r0
    29e8:	11 24       	eor	r1, r1
    29ea:	0b b6       	in	r0, 0x3b	; 59
    29ec:	0f 92       	push	r0
    29ee:	2f 93       	push	r18
    29f0:	3f 93       	push	r19
    29f2:	4f 93       	push	r20
    29f4:	5f 93       	push	r21
    29f6:	6f 93       	push	r22
    29f8:	7f 93       	push	r23
    29fa:	8f 93       	push	r24
    29fc:	9f 93       	push	r25
    29fe:	af 93       	push	r26
    2a00:	bf 93       	push	r27
    2a02:	ef 93       	push	r30
    2a04:	ff 93       	push	r31
    2a06:	8c e8       	ldi	r24, 0x8C	; 140
    2a08:	9f e0       	ldi	r25, 0x0F	; 15
    2a0a:	95 dd       	rcall	.-1238   	; 0x2536 <_ZN14HardwareSerial17_tx_udr_empty_irqEv>
    2a0c:	ff 91       	pop	r31
    2a0e:	ef 91       	pop	r30
    2a10:	bf 91       	pop	r27
    2a12:	af 91       	pop	r26
    2a14:	9f 91       	pop	r25
    2a16:	8f 91       	pop	r24
    2a18:	7f 91       	pop	r23
    2a1a:	6f 91       	pop	r22
    2a1c:	5f 91       	pop	r21
    2a1e:	4f 91       	pop	r20
    2a20:	3f 91       	pop	r19
    2a22:	2f 91       	pop	r18
    2a24:	0f 90       	pop	r0
    2a26:	0b be       	out	0x3b, r0	; 59
    2a28:	0f 90       	pop	r0
    2a2a:	0f be       	out	0x3f, r0	; 63
    2a2c:	0f 90       	pop	r0
    2a2e:	1f 90       	pop	r1
    2a30:	18 95       	reti

00002a32 <_Z17Serial2_availablev>:
    2a32:	8c e8       	ldi	r24, 0x8C	; 140
    2a34:	9f e0       	ldi	r25, 0x0F	; 15
    2a36:	09 dd       	rcall	.-1518   	; 0x244a <_ZN14HardwareSerial9availableEv>
    2a38:	21 e0       	ldi	r18, 0x01	; 1
    2a3a:	89 2b       	or	r24, r25
    2a3c:	09 f4       	brne	.+2      	; 0x2a40 <_Z17Serial2_availablev+0xe>
    2a3e:	20 e0       	ldi	r18, 0x00	; 0
    2a40:	82 2f       	mov	r24, r18
    2a42:	08 95       	ret

00002a44 <_GLOBAL__sub_I___vector_51>:
    2a44:	ec e8       	ldi	r30, 0x8C	; 140
    2a46:	ff e0       	ldi	r31, 0x0F	; 15
    2a48:	13 82       	std	Z+3, r1	; 0x03
    2a4a:	12 82       	std	Z+2, r1	; 0x02
    2a4c:	88 ee       	ldi	r24, 0xE8	; 232
    2a4e:	93 e0       	ldi	r25, 0x03	; 3
    2a50:	a0 e0       	ldi	r26, 0x00	; 0
    2a52:	b0 e0       	ldi	r27, 0x00	; 0
    2a54:	84 83       	std	Z+4, r24	; 0x04
    2a56:	95 83       	std	Z+5, r25	; 0x05
    2a58:	a6 83       	std	Z+6, r26	; 0x06
    2a5a:	b7 83       	std	Z+7, r27	; 0x07
    2a5c:	87 ee       	ldi	r24, 0xE7	; 231
    2a5e:	95 e0       	ldi	r25, 0x05	; 5
    2a60:	91 83       	std	Z+1, r25	; 0x01
    2a62:	80 83       	st	Z, r24
    2a64:	85 ed       	ldi	r24, 0xD5	; 213
    2a66:	90 e0       	ldi	r25, 0x00	; 0
    2a68:	95 87       	std	Z+13, r25	; 0x0d
    2a6a:	84 87       	std	Z+12, r24	; 0x0c
    2a6c:	84 ed       	ldi	r24, 0xD4	; 212
    2a6e:	90 e0       	ldi	r25, 0x00	; 0
    2a70:	97 87       	std	Z+15, r25	; 0x0f
    2a72:	86 87       	std	Z+14, r24	; 0x0e
    2a74:	80 ed       	ldi	r24, 0xD0	; 208
    2a76:	90 e0       	ldi	r25, 0x00	; 0
    2a78:	91 8b       	std	Z+17, r25	; 0x11
    2a7a:	80 8b       	std	Z+16, r24	; 0x10
    2a7c:	81 ed       	ldi	r24, 0xD1	; 209
    2a7e:	90 e0       	ldi	r25, 0x00	; 0
    2a80:	93 8b       	std	Z+19, r25	; 0x13
    2a82:	82 8b       	std	Z+18, r24	; 0x12
    2a84:	82 ed       	ldi	r24, 0xD2	; 210
    2a86:	90 e0       	ldi	r25, 0x00	; 0
    2a88:	95 8b       	std	Z+21, r25	; 0x15
    2a8a:	84 8b       	std	Z+20, r24	; 0x14
    2a8c:	86 ed       	ldi	r24, 0xD6	; 214
    2a8e:	90 e0       	ldi	r25, 0x00	; 0
    2a90:	97 8b       	std	Z+23, r25	; 0x17
    2a92:	86 8b       	std	Z+22, r24	; 0x16
    2a94:	11 8e       	std	Z+25, r1	; 0x19
    2a96:	12 8e       	std	Z+26, r1	; 0x1a
    2a98:	13 8e       	std	Z+27, r1	; 0x1b
    2a9a:	14 8e       	std	Z+28, r1	; 0x1c
    2a9c:	08 95       	ret

00002a9e <__vector_54>:
    2a9e:	1f 92       	push	r1
    2aa0:	0f 92       	push	r0
    2aa2:	0f b6       	in	r0, 0x3f	; 63
    2aa4:	0f 92       	push	r0
    2aa6:	11 24       	eor	r1, r1
    2aa8:	0b b6       	in	r0, 0x3b	; 59
    2aaa:	0f 92       	push	r0
    2aac:	2f 93       	push	r18
    2aae:	8f 93       	push	r24
    2ab0:	9f 93       	push	r25
    2ab2:	ef 93       	push	r30
    2ab4:	ff 93       	push	r31
    2ab6:	e0 91 39 10 	lds	r30, 0x1039	; 0x801039 <Serial3+0x10>
    2aba:	f0 91 3a 10 	lds	r31, 0x103A	; 0x80103a <Serial3+0x11>
    2abe:	80 81       	ld	r24, Z
    2ac0:	e0 91 3f 10 	lds	r30, 0x103F	; 0x80103f <Serial3+0x16>
    2ac4:	f0 91 40 10 	lds	r31, 0x1040	; 0x801040 <Serial3+0x17>
    2ac8:	82 fd       	sbrc	r24, 2
    2aca:	12 c0       	rjmp	.+36     	; 0x2af0 <__vector_54+0x52>
    2acc:	90 81       	ld	r25, Z
    2ace:	80 91 42 10 	lds	r24, 0x1042	; 0x801042 <Serial3+0x19>
    2ad2:	8f 5f       	subi	r24, 0xFF	; 255
    2ad4:	8f 73       	andi	r24, 0x3F	; 63
    2ad6:	20 91 43 10 	lds	r18, 0x1043	; 0x801043 <Serial3+0x1a>
    2ada:	82 17       	cp	r24, r18
    2adc:	51 f0       	breq	.+20     	; 0x2af2 <__vector_54+0x54>
    2ade:	e0 91 42 10 	lds	r30, 0x1042	; 0x801042 <Serial3+0x19>
    2ae2:	f0 e0       	ldi	r31, 0x00	; 0
    2ae4:	e7 5d       	subi	r30, 0xD7	; 215
    2ae6:	ff 4e       	sbci	r31, 0xEF	; 239
    2ae8:	95 8f       	std	Z+29, r25	; 0x1d
    2aea:	80 93 42 10 	sts	0x1042, r24	; 0x801042 <Serial3+0x19>
    2aee:	01 c0       	rjmp	.+2      	; 0x2af2 <__vector_54+0x54>
    2af0:	80 81       	ld	r24, Z
    2af2:	ff 91       	pop	r31
    2af4:	ef 91       	pop	r30
    2af6:	9f 91       	pop	r25
    2af8:	8f 91       	pop	r24
    2afa:	2f 91       	pop	r18
    2afc:	0f 90       	pop	r0
    2afe:	0b be       	out	0x3b, r0	; 59
    2b00:	0f 90       	pop	r0
    2b02:	0f be       	out	0x3f, r0	; 63
    2b04:	0f 90       	pop	r0
    2b06:	1f 90       	pop	r1
    2b08:	18 95       	reti

00002b0a <__vector_55>:
    2b0a:	1f 92       	push	r1
    2b0c:	0f 92       	push	r0
    2b0e:	0f b6       	in	r0, 0x3f	; 63
    2b10:	0f 92       	push	r0
    2b12:	11 24       	eor	r1, r1
    2b14:	0b b6       	in	r0, 0x3b	; 59
    2b16:	0f 92       	push	r0
    2b18:	2f 93       	push	r18
    2b1a:	3f 93       	push	r19
    2b1c:	4f 93       	push	r20
    2b1e:	5f 93       	push	r21
    2b20:	6f 93       	push	r22
    2b22:	7f 93       	push	r23
    2b24:	8f 93       	push	r24
    2b26:	9f 93       	push	r25
    2b28:	af 93       	push	r26
    2b2a:	bf 93       	push	r27
    2b2c:	ef 93       	push	r30
    2b2e:	ff 93       	push	r31
    2b30:	89 e2       	ldi	r24, 0x29	; 41
    2b32:	90 e1       	ldi	r25, 0x10	; 16
    2b34:	00 dd       	rcall	.-1536   	; 0x2536 <_ZN14HardwareSerial17_tx_udr_empty_irqEv>
    2b36:	ff 91       	pop	r31
    2b38:	ef 91       	pop	r30
    2b3a:	bf 91       	pop	r27
    2b3c:	af 91       	pop	r26
    2b3e:	9f 91       	pop	r25
    2b40:	8f 91       	pop	r24
    2b42:	7f 91       	pop	r23
    2b44:	6f 91       	pop	r22
    2b46:	5f 91       	pop	r21
    2b48:	4f 91       	pop	r20
    2b4a:	3f 91       	pop	r19
    2b4c:	2f 91       	pop	r18
    2b4e:	0f 90       	pop	r0
    2b50:	0b be       	out	0x3b, r0	; 59
    2b52:	0f 90       	pop	r0
    2b54:	0f be       	out	0x3f, r0	; 63
    2b56:	0f 90       	pop	r0
    2b58:	1f 90       	pop	r1
    2b5a:	18 95       	reti

00002b5c <_Z17Serial3_availablev>:
    2b5c:	89 e2       	ldi	r24, 0x29	; 41
    2b5e:	90 e1       	ldi	r25, 0x10	; 16
    2b60:	74 dc       	rcall	.-1816   	; 0x244a <_ZN14HardwareSerial9availableEv>
    2b62:	21 e0       	ldi	r18, 0x01	; 1
    2b64:	89 2b       	or	r24, r25
    2b66:	09 f4       	brne	.+2      	; 0x2b6a <_Z17Serial3_availablev+0xe>
    2b68:	20 e0       	ldi	r18, 0x00	; 0
    2b6a:	82 2f       	mov	r24, r18
    2b6c:	08 95       	ret

00002b6e <_GLOBAL__sub_I___vector_54>:
    2b6e:	e9 e2       	ldi	r30, 0x29	; 41
    2b70:	f0 e1       	ldi	r31, 0x10	; 16
    2b72:	13 82       	std	Z+3, r1	; 0x03
    2b74:	12 82       	std	Z+2, r1	; 0x02
    2b76:	88 ee       	ldi	r24, 0xE8	; 232
    2b78:	93 e0       	ldi	r25, 0x03	; 3
    2b7a:	a0 e0       	ldi	r26, 0x00	; 0
    2b7c:	b0 e0       	ldi	r27, 0x00	; 0
    2b7e:	84 83       	std	Z+4, r24	; 0x04
    2b80:	95 83       	std	Z+5, r25	; 0x05
    2b82:	a6 83       	std	Z+6, r26	; 0x06
    2b84:	b7 83       	std	Z+7, r27	; 0x07
    2b86:	87 ee       	ldi	r24, 0xE7	; 231
    2b88:	95 e0       	ldi	r25, 0x05	; 5
    2b8a:	91 83       	std	Z+1, r25	; 0x01
    2b8c:	80 83       	st	Z, r24
    2b8e:	85 e3       	ldi	r24, 0x35	; 53
    2b90:	91 e0       	ldi	r25, 0x01	; 1
    2b92:	95 87       	std	Z+13, r25	; 0x0d
    2b94:	84 87       	std	Z+12, r24	; 0x0c
    2b96:	84 e3       	ldi	r24, 0x34	; 52
    2b98:	91 e0       	ldi	r25, 0x01	; 1
    2b9a:	97 87       	std	Z+15, r25	; 0x0f
    2b9c:	86 87       	std	Z+14, r24	; 0x0e
    2b9e:	80 e3       	ldi	r24, 0x30	; 48
    2ba0:	91 e0       	ldi	r25, 0x01	; 1
    2ba2:	91 8b       	std	Z+17, r25	; 0x11
    2ba4:	80 8b       	std	Z+16, r24	; 0x10
    2ba6:	81 e3       	ldi	r24, 0x31	; 49
    2ba8:	91 e0       	ldi	r25, 0x01	; 1
    2baa:	93 8b       	std	Z+19, r25	; 0x13
    2bac:	82 8b       	std	Z+18, r24	; 0x12
    2bae:	82 e3       	ldi	r24, 0x32	; 50
    2bb0:	91 e0       	ldi	r25, 0x01	; 1
    2bb2:	95 8b       	std	Z+21, r25	; 0x15
    2bb4:	84 8b       	std	Z+20, r24	; 0x14
    2bb6:	86 e3       	ldi	r24, 0x36	; 54
    2bb8:	91 e0       	ldi	r25, 0x01	; 1
    2bba:	97 8b       	std	Z+23, r25	; 0x17
    2bbc:	86 8b       	std	Z+22, r24	; 0x16
    2bbe:	11 8e       	std	Z+25, r1	; 0x19
    2bc0:	12 8e       	std	Z+26, r1	; 0x1a
    2bc2:	13 8e       	std	Z+27, r1	; 0x1b
    2bc4:	14 8e       	std	Z+28, r1	; 0x1c
    2bc6:	08 95       	ret

00002bc8 <initVariant>:
    2bc8:	08 95       	ret

00002bca <main>:
    2bca:	71 d3       	rcall	.+1762   	; 0x32ae <init>
    2bcc:	fd df       	rcall	.-6      	; 0x2bc8 <initVariant>
    2bce:	0e 94 ab 08 	call	0x1156	; 0x1156 <setup>
    2bd2:	c2 e6       	ldi	r28, 0x62	; 98
    2bd4:	d2 e1       	ldi	r29, 0x12	; 18
    2bd6:	0e 94 5b 09 	call	0x12b6	; 0x12b6 <loop>
    2bda:	20 97       	sbiw	r28, 0x00	; 0
    2bdc:	e1 f3       	breq	.-8      	; 0x2bd6 <main+0xc>
    2bde:	72 dc       	rcall	.-1820   	; 0x24c4 <_Z14serialEventRunv>
    2be0:	fa cf       	rjmp	.-12     	; 0x2bd6 <main+0xc>

00002be2 <_ZN5Print5writeEPKhj>:
    2be2:	cf 92       	push	r12
    2be4:	df 92       	push	r13
    2be6:	ef 92       	push	r14
    2be8:	ff 92       	push	r15
    2bea:	0f 93       	push	r16
    2bec:	1f 93       	push	r17
    2bee:	cf 93       	push	r28
    2bf0:	df 93       	push	r29
    2bf2:	6c 01       	movw	r12, r24
    2bf4:	7a 01       	movw	r14, r20
    2bf6:	8b 01       	movw	r16, r22
    2bf8:	c0 e0       	ldi	r28, 0x00	; 0
    2bfa:	d0 e0       	ldi	r29, 0x00	; 0
    2bfc:	ce 15       	cp	r28, r14
    2bfe:	df 05       	cpc	r29, r15
    2c00:	81 f0       	breq	.+32     	; 0x2c22 <_ZN5Print5writeEPKhj+0x40>
    2c02:	d8 01       	movw	r26, r16
    2c04:	6d 91       	ld	r22, X+
    2c06:	8d 01       	movw	r16, r26
    2c08:	d6 01       	movw	r26, r12
    2c0a:	ed 91       	ld	r30, X+
    2c0c:	fc 91       	ld	r31, X
    2c0e:	01 90       	ld	r0, Z+
    2c10:	f0 81       	ld	r31, Z
    2c12:	e0 2d       	mov	r30, r0
    2c14:	c6 01       	movw	r24, r12
    2c16:	19 95       	eicall
    2c18:	89 2b       	or	r24, r25
    2c1a:	11 f0       	breq	.+4      	; 0x2c20 <_ZN5Print5writeEPKhj+0x3e>
    2c1c:	21 96       	adiw	r28, 0x01	; 1
    2c1e:	ee cf       	rjmp	.-36     	; 0x2bfc <_ZN5Print5writeEPKhj+0x1a>
    2c20:	7e 01       	movw	r14, r28
    2c22:	c7 01       	movw	r24, r14
    2c24:	df 91       	pop	r29
    2c26:	cf 91       	pop	r28
    2c28:	1f 91       	pop	r17
    2c2a:	0f 91       	pop	r16
    2c2c:	ff 90       	pop	r15
    2c2e:	ef 90       	pop	r14
    2c30:	df 90       	pop	r13
    2c32:	cf 90       	pop	r12
    2c34:	08 95       	ret

00002c36 <_ZN5Print5writeEPKc>:
    2c36:	61 15       	cp	r22, r1
    2c38:	71 05       	cpc	r23, r1
    2c3a:	79 f0       	breq	.+30     	; 0x2c5a <_ZN5Print5writeEPKc+0x24>
    2c3c:	fb 01       	movw	r30, r22
    2c3e:	01 90       	ld	r0, Z+
    2c40:	00 20       	and	r0, r0
    2c42:	e9 f7       	brne	.-6      	; 0x2c3e <_ZN5Print5writeEPKc+0x8>
    2c44:	31 97       	sbiw	r30, 0x01	; 1
    2c46:	af 01       	movw	r20, r30
    2c48:	46 1b       	sub	r20, r22
    2c4a:	57 0b       	sbc	r21, r23
    2c4c:	dc 01       	movw	r26, r24
    2c4e:	ed 91       	ld	r30, X+
    2c50:	fc 91       	ld	r31, X
    2c52:	02 80       	ldd	r0, Z+2	; 0x02
    2c54:	f3 81       	ldd	r31, Z+3	; 0x03
    2c56:	e0 2d       	mov	r30, r0
    2c58:	19 94       	eijmp
    2c5a:	80 e0       	ldi	r24, 0x00	; 0
    2c5c:	90 e0       	ldi	r25, 0x00	; 0
    2c5e:	08 95       	ret

00002c60 <_ZN5Print5printEPK19__FlashStringHelper>:
    2c60:	ef 92       	push	r14
    2c62:	ff 92       	push	r15
    2c64:	0f 93       	push	r16
    2c66:	1f 93       	push	r17
    2c68:	cf 93       	push	r28
    2c6a:	df 93       	push	r29
    2c6c:	8c 01       	movw	r16, r24
    2c6e:	7b 01       	movw	r14, r22
    2c70:	c0 e0       	ldi	r28, 0x00	; 0
    2c72:	d0 e0       	ldi	r29, 0x00	; 0
    2c74:	f7 01       	movw	r30, r14
    2c76:	ec 0f       	add	r30, r28
    2c78:	fd 1f       	adc	r31, r29
    2c7a:	64 91       	lpm	r22, Z
    2c7c:	66 23       	and	r22, r22
    2c7e:	61 f0       	breq	.+24     	; 0x2c98 <_ZN5Print5printEPK19__FlashStringHelper+0x38>
    2c80:	d8 01       	movw	r26, r16
    2c82:	ed 91       	ld	r30, X+
    2c84:	fc 91       	ld	r31, X
    2c86:	01 90       	ld	r0, Z+
    2c88:	f0 81       	ld	r31, Z
    2c8a:	e0 2d       	mov	r30, r0
    2c8c:	c8 01       	movw	r24, r16
    2c8e:	19 95       	eicall
    2c90:	89 2b       	or	r24, r25
    2c92:	11 f0       	breq	.+4      	; 0x2c98 <_ZN5Print5printEPK19__FlashStringHelper+0x38>
    2c94:	21 96       	adiw	r28, 0x01	; 1
    2c96:	ee cf       	rjmp	.-36     	; 0x2c74 <_ZN5Print5printEPK19__FlashStringHelper+0x14>
    2c98:	ce 01       	movw	r24, r28
    2c9a:	df 91       	pop	r29
    2c9c:	cf 91       	pop	r28
    2c9e:	1f 91       	pop	r17
    2ca0:	0f 91       	pop	r16
    2ca2:	ff 90       	pop	r15
    2ca4:	ef 90       	pop	r14
    2ca6:	08 95       	ret

00002ca8 <_ZN5Print5printERK6String>:
    2ca8:	db 01       	movw	r26, r22
    2caa:	14 96       	adiw	r26, 0x04	; 4
    2cac:	4d 91       	ld	r20, X+
    2cae:	5c 91       	ld	r21, X
    2cb0:	15 97       	sbiw	r26, 0x05	; 5
    2cb2:	6d 91       	ld	r22, X+
    2cb4:	7c 91       	ld	r23, X
    2cb6:	dc 01       	movw	r26, r24
    2cb8:	ed 91       	ld	r30, X+
    2cba:	fc 91       	ld	r31, X
    2cbc:	02 80       	ldd	r0, Z+2	; 0x02
    2cbe:	f3 81       	ldd	r31, Z+3	; 0x03
    2cc0:	e0 2d       	mov	r30, r0
    2cc2:	19 94       	eijmp

00002cc4 <_ZN5Print5printEPKc>:
    2cc4:	b8 cf       	rjmp	.-144    	; 0x2c36 <_ZN5Print5writeEPKc>

00002cc6 <_ZN5Print5printEc>:
    2cc6:	dc 01       	movw	r26, r24
    2cc8:	ed 91       	ld	r30, X+
    2cca:	fc 91       	ld	r31, X
    2ccc:	01 90       	ld	r0, Z+
    2cce:	f0 81       	ld	r31, Z
    2cd0:	e0 2d       	mov	r30, r0
    2cd2:	19 94       	eijmp

00002cd4 <_ZN5Print7printlnEv>:
    2cd4:	60 e1       	ldi	r22, 0x10	; 16
    2cd6:	73 e0       	ldi	r23, 0x03	; 3
    2cd8:	ae cf       	rjmp	.-164    	; 0x2c36 <_ZN5Print5writeEPKc>

00002cda <_ZN5Print7printlnEPK19__FlashStringHelper>:
    2cda:	0f 93       	push	r16
    2cdc:	1f 93       	push	r17
    2cde:	cf 93       	push	r28
    2ce0:	df 93       	push	r29
    2ce2:	ec 01       	movw	r28, r24
    2ce4:	bd df       	rcall	.-134    	; 0x2c60 <_ZN5Print5printEPK19__FlashStringHelper>
    2ce6:	8c 01       	movw	r16, r24
    2ce8:	ce 01       	movw	r24, r28
    2cea:	f4 df       	rcall	.-24     	; 0x2cd4 <_ZN5Print7printlnEv>
    2cec:	80 0f       	add	r24, r16
    2cee:	91 1f       	adc	r25, r17
    2cf0:	df 91       	pop	r29
    2cf2:	cf 91       	pop	r28
    2cf4:	1f 91       	pop	r17
    2cf6:	0f 91       	pop	r16
    2cf8:	08 95       	ret

00002cfa <_ZN5Print7printlnERK6String>:
    2cfa:	0f 93       	push	r16
    2cfc:	1f 93       	push	r17
    2cfe:	cf 93       	push	r28
    2d00:	df 93       	push	r29
    2d02:	ec 01       	movw	r28, r24
    2d04:	d1 df       	rcall	.-94     	; 0x2ca8 <_ZN5Print5printERK6String>
    2d06:	8c 01       	movw	r16, r24
    2d08:	ce 01       	movw	r24, r28
    2d0a:	e4 df       	rcall	.-56     	; 0x2cd4 <_ZN5Print7printlnEv>
    2d0c:	80 0f       	add	r24, r16
    2d0e:	91 1f       	adc	r25, r17
    2d10:	df 91       	pop	r29
    2d12:	cf 91       	pop	r28
    2d14:	1f 91       	pop	r17
    2d16:	0f 91       	pop	r16
    2d18:	08 95       	ret

00002d1a <_ZN5Print7printlnEPKc>:
    2d1a:	0f 93       	push	r16
    2d1c:	1f 93       	push	r17
    2d1e:	cf 93       	push	r28
    2d20:	df 93       	push	r29
    2d22:	ec 01       	movw	r28, r24
    2d24:	88 df       	rcall	.-240    	; 0x2c36 <_ZN5Print5writeEPKc>
    2d26:	8c 01       	movw	r16, r24
    2d28:	ce 01       	movw	r24, r28
    2d2a:	d4 df       	rcall	.-88     	; 0x2cd4 <_ZN5Print7printlnEv>
    2d2c:	80 0f       	add	r24, r16
    2d2e:	91 1f       	adc	r25, r17
    2d30:	df 91       	pop	r29
    2d32:	cf 91       	pop	r28
    2d34:	1f 91       	pop	r17
    2d36:	0f 91       	pop	r16
    2d38:	08 95       	ret

00002d3a <_ZN5Print7printlnEc>:
    2d3a:	0f 93       	push	r16
    2d3c:	1f 93       	push	r17
    2d3e:	cf 93       	push	r28
    2d40:	df 93       	push	r29
    2d42:	ec 01       	movw	r28, r24
    2d44:	c0 df       	rcall	.-128    	; 0x2cc6 <_ZN5Print5printEc>
    2d46:	8c 01       	movw	r16, r24
    2d48:	ce 01       	movw	r24, r28
    2d4a:	c4 df       	rcall	.-120    	; 0x2cd4 <_ZN5Print7printlnEv>
    2d4c:	80 0f       	add	r24, r16
    2d4e:	91 1f       	adc	r25, r17
    2d50:	df 91       	pop	r29
    2d52:	cf 91       	pop	r28
    2d54:	1f 91       	pop	r17
    2d56:	0f 91       	pop	r16
    2d58:	08 95       	ret

00002d5a <_ZN5Print11printNumberEmh>:
    2d5a:	8f 92       	push	r8
    2d5c:	9f 92       	push	r9
    2d5e:	af 92       	push	r10
    2d60:	bf 92       	push	r11
    2d62:	ef 92       	push	r14
    2d64:	ff 92       	push	r15
    2d66:	0f 93       	push	r16
    2d68:	1f 93       	push	r17
    2d6a:	cf 93       	push	r28
    2d6c:	df 93       	push	r29
    2d6e:	cd b7       	in	r28, 0x3d	; 61
    2d70:	de b7       	in	r29, 0x3e	; 62
    2d72:	a1 97       	sbiw	r28, 0x21	; 33
    2d74:	0f b6       	in	r0, 0x3f	; 63
    2d76:	f8 94       	cli
    2d78:	de bf       	out	0x3e, r29	; 62
    2d7a:	0f be       	out	0x3f, r0	; 63
    2d7c:	cd bf       	out	0x3d, r28	; 61
    2d7e:	7c 01       	movw	r14, r24
    2d80:	fa 01       	movw	r30, r20
    2d82:	cb 01       	movw	r24, r22
    2d84:	19 a2       	std	Y+33, r1	; 0x21
    2d86:	22 30       	cpi	r18, 0x02	; 2
    2d88:	08 f4       	brcc	.+2      	; 0x2d8c <_ZN5Print11printNumberEmh+0x32>
    2d8a:	2a e0       	ldi	r18, 0x0A	; 10
    2d8c:	8e 01       	movw	r16, r28
    2d8e:	0f 5d       	subi	r16, 0xDF	; 223
    2d90:	1f 4f       	sbci	r17, 0xFF	; 255
    2d92:	82 2e       	mov	r8, r18
    2d94:	91 2c       	mov	r9, r1
    2d96:	a1 2c       	mov	r10, r1
    2d98:	b1 2c       	mov	r11, r1
    2d9a:	bf 01       	movw	r22, r30
    2d9c:	a5 01       	movw	r20, r10
    2d9e:	94 01       	movw	r18, r8
    2da0:	0e 94 55 40 	call	0x80aa	; 0x80aa <__udivmodsi4>
    2da4:	f9 01       	movw	r30, r18
    2da6:	ca 01       	movw	r24, r20
    2da8:	01 50       	subi	r16, 0x01	; 1
    2daa:	11 09       	sbc	r17, r1
    2dac:	6a 30       	cpi	r22, 0x0A	; 10
    2dae:	10 f4       	brcc	.+4      	; 0x2db4 <_ZN5Print11printNumberEmh+0x5a>
    2db0:	60 5d       	subi	r22, 0xD0	; 208
    2db2:	01 c0       	rjmp	.+2      	; 0x2db6 <_ZN5Print11printNumberEmh+0x5c>
    2db4:	69 5c       	subi	r22, 0xC9	; 201
    2db6:	d8 01       	movw	r26, r16
    2db8:	6c 93       	st	X, r22
    2dba:	23 2b       	or	r18, r19
    2dbc:	24 2b       	or	r18, r20
    2dbe:	25 2b       	or	r18, r21
    2dc0:	61 f7       	brne	.-40     	; 0x2d9a <_ZN5Print11printNumberEmh+0x40>
    2dc2:	b8 01       	movw	r22, r16
    2dc4:	c7 01       	movw	r24, r14
    2dc6:	37 df       	rcall	.-402    	; 0x2c36 <_ZN5Print5writeEPKc>
    2dc8:	a1 96       	adiw	r28, 0x21	; 33
    2dca:	0f b6       	in	r0, 0x3f	; 63
    2dcc:	f8 94       	cli
    2dce:	de bf       	out	0x3e, r29	; 62
    2dd0:	0f be       	out	0x3f, r0	; 63
    2dd2:	cd bf       	out	0x3d, r28	; 61
    2dd4:	df 91       	pop	r29
    2dd6:	cf 91       	pop	r28
    2dd8:	1f 91       	pop	r17
    2dda:	0f 91       	pop	r16
    2ddc:	ff 90       	pop	r15
    2dde:	ef 90       	pop	r14
    2de0:	bf 90       	pop	r11
    2de2:	af 90       	pop	r10
    2de4:	9f 90       	pop	r9
    2de6:	8f 90       	pop	r8
    2de8:	08 95       	ret

00002dea <_ZN5Print5printEmi>:
    2dea:	21 15       	cp	r18, r1
    2dec:	31 05       	cpc	r19, r1
    2dee:	41 f4       	brne	.+16     	; 0x2e00 <_ZN5Print5printEmi+0x16>
    2df0:	dc 01       	movw	r26, r24
    2df2:	ed 91       	ld	r30, X+
    2df4:	fc 91       	ld	r31, X
    2df6:	01 90       	ld	r0, Z+
    2df8:	f0 81       	ld	r31, Z
    2dfa:	e0 2d       	mov	r30, r0
    2dfc:	64 2f       	mov	r22, r20
    2dfe:	19 94       	eijmp
    2e00:	ac cf       	rjmp	.-168    	; 0x2d5a <_ZN5Print11printNumberEmh>

00002e02 <_ZN5Print5printEhi>:
    2e02:	9a 01       	movw	r18, r20
    2e04:	46 2f       	mov	r20, r22
    2e06:	50 e0       	ldi	r21, 0x00	; 0
    2e08:	60 e0       	ldi	r22, 0x00	; 0
    2e0a:	70 e0       	ldi	r23, 0x00	; 0
    2e0c:	ee cf       	rjmp	.-36     	; 0x2dea <_ZN5Print5printEmi>

00002e0e <_ZN5Print7printlnEhi>:
    2e0e:	0f 93       	push	r16
    2e10:	1f 93       	push	r17
    2e12:	cf 93       	push	r28
    2e14:	df 93       	push	r29
    2e16:	ec 01       	movw	r28, r24
    2e18:	f4 df       	rcall	.-24     	; 0x2e02 <_ZN5Print5printEhi>
    2e1a:	8c 01       	movw	r16, r24
    2e1c:	ce 01       	movw	r24, r28
    2e1e:	5a df       	rcall	.-332    	; 0x2cd4 <_ZN5Print7printlnEv>
    2e20:	80 0f       	add	r24, r16
    2e22:	91 1f       	adc	r25, r17
    2e24:	df 91       	pop	r29
    2e26:	cf 91       	pop	r28
    2e28:	1f 91       	pop	r17
    2e2a:	0f 91       	pop	r16
    2e2c:	08 95       	ret

00002e2e <_ZN5Print5printEji>:
    2e2e:	9a 01       	movw	r18, r20
    2e30:	ab 01       	movw	r20, r22
    2e32:	60 e0       	ldi	r22, 0x00	; 0
    2e34:	70 e0       	ldi	r23, 0x00	; 0
    2e36:	d9 cf       	rjmp	.-78     	; 0x2dea <_ZN5Print5printEmi>

00002e38 <_ZN5Print5printEli>:
    2e38:	cf 92       	push	r12
    2e3a:	df 92       	push	r13
    2e3c:	ef 92       	push	r14
    2e3e:	ff 92       	push	r15
    2e40:	0f 93       	push	r16
    2e42:	1f 93       	push	r17
    2e44:	cf 93       	push	r28
    2e46:	df 93       	push	r29
    2e48:	21 15       	cp	r18, r1
    2e4a:	31 05       	cpc	r19, r1
    2e4c:	81 f4       	brne	.+32     	; 0x2e6e <_ZN5Print5printEli+0x36>
    2e4e:	dc 01       	movw	r26, r24
    2e50:	ed 91       	ld	r30, X+
    2e52:	fc 91       	ld	r31, X
    2e54:	01 90       	ld	r0, Z+
    2e56:	f0 81       	ld	r31, Z
    2e58:	e0 2d       	mov	r30, r0
    2e5a:	64 2f       	mov	r22, r20
    2e5c:	df 91       	pop	r29
    2e5e:	cf 91       	pop	r28
    2e60:	1f 91       	pop	r17
    2e62:	0f 91       	pop	r16
    2e64:	ff 90       	pop	r15
    2e66:	ef 90       	pop	r14
    2e68:	df 90       	pop	r13
    2e6a:	cf 90       	pop	r12
    2e6c:	19 94       	eijmp
    2e6e:	2a 30       	cpi	r18, 0x0A	; 10
    2e70:	31 05       	cpc	r19, r1
    2e72:	f1 f4       	brne	.+60     	; 0x2eb0 <_ZN5Print5printEli+0x78>
    2e74:	77 ff       	sbrs	r23, 7
    2e76:	1b c0       	rjmp	.+54     	; 0x2eae <_ZN5Print5printEli+0x76>
    2e78:	6a 01       	movw	r12, r20
    2e7a:	7b 01       	movw	r14, r22
    2e7c:	ec 01       	movw	r28, r24
    2e7e:	6d e2       	ldi	r22, 0x2D	; 45
    2e80:	22 df       	rcall	.-444    	; 0x2cc6 <_ZN5Print5printEc>
    2e82:	8c 01       	movw	r16, r24
    2e84:	44 27       	eor	r20, r20
    2e86:	55 27       	eor	r21, r21
    2e88:	ba 01       	movw	r22, r20
    2e8a:	4c 19       	sub	r20, r12
    2e8c:	5d 09       	sbc	r21, r13
    2e8e:	6e 09       	sbc	r22, r14
    2e90:	7f 09       	sbc	r23, r15
    2e92:	2a e0       	ldi	r18, 0x0A	; 10
    2e94:	ce 01       	movw	r24, r28
    2e96:	61 df       	rcall	.-318    	; 0x2d5a <_ZN5Print11printNumberEmh>
    2e98:	80 0f       	add	r24, r16
    2e9a:	91 1f       	adc	r25, r17
    2e9c:	df 91       	pop	r29
    2e9e:	cf 91       	pop	r28
    2ea0:	1f 91       	pop	r17
    2ea2:	0f 91       	pop	r16
    2ea4:	ff 90       	pop	r15
    2ea6:	ef 90       	pop	r14
    2ea8:	df 90       	pop	r13
    2eaa:	cf 90       	pop	r12
    2eac:	08 95       	ret
    2eae:	2a e0       	ldi	r18, 0x0A	; 10
    2eb0:	df 91       	pop	r29
    2eb2:	cf 91       	pop	r28
    2eb4:	1f 91       	pop	r17
    2eb6:	0f 91       	pop	r16
    2eb8:	ff 90       	pop	r15
    2eba:	ef 90       	pop	r14
    2ebc:	df 90       	pop	r13
    2ebe:	cf 90       	pop	r12
    2ec0:	4c cf       	rjmp	.-360    	; 0x2d5a <_ZN5Print11printNumberEmh>

00002ec2 <_ZN5Print5printEii>:
    2ec2:	9a 01       	movw	r18, r20
    2ec4:	ab 01       	movw	r20, r22
    2ec6:	77 0f       	add	r23, r23
    2ec8:	66 0b       	sbc	r22, r22
    2eca:	77 0b       	sbc	r23, r23
    2ecc:	b5 cf       	rjmp	.-150    	; 0x2e38 <_ZN5Print5printEli>

00002ece <_ZN5Print7printlnEii>:
    2ece:	0f 93       	push	r16
    2ed0:	1f 93       	push	r17
    2ed2:	cf 93       	push	r28
    2ed4:	df 93       	push	r29
    2ed6:	ec 01       	movw	r28, r24
    2ed8:	f4 df       	rcall	.-24     	; 0x2ec2 <_ZN5Print5printEii>
    2eda:	8c 01       	movw	r16, r24
    2edc:	ce 01       	movw	r24, r28
    2ede:	fa de       	rcall	.-524    	; 0x2cd4 <_ZN5Print7printlnEv>
    2ee0:	80 0f       	add	r24, r16
    2ee2:	91 1f       	adc	r25, r17
    2ee4:	df 91       	pop	r29
    2ee6:	cf 91       	pop	r28
    2ee8:	1f 91       	pop	r17
    2eea:	0f 91       	pop	r16
    2eec:	08 95       	ret

00002eee <_ZN5Print10printFloatEdh>:
    2eee:	7f 92       	push	r7
    2ef0:	8f 92       	push	r8
    2ef2:	9f 92       	push	r9
    2ef4:	af 92       	push	r10
    2ef6:	bf 92       	push	r11
    2ef8:	cf 92       	push	r12
    2efa:	df 92       	push	r13
    2efc:	ef 92       	push	r14
    2efe:	ff 92       	push	r15
    2f00:	0f 93       	push	r16
    2f02:	1f 93       	push	r17
    2f04:	cf 93       	push	r28
    2f06:	df 93       	push	r29
    2f08:	8c 01       	movw	r16, r24
    2f0a:	6a 01       	movw	r12, r20
    2f0c:	7b 01       	movw	r14, r22
    2f0e:	72 2e       	mov	r7, r18
    2f10:	9a 01       	movw	r18, r20
    2f12:	ab 01       	movw	r20, r22
    2f14:	c7 01       	movw	r24, r14
    2f16:	b6 01       	movw	r22, r12
    2f18:	0e 94 22 40 	call	0x8044	; 0x8044 <__unordsf2>
    2f1c:	88 23       	and	r24, r24
    2f1e:	19 f0       	breq	.+6      	; 0x2f26 <_ZN5Print10printFloatEdh+0x38>
    2f20:	65 ef       	ldi	r22, 0xF5	; 245
    2f22:	75 e0       	ldi	r23, 0x05	; 5
    2f24:	25 c0       	rjmp	.+74     	; 0x2f70 <_ZN5Print10printFloatEdh+0x82>
    2f26:	46 01       	movw	r8, r12
    2f28:	57 01       	movw	r10, r14
    2f2a:	e8 94       	clt
    2f2c:	b7 f8       	bld	r11, 7
    2f2e:	2f ef       	ldi	r18, 0xFF	; 255
    2f30:	3f ef       	ldi	r19, 0xFF	; 255
    2f32:	4f e7       	ldi	r20, 0x7F	; 127
    2f34:	5f e7       	ldi	r21, 0x7F	; 127
    2f36:	c5 01       	movw	r24, r10
    2f38:	b4 01       	movw	r22, r8
    2f3a:	0e 94 22 40 	call	0x8044	; 0x8044 <__unordsf2>
    2f3e:	81 11       	cpse	r24, r1
    2f40:	0c c0       	rjmp	.+24     	; 0x2f5a <_ZN5Print10printFloatEdh+0x6c>
    2f42:	2f ef       	ldi	r18, 0xFF	; 255
    2f44:	3f ef       	ldi	r19, 0xFF	; 255
    2f46:	4f e7       	ldi	r20, 0x7F	; 127
    2f48:	5f e7       	ldi	r21, 0x7F	; 127
    2f4a:	c5 01       	movw	r24, r10
    2f4c:	b4 01       	movw	r22, r8
    2f4e:	c7 d8       	rcall	.-3698   	; 0x20de <__cmpsf2>
    2f50:	18 16       	cp	r1, r24
    2f52:	1c f4       	brge	.+6      	; 0x2f5a <_ZN5Print10printFloatEdh+0x6c>
    2f54:	69 ef       	ldi	r22, 0xF9	; 249
    2f56:	75 e0       	ldi	r23, 0x05	; 5
    2f58:	0b c0       	rjmp	.+22     	; 0x2f70 <_ZN5Print10printFloatEdh+0x82>
    2f5a:	2f ef       	ldi	r18, 0xFF	; 255
    2f5c:	3f ef       	ldi	r19, 0xFF	; 255
    2f5e:	4f e7       	ldi	r20, 0x7F	; 127
    2f60:	5f e4       	ldi	r21, 0x4F	; 79
    2f62:	c7 01       	movw	r24, r14
    2f64:	b6 01       	movw	r22, r12
    2f66:	0a da       	rcall	.-3052   	; 0x237c <__gesf2>
    2f68:	18 16       	cp	r1, r24
    2f6a:	8c f4       	brge	.+34     	; 0x2f8e <_ZN5Print10printFloatEdh+0xa0>
    2f6c:	6d ef       	ldi	r22, 0xFD	; 253
    2f6e:	75 e0       	ldi	r23, 0x05	; 5
    2f70:	c8 01       	movw	r24, r16
    2f72:	df 91       	pop	r29
    2f74:	cf 91       	pop	r28
    2f76:	1f 91       	pop	r17
    2f78:	0f 91       	pop	r16
    2f7a:	ff 90       	pop	r15
    2f7c:	ef 90       	pop	r14
    2f7e:	df 90       	pop	r13
    2f80:	cf 90       	pop	r12
    2f82:	bf 90       	pop	r11
    2f84:	af 90       	pop	r10
    2f86:	9f 90       	pop	r9
    2f88:	8f 90       	pop	r8
    2f8a:	7f 90       	pop	r7
    2f8c:	54 ce       	rjmp	.-856    	; 0x2c36 <_ZN5Print5writeEPKc>
    2f8e:	2f ef       	ldi	r18, 0xFF	; 255
    2f90:	3f ef       	ldi	r19, 0xFF	; 255
    2f92:	4f e7       	ldi	r20, 0x7F	; 127
    2f94:	5f ec       	ldi	r21, 0xCF	; 207
    2f96:	c7 01       	movw	r24, r14
    2f98:	b6 01       	movw	r22, r12
    2f9a:	a1 d8       	rcall	.-3774   	; 0x20de <__cmpsf2>
    2f9c:	87 fd       	sbrc	r24, 7
    2f9e:	e6 cf       	rjmp	.-52     	; 0x2f6c <_ZN5Print10printFloatEdh+0x7e>
    2fa0:	20 e0       	ldi	r18, 0x00	; 0
    2fa2:	30 e0       	ldi	r19, 0x00	; 0
    2fa4:	a9 01       	movw	r20, r18
    2fa6:	c7 01       	movw	r24, r14
    2fa8:	b6 01       	movw	r22, r12
    2faa:	99 d8       	rcall	.-3790   	; 0x20de <__cmpsf2>
    2fac:	87 ff       	sbrs	r24, 7
    2fae:	09 c0       	rjmp	.+18     	; 0x2fc2 <_ZN5Print10printFloatEdh+0xd4>
    2fb0:	6d e2       	ldi	r22, 0x2D	; 45
    2fb2:	c8 01       	movw	r24, r16
    2fb4:	88 de       	rcall	.-752    	; 0x2cc6 <_ZN5Print5printEc>
    2fb6:	ec 01       	movw	r28, r24
    2fb8:	f7 fa       	bst	r15, 7
    2fba:	f0 94       	com	r15
    2fbc:	f7 f8       	bld	r15, 7
    2fbe:	f0 94       	com	r15
    2fc0:	02 c0       	rjmp	.+4      	; 0x2fc6 <_ZN5Print10printFloatEdh+0xd8>
    2fc2:	c0 e0       	ldi	r28, 0x00	; 0
    2fc4:	d0 e0       	ldi	r29, 0x00	; 0
    2fc6:	b1 2c       	mov	r11, r1
    2fc8:	60 e0       	ldi	r22, 0x00	; 0
    2fca:	70 e0       	ldi	r23, 0x00	; 0
    2fcc:	80 e0       	ldi	r24, 0x00	; 0
    2fce:	9f e3       	ldi	r25, 0x3F	; 63
    2fd0:	7b 14       	cp	r7, r11
    2fd2:	39 f0       	breq	.+14     	; 0x2fe2 <_ZN5Print10printFloatEdh+0xf4>
    2fd4:	20 e0       	ldi	r18, 0x00	; 0
    2fd6:	30 e0       	ldi	r19, 0x00	; 0
    2fd8:	40 e2       	ldi	r20, 0x20	; 32
    2fda:	51 e4       	ldi	r21, 0x41	; 65
    2fdc:	84 d8       	rcall	.-3832   	; 0x20e6 <__divsf3>
    2fde:	b3 94       	inc	r11
    2fe0:	f7 cf       	rjmp	.-18     	; 0x2fd0 <_ZN5Print10printFloatEdh+0xe2>
    2fe2:	a7 01       	movw	r20, r14
    2fe4:	96 01       	movw	r18, r12
    2fe6:	17 d8       	rcall	.-4050   	; 0x2016 <__addsf3>
    2fe8:	6b 01       	movw	r12, r22
    2fea:	7c 01       	movw	r14, r24
    2fec:	e9 d8       	rcall	.-3630   	; 0x21c0 <__fixunssfsi>
    2fee:	4b 01       	movw	r8, r22
    2ff0:	5c 01       	movw	r10, r24
    2ff2:	2a e0       	ldi	r18, 0x0A	; 10
    2ff4:	ab 01       	movw	r20, r22
    2ff6:	bc 01       	movw	r22, r24
    2ff8:	c8 01       	movw	r24, r16
    2ffa:	af de       	rcall	.-674    	; 0x2d5a <_ZN5Print11printNumberEmh>
    2ffc:	c8 0f       	add	r28, r24
    2ffe:	d9 1f       	adc	r29, r25
    3000:	77 20       	and	r7, r7
    3002:	81 f1       	breq	.+96     	; 0x3064 <_ZN5Print10printFloatEdh+0x176>
    3004:	c5 01       	movw	r24, r10
    3006:	b4 01       	movw	r22, r8
    3008:	07 d9       	rcall	.-3570   	; 0x2218 <__floatunsisf>
    300a:	9b 01       	movw	r18, r22
    300c:	ac 01       	movw	r20, r24
    300e:	c7 01       	movw	r24, r14
    3010:	b6 01       	movw	r22, r12
    3012:	00 d8       	rcall	.-4096   	; 0x2014 <__subsf3>
    3014:	6b 01       	movw	r12, r22
    3016:	7c 01       	movw	r14, r24
    3018:	6e e2       	ldi	r22, 0x2E	; 46
    301a:	c8 01       	movw	r24, r16
    301c:	54 de       	rcall	.-856    	; 0x2cc6 <_ZN5Print5printEc>
    301e:	c8 0f       	add	r28, r24
    3020:	d9 1f       	adc	r29, r25
    3022:	20 e0       	ldi	r18, 0x00	; 0
    3024:	30 e0       	ldi	r19, 0x00	; 0
    3026:	40 e2       	ldi	r20, 0x20	; 32
    3028:	51 e4       	ldi	r21, 0x41	; 65
    302a:	c7 01       	movw	r24, r14
    302c:	b6 01       	movw	r22, r12
    302e:	aa d9       	rcall	.-3244   	; 0x2384 <__mulsf3>
    3030:	4b 01       	movw	r8, r22
    3032:	5c 01       	movw	r10, r24
    3034:	c5 d8       	rcall	.-3702   	; 0x21c0 <__fixunssfsi>
    3036:	6b 01       	movw	r12, r22
    3038:	7c 01       	movw	r14, r24
    303a:	4a e0       	ldi	r20, 0x0A	; 10
    303c:	50 e0       	ldi	r21, 0x00	; 0
    303e:	c8 01       	movw	r24, r16
    3040:	f6 de       	rcall	.-532    	; 0x2e2e <_ZN5Print5printEji>
    3042:	c8 0f       	add	r28, r24
    3044:	d9 1f       	adc	r29, r25
    3046:	b6 01       	movw	r22, r12
    3048:	80 e0       	ldi	r24, 0x00	; 0
    304a:	90 e0       	ldi	r25, 0x00	; 0
    304c:	e5 d8       	rcall	.-3638   	; 0x2218 <__floatunsisf>
    304e:	9b 01       	movw	r18, r22
    3050:	ac 01       	movw	r20, r24
    3052:	c5 01       	movw	r24, r10
    3054:	b4 01       	movw	r22, r8
    3056:	0e 94 0a 10 	call	0x2014	; 0x2014 <__subsf3>
    305a:	6b 01       	movw	r12, r22
    305c:	7c 01       	movw	r14, r24
    305e:	7a 94       	dec	r7
    3060:	71 10       	cpse	r7, r1
    3062:	df cf       	rjmp	.-66     	; 0x3022 <_ZN5Print10printFloatEdh+0x134>
    3064:	ce 01       	movw	r24, r28
    3066:	df 91       	pop	r29
    3068:	cf 91       	pop	r28
    306a:	1f 91       	pop	r17
    306c:	0f 91       	pop	r16
    306e:	ff 90       	pop	r15
    3070:	ef 90       	pop	r14
    3072:	df 90       	pop	r13
    3074:	cf 90       	pop	r12
    3076:	bf 90       	pop	r11
    3078:	af 90       	pop	r10
    307a:	9f 90       	pop	r9
    307c:	8f 90       	pop	r8
    307e:	7f 90       	pop	r7
    3080:	08 95       	ret

00003082 <_ZN5Print5printEdi>:
    3082:	35 cf       	rjmp	.-406    	; 0x2eee <_ZN5Print10printFloatEdh>

00003084 <_ZN5Print7printlnEdi>:
    3084:	0f 93       	push	r16
    3086:	1f 93       	push	r17
    3088:	cf 93       	push	r28
    308a:	df 93       	push	r29
    308c:	ec 01       	movw	r28, r24
    308e:	2f df       	rcall	.-418    	; 0x2eee <_ZN5Print10printFloatEdh>
    3090:	8c 01       	movw	r16, r24
    3092:	ce 01       	movw	r24, r28
    3094:	1f de       	rcall	.-962    	; 0x2cd4 <_ZN5Print7printlnEv>
    3096:	80 0f       	add	r24, r16
    3098:	91 1f       	adc	r25, r17
    309a:	df 91       	pop	r29
    309c:	cf 91       	pop	r28
    309e:	1f 91       	pop	r17
    30a0:	0f 91       	pop	r16
    30a2:	08 95       	ret

000030a4 <_ZN6Stream9timedReadEv>:
    30a4:	0f 93       	push	r16
    30a6:	1f 93       	push	r17
    30a8:	cf 93       	push	r28
    30aa:	df 93       	push	r29
    30ac:	ec 01       	movw	r28, r24
    30ae:	89 d0       	rcall	.+274    	; 0x31c2 <millis>
    30b0:	68 87       	std	Y+8, r22	; 0x08
    30b2:	79 87       	std	Y+9, r23	; 0x09
    30b4:	8a 87       	std	Y+10, r24	; 0x0a
    30b6:	9b 87       	std	Y+11, r25	; 0x0b
    30b8:	e8 81       	ld	r30, Y
    30ba:	f9 81       	ldd	r31, Y+1	; 0x01
    30bc:	02 84       	ldd	r0, Z+10	; 0x0a
    30be:	f3 85       	ldd	r31, Z+11	; 0x0b
    30c0:	e0 2d       	mov	r30, r0
    30c2:	ce 01       	movw	r24, r28
    30c4:	19 95       	eicall
    30c6:	97 ff       	sbrs	r25, 7
    30c8:	16 c0       	rjmp	.+44     	; 0x30f6 <_ZN6Stream9timedReadEv+0x52>
    30ca:	7b d0       	rcall	.+246    	; 0x31c2 <millis>
    30cc:	08 85       	ldd	r16, Y+8	; 0x08
    30ce:	19 85       	ldd	r17, Y+9	; 0x09
    30d0:	2a 85       	ldd	r18, Y+10	; 0x0a
    30d2:	3b 85       	ldd	r19, Y+11	; 0x0b
    30d4:	dc 01       	movw	r26, r24
    30d6:	cb 01       	movw	r24, r22
    30d8:	80 1b       	sub	r24, r16
    30da:	91 0b       	sbc	r25, r17
    30dc:	a2 0b       	sbc	r26, r18
    30de:	b3 0b       	sbc	r27, r19
    30e0:	0c 81       	ldd	r16, Y+4	; 0x04
    30e2:	1d 81       	ldd	r17, Y+5	; 0x05
    30e4:	2e 81       	ldd	r18, Y+6	; 0x06
    30e6:	3f 81       	ldd	r19, Y+7	; 0x07
    30e8:	80 17       	cp	r24, r16
    30ea:	91 07       	cpc	r25, r17
    30ec:	a2 07       	cpc	r26, r18
    30ee:	b3 07       	cpc	r27, r19
    30f0:	18 f3       	brcs	.-58     	; 0x30b8 <_ZN6Stream9timedReadEv+0x14>
    30f2:	8f ef       	ldi	r24, 0xFF	; 255
    30f4:	9f ef       	ldi	r25, 0xFF	; 255
    30f6:	df 91       	pop	r29
    30f8:	cf 91       	pop	r28
    30fa:	1f 91       	pop	r17
    30fc:	0f 91       	pop	r16
    30fe:	08 95       	ret

00003100 <_ZN6Stream10readStringEv>:
    3100:	0f 93       	push	r16
    3102:	1f 93       	push	r17
    3104:	cf 93       	push	r28
    3106:	df 93       	push	r29
    3108:	ec 01       	movw	r28, r24
    310a:	8b 01       	movw	r16, r22
    310c:	62 e1       	ldi	r22, 0x12	; 18
    310e:	73 e0       	ldi	r23, 0x03	; 3
    3110:	ab d2       	rcall	.+1366   	; 0x3668 <_ZN6StringC1EPKc>
    3112:	c8 01       	movw	r24, r16
    3114:	c7 df       	rcall	.-114    	; 0x30a4 <_ZN6Stream9timedReadEv>
    3116:	97 fd       	sbrc	r25, 7
    3118:	04 c0       	rjmp	.+8      	; 0x3122 <_ZN6Stream10readStringEv+0x22>
    311a:	68 2f       	mov	r22, r24
    311c:	ce 01       	movw	r24, r28
    311e:	e5 d2       	rcall	.+1482   	; 0x36ea <_ZN6String6concatEc>
    3120:	f8 cf       	rjmp	.-16     	; 0x3112 <_ZN6Stream10readStringEv+0x12>
    3122:	ce 01       	movw	r24, r28
    3124:	df 91       	pop	r29
    3126:	cf 91       	pop	r28
    3128:	1f 91       	pop	r17
    312a:	0f 91       	pop	r16
    312c:	08 95       	ret

0000312e <__vector_23>:
    312e:	1f 92       	push	r1
    3130:	0f 92       	push	r0
    3132:	0f b6       	in	r0, 0x3f	; 63
    3134:	0f 92       	push	r0
    3136:	11 24       	eor	r1, r1
    3138:	2f 93       	push	r18
    313a:	3f 93       	push	r19
    313c:	8f 93       	push	r24
    313e:	9f 93       	push	r25
    3140:	af 93       	push	r26
    3142:	bf 93       	push	r27
    3144:	80 91 c7 10 	lds	r24, 0x10C7	; 0x8010c7 <timer0_millis>
    3148:	90 91 c8 10 	lds	r25, 0x10C8	; 0x8010c8 <timer0_millis+0x1>
    314c:	a0 91 c9 10 	lds	r26, 0x10C9	; 0x8010c9 <timer0_millis+0x2>
    3150:	b0 91 ca 10 	lds	r27, 0x10CA	; 0x8010ca <timer0_millis+0x3>
    3154:	30 91 c6 10 	lds	r19, 0x10C6	; 0x8010c6 <timer0_fract>
    3158:	23 e0       	ldi	r18, 0x03	; 3
    315a:	23 0f       	add	r18, r19
    315c:	2d 37       	cpi	r18, 0x7D	; 125
    315e:	20 f4       	brcc	.+8      	; 0x3168 <__vector_23+0x3a>
    3160:	01 96       	adiw	r24, 0x01	; 1
    3162:	a1 1d       	adc	r26, r1
    3164:	b1 1d       	adc	r27, r1
    3166:	05 c0       	rjmp	.+10     	; 0x3172 <__vector_23+0x44>
    3168:	26 e8       	ldi	r18, 0x86	; 134
    316a:	23 0f       	add	r18, r19
    316c:	02 96       	adiw	r24, 0x02	; 2
    316e:	a1 1d       	adc	r26, r1
    3170:	b1 1d       	adc	r27, r1
    3172:	20 93 c6 10 	sts	0x10C6, r18	; 0x8010c6 <timer0_fract>
    3176:	80 93 c7 10 	sts	0x10C7, r24	; 0x8010c7 <timer0_millis>
    317a:	90 93 c8 10 	sts	0x10C8, r25	; 0x8010c8 <timer0_millis+0x1>
    317e:	a0 93 c9 10 	sts	0x10C9, r26	; 0x8010c9 <timer0_millis+0x2>
    3182:	b0 93 ca 10 	sts	0x10CA, r27	; 0x8010ca <timer0_millis+0x3>
    3186:	80 91 cb 10 	lds	r24, 0x10CB	; 0x8010cb <timer0_overflow_count>
    318a:	90 91 cc 10 	lds	r25, 0x10CC	; 0x8010cc <timer0_overflow_count+0x1>
    318e:	a0 91 cd 10 	lds	r26, 0x10CD	; 0x8010cd <timer0_overflow_count+0x2>
    3192:	b0 91 ce 10 	lds	r27, 0x10CE	; 0x8010ce <timer0_overflow_count+0x3>
    3196:	01 96       	adiw	r24, 0x01	; 1
    3198:	a1 1d       	adc	r26, r1
    319a:	b1 1d       	adc	r27, r1
    319c:	80 93 cb 10 	sts	0x10CB, r24	; 0x8010cb <timer0_overflow_count>
    31a0:	90 93 cc 10 	sts	0x10CC, r25	; 0x8010cc <timer0_overflow_count+0x1>
    31a4:	a0 93 cd 10 	sts	0x10CD, r26	; 0x8010cd <timer0_overflow_count+0x2>
    31a8:	b0 93 ce 10 	sts	0x10CE, r27	; 0x8010ce <timer0_overflow_count+0x3>
    31ac:	bf 91       	pop	r27
    31ae:	af 91       	pop	r26
    31b0:	9f 91       	pop	r25
    31b2:	8f 91       	pop	r24
    31b4:	3f 91       	pop	r19
    31b6:	2f 91       	pop	r18
    31b8:	0f 90       	pop	r0
    31ba:	0f be       	out	0x3f, r0	; 63
    31bc:	0f 90       	pop	r0
    31be:	1f 90       	pop	r1
    31c0:	18 95       	reti

000031c2 <millis>:
    31c2:	2f b7       	in	r18, 0x3f	; 63
    31c4:	f8 94       	cli
    31c6:	60 91 c7 10 	lds	r22, 0x10C7	; 0x8010c7 <timer0_millis>
    31ca:	70 91 c8 10 	lds	r23, 0x10C8	; 0x8010c8 <timer0_millis+0x1>
    31ce:	80 91 c9 10 	lds	r24, 0x10C9	; 0x8010c9 <timer0_millis+0x2>
    31d2:	90 91 ca 10 	lds	r25, 0x10CA	; 0x8010ca <timer0_millis+0x3>
    31d6:	2f bf       	out	0x3f, r18	; 63
    31d8:	08 95       	ret

000031da <micros>:
    31da:	3f b7       	in	r19, 0x3f	; 63
    31dc:	f8 94       	cli
    31de:	80 91 cb 10 	lds	r24, 0x10CB	; 0x8010cb <timer0_overflow_count>
    31e2:	90 91 cc 10 	lds	r25, 0x10CC	; 0x8010cc <timer0_overflow_count+0x1>
    31e6:	a0 91 cd 10 	lds	r26, 0x10CD	; 0x8010cd <timer0_overflow_count+0x2>
    31ea:	b0 91 ce 10 	lds	r27, 0x10CE	; 0x8010ce <timer0_overflow_count+0x3>
    31ee:	26 b5       	in	r18, 0x26	; 38
    31f0:	a8 9b       	sbis	0x15, 0	; 21
    31f2:	05 c0       	rjmp	.+10     	; 0x31fe <micros+0x24>
    31f4:	2f 3f       	cpi	r18, 0xFF	; 255
    31f6:	19 f0       	breq	.+6      	; 0x31fe <micros+0x24>
    31f8:	01 96       	adiw	r24, 0x01	; 1
    31fa:	a1 1d       	adc	r26, r1
    31fc:	b1 1d       	adc	r27, r1
    31fe:	3f bf       	out	0x3f, r19	; 63
    3200:	ba 2f       	mov	r27, r26
    3202:	a9 2f       	mov	r26, r25
    3204:	98 2f       	mov	r25, r24
    3206:	88 27       	eor	r24, r24
    3208:	82 0f       	add	r24, r18
    320a:	91 1d       	adc	r25, r1
    320c:	a1 1d       	adc	r26, r1
    320e:	b1 1d       	adc	r27, r1
    3210:	bc 01       	movw	r22, r24
    3212:	cd 01       	movw	r24, r26
    3214:	42 e0       	ldi	r20, 0x02	; 2
    3216:	66 0f       	add	r22, r22
    3218:	77 1f       	adc	r23, r23
    321a:	88 1f       	adc	r24, r24
    321c:	99 1f       	adc	r25, r25
    321e:	4a 95       	dec	r20
    3220:	d1 f7       	brne	.-12     	; 0x3216 <micros+0x3c>
    3222:	08 95       	ret

00003224 <delay>:
    3224:	8f 92       	push	r8
    3226:	9f 92       	push	r9
    3228:	af 92       	push	r10
    322a:	bf 92       	push	r11
    322c:	cf 92       	push	r12
    322e:	df 92       	push	r13
    3230:	ef 92       	push	r14
    3232:	ff 92       	push	r15
    3234:	6b 01       	movw	r12, r22
    3236:	7c 01       	movw	r14, r24
    3238:	d0 df       	rcall	.-96     	; 0x31da <micros>
    323a:	4b 01       	movw	r8, r22
    323c:	5c 01       	movw	r10, r24
    323e:	c1 14       	cp	r12, r1
    3240:	d1 04       	cpc	r13, r1
    3242:	e1 04       	cpc	r14, r1
    3244:	f1 04       	cpc	r15, r1
    3246:	f9 f0       	breq	.+62     	; 0x3286 <delay+0x62>
    3248:	0e 94 15 30 	call	0x602a	; 0x602a <yield>
    324c:	c6 df       	rcall	.-116    	; 0x31da <micros>
    324e:	dc 01       	movw	r26, r24
    3250:	cb 01       	movw	r24, r22
    3252:	88 19       	sub	r24, r8
    3254:	99 09       	sbc	r25, r9
    3256:	aa 09       	sbc	r26, r10
    3258:	bb 09       	sbc	r27, r11
    325a:	88 3e       	cpi	r24, 0xE8	; 232
    325c:	93 40       	sbci	r25, 0x03	; 3
    325e:	a1 05       	cpc	r26, r1
    3260:	b1 05       	cpc	r27, r1
    3262:	68 f3       	brcs	.-38     	; 0x323e <delay+0x1a>
    3264:	21 e0       	ldi	r18, 0x01	; 1
    3266:	c2 1a       	sub	r12, r18
    3268:	d1 08       	sbc	r13, r1
    326a:	e1 08       	sbc	r14, r1
    326c:	f1 08       	sbc	r15, r1
    326e:	88 ee       	ldi	r24, 0xE8	; 232
    3270:	88 0e       	add	r8, r24
    3272:	83 e0       	ldi	r24, 0x03	; 3
    3274:	98 1e       	adc	r9, r24
    3276:	a1 1c       	adc	r10, r1
    3278:	b1 1c       	adc	r11, r1
    327a:	c1 14       	cp	r12, r1
    327c:	d1 04       	cpc	r13, r1
    327e:	e1 04       	cpc	r14, r1
    3280:	f1 04       	cpc	r15, r1
    3282:	21 f7       	brne	.-56     	; 0x324c <delay+0x28>
    3284:	dc cf       	rjmp	.-72     	; 0x323e <delay+0x1a>
    3286:	ff 90       	pop	r15
    3288:	ef 90       	pop	r14
    328a:	df 90       	pop	r13
    328c:	cf 90       	pop	r12
    328e:	bf 90       	pop	r11
    3290:	af 90       	pop	r10
    3292:	9f 90       	pop	r9
    3294:	8f 90       	pop	r8
    3296:	08 95       	ret

00003298 <delayMicroseconds>:
    3298:	82 30       	cpi	r24, 0x02	; 2
    329a:	91 05       	cpc	r25, r1
    329c:	38 f0       	brcs	.+14     	; 0x32ac <delayMicroseconds+0x14>
    329e:	88 0f       	add	r24, r24
    32a0:	99 1f       	adc	r25, r25
    32a2:	88 0f       	add	r24, r24
    32a4:	99 1f       	adc	r25, r25
    32a6:	05 97       	sbiw	r24, 0x05	; 5
    32a8:	01 97       	sbiw	r24, 0x01	; 1
    32aa:	f1 f7       	brne	.-4      	; 0x32a8 <delayMicroseconds+0x10>
    32ac:	08 95       	ret

000032ae <init>:
    32ae:	78 94       	sei
    32b0:	84 b5       	in	r24, 0x24	; 36
    32b2:	82 60       	ori	r24, 0x02	; 2
    32b4:	84 bd       	out	0x24, r24	; 36
    32b6:	84 b5       	in	r24, 0x24	; 36
    32b8:	81 60       	ori	r24, 0x01	; 1
    32ba:	84 bd       	out	0x24, r24	; 36
    32bc:	85 b5       	in	r24, 0x25	; 37
    32be:	82 60       	ori	r24, 0x02	; 2
    32c0:	85 bd       	out	0x25, r24	; 37
    32c2:	85 b5       	in	r24, 0x25	; 37
    32c4:	81 60       	ori	r24, 0x01	; 1
    32c6:	85 bd       	out	0x25, r24	; 37
    32c8:	ee e6       	ldi	r30, 0x6E	; 110
    32ca:	f0 e0       	ldi	r31, 0x00	; 0
    32cc:	80 81       	ld	r24, Z
    32ce:	81 60       	ori	r24, 0x01	; 1
    32d0:	80 83       	st	Z, r24
    32d2:	e1 e8       	ldi	r30, 0x81	; 129
    32d4:	f0 e0       	ldi	r31, 0x00	; 0
    32d6:	10 82       	st	Z, r1
    32d8:	80 81       	ld	r24, Z
    32da:	82 60       	ori	r24, 0x02	; 2
    32dc:	80 83       	st	Z, r24
    32de:	80 81       	ld	r24, Z
    32e0:	81 60       	ori	r24, 0x01	; 1
    32e2:	80 83       	st	Z, r24
    32e4:	e0 e8       	ldi	r30, 0x80	; 128
    32e6:	f0 e0       	ldi	r31, 0x00	; 0
    32e8:	80 81       	ld	r24, Z
    32ea:	81 60       	ori	r24, 0x01	; 1
    32ec:	80 83       	st	Z, r24
    32ee:	e1 eb       	ldi	r30, 0xB1	; 177
    32f0:	f0 e0       	ldi	r31, 0x00	; 0
    32f2:	80 81       	ld	r24, Z
    32f4:	84 60       	ori	r24, 0x04	; 4
    32f6:	80 83       	st	Z, r24
    32f8:	e0 eb       	ldi	r30, 0xB0	; 176
    32fa:	f0 e0       	ldi	r31, 0x00	; 0
    32fc:	80 81       	ld	r24, Z
    32fe:	81 60       	ori	r24, 0x01	; 1
    3300:	80 83       	st	Z, r24
    3302:	e1 e9       	ldi	r30, 0x91	; 145
    3304:	f0 e0       	ldi	r31, 0x00	; 0
    3306:	80 81       	ld	r24, Z
    3308:	82 60       	ori	r24, 0x02	; 2
    330a:	80 83       	st	Z, r24
    330c:	80 81       	ld	r24, Z
    330e:	81 60       	ori	r24, 0x01	; 1
    3310:	80 83       	st	Z, r24
    3312:	e0 e9       	ldi	r30, 0x90	; 144
    3314:	f0 e0       	ldi	r31, 0x00	; 0
    3316:	80 81       	ld	r24, Z
    3318:	81 60       	ori	r24, 0x01	; 1
    331a:	80 83       	st	Z, r24
    331c:	e1 ea       	ldi	r30, 0xA1	; 161
    331e:	f0 e0       	ldi	r31, 0x00	; 0
    3320:	80 81       	ld	r24, Z
    3322:	82 60       	ori	r24, 0x02	; 2
    3324:	80 83       	st	Z, r24
    3326:	80 81       	ld	r24, Z
    3328:	81 60       	ori	r24, 0x01	; 1
    332a:	80 83       	st	Z, r24
    332c:	e0 ea       	ldi	r30, 0xA0	; 160
    332e:	f0 e0       	ldi	r31, 0x00	; 0
    3330:	80 81       	ld	r24, Z
    3332:	81 60       	ori	r24, 0x01	; 1
    3334:	80 83       	st	Z, r24
    3336:	e1 e2       	ldi	r30, 0x21	; 33
    3338:	f1 e0       	ldi	r31, 0x01	; 1
    333a:	80 81       	ld	r24, Z
    333c:	82 60       	ori	r24, 0x02	; 2
    333e:	80 83       	st	Z, r24
    3340:	80 81       	ld	r24, Z
    3342:	81 60       	ori	r24, 0x01	; 1
    3344:	80 83       	st	Z, r24
    3346:	e0 e2       	ldi	r30, 0x20	; 32
    3348:	f1 e0       	ldi	r31, 0x01	; 1
    334a:	80 81       	ld	r24, Z
    334c:	81 60       	ori	r24, 0x01	; 1
    334e:	80 83       	st	Z, r24
    3350:	ea e7       	ldi	r30, 0x7A	; 122
    3352:	f0 e0       	ldi	r31, 0x00	; 0
    3354:	80 81       	ld	r24, Z
    3356:	84 60       	ori	r24, 0x04	; 4
    3358:	80 83       	st	Z, r24
    335a:	80 81       	ld	r24, Z
    335c:	82 60       	ori	r24, 0x02	; 2
    335e:	80 83       	st	Z, r24
    3360:	80 81       	ld	r24, Z
    3362:	81 60       	ori	r24, 0x01	; 1
    3364:	80 83       	st	Z, r24
    3366:	80 81       	ld	r24, Z
    3368:	80 68       	ori	r24, 0x80	; 128
    336a:	80 83       	st	Z, r24
    336c:	10 92 c1 00 	sts	0x00C1, r1	; 0x8000c1 <__TEXT_REGION_LENGTH__+0x7000c1>
    3370:	08 95       	ret

00003372 <analogRead>:
    3372:	86 33       	cpi	r24, 0x36	; 54
    3374:	08 f0       	brcs	.+2      	; 0x3378 <analogRead+0x6>
    3376:	86 53       	subi	r24, 0x36	; 54
    3378:	90 91 7b 00 	lds	r25, 0x007B	; 0x80007b <__TEXT_REGION_LENGTH__+0x70007b>
    337c:	28 2f       	mov	r18, r24
    337e:	28 70       	andi	r18, 0x08	; 8
    3380:	97 7f       	andi	r25, 0xF7	; 247
    3382:	92 2b       	or	r25, r18
    3384:	90 93 7b 00 	sts	0x007B, r25	; 0x80007b <__TEXT_REGION_LENGTH__+0x70007b>
    3388:	20 91 0f 02 	lds	r18, 0x020F	; 0x80020f <analog_reference>
    338c:	90 e4       	ldi	r25, 0x40	; 64
    338e:	29 9f       	mul	r18, r25
    3390:	90 01       	movw	r18, r0
    3392:	11 24       	eor	r1, r1
    3394:	87 70       	andi	r24, 0x07	; 7
    3396:	82 2b       	or	r24, r18
    3398:	80 93 7c 00 	sts	0x007C, r24	; 0x80007c <__TEXT_REGION_LENGTH__+0x70007c>
    339c:	80 91 7a 00 	lds	r24, 0x007A	; 0x80007a <__TEXT_REGION_LENGTH__+0x70007a>
    33a0:	80 64       	ori	r24, 0x40	; 64
    33a2:	80 93 7a 00 	sts	0x007A, r24	; 0x80007a <__TEXT_REGION_LENGTH__+0x70007a>
    33a6:	80 91 7a 00 	lds	r24, 0x007A	; 0x80007a <__TEXT_REGION_LENGTH__+0x70007a>
    33aa:	86 fd       	sbrc	r24, 6
    33ac:	fc cf       	rjmp	.-8      	; 0x33a6 <analogRead+0x34>
    33ae:	80 91 78 00 	lds	r24, 0x0078	; 0x800078 <__TEXT_REGION_LENGTH__+0x700078>
    33b2:	20 91 79 00 	lds	r18, 0x0079	; 0x800079 <__TEXT_REGION_LENGTH__+0x700079>
    33b6:	90 e0       	ldi	r25, 0x00	; 0
    33b8:	92 2b       	or	r25, r18
    33ba:	08 95       	ret

000033bc <turnOffPWM>:
    33bc:	90 e0       	ldi	r25, 0x00	; 0
    33be:	fc 01       	movw	r30, r24
    33c0:	31 97       	sbiw	r30, 0x01	; 1
    33c2:	e2 31       	cpi	r30, 0x12	; 18
    33c4:	f1 05       	cpc	r31, r1
    33c6:	08 f0       	brcs	.+2      	; 0x33ca <turnOffPWM+0xe>
    33c8:	4e c0       	rjmp	.+156    	; 0x3466 <turnOffPWM+0xaa>
    33ca:	88 27       	eor	r24, r24
    33cc:	e4 58       	subi	r30, 0x84	; 132
    33ce:	ff 4f       	sbci	r31, 0xFF	; 255
    33d0:	8f 4f       	sbci	r24, 0xFF	; 255
    33d2:	0c 94 93 40 	jmp	0x8126	; 0x8126 <__tablejump2__>
    33d6:	80 91 80 00 	lds	r24, 0x0080	; 0x800080 <__TEXT_REGION_LENGTH__+0x700080>
    33da:	8f 77       	andi	r24, 0x7F	; 127
    33dc:	03 c0       	rjmp	.+6      	; 0x33e4 <turnOffPWM+0x28>
    33de:	80 91 80 00 	lds	r24, 0x0080	; 0x800080 <__TEXT_REGION_LENGTH__+0x700080>
    33e2:	8f 7d       	andi	r24, 0xDF	; 223
    33e4:	80 93 80 00 	sts	0x0080, r24	; 0x800080 <__TEXT_REGION_LENGTH__+0x700080>
    33e8:	08 95       	ret
    33ea:	80 91 80 00 	lds	r24, 0x0080	; 0x800080 <__TEXT_REGION_LENGTH__+0x700080>
    33ee:	87 7f       	andi	r24, 0xF7	; 247
    33f0:	f9 cf       	rjmp	.-14     	; 0x33e4 <turnOffPWM+0x28>
    33f2:	84 b5       	in	r24, 0x24	; 36
    33f4:	8f 77       	andi	r24, 0x7F	; 127
    33f6:	02 c0       	rjmp	.+4      	; 0x33fc <turnOffPWM+0x40>
    33f8:	84 b5       	in	r24, 0x24	; 36
    33fa:	8f 7d       	andi	r24, 0xDF	; 223
    33fc:	84 bd       	out	0x24, r24	; 36
    33fe:	08 95       	ret
    3400:	80 91 b0 00 	lds	r24, 0x00B0	; 0x8000b0 <__TEXT_REGION_LENGTH__+0x7000b0>
    3404:	8f 77       	andi	r24, 0x7F	; 127
    3406:	03 c0       	rjmp	.+6      	; 0x340e <turnOffPWM+0x52>
    3408:	80 91 b0 00 	lds	r24, 0x00B0	; 0x8000b0 <__TEXT_REGION_LENGTH__+0x7000b0>
    340c:	8f 7d       	andi	r24, 0xDF	; 223
    340e:	80 93 b0 00 	sts	0x00B0, r24	; 0x8000b0 <__TEXT_REGION_LENGTH__+0x7000b0>
    3412:	08 95       	ret
    3414:	80 91 90 00 	lds	r24, 0x0090	; 0x800090 <__TEXT_REGION_LENGTH__+0x700090>
    3418:	8f 77       	andi	r24, 0x7F	; 127
    341a:	07 c0       	rjmp	.+14     	; 0x342a <turnOffPWM+0x6e>
    341c:	80 91 90 00 	lds	r24, 0x0090	; 0x800090 <__TEXT_REGION_LENGTH__+0x700090>
    3420:	8f 7d       	andi	r24, 0xDF	; 223
    3422:	03 c0       	rjmp	.+6      	; 0x342a <turnOffPWM+0x6e>
    3424:	80 91 90 00 	lds	r24, 0x0090	; 0x800090 <__TEXT_REGION_LENGTH__+0x700090>
    3428:	87 7f       	andi	r24, 0xF7	; 247
    342a:	80 93 90 00 	sts	0x0090, r24	; 0x800090 <__TEXT_REGION_LENGTH__+0x700090>
    342e:	08 95       	ret
    3430:	80 91 a0 00 	lds	r24, 0x00A0	; 0x8000a0 <__TEXT_REGION_LENGTH__+0x7000a0>
    3434:	8f 77       	andi	r24, 0x7F	; 127
    3436:	07 c0       	rjmp	.+14     	; 0x3446 <turnOffPWM+0x8a>
    3438:	80 91 a0 00 	lds	r24, 0x00A0	; 0x8000a0 <__TEXT_REGION_LENGTH__+0x7000a0>
    343c:	8f 7d       	andi	r24, 0xDF	; 223
    343e:	03 c0       	rjmp	.+6      	; 0x3446 <turnOffPWM+0x8a>
    3440:	80 91 a0 00 	lds	r24, 0x00A0	; 0x8000a0 <__TEXT_REGION_LENGTH__+0x7000a0>
    3444:	87 7f       	andi	r24, 0xF7	; 247
    3446:	80 93 a0 00 	sts	0x00A0, r24	; 0x8000a0 <__TEXT_REGION_LENGTH__+0x7000a0>
    344a:	08 95       	ret
    344c:	80 91 20 01 	lds	r24, 0x0120	; 0x800120 <__TEXT_REGION_LENGTH__+0x700120>
    3450:	8f 77       	andi	r24, 0x7F	; 127
    3452:	07 c0       	rjmp	.+14     	; 0x3462 <turnOffPWM+0xa6>
    3454:	80 91 20 01 	lds	r24, 0x0120	; 0x800120 <__TEXT_REGION_LENGTH__+0x700120>
    3458:	8f 7d       	andi	r24, 0xDF	; 223
    345a:	03 c0       	rjmp	.+6      	; 0x3462 <turnOffPWM+0xa6>
    345c:	80 91 20 01 	lds	r24, 0x0120	; 0x800120 <__TEXT_REGION_LENGTH__+0x700120>
    3460:	87 7f       	andi	r24, 0xF7	; 247
    3462:	80 93 20 01 	sts	0x0120, r24	; 0x800120 <__TEXT_REGION_LENGTH__+0x700120>
    3466:	08 95       	ret

00003468 <pinMode>:
    3468:	cf 93       	push	r28
    346a:	df 93       	push	r29
    346c:	90 e0       	ldi	r25, 0x00	; 0
    346e:	fc 01       	movw	r30, r24
    3470:	e0 54       	subi	r30, 0x40	; 64
    3472:	fe 4f       	sbci	r31, 0xFE	; 254
    3474:	24 91       	lpm	r18, Z
    3476:	fc 01       	movw	r30, r24
    3478:	ea 5f       	subi	r30, 0xFA	; 250
    347a:	fd 4f       	sbci	r31, 0xFD	; 253
    347c:	84 91       	lpm	r24, Z
    347e:	88 23       	and	r24, r24
    3480:	61 f1       	breq	.+88     	; 0x34da <pinMode+0x72>
    3482:	90 e0       	ldi	r25, 0x00	; 0
    3484:	88 0f       	add	r24, r24
    3486:	99 1f       	adc	r25, r25
    3488:	fc 01       	movw	r30, r24
    348a:	e0 58       	subi	r30, 0x80	; 128
    348c:	fd 4f       	sbci	r31, 0xFD	; 253
    348e:	c5 91       	lpm	r28, Z+
    3490:	d4 91       	lpm	r29, Z
    3492:	fc 01       	movw	r30, r24
    3494:	ea 59       	subi	r30, 0x9A	; 154
    3496:	fd 4f       	sbci	r31, 0xFD	; 253
    3498:	a5 91       	lpm	r26, Z+
    349a:	b4 91       	lpm	r27, Z
    349c:	61 11       	cpse	r22, r1
    349e:	09 c0       	rjmp	.+18     	; 0x34b2 <pinMode+0x4a>
    34a0:	9f b7       	in	r25, 0x3f	; 63
    34a2:	f8 94       	cli
    34a4:	88 81       	ld	r24, Y
    34a6:	20 95       	com	r18
    34a8:	82 23       	and	r24, r18
    34aa:	88 83       	st	Y, r24
    34ac:	ec 91       	ld	r30, X
    34ae:	2e 23       	and	r18, r30
    34b0:	0b c0       	rjmp	.+22     	; 0x34c8 <pinMode+0x60>
    34b2:	62 30       	cpi	r22, 0x02	; 2
    34b4:	61 f4       	brne	.+24     	; 0x34ce <pinMode+0x66>
    34b6:	9f b7       	in	r25, 0x3f	; 63
    34b8:	f8 94       	cli
    34ba:	88 81       	ld	r24, Y
    34bc:	32 2f       	mov	r19, r18
    34be:	30 95       	com	r19
    34c0:	83 23       	and	r24, r19
    34c2:	88 83       	st	Y, r24
    34c4:	ec 91       	ld	r30, X
    34c6:	2e 2b       	or	r18, r30
    34c8:	2c 93       	st	X, r18
    34ca:	9f bf       	out	0x3f, r25	; 63
    34cc:	06 c0       	rjmp	.+12     	; 0x34da <pinMode+0x72>
    34ce:	8f b7       	in	r24, 0x3f	; 63
    34d0:	f8 94       	cli
    34d2:	e8 81       	ld	r30, Y
    34d4:	2e 2b       	or	r18, r30
    34d6:	28 83       	st	Y, r18
    34d8:	8f bf       	out	0x3f, r24	; 63
    34da:	df 91       	pop	r29
    34dc:	cf 91       	pop	r28
    34de:	08 95       	ret

000034e0 <digitalWrite>:
    34e0:	1f 93       	push	r17
    34e2:	cf 93       	push	r28
    34e4:	df 93       	push	r29
    34e6:	28 2f       	mov	r18, r24
    34e8:	30 e0       	ldi	r19, 0x00	; 0
    34ea:	f9 01       	movw	r30, r18
    34ec:	e6 58       	subi	r30, 0x86	; 134
    34ee:	fe 4f       	sbci	r31, 0xFE	; 254
    34f0:	84 91       	lpm	r24, Z
    34f2:	f9 01       	movw	r30, r18
    34f4:	e0 54       	subi	r30, 0x40	; 64
    34f6:	fe 4f       	sbci	r31, 0xFE	; 254
    34f8:	d4 91       	lpm	r29, Z
    34fa:	f9 01       	movw	r30, r18
    34fc:	ea 5f       	subi	r30, 0xFA	; 250
    34fe:	fd 4f       	sbci	r31, 0xFD	; 253
    3500:	c4 91       	lpm	r28, Z
    3502:	cc 23       	and	r28, r28
    3504:	b9 f0       	breq	.+46     	; 0x3534 <digitalWrite+0x54>
    3506:	16 2f       	mov	r17, r22
    3508:	81 11       	cpse	r24, r1
    350a:	58 df       	rcall	.-336    	; 0x33bc <turnOffPWM>
    350c:	ec 2f       	mov	r30, r28
    350e:	f0 e0       	ldi	r31, 0x00	; 0
    3510:	ee 0f       	add	r30, r30
    3512:	ff 1f       	adc	r31, r31
    3514:	ea 59       	subi	r30, 0x9A	; 154
    3516:	fd 4f       	sbci	r31, 0xFD	; 253
    3518:	a5 91       	lpm	r26, Z+
    351a:	b4 91       	lpm	r27, Z
    351c:	9f b7       	in	r25, 0x3f	; 63
    351e:	f8 94       	cli
    3520:	11 11       	cpse	r17, r1
    3522:	04 c0       	rjmp	.+8      	; 0x352c <digitalWrite+0x4c>
    3524:	8c 91       	ld	r24, X
    3526:	d0 95       	com	r29
    3528:	d8 23       	and	r29, r24
    352a:	02 c0       	rjmp	.+4      	; 0x3530 <digitalWrite+0x50>
    352c:	ec 91       	ld	r30, X
    352e:	de 2b       	or	r29, r30
    3530:	dc 93       	st	X, r29
    3532:	9f bf       	out	0x3f, r25	; 63
    3534:	df 91       	pop	r29
    3536:	cf 91       	pop	r28
    3538:	1f 91       	pop	r17
    353a:	08 95       	ret

0000353c <digitalRead>:
    353c:	cf 93       	push	r28
    353e:	df 93       	push	r29
    3540:	28 2f       	mov	r18, r24
    3542:	30 e0       	ldi	r19, 0x00	; 0
    3544:	f9 01       	movw	r30, r18
    3546:	e6 58       	subi	r30, 0x86	; 134
    3548:	fe 4f       	sbci	r31, 0xFE	; 254
    354a:	84 91       	lpm	r24, Z
    354c:	f9 01       	movw	r30, r18
    354e:	e0 54       	subi	r30, 0x40	; 64
    3550:	fe 4f       	sbci	r31, 0xFE	; 254
    3552:	d4 91       	lpm	r29, Z
    3554:	f9 01       	movw	r30, r18
    3556:	ea 5f       	subi	r30, 0xFA	; 250
    3558:	fd 4f       	sbci	r31, 0xFD	; 253
    355a:	c4 91       	lpm	r28, Z
    355c:	cc 23       	and	r28, r28
    355e:	89 f0       	breq	.+34     	; 0x3582 <digitalRead+0x46>
    3560:	81 11       	cpse	r24, r1
    3562:	2c df       	rcall	.-424    	; 0x33bc <turnOffPWM>
    3564:	ec 2f       	mov	r30, r28
    3566:	f0 e0       	ldi	r31, 0x00	; 0
    3568:	ee 0f       	add	r30, r30
    356a:	ff 1f       	adc	r31, r31
    356c:	e4 5b       	subi	r30, 0xB4	; 180
    356e:	fd 4f       	sbci	r31, 0xFD	; 253
    3570:	a5 91       	lpm	r26, Z+
    3572:	b4 91       	lpm	r27, Z
    3574:	ec 91       	ld	r30, X
    3576:	ed 23       	and	r30, r29
    3578:	81 e0       	ldi	r24, 0x01	; 1
    357a:	90 e0       	ldi	r25, 0x00	; 0
    357c:	21 f4       	brne	.+8      	; 0x3586 <digitalRead+0x4a>
    357e:	80 e0       	ldi	r24, 0x00	; 0
    3580:	02 c0       	rjmp	.+4      	; 0x3586 <digitalRead+0x4a>
    3582:	80 e0       	ldi	r24, 0x00	; 0
    3584:	90 e0       	ldi	r25, 0x00	; 0
    3586:	df 91       	pop	r29
    3588:	cf 91       	pop	r28
    358a:	08 95       	ret

0000358c <_ZN6StringD1Ev>:
    358c:	fc 01       	movw	r30, r24
    358e:	80 81       	ld	r24, Z
    3590:	91 81       	ldd	r25, Z+1	; 0x01
    3592:	00 97       	sbiw	r24, 0x00	; 0
    3594:	11 f0       	breq	.+4      	; 0x359a <_ZN6StringD1Ev+0xe>
    3596:	0c 94 6c 41 	jmp	0x82d8	; 0x82d8 <free>
    359a:	08 95       	ret

0000359c <_ZN6String10invalidateEv>:
    359c:	cf 93       	push	r28
    359e:	df 93       	push	r29
    35a0:	ec 01       	movw	r28, r24
    35a2:	88 81       	ld	r24, Y
    35a4:	99 81       	ldd	r25, Y+1	; 0x01
    35a6:	00 97       	sbiw	r24, 0x00	; 0
    35a8:	11 f0       	breq	.+4      	; 0x35ae <_ZN6String10invalidateEv+0x12>
    35aa:	0e 94 6c 41 	call	0x82d8	; 0x82d8 <free>
    35ae:	19 82       	std	Y+1, r1	; 0x01
    35b0:	18 82       	st	Y, r1
    35b2:	1d 82       	std	Y+5, r1	; 0x05
    35b4:	1c 82       	std	Y+4, r1	; 0x04
    35b6:	1b 82       	std	Y+3, r1	; 0x03
    35b8:	1a 82       	std	Y+2, r1	; 0x02
    35ba:	df 91       	pop	r29
    35bc:	cf 91       	pop	r28
    35be:	08 95       	ret

000035c0 <_ZN6String12changeBufferEj>:
    35c0:	0f 93       	push	r16
    35c2:	1f 93       	push	r17
    35c4:	cf 93       	push	r28
    35c6:	df 93       	push	r29
    35c8:	ec 01       	movw	r28, r24
    35ca:	8b 01       	movw	r16, r22
    35cc:	6f 5f       	subi	r22, 0xFF	; 255
    35ce:	7f 4f       	sbci	r23, 0xFF	; 255
    35d0:	88 81       	ld	r24, Y
    35d2:	99 81       	ldd	r25, Y+1	; 0x01
    35d4:	0e 94 f5 41 	call	0x83ea	; 0x83ea <realloc>
    35d8:	00 97       	sbiw	r24, 0x00	; 0
    35da:	31 f0       	breq	.+12     	; 0x35e8 <_ZN6String12changeBufferEj+0x28>
    35dc:	99 83       	std	Y+1, r25	; 0x01
    35de:	88 83       	st	Y, r24
    35e0:	1b 83       	std	Y+3, r17	; 0x03
    35e2:	0a 83       	std	Y+2, r16	; 0x02
    35e4:	81 e0       	ldi	r24, 0x01	; 1
    35e6:	01 c0       	rjmp	.+2      	; 0x35ea <_ZN6String12changeBufferEj+0x2a>
    35e8:	80 e0       	ldi	r24, 0x00	; 0
    35ea:	df 91       	pop	r29
    35ec:	cf 91       	pop	r28
    35ee:	1f 91       	pop	r17
    35f0:	0f 91       	pop	r16
    35f2:	08 95       	ret

000035f4 <_ZN6String7reserveEj>:
    35f4:	cf 93       	push	r28
    35f6:	df 93       	push	r29
    35f8:	ec 01       	movw	r28, r24
    35fa:	88 81       	ld	r24, Y
    35fc:	99 81       	ldd	r25, Y+1	; 0x01
    35fe:	89 2b       	or	r24, r25
    3600:	29 f0       	breq	.+10     	; 0x360c <_ZN6String7reserveEj+0x18>
    3602:	8a 81       	ldd	r24, Y+2	; 0x02
    3604:	9b 81       	ldd	r25, Y+3	; 0x03
    3606:	86 17       	cp	r24, r22
    3608:	97 07       	cpc	r25, r23
    360a:	58 f4       	brcc	.+22     	; 0x3622 <_ZN6String7reserveEj+0x2e>
    360c:	ce 01       	movw	r24, r28
    360e:	d8 df       	rcall	.-80     	; 0x35c0 <_ZN6String12changeBufferEj>
    3610:	88 23       	and	r24, r24
    3612:	41 f0       	breq	.+16     	; 0x3624 <_ZN6String7reserveEj+0x30>
    3614:	8c 81       	ldd	r24, Y+4	; 0x04
    3616:	9d 81       	ldd	r25, Y+5	; 0x05
    3618:	89 2b       	or	r24, r25
    361a:	19 f4       	brne	.+6      	; 0x3622 <_ZN6String7reserveEj+0x2e>
    361c:	e8 81       	ld	r30, Y
    361e:	f9 81       	ldd	r31, Y+1	; 0x01
    3620:	10 82       	st	Z, r1
    3622:	81 e0       	ldi	r24, 0x01	; 1
    3624:	df 91       	pop	r29
    3626:	cf 91       	pop	r28
    3628:	08 95       	ret

0000362a <_ZN6String4copyEPKcj>:
    362a:	ef 92       	push	r14
    362c:	ff 92       	push	r15
    362e:	0f 93       	push	r16
    3630:	1f 93       	push	r17
    3632:	cf 93       	push	r28
    3634:	df 93       	push	r29
    3636:	ec 01       	movw	r28, r24
    3638:	7b 01       	movw	r14, r22
    363a:	8a 01       	movw	r16, r20
    363c:	ba 01       	movw	r22, r20
    363e:	da df       	rcall	.-76     	; 0x35f4 <_ZN6String7reserveEj>
    3640:	81 11       	cpse	r24, r1
    3642:	03 c0       	rjmp	.+6      	; 0x364a <_ZN6String4copyEPKcj+0x20>
    3644:	ce 01       	movw	r24, r28
    3646:	aa df       	rcall	.-172    	; 0x359c <_ZN6String10invalidateEv>
    3648:	07 c0       	rjmp	.+14     	; 0x3658 <_ZN6String4copyEPKcj+0x2e>
    364a:	1d 83       	std	Y+5, r17	; 0x05
    364c:	0c 83       	std	Y+4, r16	; 0x04
    364e:	b7 01       	movw	r22, r14
    3650:	88 81       	ld	r24, Y
    3652:	99 81       	ldd	r25, Y+1	; 0x01
    3654:	0e 94 78 43 	call	0x86f0	; 0x86f0 <strcpy>
    3658:	ce 01       	movw	r24, r28
    365a:	df 91       	pop	r29
    365c:	cf 91       	pop	r28
    365e:	1f 91       	pop	r17
    3660:	0f 91       	pop	r16
    3662:	ff 90       	pop	r15
    3664:	ef 90       	pop	r14
    3666:	08 95       	ret

00003668 <_ZN6StringC1EPKc>:
    3668:	fc 01       	movw	r30, r24
    366a:	11 82       	std	Z+1, r1	; 0x01
    366c:	10 82       	st	Z, r1
    366e:	13 82       	std	Z+3, r1	; 0x03
    3670:	12 82       	std	Z+2, r1	; 0x02
    3672:	15 82       	std	Z+5, r1	; 0x05
    3674:	14 82       	std	Z+4, r1	; 0x04
    3676:	61 15       	cp	r22, r1
    3678:	71 05       	cpc	r23, r1
    367a:	49 f0       	breq	.+18     	; 0x368e <_ZN6StringC1EPKc+0x26>
    367c:	fb 01       	movw	r30, r22
    367e:	01 90       	ld	r0, Z+
    3680:	00 20       	and	r0, r0
    3682:	e9 f7       	brne	.-6      	; 0x367e <_ZN6StringC1EPKc+0x16>
    3684:	31 97       	sbiw	r30, 0x01	; 1
    3686:	af 01       	movw	r20, r30
    3688:	46 1b       	sub	r20, r22
    368a:	57 0b       	sbc	r21, r23
    368c:	ce cf       	rjmp	.-100    	; 0x362a <_ZN6String4copyEPKcj>
    368e:	08 95       	ret

00003690 <_ZN6String6concatEPKcj>:
    3690:	ef 92       	push	r14
    3692:	ff 92       	push	r15
    3694:	0f 93       	push	r16
    3696:	1f 93       	push	r17
    3698:	cf 93       	push	r28
    369a:	df 93       	push	r29
    369c:	61 15       	cp	r22, r1
    369e:	71 05       	cpc	r23, r1
    36a0:	11 f4       	brne	.+4      	; 0x36a6 <_ZN6String6concatEPKcj+0x16>
    36a2:	80 e0       	ldi	r24, 0x00	; 0
    36a4:	1b c0       	rjmp	.+54     	; 0x36dc <_ZN6String6concatEPKcj+0x4c>
    36a6:	41 15       	cp	r20, r1
    36a8:	51 05       	cpc	r21, r1
    36aa:	b9 f0       	breq	.+46     	; 0x36da <_ZN6String6concatEPKcj+0x4a>
    36ac:	7b 01       	movw	r14, r22
    36ae:	ec 01       	movw	r28, r24
    36b0:	8c 81       	ldd	r24, Y+4	; 0x04
    36b2:	9d 81       	ldd	r25, Y+5	; 0x05
    36b4:	8a 01       	movw	r16, r20
    36b6:	08 0f       	add	r16, r24
    36b8:	19 1f       	adc	r17, r25
    36ba:	b8 01       	movw	r22, r16
    36bc:	ce 01       	movw	r24, r28
    36be:	9a df       	rcall	.-204    	; 0x35f4 <_ZN6String7reserveEj>
    36c0:	88 23       	and	r24, r24
    36c2:	79 f3       	breq	.-34     	; 0x36a2 <_ZN6String6concatEPKcj+0x12>
    36c4:	28 81       	ld	r18, Y
    36c6:	39 81       	ldd	r19, Y+1	; 0x01
    36c8:	8c 81       	ldd	r24, Y+4	; 0x04
    36ca:	9d 81       	ldd	r25, Y+5	; 0x05
    36cc:	b7 01       	movw	r22, r14
    36ce:	82 0f       	add	r24, r18
    36d0:	93 1f       	adc	r25, r19
    36d2:	0e 94 78 43 	call	0x86f0	; 0x86f0 <strcpy>
    36d6:	1d 83       	std	Y+5, r17	; 0x05
    36d8:	0c 83       	std	Y+4, r16	; 0x04
    36da:	81 e0       	ldi	r24, 0x01	; 1
    36dc:	df 91       	pop	r29
    36de:	cf 91       	pop	r28
    36e0:	1f 91       	pop	r17
    36e2:	0f 91       	pop	r16
    36e4:	ff 90       	pop	r15
    36e6:	ef 90       	pop	r14
    36e8:	08 95       	ret

000036ea <_ZN6String6concatEc>:
    36ea:	cf 93       	push	r28
    36ec:	df 93       	push	r29
    36ee:	1f 92       	push	r1
    36f0:	1f 92       	push	r1
    36f2:	cd b7       	in	r28, 0x3d	; 61
    36f4:	de b7       	in	r29, 0x3e	; 62
    36f6:	69 83       	std	Y+1, r22	; 0x01
    36f8:	1a 82       	std	Y+2, r1	; 0x02
    36fa:	41 e0       	ldi	r20, 0x01	; 1
    36fc:	50 e0       	ldi	r21, 0x00	; 0
    36fe:	be 01       	movw	r22, r28
    3700:	6f 5f       	subi	r22, 0xFF	; 255
    3702:	7f 4f       	sbci	r23, 0xFF	; 255
    3704:	c5 df       	rcall	.-118    	; 0x3690 <_ZN6String6concatEPKcj>
    3706:	0f 90       	pop	r0
    3708:	0f 90       	pop	r0
    370a:	df 91       	pop	r29
    370c:	cf 91       	pop	r28
    370e:	08 95       	ret

00003710 <_ZNK6String5toIntEv>:
    3710:	fc 01       	movw	r30, r24
    3712:	80 81       	ld	r24, Z
    3714:	91 81       	ldd	r25, Z+1	; 0x01
    3716:	00 97       	sbiw	r24, 0x00	; 0
    3718:	11 f0       	breq	.+4      	; 0x371e <_ZNK6String5toIntEv+0xe>
    371a:	0c 94 f9 42 	jmp	0x85f2	; 0x85f2 <atol>
    371e:	60 e0       	ldi	r22, 0x00	; 0
    3720:	70 e0       	ldi	r23, 0x00	; 0
    3722:	cb 01       	movw	r24, r22
    3724:	08 95       	ret

00003726 <_ZN16Adafruit_AMG88xx5writeEhPhh>:
    3726:	ef 92       	push	r14
    3728:	ff 92       	push	r15
    372a:	0f 93       	push	r16
    372c:	1f 93       	push	r17
    372e:	cf 93       	push	r28
    3730:	df 93       	push	r29
    3732:	c6 2f       	mov	r28, r22
    3734:	7a 01       	movw	r14, r20
    3736:	02 2f       	mov	r16, r18
    3738:	fc 01       	movw	r30, r24
    373a:	60 81       	ld	r22, Z
    373c:	8c ed       	ldi	r24, 0xDC	; 220
    373e:	91 e1       	ldi	r25, 0x11	; 17
    3740:	0e 94 83 29 	call	0x5306	; 0x5306 <_ZN7TwoWire17beginTransmissionEh>
    3744:	6c 2f       	mov	r22, r28
    3746:	8c ed       	ldi	r24, 0xDC	; 220
    3748:	91 e1       	ldi	r25, 0x11	; 17
    374a:	0e 94 32 29 	call	0x5264	; 0x5264 <_ZN7TwoWire5writeEh>
    374e:	e7 01       	movw	r28, r14
    3750:	10 e0       	ldi	r17, 0x00	; 0
    3752:	ce 01       	movw	r24, r28
    3754:	8e 19       	sub	r24, r14
    3756:	9f 09       	sbc	r25, r15
    3758:	80 17       	cp	r24, r16
    375a:	91 07       	cpc	r25, r17
    375c:	34 f4       	brge	.+12     	; 0x376a <_ZN16Adafruit_AMG88xx5writeEhPhh+0x44>
    375e:	69 91       	ld	r22, Y+
    3760:	8c ed       	ldi	r24, 0xDC	; 220
    3762:	91 e1       	ldi	r25, 0x11	; 17
    3764:	0e 94 32 29 	call	0x5264	; 0x5264 <_ZN7TwoWire5writeEh>
    3768:	f4 cf       	rjmp	.-24     	; 0x3752 <_ZN16Adafruit_AMG88xx5writeEhPhh+0x2c>
    376a:	8c ed       	ldi	r24, 0xDC	; 220
    376c:	91 e1       	ldi	r25, 0x11	; 17
    376e:	df 91       	pop	r29
    3770:	cf 91       	pop	r28
    3772:	1f 91       	pop	r17
    3774:	0f 91       	pop	r16
    3776:	ff 90       	pop	r15
    3778:	ef 90       	pop	r14
    377a:	0c 94 07 2a 	jmp	0x540e	; 0x540e <_ZN7TwoWire15endTransmissionEv>

0000377e <_ZN16Adafruit_AMG88xx6write8Ehh>:
    377e:	cf 93       	push	r28
    3780:	df 93       	push	r29
    3782:	1f 92       	push	r1
    3784:	cd b7       	in	r28, 0x3d	; 61
    3786:	de b7       	in	r29, 0x3e	; 62
    3788:	49 83       	std	Y+1, r20	; 0x01
    378a:	21 e0       	ldi	r18, 0x01	; 1
    378c:	ae 01       	movw	r20, r28
    378e:	4f 5f       	subi	r20, 0xFF	; 255
    3790:	5f 4f       	sbci	r21, 0xFF	; 255
    3792:	c9 df       	rcall	.-110    	; 0x3726 <_ZN16Adafruit_AMG88xx5writeEhPhh>
    3794:	0f 90       	pop	r0
    3796:	df 91       	pop	r29
    3798:	cf 91       	pop	r28
    379a:	08 95       	ret

0000379c <_ZN16Adafruit_AMG88xx16disableInterruptEv>:
    379c:	fc 01       	movw	r30, r24
    379e:	24 81       	ldd	r18, Z+4	; 0x04
    37a0:	2e 7f       	andi	r18, 0xFE	; 254
    37a2:	24 83       	std	Z+4, r18	; 0x04
    37a4:	21 fb       	bst	r18, 1
    37a6:	44 27       	eor	r20, r20
    37a8:	40 f9       	bld	r20, 0
    37aa:	50 e0       	ldi	r21, 0x00	; 0
    37ac:	44 0f       	add	r20, r20
    37ae:	55 1f       	adc	r21, r21
    37b0:	63 e0       	ldi	r22, 0x03	; 3
    37b2:	e5 cf       	rjmp	.-54     	; 0x377e <_ZN16Adafruit_AMG88xx6write8Ehh>

000037b4 <_ZN16Adafruit_AMG88xx5beginEh>:
    37b4:	cf 93       	push	r28
    37b6:	df 93       	push	r29
    37b8:	ec 01       	movw	r28, r24
    37ba:	68 83       	st	Y, r22
    37bc:	8c ed       	ldi	r24, 0xDC	; 220
    37be:	91 e1       	ldi	r25, 0x11	; 17
    37c0:	0e 94 71 29 	call	0x52e2	; 0x52e2 <_ZN7TwoWire5beginEv>
    37c4:	19 82       	std	Y+1, r1	; 0x01
    37c6:	40 e0       	ldi	r20, 0x00	; 0
    37c8:	60 e0       	ldi	r22, 0x00	; 0
    37ca:	ce 01       	movw	r24, r28
    37cc:	d8 df       	rcall	.-80     	; 0x377e <_ZN16Adafruit_AMG88xx6write8Ehh>
    37ce:	8f e3       	ldi	r24, 0x3F	; 63
    37d0:	8a 83       	std	Y+2, r24	; 0x02
    37d2:	4f e3       	ldi	r20, 0x3F	; 63
    37d4:	61 e0       	ldi	r22, 0x01	; 1
    37d6:	ce 01       	movw	r24, r28
    37d8:	d2 df       	rcall	.-92     	; 0x377e <_ZN16Adafruit_AMG88xx6write8Ehh>
    37da:	ce 01       	movw	r24, r28
    37dc:	df df       	rcall	.-66     	; 0x379c <_ZN16Adafruit_AMG88xx16disableInterruptEv>
    37de:	8b 81       	ldd	r24, Y+3	; 0x03
    37e0:	8e 7f       	andi	r24, 0xFE	; 254
    37e2:	8b 83       	std	Y+3, r24	; 0x03
    37e4:	40 e0       	ldi	r20, 0x00	; 0
    37e6:	62 e0       	ldi	r22, 0x02	; 2
    37e8:	ce 01       	movw	r24, r28
    37ea:	c9 df       	rcall	.-110    	; 0x377e <_ZN16Adafruit_AMG88xx6write8Ehh>
    37ec:	64 e6       	ldi	r22, 0x64	; 100
    37ee:	70 e0       	ldi	r23, 0x00	; 0
    37f0:	80 e0       	ldi	r24, 0x00	; 0
    37f2:	90 e0       	ldi	r25, 0x00	; 0
    37f4:	17 dd       	rcall	.-1490   	; 0x3224 <delay>
    37f6:	81 e0       	ldi	r24, 0x01	; 1
    37f8:	df 91       	pop	r29
    37fa:	cf 91       	pop	r28
    37fc:	08 95       	ret

000037fe <_ZN16Adafruit_AMG88xx4readEhPhh>:
    37fe:	6f 92       	push	r6
    3800:	7f 92       	push	r7
    3802:	8f 92       	push	r8
    3804:	9f 92       	push	r9
    3806:	af 92       	push	r10
    3808:	bf 92       	push	r11
    380a:	cf 92       	push	r12
    380c:	df 92       	push	r13
    380e:	ef 92       	push	r14
    3810:	ff 92       	push	r15
    3812:	0f 93       	push	r16
    3814:	1f 93       	push	r17
    3816:	cf 93       	push	r28
    3818:	df 93       	push	r29
    381a:	8c 01       	movw	r16, r24
    381c:	66 2e       	mov	r6, r22
    381e:	6a 01       	movw	r12, r20
    3820:	72 2e       	mov	r7, r18
    3822:	c0 e0       	ldi	r28, 0x00	; 0
    3824:	c7 15       	cp	r28, r7
    3826:	a0 f5       	brcc	.+104    	; 0x3890 <_ZN16Adafruit_AMG88xx4readEhPhh+0x92>
    3828:	d7 2d       	mov	r29, r7
    382a:	dc 1b       	sub	r29, r28
    382c:	d1 32       	cpi	r29, 0x21	; 33
    382e:	08 f0       	brcs	.+2      	; 0x3832 <_ZN16Adafruit_AMG88xx4readEhPhh+0x34>
    3830:	d0 e2       	ldi	r29, 0x20	; 32
    3832:	f8 01       	movw	r30, r16
    3834:	60 81       	ld	r22, Z
    3836:	8c ed       	ldi	r24, 0xDC	; 220
    3838:	91 e1       	ldi	r25, 0x11	; 17
    383a:	0e 94 83 29 	call	0x5306	; 0x5306 <_ZN7TwoWire17beginTransmissionEh>
    383e:	6c 2f       	mov	r22, r28
    3840:	66 0d       	add	r22, r6
    3842:	8c ed       	ldi	r24, 0xDC	; 220
    3844:	91 e1       	ldi	r25, 0x11	; 17
    3846:	0e 94 32 29 	call	0x5264	; 0x5264 <_ZN7TwoWire5writeEh>
    384a:	8c ed       	ldi	r24, 0xDC	; 220
    384c:	91 e1       	ldi	r25, 0x11	; 17
    384e:	0e 94 07 2a 	call	0x540e	; 0x540e <_ZN7TwoWire15endTransmissionEv>
    3852:	4d 2f       	mov	r20, r29
    3854:	f8 01       	movw	r30, r16
    3856:	60 81       	ld	r22, Z
    3858:	8c ed       	ldi	r24, 0xDC	; 220
    385a:	91 e1       	ldi	r25, 0x11	; 17
    385c:	0e 94 02 2a 	call	0x5404	; 0x5404 <_ZN7TwoWire11requestFromEhh>
    3860:	81 2c       	mov	r8, r1
    3862:	91 2c       	mov	r9, r1
    3864:	ad 2e       	mov	r10, r29
    3866:	b1 2c       	mov	r11, r1
    3868:	8c 2f       	mov	r24, r28
    386a:	88 0d       	add	r24, r8
    386c:	8a 14       	cp	r8, r10
    386e:	9b 04       	cpc	r9, r11
    3870:	14 f0       	brlt	.+4      	; 0x3876 <_ZN16Adafruit_AMG88xx4readEhPhh+0x78>
    3872:	cd 0f       	add	r28, r29
    3874:	d7 cf       	rjmp	.-82     	; 0x3824 <_ZN16Adafruit_AMG88xx4readEhPhh+0x26>
    3876:	76 01       	movw	r14, r12
    3878:	e8 0e       	add	r14, r24
    387a:	f1 1c       	adc	r15, r1
    387c:	8c ed       	ldi	r24, 0xDC	; 220
    387e:	91 e1       	ldi	r25, 0x11	; 17
    3880:	0e 94 ab 28 	call	0x5156	; 0x5156 <_ZN7TwoWire4readEv>
    3884:	f7 01       	movw	r30, r14
    3886:	80 83       	st	Z, r24
    3888:	ff ef       	ldi	r31, 0xFF	; 255
    388a:	8f 1a       	sub	r8, r31
    388c:	9f 0a       	sbc	r9, r31
    388e:	ec cf       	rjmp	.-40     	; 0x3868 <_ZN16Adafruit_AMG88xx4readEhPhh+0x6a>
    3890:	df 91       	pop	r29
    3892:	cf 91       	pop	r28
    3894:	1f 91       	pop	r17
    3896:	0f 91       	pop	r16
    3898:	ff 90       	pop	r15
    389a:	ef 90       	pop	r14
    389c:	df 90       	pop	r13
    389e:	cf 90       	pop	r12
    38a0:	bf 90       	pop	r11
    38a2:	af 90       	pop	r10
    38a4:	9f 90       	pop	r9
    38a6:	8f 90       	pop	r8
    38a8:	7f 90       	pop	r7
    38aa:	6f 90       	pop	r6
    38ac:	08 95       	ret

000038ae <_ZN16Adafruit_AMG88xx10readPixelsEPfh>:
    38ae:	8f 92       	push	r8
    38b0:	9f 92       	push	r9
    38b2:	af 92       	push	r10
    38b4:	bf 92       	push	r11
    38b6:	cf 92       	push	r12
    38b8:	df 92       	push	r13
    38ba:	ef 92       	push	r14
    38bc:	ff 92       	push	r15
    38be:	0f 93       	push	r16
    38c0:	1f 93       	push	r17
    38c2:	cf 93       	push	r28
    38c4:	df 93       	push	r29
    38c6:	cd b7       	in	r28, 0x3d	; 61
    38c8:	de b7       	in	r29, 0x3e	; 62
    38ca:	f6 2e       	mov	r15, r22
    38cc:	17 2f       	mov	r17, r23
    38ce:	04 2f       	mov	r16, r20
    38d0:	8d b6       	in	r8, 0x3d	; 61
    38d2:	9e b6       	in	r9, 0x3e	; 62
    38d4:	24 2f       	mov	r18, r20
    38d6:	22 0f       	add	r18, r18
    38d8:	46 fd       	sbrc	r20, 6
    38da:	20 e8       	ldi	r18, 0x80	; 128
    38dc:	4d b7       	in	r20, 0x3d	; 61
    38de:	5e b7       	in	r21, 0x3e	; 62
    38e0:	42 1b       	sub	r20, r18
    38e2:	51 09       	sbc	r21, r1
    38e4:	0f b6       	in	r0, 0x3f	; 63
    38e6:	f8 94       	cli
    38e8:	5e bf       	out	0x3e, r21	; 62
    38ea:	0f be       	out	0x3f, r0	; 63
    38ec:	4d bf       	out	0x3d, r20	; 61
    38ee:	ed b7       	in	r30, 0x3d	; 61
    38f0:	fe b7       	in	r31, 0x3e	; 62
    38f2:	31 96       	adiw	r30, 0x01	; 1
    38f4:	5f 01       	movw	r10, r30
    38f6:	af 01       	movw	r20, r30
    38f8:	60 e8       	ldi	r22, 0x80	; 128
    38fa:	81 df       	rcall	.-254    	; 0x37fe <_ZN16Adafruit_AMG88xx4readEhPhh>
    38fc:	cf 2c       	mov	r12, r15
    38fe:	d1 2e       	mov	r13, r17
    3900:	e1 2c       	mov	r14, r1
    3902:	f1 2c       	mov	r15, r1
    3904:	10 e0       	ldi	r17, 0x00	; 0
    3906:	e0 16       	cp	r14, r16
    3908:	f1 06       	cpc	r15, r17
    390a:	5c f5       	brge	.+86     	; 0x3962 <_ZN16Adafruit_AMG88xx10readPixelsEPfh+0xb4>
    390c:	8e 2d       	mov	r24, r14
    390e:	88 0f       	add	r24, r24
    3910:	f5 01       	movw	r30, r10
    3912:	e8 0f       	add	r30, r24
    3914:	f1 1d       	adc	r31, r1
    3916:	61 81       	ldd	r22, Z+1	; 0x01
    3918:	70 e0       	ldi	r23, 0x00	; 0
    391a:	76 2f       	mov	r23, r22
    391c:	66 27       	eor	r22, r22
    391e:	80 81       	ld	r24, Z
    3920:	68 2b       	or	r22, r24
    3922:	94 e0       	ldi	r25, 0x04	; 4
    3924:	66 0f       	add	r22, r22
    3926:	77 1f       	adc	r23, r23
    3928:	9a 95       	dec	r25
    392a:	e1 f7       	brne	.-8      	; 0x3924 <_ZN16Adafruit_AMG88xx10readPixelsEPfh+0x76>
    392c:	24 e0       	ldi	r18, 0x04	; 4
    392e:	75 95       	asr	r23
    3930:	67 95       	ror	r22
    3932:	2a 95       	dec	r18
    3934:	e1 f7       	brne	.-8      	; 0x392e <_ZN16Adafruit_AMG88xx10readPixelsEPfh+0x80>
    3936:	07 2e       	mov	r0, r23
    3938:	00 0c       	add	r0, r0
    393a:	88 0b       	sbc	r24, r24
    393c:	99 0b       	sbc	r25, r25
    393e:	0e 94 0e 11 	call	0x221c	; 0x221c <__floatsisf>
    3942:	20 e0       	ldi	r18, 0x00	; 0
    3944:	30 e0       	ldi	r19, 0x00	; 0
    3946:	40 e8       	ldi	r20, 0x80	; 128
    3948:	5e e3       	ldi	r21, 0x3E	; 62
    394a:	0e 94 c2 11 	call	0x2384	; 0x2384 <__mulsf3>
    394e:	f6 01       	movw	r30, r12
    3950:	61 93       	st	Z+, r22
    3952:	71 93       	st	Z+, r23
    3954:	81 93       	st	Z+, r24
    3956:	91 93       	st	Z+, r25
    3958:	6f 01       	movw	r12, r30
    395a:	ff ef       	ldi	r31, 0xFF	; 255
    395c:	ef 1a       	sub	r14, r31
    395e:	ff 0a       	sbc	r15, r31
    3960:	d2 cf       	rjmp	.-92     	; 0x3906 <_ZN16Adafruit_AMG88xx10readPixelsEPfh+0x58>
    3962:	0f b6       	in	r0, 0x3f	; 63
    3964:	f8 94       	cli
    3966:	9e be       	out	0x3e, r9	; 62
    3968:	0f be       	out	0x3f, r0	; 63
    396a:	8d be       	out	0x3d, r8	; 61
    396c:	df 91       	pop	r29
    396e:	cf 91       	pop	r28
    3970:	1f 91       	pop	r17
    3972:	0f 91       	pop	r16
    3974:	ff 90       	pop	r15
    3976:	ef 90       	pop	r14
    3978:	df 90       	pop	r13
    397a:	cf 90       	pop	r12
    397c:	bf 90       	pop	r11
    397e:	af 90       	pop	r10
    3980:	9f 90       	pop	r9
    3982:	8f 90       	pop	r8
    3984:	08 95       	ret

00003986 <_ZN11SPISettingsC1Emhh>:
    3986:	0f 93       	push	r16
    3988:	fc 01       	movw	r30, r24
    398a:	80 e0       	ldi	r24, 0x00	; 0
    398c:	92 e1       	ldi	r25, 0x12	; 18
    398e:	aa e7       	ldi	r26, 0x7A	; 122
    3990:	b0 e0       	ldi	r27, 0x00	; 0
    3992:	30 e0       	ldi	r19, 0x00	; 0
    3994:	48 17       	cp	r20, r24
    3996:	59 07       	cpc	r21, r25
    3998:	6a 07       	cpc	r22, r26
    399a:	7b 07       	cpc	r23, r27
    399c:	40 f4       	brcc	.+16     	; 0x39ae <_ZN11SPISettingsC1Emhh+0x28>
    399e:	b6 95       	lsr	r27
    39a0:	a7 95       	ror	r26
    39a2:	97 95       	ror	r25
    39a4:	87 95       	ror	r24
    39a6:	3f 5f       	subi	r19, 0xFF	; 255
    39a8:	36 30       	cpi	r19, 0x06	; 6
    39aa:	a1 f7       	brne	.-24     	; 0x3994 <_ZN11SPISettingsC1Emhh+0xe>
    39ac:	37 e0       	ldi	r19, 0x07	; 7
    39ae:	91 e0       	ldi	r25, 0x01	; 1
    39b0:	93 27       	eor	r25, r19
    39b2:	22 23       	and	r18, r18
    39b4:	11 f0       	breq	.+4      	; 0x39ba <_ZN11SPISettingsC1Emhh+0x34>
    39b6:	20 e5       	ldi	r18, 0x50	; 80
    39b8:	01 c0       	rjmp	.+2      	; 0x39bc <_ZN11SPISettingsC1Emhh+0x36>
    39ba:	20 e7       	ldi	r18, 0x70	; 112
    39bc:	0c 70       	andi	r16, 0x0C	; 12
    39be:	89 2f       	mov	r24, r25
    39c0:	86 95       	lsr	r24
    39c2:	08 2b       	or	r16, r24
    39c4:	02 2b       	or	r16, r18
    39c6:	00 83       	st	Z, r16
    39c8:	91 70       	andi	r25, 0x01	; 1
    39ca:	91 83       	std	Z+1, r25	; 0x01
    39cc:	0f 91       	pop	r16
    39ce:	08 95       	ret

000039d0 <_ZN8SPIClass16beginTransactionE11SPISettings>:
    39d0:	20 91 d9 11 	lds	r18, 0x11D9	; 0x8011d9 <_ZN8SPIClass13interruptModeE>
    39d4:	22 23       	and	r18, r18
    39d6:	99 f0       	breq	.+38     	; 0x39fe <_ZN8SPIClass16beginTransactionE11SPISettings+0x2e>
    39d8:	4f b7       	in	r20, 0x3f	; 63
    39da:	f8 94       	cli
    39dc:	20 91 d9 11 	lds	r18, 0x11D9	; 0x8011d9 <_ZN8SPIClass13interruptModeE>
    39e0:	21 30       	cpi	r18, 0x01	; 1
    39e2:	59 f4       	brne	.+22     	; 0x39fa <_ZN8SPIClass16beginTransactionE11SPISettings+0x2a>
    39e4:	2d b3       	in	r18, 0x1d	; 29
    39e6:	20 93 d7 11 	sts	0x11D7, r18	; 0x8011d7 <_ZN8SPIClass13interruptSaveE>
    39ea:	3d b3       	in	r19, 0x1d	; 29
    39ec:	20 91 d8 11 	lds	r18, 0x11D8	; 0x8011d8 <_ZN8SPIClass13interruptMaskE>
    39f0:	20 95       	com	r18
    39f2:	23 23       	and	r18, r19
    39f4:	2d bb       	out	0x1d, r18	; 29
    39f6:	4f bf       	out	0x3f, r20	; 63
    39f8:	02 c0       	rjmp	.+4      	; 0x39fe <_ZN8SPIClass16beginTransactionE11SPISettings+0x2e>
    39fa:	40 93 d7 11 	sts	0x11D7, r20	; 0x8011d7 <_ZN8SPIClass13interruptSaveE>
    39fe:	8c bd       	out	0x2c, r24	; 44
    3a00:	9d bd       	out	0x2d, r25	; 45
    3a02:	08 95       	ret

00003a04 <_ZN8SPIClass14endTransactionEv>:
    3a04:	80 91 d9 11 	lds	r24, 0x11D9	; 0x8011d9 <_ZN8SPIClass13interruptModeE>
    3a08:	88 23       	and	r24, r24
    3a0a:	61 f0       	breq	.+24     	; 0x3a24 <_ZN8SPIClass14endTransactionEv+0x20>
    3a0c:	9f b7       	in	r25, 0x3f	; 63
    3a0e:	f8 94       	cli
    3a10:	20 91 d9 11 	lds	r18, 0x11D9	; 0x8011d9 <_ZN8SPIClass13interruptModeE>
    3a14:	80 91 d7 11 	lds	r24, 0x11D7	; 0x8011d7 <_ZN8SPIClass13interruptSaveE>
    3a18:	21 30       	cpi	r18, 0x01	; 1
    3a1a:	19 f4       	brne	.+6      	; 0x3a22 <_ZN8SPIClass14endTransactionEv+0x1e>
    3a1c:	8d bb       	out	0x1d, r24	; 29
    3a1e:	9f bf       	out	0x3f, r25	; 63
    3a20:	08 95       	ret
    3a22:	8f bf       	out	0x3f, r24	; 63
    3a24:	08 95       	ret

00003a26 <_ZN12Adafruit_GPS5writeEh>:
    3a26:	df 92       	push	r13
    3a28:	ef 92       	push	r14
    3a2a:	ff 92       	push	r15
    3a2c:	0f 93       	push	r16
    3a2e:	1f 93       	push	r17
    3a30:	cf 93       	push	r28
    3a32:	df 93       	push	r29
    3a34:	ec 01       	movw	r28, r24
    3a36:	fc 01       	movw	r30, r24
    3a38:	ea 54       	subi	r30, 0x4A	; 74
    3a3a:	ff 4f       	sbci	r31, 0xFF	; 255
    3a3c:	80 81       	ld	r24, Z
    3a3e:	91 81       	ldd	r25, Z+1	; 0x01
    3a40:	00 97       	sbiw	r24, 0x00	; 0
    3a42:	39 f4       	brne	.+14     	; 0x3a52 <_ZN12Adafruit_GPS5writeEh+0x2c>
    3a44:	fe 01       	movw	r30, r28
    3a46:	e8 54       	subi	r30, 0x48	; 72
    3a48:	ff 4f       	sbci	r31, 0xFF	; 255
    3a4a:	80 81       	ld	r24, Z
    3a4c:	91 81       	ldd	r25, Z+1	; 0x01
    3a4e:	00 97       	sbiw	r24, 0x00	; 0
    3a50:	71 f0       	breq	.+28     	; 0x3a6e <_ZN12Adafruit_GPS5writeEh+0x48>
    3a52:	dc 01       	movw	r26, r24
    3a54:	ed 91       	ld	r30, X+
    3a56:	fc 91       	ld	r31, X
    3a58:	01 90       	ld	r0, Z+
    3a5a:	f0 81       	ld	r31, Z
    3a5c:	e0 2d       	mov	r30, r0
    3a5e:	df 91       	pop	r29
    3a60:	cf 91       	pop	r28
    3a62:	1f 91       	pop	r17
    3a64:	0f 91       	pop	r16
    3a66:	ff 90       	pop	r15
    3a68:	ef 90       	pop	r14
    3a6a:	df 90       	pop	r13
    3a6c:	19 94       	eijmp
    3a6e:	d6 2e       	mov	r13, r22
    3a70:	7e 01       	movw	r14, r28
    3a72:	ba eb       	ldi	r27, 0xBA	; 186
    3a74:	eb 0e       	add	r14, r27
    3a76:	f1 1c       	adc	r15, r1
    3a78:	f7 01       	movw	r30, r14
    3a7a:	80 81       	ld	r24, Z
    3a7c:	91 81       	ldd	r25, Z+1	; 0x01
    3a7e:	00 97       	sbiw	r24, 0x00	; 0
    3a80:	41 f4       	brne	.+16     	; 0x3a92 <_ZN12Adafruit_GPS5writeEh+0x6c>
    3a82:	fe 01       	movw	r30, r28
    3a84:	e4 54       	subi	r30, 0x44	; 68
    3a86:	ff 4f       	sbci	r31, 0xFF	; 255
    3a88:	80 81       	ld	r24, Z
    3a8a:	91 81       	ldd	r25, Z+1	; 0x01
    3a8c:	89 2b       	or	r24, r25
    3a8e:	09 f5       	brne	.+66     	; 0x3ad2 <_ZN12Adafruit_GPS5writeEh+0xac>
    3a90:	14 c0       	rjmp	.+40     	; 0x3aba <_ZN12Adafruit_GPS5writeEh+0x94>
    3a92:	fe 01       	movw	r30, r28
    3a94:	eb 5d       	subi	r30, 0xDB	; 219
    3a96:	fe 4f       	sbci	r31, 0xFE	; 254
    3a98:	60 81       	ld	r22, Z
    3a9a:	0e 94 83 29 	call	0x5306	; 0x5306 <_ZN7TwoWire17beginTransmissionEh>
    3a9e:	d7 01       	movw	r26, r14
    3aa0:	8d 91       	ld	r24, X+
    3aa2:	9c 91       	ld	r25, X
    3aa4:	dc 01       	movw	r26, r24
    3aa6:	ed 91       	ld	r30, X+
    3aa8:	fc 91       	ld	r31, X
    3aaa:	01 90       	ld	r0, Z+
    3aac:	f0 81       	ld	r31, Z
    3aae:	e0 2d       	mov	r30, r0
    3ab0:	6d 2d       	mov	r22, r13
    3ab2:	19 95       	eicall
    3ab4:	8c 01       	movw	r16, r24
    3ab6:	01 97       	sbiw	r24, 0x01	; 1
    3ab8:	19 f0       	breq	.+6      	; 0x3ac0 <_ZN12Adafruit_GPS5writeEh+0x9a>
    3aba:	00 e0       	ldi	r16, 0x00	; 0
    3abc:	10 e0       	ldi	r17, 0x00	; 0
    3abe:	24 c0       	rjmp	.+72     	; 0x3b08 <_ZN12Adafruit_GPS5writeEh+0xe2>
    3ac0:	61 e0       	ldi	r22, 0x01	; 1
    3ac2:	f7 01       	movw	r30, r14
    3ac4:	80 81       	ld	r24, Z
    3ac6:	91 81       	ldd	r25, Z+1	; 0x01
    3ac8:	0e 94 8e 29 	call	0x531c	; 0x531c <_ZN7TwoWire15endTransmissionEh>
    3acc:	81 11       	cpse	r24, r1
    3ace:	d9 cf       	rjmp	.-78     	; 0x3a82 <_ZN12Adafruit_GPS5writeEh+0x5c>
    3ad0:	1b c0       	rjmp	.+54     	; 0x3b08 <_ZN12Adafruit_GPS5writeEh+0xe2>
    3ad2:	fe 01       	movw	r30, r28
    3ad4:	e1 54       	subi	r30, 0x41	; 65
    3ad6:	ff 4f       	sbci	r31, 0xFF	; 255
    3ad8:	80 81       	ld	r24, Z
    3ada:	91 81       	ldd	r25, Z+1	; 0x01
    3adc:	79 df       	rcall	.-270    	; 0x39d0 <_ZN8SPIClass16beginTransactionE11SPISettings>
    3ade:	c2 54       	subi	r28, 0x42	; 66
    3ae0:	df 4f       	sbci	r29, 0xFF	; 255
    3ae2:	88 81       	ld	r24, Y
    3ae4:	87 fd       	sbrc	r24, 7
    3ae6:	02 c0       	rjmp	.+4      	; 0x3aec <_ZN12Adafruit_GPS5writeEh+0xc6>
    3ae8:	60 e0       	ldi	r22, 0x00	; 0
    3aea:	fa dc       	rcall	.-1548   	; 0x34e0 <digitalWrite>
    3aec:	de bc       	out	0x2e, r13	; 46
    3aee:	00 00       	nop
    3af0:	0d b4       	in	r0, 0x2d	; 45
    3af2:	07 fe       	sbrs	r0, 7
    3af4:	fd cf       	rjmp	.-6      	; 0x3af0 <_ZN12Adafruit_GPS5writeEh+0xca>
    3af6:	8e b5       	in	r24, 0x2e	; 46
    3af8:	88 81       	ld	r24, Y
    3afa:	87 fd       	sbrc	r24, 7
    3afc:	02 c0       	rjmp	.+4      	; 0x3b02 <_ZN12Adafruit_GPS5writeEh+0xdc>
    3afe:	61 e0       	ldi	r22, 0x01	; 1
    3b00:	ef dc       	rcall	.-1570   	; 0x34e0 <digitalWrite>
    3b02:	80 df       	rcall	.-256    	; 0x3a04 <_ZN8SPIClass14endTransactionEv>
    3b04:	01 e0       	ldi	r16, 0x01	; 1
    3b06:	10 e0       	ldi	r17, 0x00	; 0
    3b08:	c8 01       	movw	r24, r16
    3b0a:	df 91       	pop	r29
    3b0c:	cf 91       	pop	r28
    3b0e:	1f 91       	pop	r17
    3b10:	0f 91       	pop	r16
    3b12:	ff 90       	pop	r15
    3b14:	ef 90       	pop	r14
    3b16:	df 90       	pop	r13
    3b18:	08 95       	ret

00003b1a <_ZN12Adafruit_GPS11tokenOnListEPcPPKc>:
    3b1a:	cf 92       	push	r12
    3b1c:	df 92       	push	r13
    3b1e:	ef 92       	push	r14
    3b20:	ff 92       	push	r15
    3b22:	0f 93       	push	r16
    3b24:	1f 93       	push	r17
    3b26:	cf 93       	push	r28
    3b28:	df 93       	push	r29
    3b2a:	7b 01       	movw	r14, r22
    3b2c:	8a 01       	movw	r16, r20
    3b2e:	6a 01       	movw	r12, r20
    3b30:	8e e2       	ldi	r24, 0x2E	; 46
    3b32:	c8 1a       	sub	r12, r24
    3b34:	88 ef       	ldi	r24, 0xF8	; 248
    3b36:	d8 0a       	sbc	r13, r24
    3b38:	f8 01       	movw	r30, r16
    3b3a:	c1 91       	ld	r28, Z+
    3b3c:	d1 91       	ld	r29, Z+
    3b3e:	8f 01       	movw	r16, r30
    3b40:	42 e0       	ldi	r20, 0x02	; 2
    3b42:	50 e0       	ldi	r21, 0x00	; 0
    3b44:	6a e0       	ldi	r22, 0x0A	; 10
    3b46:	76 e0       	ldi	r23, 0x06	; 6
    3b48:	ce 01       	movw	r24, r28
    3b4a:	0e 94 7f 43 	call	0x86fe	; 0x86fe <strncmp>
    3b4e:	89 2b       	or	r24, r25
    3b50:	91 f0       	breq	.+36     	; 0x3b76 <_ZN12Adafruit_GPS11tokenOnListEPcPPKc+0x5c>
    3b52:	0c 15       	cp	r16, r12
    3b54:	1d 05       	cpc	r17, r13
    3b56:	79 f0       	breq	.+30     	; 0x3b76 <_ZN12Adafruit_GPS11tokenOnListEPcPPKc+0x5c>
    3b58:	fe 01       	movw	r30, r28
    3b5a:	01 90       	ld	r0, Z+
    3b5c:	00 20       	and	r0, r0
    3b5e:	e9 f7       	brne	.-6      	; 0x3b5a <_ZN12Adafruit_GPS11tokenOnListEPcPPKc+0x40>
    3b60:	31 97       	sbiw	r30, 0x01	; 1
    3b62:	af 01       	movw	r20, r30
    3b64:	4c 1b       	sub	r20, r28
    3b66:	5d 0b       	sbc	r21, r29
    3b68:	b7 01       	movw	r22, r14
    3b6a:	ce 01       	movw	r24, r28
    3b6c:	0e 94 7f 43 	call	0x86fe	; 0x86fe <strncmp>
    3b70:	89 2b       	or	r24, r25
    3b72:	11 f7       	brne	.-60     	; 0x3b38 <_ZN12Adafruit_GPS11tokenOnListEPcPPKc+0x1e>
    3b74:	02 c0       	rjmp	.+4      	; 0x3b7a <_ZN12Adafruit_GPS11tokenOnListEPcPPKc+0x60>
    3b76:	c0 e0       	ldi	r28, 0x00	; 0
    3b78:	d0 e0       	ldi	r29, 0x00	; 0
    3b7a:	ce 01       	movw	r24, r28
    3b7c:	df 91       	pop	r29
    3b7e:	cf 91       	pop	r28
    3b80:	1f 91       	pop	r17
    3b82:	0f 91       	pop	r16
    3b84:	ff 90       	pop	r15
    3b86:	ef 90       	pop	r14
    3b88:	df 90       	pop	r13
    3b8a:	cf 90       	pop	r12
    3b8c:	08 95       	ret

00003b8e <_ZN12Adafruit_GPS9parseTimeEPc>:
    3b8e:	8f 92       	push	r8
    3b90:	9f 92       	push	r9
    3b92:	af 92       	push	r10
    3b94:	bf 92       	push	r11
    3b96:	cf 92       	push	r12
    3b98:	df 92       	push	r13
    3b9a:	ef 92       	push	r14
    3b9c:	ff 92       	push	r15
    3b9e:	0f 93       	push	r16
    3ba0:	1f 93       	push	r17
    3ba2:	cf 93       	push	r28
    3ba4:	df 93       	push	r29
    3ba6:	ec 01       	movw	r28, r24
    3ba8:	8b 01       	movw	r16, r22
    3baa:	cb 01       	movw	r24, r22
    3bac:	0e 94 f9 42 	call	0x85f2	; 0x85f2 <atol>
    3bb0:	4b 01       	movw	r8, r22
    3bb2:	5c 01       	movw	r10, r24
    3bb4:	20 e1       	ldi	r18, 0x10	; 16
    3bb6:	37 e2       	ldi	r19, 0x27	; 39
    3bb8:	40 e0       	ldi	r20, 0x00	; 0
    3bba:	50 e0       	ldi	r21, 0x00	; 0
    3bbc:	0e 94 55 40 	call	0x80aa	; 0x80aa <__udivmodsi4>
    3bc0:	2c ab       	std	Y+52, r18	; 0x34
    3bc2:	24 e6       	ldi	r18, 0x64	; 100
    3bc4:	c2 2e       	mov	r12, r18
    3bc6:	d1 2c       	mov	r13, r1
    3bc8:	e1 2c       	mov	r14, r1
    3bca:	f1 2c       	mov	r15, r1
    3bcc:	a7 01       	movw	r20, r14
    3bce:	96 01       	movw	r18, r12
    3bd0:	0e 94 55 40 	call	0x80aa	; 0x80aa <__udivmodsi4>
    3bd4:	2d ab       	std	Y+53, r18	; 0x35
    3bd6:	c5 01       	movw	r24, r10
    3bd8:	b4 01       	movw	r22, r8
    3bda:	a7 01       	movw	r20, r14
    3bdc:	96 01       	movw	r18, r12
    3bde:	0e 94 55 40 	call	0x80aa	; 0x80aa <__udivmodsi4>
    3be2:	6e ab       	std	Y+54, r22	; 0x36
    3be4:	6e e2       	ldi	r22, 0x2E	; 46
    3be6:	70 e0       	ldi	r23, 0x00	; 0
    3be8:	c8 01       	movw	r24, r16
    3bea:	0e 94 64 43 	call	0x86c8	; 0x86c8 <strchr>
    3bee:	01 96       	adiw	r24, 0x01	; 1
    3bf0:	0e 94 dc 42 	call	0x85b8	; 0x85b8 <atoi>
    3bf4:	98 af       	std	Y+56, r25	; 0x38
    3bf6:	8f ab       	std	Y+55, r24	; 0x37
    3bf8:	fe 01       	movw	r30, r28
    3bfa:	eb 55       	subi	r30, 0x5B	; 91
    3bfc:	ff 4f       	sbci	r31, 0xFF	; 255
    3bfe:	cf 54       	subi	r28, 0x4F	; 79
    3c00:	df 4f       	sbci	r29, 0xFF	; 255
    3c02:	88 81       	ld	r24, Y
    3c04:	99 81       	ldd	r25, Y+1	; 0x01
    3c06:	aa 81       	ldd	r26, Y+2	; 0x02
    3c08:	bb 81       	ldd	r27, Y+3	; 0x03
    3c0a:	80 83       	st	Z, r24
    3c0c:	91 83       	std	Z+1, r25	; 0x01
    3c0e:	a2 83       	std	Z+2, r26	; 0x02
    3c10:	b3 83       	std	Z+3, r27	; 0x03
    3c12:	df 91       	pop	r29
    3c14:	cf 91       	pop	r28
    3c16:	1f 91       	pop	r17
    3c18:	0f 91       	pop	r16
    3c1a:	ff 90       	pop	r15
    3c1c:	ef 90       	pop	r14
    3c1e:	df 90       	pop	r13
    3c20:	cf 90       	pop	r12
    3c22:	bf 90       	pop	r11
    3c24:	af 90       	pop	r10
    3c26:	9f 90       	pop	r9
    3c28:	8f 90       	pop	r8
    3c2a:	08 95       	ret

00003c2c <_ZN12Adafruit_GPS8parseLatEPc>:
    3c2c:	4f 92       	push	r4
    3c2e:	5f 92       	push	r5
    3c30:	6f 92       	push	r6
    3c32:	7f 92       	push	r7
    3c34:	8f 92       	push	r8
    3c36:	9f 92       	push	r9
    3c38:	af 92       	push	r10
    3c3a:	bf 92       	push	r11
    3c3c:	ef 92       	push	r14
    3c3e:	ff 92       	push	r15
    3c40:	0f 93       	push	r16
    3c42:	1f 93       	push	r17
    3c44:	cf 93       	push	r28
    3c46:	df 93       	push	r29
    3c48:	cd b7       	in	r28, 0x3d	; 61
    3c4a:	de b7       	in	r29, 0x3e	; 62
    3c4c:	2a 97       	sbiw	r28, 0x0a	; 10
    3c4e:	0f b6       	in	r0, 0x3f	; 63
    3c50:	f8 94       	cli
    3c52:	de bf       	out	0x3e, r29	; 62
    3c54:	0f be       	out	0x3f, r0	; 63
    3c56:	cd bf       	out	0x3d, r28	; 61
    3c58:	fb 01       	movw	r30, r22
    3c5a:	20 81       	ld	r18, Z
    3c5c:	2c 32       	cpi	r18, 0x2C	; 44
    3c5e:	09 f4       	brne	.+2      	; 0x3c62 <_ZN12Adafruit_GPS8parseLatEPc+0x36>
    3c60:	a6 c0       	rjmp	.+332    	; 0x3dae <_ZN12Adafruit_GPS8parseLatEPc+0x182>
    3c62:	8b 01       	movw	r16, r22
    3c64:	7c 01       	movw	r14, r24
    3c66:	42 e0       	ldi	r20, 0x02	; 2
    3c68:	50 e0       	ldi	r21, 0x00	; 0
    3c6a:	ce 01       	movw	r24, r28
    3c6c:	01 96       	adiw	r24, 0x01	; 1
    3c6e:	0e 94 8d 43 	call	0x871a	; 0x871a <strncpy>
    3c72:	1b 82       	std	Y+3, r1	; 0x03
    3c74:	ce 01       	movw	r24, r28
    3c76:	01 96       	adiw	r24, 0x01	; 1
    3c78:	0e 94 f9 42 	call	0x85f2	; 0x85f2 <atol>
    3c7c:	9b 01       	movw	r18, r22
    3c7e:	ac 01       	movw	r20, r24
    3c80:	60 e8       	ldi	r22, 0x80	; 128
    3c82:	76 e9       	ldi	r23, 0x96	; 150
    3c84:	88 e9       	ldi	r24, 0x98	; 152
    3c86:	90 e0       	ldi	r25, 0x00	; 0
    3c88:	0e 94 27 40 	call	0x804e	; 0x804e <__mulsi3>
    3c8c:	2b 01       	movw	r4, r22
    3c8e:	3c 01       	movw	r6, r24
    3c90:	b8 01       	movw	r22, r16
    3c92:	6e 5f       	subi	r22, 0xFE	; 254
    3c94:	7f 4f       	sbci	r23, 0xFF	; 255
    3c96:	42 e0       	ldi	r20, 0x02	; 2
    3c98:	50 e0       	ldi	r21, 0x00	; 0
    3c9a:	ce 01       	movw	r24, r28
    3c9c:	01 96       	adiw	r24, 0x01	; 1
    3c9e:	0e 94 8d 43 	call	0x871a	; 0x871a <strncpy>
    3ca2:	b8 01       	movw	r22, r16
    3ca4:	6b 5f       	subi	r22, 0xFB	; 251
    3ca6:	7f 4f       	sbci	r23, 0xFF	; 255
    3ca8:	44 e0       	ldi	r20, 0x04	; 4
    3caa:	50 e0       	ldi	r21, 0x00	; 0
    3cac:	ce 01       	movw	r24, r28
    3cae:	03 96       	adiw	r24, 0x03	; 3
    3cb0:	0e 94 8d 43 	call	0x871a	; 0x871a <strncpy>
    3cb4:	1f 82       	std	Y+7, r1	; 0x07
    3cb6:	ce 01       	movw	r24, r28
    3cb8:	01 96       	adiw	r24, 0x01	; 1
    3cba:	0e 94 f9 42 	call	0x85f2	; 0x85f2 <atol>
    3cbe:	9b 01       	movw	r18, r22
    3cc0:	ac 01       	movw	r20, r24
    3cc2:	a2 e3       	ldi	r26, 0x32	; 50
    3cc4:	b0 e0       	ldi	r27, 0x00	; 0
    3cc6:	0e 94 b6 40 	call	0x816c	; 0x816c <__muluhisi3>
    3cca:	23 e0       	ldi	r18, 0x03	; 3
    3ccc:	30 e0       	ldi	r19, 0x00	; 0
    3cce:	40 e0       	ldi	r20, 0x00	; 0
    3cd0:	50 e0       	ldi	r21, 0x00	; 0
    3cd2:	0e 94 77 40 	call	0x80ee	; 0x80ee <__divmodsi4>
    3cd6:	49 01       	movw	r8, r18
    3cd8:	5a 01       	movw	r10, r20
    3cda:	f7 01       	movw	r30, r14
    3cdc:	ec 5b       	subi	r30, 0xBC	; 188
    3cde:	ff 4f       	sbci	r31, 0xFF	; 255
    3ce0:	d3 01       	movw	r26, r6
    3ce2:	c2 01       	movw	r24, r4
    3ce4:	82 0f       	add	r24, r18
    3ce6:	93 1f       	adc	r25, r19
    3ce8:	a4 1f       	adc	r26, r20
    3cea:	b5 1f       	adc	r27, r21
    3cec:	80 83       	st	Z, r24
    3cee:	91 83       	std	Z+1, r25	; 0x01
    3cf0:	a2 83       	std	Z+2, r26	; 0x02
    3cf2:	b3 83       	std	Z+3, r27	; 0x03
    3cf4:	c3 01       	movw	r24, r6
    3cf6:	b2 01       	movw	r22, r4
    3cf8:	20 ea       	ldi	r18, 0xA0	; 160
    3cfa:	36 e8       	ldi	r19, 0x86	; 134
    3cfc:	41 e0       	ldi	r20, 0x01	; 1
    3cfe:	50 e0       	ldi	r21, 0x00	; 0
    3d00:	0e 94 77 40 	call	0x80ee	; 0x80ee <__divmodsi4>
    3d04:	ca 01       	movw	r24, r20
    3d06:	b9 01       	movw	r22, r18
    3d08:	0e 94 0e 11 	call	0x221c	; 0x221c <__floatsisf>
    3d0c:	2b 01       	movw	r4, r22
    3d0e:	3c 01       	movw	r6, r24
    3d10:	c5 01       	movw	r24, r10
    3d12:	b4 01       	movw	r22, r8
    3d14:	0e 94 0e 11 	call	0x221c	; 0x221c <__floatsisf>
    3d18:	2c e9       	ldi	r18, 0x9C	; 156
    3d1a:	33 e5       	ldi	r19, 0x53	; 83
    3d1c:	49 ec       	ldi	r20, 0xC9	; 201
    3d1e:	56 e3       	ldi	r21, 0x36	; 54
    3d20:	0e 94 c2 11 	call	0x2384	; 0x2384 <__mulsf3>
    3d24:	9b 01       	movw	r18, r22
    3d26:	ac 01       	movw	r20, r24
    3d28:	c3 01       	movw	r24, r6
    3d2a:	b2 01       	movw	r22, r4
    3d2c:	0e 94 0b 10 	call	0x2016	; 0x2016 <__addsf3>
    3d30:	2b 01       	movw	r4, r22
    3d32:	3c 01       	movw	r6, r24
    3d34:	f7 01       	movw	r30, r14
    3d36:	64 af       	std	Z+60, r22	; 0x3c
    3d38:	75 af       	std	Z+61, r23	; 0x3d
    3d3a:	86 af       	std	Z+62, r24	; 0x3e
    3d3c:	97 af       	std	Z+63, r25	; 0x3f
    3d3e:	20 e0       	ldi	r18, 0x00	; 0
    3d40:	30 e0       	ldi	r19, 0x00	; 0
    3d42:	48 ec       	ldi	r20, 0xC8	; 200
    3d44:	52 e4       	ldi	r21, 0x42	; 66
    3d46:	0e 94 73 10 	call	0x20e6	; 0x20e6 <__divsf3>
    3d4a:	0e 94 db 10 	call	0x21b6	; 0x21b6 <__fixsfsi>
    3d4e:	4b 01       	movw	r8, r22
    3d50:	5c 01       	movw	r10, r24
    3d52:	fc e4       	ldi	r31, 0x4C	; 76
    3d54:	ef 0e       	add	r14, r31
    3d56:	f1 1c       	adc	r15, r1
    3d58:	84 e6       	ldi	r24, 0x64	; 100
    3d5a:	88 9d       	mul	r24, r8
    3d5c:	b0 01       	movw	r22, r0
    3d5e:	89 9d       	mul	r24, r9
    3d60:	70 0d       	add	r23, r0
    3d62:	11 24       	eor	r1, r1
    3d64:	07 2e       	mov	r0, r23
    3d66:	00 0c       	add	r0, r0
    3d68:	88 0b       	sbc	r24, r24
    3d6a:	99 0b       	sbc	r25, r25
    3d6c:	0e 94 0e 11 	call	0x221c	; 0x221c <__floatsisf>
    3d70:	9b 01       	movw	r18, r22
    3d72:	ac 01       	movw	r20, r24
    3d74:	c3 01       	movw	r24, r6
    3d76:	b2 01       	movw	r22, r4
    3d78:	0e 94 0a 10 	call	0x2014	; 0x2014 <__subsf3>
    3d7c:	20 e0       	ldi	r18, 0x00	; 0
    3d7e:	30 e0       	ldi	r19, 0x00	; 0
    3d80:	40 e7       	ldi	r20, 0x70	; 112
    3d82:	52 e4       	ldi	r21, 0x42	; 66
    3d84:	0e 94 73 10 	call	0x20e6	; 0x20e6 <__divsf3>
    3d88:	2b 01       	movw	r4, r22
    3d8a:	3c 01       	movw	r6, r24
    3d8c:	b4 01       	movw	r22, r8
    3d8e:	99 0c       	add	r9, r9
    3d90:	88 0b       	sbc	r24, r24
    3d92:	99 0b       	sbc	r25, r25
    3d94:	0e 94 0e 11 	call	0x221c	; 0x221c <__floatsisf>
    3d98:	9b 01       	movw	r18, r22
    3d9a:	ac 01       	movw	r20, r24
    3d9c:	c3 01       	movw	r24, r6
    3d9e:	b2 01       	movw	r22, r4
    3da0:	0e 94 0b 10 	call	0x2016	; 0x2016 <__addsf3>
    3da4:	f7 01       	movw	r30, r14
    3da6:	60 83       	st	Z, r22
    3da8:	71 83       	std	Z+1, r23	; 0x01
    3daa:	82 83       	std	Z+2, r24	; 0x02
    3dac:	93 83       	std	Z+3, r25	; 0x03
    3dae:	2a 96       	adiw	r28, 0x0a	; 10
    3db0:	0f b6       	in	r0, 0x3f	; 63
    3db2:	f8 94       	cli
    3db4:	de bf       	out	0x3e, r29	; 62
    3db6:	0f be       	out	0x3f, r0	; 63
    3db8:	cd bf       	out	0x3d, r28	; 61
    3dba:	df 91       	pop	r29
    3dbc:	cf 91       	pop	r28
    3dbe:	1f 91       	pop	r17
    3dc0:	0f 91       	pop	r16
    3dc2:	ff 90       	pop	r15
    3dc4:	ef 90       	pop	r14
    3dc6:	bf 90       	pop	r11
    3dc8:	af 90       	pop	r10
    3dca:	9f 90       	pop	r9
    3dcc:	8f 90       	pop	r8
    3dce:	7f 90       	pop	r7
    3dd0:	6f 90       	pop	r6
    3dd2:	5f 90       	pop	r5
    3dd4:	4f 90       	pop	r4
    3dd6:	08 95       	ret

00003dd8 <_ZN12Adafruit_GPS11parseLatDirEPc>:
    3dd8:	fb 01       	movw	r30, r22
    3dda:	20 81       	ld	r18, Z
    3ddc:	23 35       	cpi	r18, 0x53	; 83
    3dde:	f9 f4       	brne	.+62     	; 0x3e1e <_ZN12Adafruit_GPS11parseLatDirEPc+0x46>
    3de0:	fc 01       	movw	r30, r24
    3de2:	ec 58       	subi	r30, 0x8C	; 140
    3de4:	ff 4f       	sbci	r31, 0xFF	; 255
    3de6:	20 83       	st	Z, r18
    3de8:	b8 97       	sbiw	r30, 0x28	; 40
    3dea:	40 81       	ld	r20, Z
    3dec:	51 81       	ldd	r21, Z+1	; 0x01
    3dee:	62 81       	ldd	r22, Z+2	; 0x02
    3df0:	73 81       	ldd	r23, Z+3	; 0x03
    3df2:	70 58       	subi	r23, 0x80	; 128
    3df4:	40 83       	st	Z, r20
    3df6:	51 83       	std	Z+1, r21	; 0x01
    3df8:	62 83       	std	Z+2, r22	; 0x02
    3dfa:	73 83       	std	Z+3, r23	; 0x03
    3dfc:	38 97       	sbiw	r30, 0x08	; 8
    3dfe:	40 81       	ld	r20, Z
    3e00:	51 81       	ldd	r21, Z+1	; 0x01
    3e02:	62 81       	ldd	r22, Z+2	; 0x02
    3e04:	73 81       	ldd	r23, Z+3	; 0x03
    3e06:	70 95       	com	r23
    3e08:	60 95       	com	r22
    3e0a:	50 95       	com	r21
    3e0c:	41 95       	neg	r20
    3e0e:	5f 4f       	sbci	r21, 0xFF	; 255
    3e10:	6f 4f       	sbci	r22, 0xFF	; 255
    3e12:	7f 4f       	sbci	r23, 0xFF	; 255
    3e14:	40 83       	st	Z, r20
    3e16:	51 83       	std	Z+1, r21	; 0x01
    3e18:	62 83       	std	Z+2, r22	; 0x02
    3e1a:	73 83       	std	Z+3, r23	; 0x03
    3e1c:	06 c0       	rjmp	.+12     	; 0x3e2a <_ZN12Adafruit_GPS11parseLatDirEPc+0x52>
    3e1e:	2e 34       	cpi	r18, 0x4E	; 78
    3e20:	31 f4       	brne	.+12     	; 0x3e2e <_ZN12Adafruit_GPS11parseLatDirEPc+0x56>
    3e22:	fc 01       	movw	r30, r24
    3e24:	ec 58       	subi	r30, 0x8C	; 140
    3e26:	ff 4f       	sbci	r31, 0xFF	; 255
    3e28:	20 83       	st	Z, r18
    3e2a:	81 e0       	ldi	r24, 0x01	; 1
    3e2c:	08 95       	ret
    3e2e:	2c 32       	cpi	r18, 0x2C	; 44
    3e30:	29 f4       	brne	.+10     	; 0x3e3c <_ZN12Adafruit_GPS11parseLatDirEPc+0x64>
    3e32:	fc 01       	movw	r30, r24
    3e34:	ec 58       	subi	r30, 0x8C	; 140
    3e36:	ff 4f       	sbci	r31, 0xFF	; 255
    3e38:	10 82       	st	Z, r1
    3e3a:	f7 cf       	rjmp	.-18     	; 0x3e2a <_ZN12Adafruit_GPS11parseLatDirEPc+0x52>
    3e3c:	80 e0       	ldi	r24, 0x00	; 0
    3e3e:	08 95       	ret

00003e40 <_ZN12Adafruit_GPS8parseLonEPc>:
    3e40:	4f 92       	push	r4
    3e42:	5f 92       	push	r5
    3e44:	6f 92       	push	r6
    3e46:	7f 92       	push	r7
    3e48:	8f 92       	push	r8
    3e4a:	9f 92       	push	r9
    3e4c:	af 92       	push	r10
    3e4e:	bf 92       	push	r11
    3e50:	ef 92       	push	r14
    3e52:	ff 92       	push	r15
    3e54:	0f 93       	push	r16
    3e56:	1f 93       	push	r17
    3e58:	cf 93       	push	r28
    3e5a:	df 93       	push	r29
    3e5c:	cd b7       	in	r28, 0x3d	; 61
    3e5e:	de b7       	in	r29, 0x3e	; 62
    3e60:	2a 97       	sbiw	r28, 0x0a	; 10
    3e62:	0f b6       	in	r0, 0x3f	; 63
    3e64:	f8 94       	cli
    3e66:	de bf       	out	0x3e, r29	; 62
    3e68:	0f be       	out	0x3f, r0	; 63
    3e6a:	cd bf       	out	0x3d, r28	; 61
    3e6c:	fb 01       	movw	r30, r22
    3e6e:	20 81       	ld	r18, Z
    3e70:	2c 32       	cpi	r18, 0x2C	; 44
    3e72:	09 f4       	brne	.+2      	; 0x3e76 <_ZN12Adafruit_GPS8parseLonEPc+0x36>
    3e74:	a8 c0       	rjmp	.+336    	; 0x3fc6 <_ZN12Adafruit_GPS8parseLonEPc+0x186>
    3e76:	8b 01       	movw	r16, r22
    3e78:	7c 01       	movw	r14, r24
    3e7a:	43 e0       	ldi	r20, 0x03	; 3
    3e7c:	50 e0       	ldi	r21, 0x00	; 0
    3e7e:	ce 01       	movw	r24, r28
    3e80:	01 96       	adiw	r24, 0x01	; 1
    3e82:	0e 94 8d 43 	call	0x871a	; 0x871a <strncpy>
    3e86:	1c 82       	std	Y+4, r1	; 0x04
    3e88:	ce 01       	movw	r24, r28
    3e8a:	01 96       	adiw	r24, 0x01	; 1
    3e8c:	0e 94 f9 42 	call	0x85f2	; 0x85f2 <atol>
    3e90:	9b 01       	movw	r18, r22
    3e92:	ac 01       	movw	r20, r24
    3e94:	60 e8       	ldi	r22, 0x80	; 128
    3e96:	76 e9       	ldi	r23, 0x96	; 150
    3e98:	88 e9       	ldi	r24, 0x98	; 152
    3e9a:	90 e0       	ldi	r25, 0x00	; 0
    3e9c:	0e 94 27 40 	call	0x804e	; 0x804e <__mulsi3>
    3ea0:	2b 01       	movw	r4, r22
    3ea2:	3c 01       	movw	r6, r24
    3ea4:	b8 01       	movw	r22, r16
    3ea6:	6d 5f       	subi	r22, 0xFD	; 253
    3ea8:	7f 4f       	sbci	r23, 0xFF	; 255
    3eaa:	42 e0       	ldi	r20, 0x02	; 2
    3eac:	50 e0       	ldi	r21, 0x00	; 0
    3eae:	ce 01       	movw	r24, r28
    3eb0:	01 96       	adiw	r24, 0x01	; 1
    3eb2:	0e 94 8d 43 	call	0x871a	; 0x871a <strncpy>
    3eb6:	b8 01       	movw	r22, r16
    3eb8:	6a 5f       	subi	r22, 0xFA	; 250
    3eba:	7f 4f       	sbci	r23, 0xFF	; 255
    3ebc:	44 e0       	ldi	r20, 0x04	; 4
    3ebe:	50 e0       	ldi	r21, 0x00	; 0
    3ec0:	ce 01       	movw	r24, r28
    3ec2:	03 96       	adiw	r24, 0x03	; 3
    3ec4:	0e 94 8d 43 	call	0x871a	; 0x871a <strncpy>
    3ec8:	1f 82       	std	Y+7, r1	; 0x07
    3eca:	ce 01       	movw	r24, r28
    3ecc:	01 96       	adiw	r24, 0x01	; 1
    3ece:	0e 94 f9 42 	call	0x85f2	; 0x85f2 <atol>
    3ed2:	9b 01       	movw	r18, r22
    3ed4:	ac 01       	movw	r20, r24
    3ed6:	a2 e3       	ldi	r26, 0x32	; 50
    3ed8:	b0 e0       	ldi	r27, 0x00	; 0
    3eda:	0e 94 b6 40 	call	0x816c	; 0x816c <__muluhisi3>
    3ede:	23 e0       	ldi	r18, 0x03	; 3
    3ee0:	30 e0       	ldi	r19, 0x00	; 0
    3ee2:	40 e0       	ldi	r20, 0x00	; 0
    3ee4:	50 e0       	ldi	r21, 0x00	; 0
    3ee6:	0e 94 77 40 	call	0x80ee	; 0x80ee <__divmodsi4>
    3eea:	49 01       	movw	r8, r18
    3eec:	5a 01       	movw	r10, r20
    3eee:	f7 01       	movw	r30, r14
    3ef0:	e8 5b       	subi	r30, 0xB8	; 184
    3ef2:	ff 4f       	sbci	r31, 0xFF	; 255
    3ef4:	d3 01       	movw	r26, r6
    3ef6:	c2 01       	movw	r24, r4
    3ef8:	82 0f       	add	r24, r18
    3efa:	93 1f       	adc	r25, r19
    3efc:	a4 1f       	adc	r26, r20
    3efe:	b5 1f       	adc	r27, r21
    3f00:	80 83       	st	Z, r24
    3f02:	91 83       	std	Z+1, r25	; 0x01
    3f04:	a2 83       	std	Z+2, r26	; 0x02
    3f06:	b3 83       	std	Z+3, r27	; 0x03
    3f08:	c3 01       	movw	r24, r6
    3f0a:	b2 01       	movw	r22, r4
    3f0c:	20 ea       	ldi	r18, 0xA0	; 160
    3f0e:	36 e8       	ldi	r19, 0x86	; 134
    3f10:	41 e0       	ldi	r20, 0x01	; 1
    3f12:	50 e0       	ldi	r21, 0x00	; 0
    3f14:	0e 94 77 40 	call	0x80ee	; 0x80ee <__divmodsi4>
    3f18:	ca 01       	movw	r24, r20
    3f1a:	b9 01       	movw	r22, r18
    3f1c:	0e 94 0e 11 	call	0x221c	; 0x221c <__floatsisf>
    3f20:	2b 01       	movw	r4, r22
    3f22:	3c 01       	movw	r6, r24
    3f24:	c5 01       	movw	r24, r10
    3f26:	b4 01       	movw	r22, r8
    3f28:	0e 94 0e 11 	call	0x221c	; 0x221c <__floatsisf>
    3f2c:	2c e9       	ldi	r18, 0x9C	; 156
    3f2e:	33 e5       	ldi	r19, 0x53	; 83
    3f30:	49 ec       	ldi	r20, 0xC9	; 201
    3f32:	56 e3       	ldi	r21, 0x36	; 54
    3f34:	0e 94 c2 11 	call	0x2384	; 0x2384 <__mulsf3>
    3f38:	9b 01       	movw	r18, r22
    3f3a:	ac 01       	movw	r20, r24
    3f3c:	c3 01       	movw	r24, r6
    3f3e:	b2 01       	movw	r22, r4
    3f40:	0e 94 0b 10 	call	0x2016	; 0x2016 <__addsf3>
    3f44:	2b 01       	movw	r4, r22
    3f46:	3c 01       	movw	r6, r24
    3f48:	f7 01       	movw	r30, r14
    3f4a:	e0 5c       	subi	r30, 0xC0	; 192
    3f4c:	ff 4f       	sbci	r31, 0xFF	; 255
    3f4e:	60 83       	st	Z, r22
    3f50:	71 83       	std	Z+1, r23	; 0x01
    3f52:	82 83       	std	Z+2, r24	; 0x02
    3f54:	93 83       	std	Z+3, r25	; 0x03
    3f56:	20 e0       	ldi	r18, 0x00	; 0
    3f58:	30 e0       	ldi	r19, 0x00	; 0
    3f5a:	48 ec       	ldi	r20, 0xC8	; 200
    3f5c:	52 e4       	ldi	r21, 0x42	; 66
    3f5e:	0e 94 73 10 	call	0x20e6	; 0x20e6 <__divsf3>
    3f62:	0e 94 db 10 	call	0x21b6	; 0x21b6 <__fixsfsi>
    3f66:	4b 01       	movw	r8, r22
    3f68:	5c 01       	movw	r10, r24
    3f6a:	f0 e5       	ldi	r31, 0x50	; 80
    3f6c:	ef 0e       	add	r14, r31
    3f6e:	f1 1c       	adc	r15, r1
    3f70:	84 e6       	ldi	r24, 0x64	; 100
    3f72:	88 9d       	mul	r24, r8
    3f74:	b0 01       	movw	r22, r0
    3f76:	89 9d       	mul	r24, r9
    3f78:	70 0d       	add	r23, r0
    3f7a:	11 24       	eor	r1, r1
    3f7c:	07 2e       	mov	r0, r23
    3f7e:	00 0c       	add	r0, r0
    3f80:	88 0b       	sbc	r24, r24
    3f82:	99 0b       	sbc	r25, r25
    3f84:	0e 94 0e 11 	call	0x221c	; 0x221c <__floatsisf>
    3f88:	9b 01       	movw	r18, r22
    3f8a:	ac 01       	movw	r20, r24
    3f8c:	c3 01       	movw	r24, r6
    3f8e:	b2 01       	movw	r22, r4
    3f90:	0e 94 0a 10 	call	0x2014	; 0x2014 <__subsf3>
    3f94:	20 e0       	ldi	r18, 0x00	; 0
    3f96:	30 e0       	ldi	r19, 0x00	; 0
    3f98:	40 e7       	ldi	r20, 0x70	; 112
    3f9a:	52 e4       	ldi	r21, 0x42	; 66
    3f9c:	0e 94 73 10 	call	0x20e6	; 0x20e6 <__divsf3>
    3fa0:	2b 01       	movw	r4, r22
    3fa2:	3c 01       	movw	r6, r24
    3fa4:	b4 01       	movw	r22, r8
    3fa6:	99 0c       	add	r9, r9
    3fa8:	88 0b       	sbc	r24, r24
    3faa:	99 0b       	sbc	r25, r25
    3fac:	0e 94 0e 11 	call	0x221c	; 0x221c <__floatsisf>
    3fb0:	9b 01       	movw	r18, r22
    3fb2:	ac 01       	movw	r20, r24
    3fb4:	c3 01       	movw	r24, r6
    3fb6:	b2 01       	movw	r22, r4
    3fb8:	0e 94 0b 10 	call	0x2016	; 0x2016 <__addsf3>
    3fbc:	f7 01       	movw	r30, r14
    3fbe:	60 83       	st	Z, r22
    3fc0:	71 83       	std	Z+1, r23	; 0x01
    3fc2:	82 83       	std	Z+2, r24	; 0x02
    3fc4:	93 83       	std	Z+3, r25	; 0x03
    3fc6:	2a 96       	adiw	r28, 0x0a	; 10
    3fc8:	0f b6       	in	r0, 0x3f	; 63
    3fca:	f8 94       	cli
    3fcc:	de bf       	out	0x3e, r29	; 62
    3fce:	0f be       	out	0x3f, r0	; 63
    3fd0:	cd bf       	out	0x3d, r28	; 61
    3fd2:	df 91       	pop	r29
    3fd4:	cf 91       	pop	r28
    3fd6:	1f 91       	pop	r17
    3fd8:	0f 91       	pop	r16
    3fda:	ff 90       	pop	r15
    3fdc:	ef 90       	pop	r14
    3fde:	bf 90       	pop	r11
    3fe0:	af 90       	pop	r10
    3fe2:	9f 90       	pop	r9
    3fe4:	8f 90       	pop	r8
    3fe6:	7f 90       	pop	r7
    3fe8:	6f 90       	pop	r6
    3fea:	5f 90       	pop	r5
    3fec:	4f 90       	pop	r4
    3fee:	08 95       	ret

00003ff0 <_ZN12Adafruit_GPS11parseLonDirEPc>:
    3ff0:	fb 01       	movw	r30, r22
    3ff2:	20 81       	ld	r18, Z
    3ff4:	2c 32       	cpi	r18, 0x2C	; 44
    3ff6:	39 f1       	breq	.+78     	; 0x4046 <_ZN12Adafruit_GPS11parseLonDirEPc+0x56>
    3ff8:	27 35       	cpi	r18, 0x57	; 87
    3ffa:	f9 f4       	brne	.+62     	; 0x403a <_ZN12Adafruit_GPS11parseLonDirEPc+0x4a>
    3ffc:	fc 01       	movw	r30, r24
    3ffe:	eb 58       	subi	r30, 0x8B	; 139
    4000:	ff 4f       	sbci	r31, 0xFF	; 255
    4002:	20 83       	st	Z, r18
    4004:	b5 97       	sbiw	r30, 0x25	; 37
    4006:	40 81       	ld	r20, Z
    4008:	51 81       	ldd	r21, Z+1	; 0x01
    400a:	62 81       	ldd	r22, Z+2	; 0x02
    400c:	73 81       	ldd	r23, Z+3	; 0x03
    400e:	70 58       	subi	r23, 0x80	; 128
    4010:	40 83       	st	Z, r20
    4012:	51 83       	std	Z+1, r21	; 0x01
    4014:	62 83       	std	Z+2, r22	; 0x02
    4016:	73 83       	std	Z+3, r23	; 0x03
    4018:	38 97       	sbiw	r30, 0x08	; 8
    401a:	40 81       	ld	r20, Z
    401c:	51 81       	ldd	r21, Z+1	; 0x01
    401e:	62 81       	ldd	r22, Z+2	; 0x02
    4020:	73 81       	ldd	r23, Z+3	; 0x03
    4022:	70 95       	com	r23
    4024:	60 95       	com	r22
    4026:	50 95       	com	r21
    4028:	41 95       	neg	r20
    402a:	5f 4f       	sbci	r21, 0xFF	; 255
    402c:	6f 4f       	sbci	r22, 0xFF	; 255
    402e:	7f 4f       	sbci	r23, 0xFF	; 255
    4030:	40 83       	st	Z, r20
    4032:	51 83       	std	Z+1, r21	; 0x01
    4034:	62 83       	std	Z+2, r22	; 0x02
    4036:	73 83       	std	Z+3, r23	; 0x03
    4038:	06 c0       	rjmp	.+12     	; 0x4046 <_ZN12Adafruit_GPS11parseLonDirEPc+0x56>
    403a:	25 34       	cpi	r18, 0x45	; 69
    403c:	31 f4       	brne	.+12     	; 0x404a <_ZN12Adafruit_GPS11parseLonDirEPc+0x5a>
    403e:	fc 01       	movw	r30, r24
    4040:	eb 58       	subi	r30, 0x8B	; 139
    4042:	ff 4f       	sbci	r31, 0xFF	; 255
    4044:	20 83       	st	Z, r18
    4046:	81 e0       	ldi	r24, 0x01	; 1
    4048:	08 95       	ret
    404a:	80 e0       	ldi	r24, 0x00	; 0
    404c:	08 95       	ret

0000404e <_ZN12Adafruit_GPS8parseFixEPc>:
    404e:	fb 01       	movw	r30, r22
    4050:	20 81       	ld	r18, Z
    4052:	21 34       	cpi	r18, 0x41	; 65
    4054:	99 f4       	brne	.+38     	; 0x407c <_ZN12Adafruit_GPS8parseFixEPc+0x2e>
    4056:	fc 01       	movw	r30, r24
    4058:	e9 58       	subi	r30, 0x89	; 137
    405a:	ff 4f       	sbci	r31, 0xFF	; 255
    405c:	21 e0       	ldi	r18, 0x01	; 1
    405e:	20 83       	st	Z, r18
    4060:	ba 96       	adiw	r30, 0x2a	; 42
    4062:	dc 01       	movw	r26, r24
    4064:	af 54       	subi	r26, 0x4F	; 79
    4066:	bf 4f       	sbci	r27, 0xFF	; 255
    4068:	8d 91       	ld	r24, X+
    406a:	9d 91       	ld	r25, X+
    406c:	0d 90       	ld	r0, X+
    406e:	bc 91       	ld	r27, X
    4070:	a0 2d       	mov	r26, r0
    4072:	80 83       	st	Z, r24
    4074:	91 83       	std	Z+1, r25	; 0x01
    4076:	a2 83       	std	Z+2, r26	; 0x02
    4078:	b3 83       	std	Z+3, r27	; 0x03
    407a:	06 c0       	rjmp	.+12     	; 0x4088 <_ZN12Adafruit_GPS8parseFixEPc+0x3a>
    407c:	26 35       	cpi	r18, 0x56	; 86
    407e:	31 f4       	brne	.+12     	; 0x408c <_ZN12Adafruit_GPS8parseFixEPc+0x3e>
    4080:	fc 01       	movw	r30, r24
    4082:	e9 58       	subi	r30, 0x89	; 137
    4084:	ff 4f       	sbci	r31, 0xFF	; 255
    4086:	10 82       	st	Z, r1
    4088:	81 e0       	ldi	r24, 0x01	; 1
    408a:	08 95       	ret
    408c:	80 e0       	ldi	r24, 0x00	; 0
    408e:	08 95       	ret

00004090 <_ZN12Adafruit_GPS4readEv>:
    4090:	2f 92       	push	r2
    4092:	3f 92       	push	r3
    4094:	4f 92       	push	r4
    4096:	5f 92       	push	r5
    4098:	7f 92       	push	r7
    409a:	8f 92       	push	r8
    409c:	9f 92       	push	r9
    409e:	af 92       	push	r10
    40a0:	bf 92       	push	r11
    40a2:	cf 92       	push	r12
    40a4:	df 92       	push	r13
    40a6:	ef 92       	push	r14
    40a8:	ff 92       	push	r15
    40aa:	0f 93       	push	r16
    40ac:	1f 93       	push	r17
    40ae:	cf 93       	push	r28
    40b0:	df 93       	push	r29
    40b2:	ec 01       	movw	r28, r24
    40b4:	86 d8       	rcall	.-3828   	; 0x31c2 <millis>
    40b6:	1b 01       	movw	r2, r22
    40b8:	2c 01       	movw	r4, r24
    40ba:	fe 01       	movw	r30, r28
    40bc:	eb 54       	subi	r30, 0x4B	; 75
    40be:	ff 4f       	sbci	r31, 0xFF	; 255
    40c0:	80 81       	ld	r24, Z
    40c2:	88 23       	and	r24, r24
    40c4:	11 f0       	breq	.+4      	; 0x40ca <_ZN12Adafruit_GPS4readEv+0x3a>
    40c6:	71 2c       	mov	r7, r1
    40c8:	64 c1       	rjmp	.+712    	; 0x4392 <_ZN12Adafruit_GPS4readEv+0x302>
    40ca:	8e 01       	movw	r16, r28
    40cc:	0a 54       	subi	r16, 0x4A	; 74
    40ce:	1f 4f       	sbci	r17, 0xFF	; 255
    40d0:	d8 01       	movw	r26, r16
    40d2:	8d 91       	ld	r24, X+
    40d4:	9c 91       	ld	r25, X
    40d6:	00 97       	sbiw	r24, 0x00	; 0
    40d8:	a9 f0       	breq	.+42     	; 0x4104 <_ZN12Adafruit_GPS4readEv+0x74>
    40da:	dc 01       	movw	r26, r24
    40dc:	ed 91       	ld	r30, X+
    40de:	fc 91       	ld	r31, X
    40e0:	00 84       	ldd	r0, Z+8	; 0x08
    40e2:	f1 85       	ldd	r31, Z+9	; 0x09
    40e4:	e0 2d       	mov	r30, r0
    40e6:	19 95       	eicall
    40e8:	89 2b       	or	r24, r25
    40ea:	69 f3       	breq	.-38     	; 0x40c6 <_ZN12Adafruit_GPS4readEv+0x36>
    40ec:	f8 01       	movw	r30, r16
    40ee:	80 81       	ld	r24, Z
    40f0:	91 81       	ldd	r25, Z+1	; 0x01
    40f2:	dc 01       	movw	r26, r24
    40f4:	ed 91       	ld	r30, X+
    40f6:	fc 91       	ld	r31, X
    40f8:	02 84       	ldd	r0, Z+10	; 0x0a
    40fa:	f3 85       	ldd	r31, Z+11	; 0x0b
    40fc:	e0 2d       	mov	r30, r0
    40fe:	19 95       	eicall
    4100:	78 2e       	mov	r7, r24
    4102:	01 c0       	rjmp	.+2      	; 0x4106 <_ZN12Adafruit_GPS4readEv+0x76>
    4104:	71 2c       	mov	r7, r1
    4106:	8e 01       	movw	r16, r28
    4108:	08 54       	subi	r16, 0x48	; 72
    410a:	1f 4f       	sbci	r17, 0xFF	; 255
    410c:	f8 01       	movw	r30, r16
    410e:	80 81       	ld	r24, Z
    4110:	91 81       	ldd	r25, Z+1	; 0x01
    4112:	00 97       	sbiw	r24, 0x00	; 0
    4114:	a9 f0       	breq	.+42     	; 0x4140 <_ZN12Adafruit_GPS4readEv+0xb0>
    4116:	dc 01       	movw	r26, r24
    4118:	ed 91       	ld	r30, X+
    411a:	fc 91       	ld	r31, X
    411c:	00 84       	ldd	r0, Z+8	; 0x08
    411e:	f1 85       	ldd	r31, Z+9	; 0x09
    4120:	e0 2d       	mov	r30, r0
    4122:	19 95       	eicall
    4124:	89 2b       	or	r24, r25
    4126:	09 f4       	brne	.+2      	; 0x412a <_ZN12Adafruit_GPS4readEv+0x9a>
    4128:	34 c1       	rjmp	.+616    	; 0x4392 <_ZN12Adafruit_GPS4readEv+0x302>
    412a:	f8 01       	movw	r30, r16
    412c:	80 81       	ld	r24, Z
    412e:	91 81       	ldd	r25, Z+1	; 0x01
    4130:	dc 01       	movw	r26, r24
    4132:	ed 91       	ld	r30, X+
    4134:	fc 91       	ld	r31, X
    4136:	02 84       	ldd	r0, Z+10	; 0x0a
    4138:	f3 85       	ldd	r31, Z+11	; 0x0b
    413a:	e0 2d       	mov	r30, r0
    413c:	19 95       	eicall
    413e:	78 2e       	mov	r7, r24
    4140:	5e 01       	movw	r10, r28
    4142:	ba eb       	ldi	r27, 0xBA	; 186
    4144:	ab 0e       	add	r10, r27
    4146:	b1 1c       	adc	r11, r1
    4148:	d5 01       	movw	r26, r10
    414a:	ed 91       	ld	r30, X+
    414c:	fc 91       	ld	r31, X
    414e:	30 97       	sbiw	r30, 0x00	; 0
    4150:	09 f4       	brne	.+2      	; 0x4154 <_ZN12Adafruit_GPS4readEv+0xc4>
    4152:	62 c0       	rjmp	.+196    	; 0x4218 <_ZN12Adafruit_GPS4readEv+0x188>
    4154:	7e 01       	movw	r14, r28
    4156:	b9 eb       	ldi	r27, 0xB9	; 185
    4158:	eb 1a       	sub	r14, r27
    415a:	be ef       	ldi	r27, 0xFE	; 254
    415c:	fb 0a       	sbc	r15, r27
    415e:	d7 01       	movw	r26, r14
    4160:	9c 91       	ld	r25, X
    4162:	8e 01       	movw	r16, r28
    4164:	0a 5b       	subi	r16, 0xBA	; 186
    4166:	1e 4f       	sbci	r17, 0xFE	; 254
    4168:	d8 01       	movw	r26, r16
    416a:	8c 91       	ld	r24, X
    416c:	89 17       	cp	r24, r25
    416e:	64 f0       	brlt	.+24     	; 0x4188 <_ZN12Adafruit_GPS4readEv+0xf8>
    4170:	fe 01       	movw	r30, r28
    4172:	e9 0f       	add	r30, r25
    4174:	f1 1d       	adc	r31, r1
    4176:	97 fd       	sbrc	r25, 7
    4178:	fa 95       	dec	r31
    417a:	ea 5d       	subi	r30, 0xDA	; 218
    417c:	fe 4f       	sbci	r31, 0xFE	; 254
    417e:	70 80       	ld	r7, Z
    4180:	9f 5f       	subi	r25, 0xFF	; 255
    4182:	f7 01       	movw	r30, r14
    4184:	90 83       	st	Z, r25
    4186:	48 c0       	rjmp	.+144    	; 0x4218 <_ZN12Adafruit_GPS4readEv+0x188>
    4188:	21 e0       	ldi	r18, 0x01	; 1
    418a:	30 e0       	ldi	r19, 0x00	; 0
    418c:	40 e2       	ldi	r20, 0x20	; 32
    418e:	50 e0       	ldi	r21, 0x00	; 0
    4190:	60 e1       	ldi	r22, 0x10	; 16
    4192:	70 e0       	ldi	r23, 0x00	; 0
    4194:	cf 01       	movw	r24, r30
    4196:	0e 94 06 2a 	call	0x540c	; 0x540c <_ZN7TwoWire11requestFromEiii>
    419a:	80 32       	cpi	r24, 0x20	; 32
    419c:	09 f0       	breq	.+2      	; 0x41a0 <_ZN12Adafruit_GPS4readEv+0x110>
    419e:	f9 c0       	rjmp	.+498    	; 0x4392 <_ZN12Adafruit_GPS4readEv+0x302>
    41a0:	d8 01       	movw	r26, r16
    41a2:	1c 92       	st	X, r1
    41a4:	80 e2       	ldi	r24, 0x20	; 32
    41a6:	c8 2e       	mov	r12, r24
    41a8:	d1 2c       	mov	r13, r1
    41aa:	fe 01       	movw	r30, r28
    41ac:	e8 5b       	subi	r30, 0xB8	; 184
    41ae:	fe 4f       	sbci	r31, 0xFE	; 254
    41b0:	4f 01       	movw	r8, r30
    41b2:	d5 01       	movw	r26, r10
    41b4:	8d 91       	ld	r24, X+
    41b6:	9c 91       	ld	r25, X
    41b8:	dc 01       	movw	r26, r24
    41ba:	ed 91       	ld	r30, X+
    41bc:	fc 91       	ld	r31, X
    41be:	02 84       	ldd	r0, Z+10	; 0x0a
    41c0:	f3 85       	ldd	r31, Z+11	; 0x0b
    41c2:	e0 2d       	mov	r30, r0
    41c4:	19 95       	eicall
    41c6:	8a 30       	cpi	r24, 0x0A	; 10
    41c8:	21 f4       	brne	.+8      	; 0x41d2 <_ZN12Adafruit_GPS4readEv+0x142>
    41ca:	f4 01       	movw	r30, r8
    41cc:	90 81       	ld	r25, Z
    41ce:	9d 30       	cpi	r25, 0x0D	; 13
    41d0:	79 f4       	brne	.+30     	; 0x41f0 <_ZN12Adafruit_GPS4readEv+0x160>
    41d2:	d4 01       	movw	r26, r8
    41d4:	8c 93       	st	X, r24
    41d6:	f8 01       	movw	r30, r16
    41d8:	90 81       	ld	r25, Z
    41da:	fe 01       	movw	r30, r28
    41dc:	e9 0f       	add	r30, r25
    41de:	f1 1d       	adc	r31, r1
    41e0:	97 fd       	sbrc	r25, 7
    41e2:	fa 95       	dec	r31
    41e4:	ea 5d       	subi	r30, 0xDA	; 218
    41e6:	fe 4f       	sbci	r31, 0xFE	; 254
    41e8:	80 83       	st	Z, r24
    41ea:	9f 5f       	subi	r25, 0xFF	; 255
    41ec:	d8 01       	movw	r26, r16
    41ee:	9c 93       	st	X, r25
    41f0:	b1 e0       	ldi	r27, 0x01	; 1
    41f2:	cb 1a       	sub	r12, r27
    41f4:	d1 08       	sbc	r13, r1
    41f6:	e9 f6       	brne	.-70     	; 0x41b2 <_ZN12Adafruit_GPS4readEv+0x122>
    41f8:	f8 01       	movw	r30, r16
    41fa:	80 81       	ld	r24, Z
    41fc:	81 50       	subi	r24, 0x01	; 1
    41fe:	80 83       	st	Z, r24
    4200:	81 11       	cpse	r24, r1
    4202:	07 c0       	rjmp	.+14     	; 0x4212 <_ZN12Adafruit_GPS4readEv+0x182>
    4204:	ca 5d       	subi	r28, 0xDA	; 218
    4206:	de 4f       	sbci	r29, 0xFE	; 254
    4208:	88 81       	ld	r24, Y
    420a:	8a 30       	cpi	r24, 0x0A	; 10
    420c:	11 f4       	brne	.+4      	; 0x4212 <_ZN12Adafruit_GPS4readEv+0x182>
    420e:	8f ef       	ldi	r24, 0xFF	; 255
    4210:	80 83       	st	Z, r24
    4212:	d7 01       	movw	r26, r14
    4214:	1c 92       	st	X, r1
    4216:	bd c0       	rjmp	.+378    	; 0x4392 <_ZN12Adafruit_GPS4readEv+0x302>
    4218:	fe 01       	movw	r30, r28
    421a:	e4 54       	subi	r30, 0x44	; 68
    421c:	ff 4f       	sbci	r31, 0xFF	; 255
    421e:	80 81       	ld	r24, Z
    4220:	91 81       	ldd	r25, Z+1	; 0x01
    4222:	89 2b       	or	r24, r25
    4224:	09 f4       	brne	.+2      	; 0x4228 <_ZN12Adafruit_GPS4readEv+0x198>
    4226:	3e c0       	rjmp	.+124    	; 0x42a4 <_ZN12Adafruit_GPS4readEv+0x214>
    4228:	5e 01       	movw	r10, r28
    422a:	bf eb       	ldi	r27, 0xBF	; 191
    422c:	ab 0e       	add	r10, r27
    422e:	b1 1c       	adc	r11, r1
    4230:	8e 01       	movw	r16, r28
    4232:	02 54       	subi	r16, 0x42	; 66
    4234:	1f 4f       	sbci	r17, 0xFF	; 255
    4236:	99 24       	eor	r9, r9
    4238:	9a 94       	dec	r9
    423a:	6e 01       	movw	r12, r28
    423c:	e8 eb       	ldi	r30, 0xB8	; 184
    423e:	ce 1a       	sub	r12, r30
    4240:	ee ef       	ldi	r30, 0xFE	; 254
    4242:	de 0a       	sbc	r13, r30
    4244:	d5 01       	movw	r26, r10
    4246:	8d 91       	ld	r24, X+
    4248:	9c 91       	ld	r25, X
    424a:	c2 db       	rcall	.-2172   	; 0x39d0 <_ZN8SPIClass16beginTransactionE11SPISettings>
    424c:	f8 01       	movw	r30, r16
    424e:	80 81       	ld	r24, Z
    4250:	87 fd       	sbrc	r24, 7
    4252:	02 c0       	rjmp	.+4      	; 0x4258 <_ZN12Adafruit_GPS4readEv+0x1c8>
    4254:	60 e0       	ldi	r22, 0x00	; 0
    4256:	44 d9       	rcall	.-3448   	; 0x34e0 <digitalWrite>
    4258:	9e bc       	out	0x2e, r9	; 46
    425a:	00 00       	nop
    425c:	0d b4       	in	r0, 0x2d	; 45
    425e:	07 fe       	sbrs	r0, 7
    4260:	fd cf       	rjmp	.-6      	; 0x425c <_ZN12Adafruit_GPS4readEv+0x1cc>
    4262:	7e b4       	in	r7, 0x2e	; 46
    4264:	d8 01       	movw	r26, r16
    4266:	8c 91       	ld	r24, X
    4268:	87 fd       	sbrc	r24, 7
    426a:	02 c0       	rjmp	.+4      	; 0x4270 <_ZN12Adafruit_GPS4readEv+0x1e0>
    426c:	61 e0       	ldi	r22, 0x01	; 1
    426e:	38 d9       	rcall	.-3472   	; 0x34e0 <digitalWrite>
    4270:	c9 db       	rcall	.-2158   	; 0x3a04 <_ZN8SPIClass14endTransactionEv>
    4272:	ba e0       	ldi	r27, 0x0A	; 10
    4274:	7b 12       	cpse	r7, r27
    4276:	04 c0       	rjmp	.+8      	; 0x4280 <_ZN12Adafruit_GPS4readEv+0x1f0>
    4278:	f6 01       	movw	r30, r12
    427a:	80 81       	ld	r24, Z
    427c:	8d 30       	cpi	r24, 0x0D	; 13
    427e:	11 f7       	brne	.-60     	; 0x4244 <_ZN12Adafruit_GPS4readEv+0x1b4>
    4280:	e7 2c       	mov	r14, r7
    4282:	f1 2c       	mov	r15, r1
    4284:	c7 01       	movw	r24, r14
    4286:	0e 94 21 43 	call	0x8642	; 0x8642 <isprint>
    428a:	89 2b       	or	r24, r25
    428c:	29 f0       	breq	.+10     	; 0x4298 <_ZN12Adafruit_GPS4readEv+0x208>
    428e:	fe 01       	movw	r30, r28
    4290:	e8 5b       	subi	r30, 0xB8	; 184
    4292:	fe 4f       	sbci	r31, 0xFE	; 254
    4294:	70 82       	st	Z, r7
    4296:	06 c0       	rjmp	.+12     	; 0x42a4 <_ZN12Adafruit_GPS4readEv+0x214>
    4298:	c7 01       	movw	r24, r14
    429a:	0e 94 27 43 	call	0x864e	; 0x864e <isspace>
    429e:	89 2b       	or	r24, r25
    42a0:	89 f2       	breq	.-94     	; 0x4244 <_ZN12Adafruit_GPS4readEv+0x1b4>
    42a2:	f5 cf       	rjmp	.-22     	; 0x428e <_ZN12Adafruit_GPS4readEv+0x1fe>
    42a4:	8e 01       	movw	r16, r28
    42a6:	06 5c       	subi	r16, 0xC6	; 198
    42a8:	1d 4f       	sbci	r17, 0xFD	; 253
    42aa:	d8 01       	movw	r26, r16
    42ac:	8d 91       	ld	r24, X+
    42ae:	9c 91       	ld	r25, X
    42b0:	fe 01       	movw	r30, r28
    42b2:	e7 5c       	subi	r30, 0xC7	; 199
    42b4:	fd 4f       	sbci	r31, 0xFD	; 253
    42b6:	20 81       	ld	r18, Z
    42b8:	31 e0       	ldi	r19, 0x01	; 1
    42ba:	32 0f       	add	r19, r18
    42bc:	30 83       	st	Z, r19
    42be:	82 0f       	add	r24, r18
    42c0:	91 1d       	adc	r25, r1
    42c2:	dc 01       	movw	r26, r24
    42c4:	7c 92       	st	X, r7
    42c6:	80 81       	ld	r24, Z
    42c8:	88 37       	cpi	r24, 0x78	; 120
    42ca:	10 f0       	brcs	.+4      	; 0x42d0 <_ZN12Adafruit_GPS4readEv+0x240>
    42cc:	87 e7       	ldi	r24, 0x77	; 119
    42ce:	80 83       	st	Z, r24
    42d0:	ba e0       	ldi	r27, 0x0A	; 10
    42d2:	7b 12       	cpse	r7, r27
    42d4:	4a c0       	rjmp	.+148    	; 0x436a <_ZN12Adafruit_GPS4readEv+0x2da>
    42d6:	20 81       	ld	r18, Z
    42d8:	d8 01       	movw	r26, r16
    42da:	8d 91       	ld	r24, X+
    42dc:	9c 91       	ld	r25, X
    42de:	82 0f       	add	r24, r18
    42e0:	91 1d       	adc	r25, r1
    42e2:	dc 01       	movw	r26, r24
    42e4:	1c 92       	st	X, r1
    42e6:	d8 01       	movw	r26, r16
    42e8:	6d 91       	ld	r22, X+
    42ea:	7c 91       	ld	r23, X
    42ec:	11 97       	sbiw	r26, 0x01	; 1
    42ee:	ae 01       	movw	r20, r28
    42f0:	47 5b       	subi	r20, 0xB7	; 183
    42f2:	5e 4f       	sbci	r21, 0xFE	; 254
    42f4:	9e 01       	movw	r18, r28
    42f6:	2f 53       	subi	r18, 0x3F	; 63
    42f8:	3e 4f       	sbci	r19, 0xFE	; 254
    42fa:	ce 01       	movw	r24, r28
    42fc:	84 5c       	subi	r24, 0xC4	; 196
    42fe:	9d 4f       	sbci	r25, 0xFD	; 253
    4300:	64 17       	cp	r22, r20
    4302:	75 07       	cpc	r23, r21
    4304:	31 f4       	brne	.+12     	; 0x4312 <_ZN12Adafruit_GPS4readEv+0x282>
    4306:	2d 93       	st	X+, r18
    4308:	3c 93       	st	X, r19
    430a:	dc 01       	movw	r26, r24
    430c:	6d 93       	st	X+, r22
    430e:	7c 93       	st	X, r23
    4310:	06 c0       	rjmp	.+12     	; 0x431e <_ZN12Adafruit_GPS4readEv+0x28e>
    4312:	d8 01       	movw	r26, r16
    4314:	4d 93       	st	X+, r20
    4316:	5c 93       	st	X, r21
    4318:	dc 01       	movw	r26, r24
    431a:	2d 93       	st	X+, r18
    431c:	3c 93       	st	X, r19
    431e:	10 82       	st	Z, r1
    4320:	fe 01       	movw	r30, r28
    4322:	e2 5c       	subi	r30, 0xC2	; 194
    4324:	fd 4f       	sbci	r31, 0xFD	; 253
    4326:	81 e0       	ldi	r24, 0x01	; 1
    4328:	80 83       	st	Z, r24
    432a:	0e 94 e1 18 	call	0x31c2	; 0x31c2 <millis>
    432e:	fe 01       	movw	r30, r28
    4330:	e3 55       	subi	r30, 0x53	; 83
    4332:	ff 4f       	sbci	r31, 0xFF	; 255
    4334:	60 83       	st	Z, r22
    4336:	71 83       	std	Z+1, r23	; 0x01
    4338:	82 83       	std	Z+2, r24	; 0x02
    433a:	93 83       	std	Z+3, r25	; 0x03
    433c:	cf 54       	subi	r28, 0x4F	; 79
    433e:	df 4f       	sbci	r29, 0xFF	; 255
    4340:	80 91 cf 10 	lds	r24, 0x10CF	; 0x8010cf <_ZZN12Adafruit_GPS4readEvE9firstChar>
    4344:	90 91 d0 10 	lds	r25, 0x10D0	; 0x8010d0 <_ZZN12Adafruit_GPS4readEvE9firstChar+0x1>
    4348:	a0 91 d1 10 	lds	r26, 0x10D1	; 0x8010d1 <_ZZN12Adafruit_GPS4readEvE9firstChar+0x2>
    434c:	b0 91 d2 10 	lds	r27, 0x10D2	; 0x8010d2 <_ZZN12Adafruit_GPS4readEvE9firstChar+0x3>
    4350:	88 83       	st	Y, r24
    4352:	99 83       	std	Y+1, r25	; 0x01
    4354:	aa 83       	std	Y+2, r26	; 0x02
    4356:	bb 83       	std	Y+3, r27	; 0x03
    4358:	10 92 cf 10 	sts	0x10CF, r1	; 0x8010cf <_ZZN12Adafruit_GPS4readEvE9firstChar>
    435c:	10 92 d0 10 	sts	0x10D0, r1	; 0x8010d0 <_ZZN12Adafruit_GPS4readEvE9firstChar+0x1>
    4360:	10 92 d1 10 	sts	0x10D1, r1	; 0x8010d1 <_ZZN12Adafruit_GPS4readEvE9firstChar+0x2>
    4364:	10 92 d2 10 	sts	0x10D2, r1	; 0x8010d2 <_ZZN12Adafruit_GPS4readEvE9firstChar+0x3>
    4368:	14 c0       	rjmp	.+40     	; 0x4392 <_ZN12Adafruit_GPS4readEv+0x302>
    436a:	80 91 cf 10 	lds	r24, 0x10CF	; 0x8010cf <_ZZN12Adafruit_GPS4readEvE9firstChar>
    436e:	90 91 d0 10 	lds	r25, 0x10D0	; 0x8010d0 <_ZZN12Adafruit_GPS4readEvE9firstChar+0x1>
    4372:	a0 91 d1 10 	lds	r26, 0x10D1	; 0x8010d1 <_ZZN12Adafruit_GPS4readEvE9firstChar+0x2>
    4376:	b0 91 d2 10 	lds	r27, 0x10D2	; 0x8010d2 <_ZZN12Adafruit_GPS4readEvE9firstChar+0x3>
    437a:	89 2b       	or	r24, r25
    437c:	8a 2b       	or	r24, r26
    437e:	8b 2b       	or	r24, r27
    4380:	41 f4       	brne	.+16     	; 0x4392 <_ZN12Adafruit_GPS4readEv+0x302>
    4382:	20 92 cf 10 	sts	0x10CF, r2	; 0x8010cf <_ZZN12Adafruit_GPS4readEvE9firstChar>
    4386:	30 92 d0 10 	sts	0x10D0, r3	; 0x8010d0 <_ZZN12Adafruit_GPS4readEvE9firstChar+0x1>
    438a:	40 92 d1 10 	sts	0x10D1, r4	; 0x8010d1 <_ZZN12Adafruit_GPS4readEvE9firstChar+0x2>
    438e:	50 92 d2 10 	sts	0x10D2, r5	; 0x8010d2 <_ZZN12Adafruit_GPS4readEvE9firstChar+0x3>
    4392:	87 2d       	mov	r24, r7
    4394:	df 91       	pop	r29
    4396:	cf 91       	pop	r28
    4398:	1f 91       	pop	r17
    439a:	0f 91       	pop	r16
    439c:	ff 90       	pop	r15
    439e:	ef 90       	pop	r14
    43a0:	df 90       	pop	r13
    43a2:	cf 90       	pop	r12
    43a4:	bf 90       	pop	r11
    43a6:	af 90       	pop	r10
    43a8:	9f 90       	pop	r9
    43aa:	8f 90       	pop	r8
    43ac:	7f 90       	pop	r7
    43ae:	5f 90       	pop	r5
    43b0:	4f 90       	pop	r4
    43b2:	3f 90       	pop	r3
    43b4:	2f 90       	pop	r2
    43b6:	08 95       	ret

000043b8 <_ZN12Adafruit_GPS11common_initEv>:
    43b8:	fc 01       	movw	r30, r24
    43ba:	dc 01       	movw	r26, r24
    43bc:	aa 54       	subi	r26, 0x4A	; 74
    43be:	bf 4f       	sbci	r27, 0xFF	; 255
    43c0:	11 96       	adiw	r26, 0x01	; 1
    43c2:	1c 92       	st	X, r1
    43c4:	1e 92       	st	-X, r1
    43c6:	12 96       	adiw	r26, 0x02	; 2
    43c8:	11 96       	adiw	r26, 0x01	; 1
    43ca:	1c 92       	st	X, r1
    43cc:	1e 92       	st	-X, r1
    43ce:	12 96       	adiw	r26, 0x02	; 2
    43d0:	11 96       	adiw	r26, 0x01	; 1
    43d2:	1c 92       	st	X, r1
    43d4:	1e 92       	st	-X, r1
    43d6:	12 96       	adiw	r26, 0x02	; 2
    43d8:	11 96       	adiw	r26, 0x01	; 1
    43da:	1c 92       	st	X, r1
    43dc:	1e 92       	st	-X, r1
    43de:	ae 57       	subi	r26, 0x7E	; 126
    43e0:	be 4f       	sbci	r27, 0xFE	; 254
    43e2:	1c 92       	st	X, r1
    43e4:	a9 58       	subi	r26, 0x89	; 137
    43e6:	b1 40       	sbci	r27, 0x01	; 1
    43e8:	1c 92       	st	X, r1
    43ea:	ac 57       	subi	r26, 0x7C	; 124
    43ec:	be 4f       	sbci	r27, 0xFE	; 254
    43ee:	1c 92       	st	X, r1
    43f0:	11 96       	adiw	r26, 0x01	; 1
    43f2:	87 5b       	subi	r24, 0xB7	; 183
    43f4:	9e 4f       	sbci	r25, 0xFE	; 254
    43f6:	11 96       	adiw	r26, 0x01	; 1
    43f8:	9c 93       	st	X, r25
    43fa:	8e 93       	st	-X, r24
    43fc:	12 96       	adiw	r26, 0x02	; 2
    43fe:	88 58       	subi	r24, 0x88	; 136
    4400:	9f 4f       	sbci	r25, 0xFF	; 255
    4402:	11 96       	adiw	r26, 0x01	; 1
    4404:	9c 93       	st	X, r25
    4406:	8e 93       	st	-X, r24
    4408:	a2 5c       	subi	r26, 0xC2	; 194
    440a:	b1 40       	sbci	r27, 0x01	; 1
    440c:	1c 92       	st	X, r1
    440e:	11 97       	sbiw	r26, 0x01	; 1
    4410:	1c 92       	st	X, r1
    4412:	11 97       	sbiw	r26, 0x01	; 1
    4414:	1c 92       	st	X, r1
    4416:	13 ae       	std	Z+59, r1	; 0x3b
    4418:	12 ae       	std	Z+58, r1	; 0x3a
    441a:	11 ae       	std	Z+57, r1	; 0x39
    441c:	16 aa       	std	Z+54, r1	; 0x36
    441e:	15 aa       	std	Z+53, r1	; 0x35
    4420:	14 aa       	std	Z+52, r1	; 0x34
    4422:	12 97       	sbiw	r26, 0x02	; 2
    4424:	1c 92       	st	X, r1
    4426:	11 97       	sbiw	r26, 0x01	; 1
    4428:	1c 92       	st	X, r1
    442a:	11 97       	sbiw	r26, 0x01	; 1
    442c:	1c 92       	st	X, r1
    442e:	13 96       	adiw	r26, 0x03	; 3
    4430:	1c 92       	st	X, r1
    4432:	10 ae       	std	Z+56, r1	; 0x38
    4434:	17 aa       	std	Z+55, r1	; 0x37
    4436:	17 97       	sbiw	r26, 0x07	; 7
    4438:	1d 92       	st	X+, r1
    443a:	1d 92       	st	X+, r1
    443c:	1d 92       	st	X+, r1
    443e:	1c 92       	st	X, r1
    4440:	13 97       	sbiw	r26, 0x03	; 3
    4442:	14 97       	sbiw	r26, 0x04	; 4
    4444:	1d 92       	st	X+, r1
    4446:	1d 92       	st	X+, r1
    4448:	1d 92       	st	X+, r1
    444a:	1c 92       	st	X, r1
    444c:	13 97       	sbiw	r26, 0x03	; 3
    444e:	14 97       	sbiw	r26, 0x04	; 4
    4450:	1d 92       	st	X+, r1
    4452:	1d 92       	st	X+, r1
    4454:	1d 92       	st	X+, r1
    4456:	1c 92       	st	X, r1
    4458:	13 97       	sbiw	r26, 0x03	; 3
    445a:	14 97       	sbiw	r26, 0x04	; 4
    445c:	1d 92       	st	X+, r1
    445e:	1d 92       	st	X+, r1
    4460:	1d 92       	st	X+, r1
    4462:	1c 92       	st	X, r1
    4464:	13 97       	sbiw	r26, 0x03	; 3
    4466:	14 97       	sbiw	r26, 0x04	; 4
    4468:	1d 92       	st	X+, r1
    446a:	1d 92       	st	X+, r1
    446c:	1d 92       	st	X+, r1
    446e:	1c 92       	st	X, r1
    4470:	13 97       	sbiw	r26, 0x03	; 3
    4472:	14 97       	sbiw	r26, 0x04	; 4
    4474:	1d 92       	st	X+, r1
    4476:	1d 92       	st	X+, r1
    4478:	1d 92       	st	X+, r1
    447a:	1c 92       	st	X, r1
    447c:	13 97       	sbiw	r26, 0x03	; 3
    447e:	14 97       	sbiw	r26, 0x04	; 4
    4480:	1d 92       	st	X+, r1
    4482:	1d 92       	st	X+, r1
    4484:	1d 92       	st	X+, r1
    4486:	1c 92       	st	X, r1
    4488:	13 97       	sbiw	r26, 0x03	; 3
    448a:	14 97       	sbiw	r26, 0x04	; 4
    448c:	1d 92       	st	X+, r1
    448e:	1d 92       	st	X+, r1
    4490:	1d 92       	st	X+, r1
    4492:	1c 92       	st	X, r1
    4494:	13 97       	sbiw	r26, 0x03	; 3
    4496:	54 97       	sbiw	r26, 0x14	; 20
    4498:	1d 92       	st	X+, r1
    449a:	1d 92       	st	X+, r1
    449c:	1d 92       	st	X+, r1
    449e:	1c 92       	st	X, r1
    44a0:	13 97       	sbiw	r26, 0x03	; 3
    44a2:	14 ae       	std	Z+60, r1	; 0x3c
    44a4:	15 ae       	std	Z+61, r1	; 0x3d
    44a6:	16 ae       	std	Z+62, r1	; 0x3e
    44a8:	17 ae       	std	Z+63, r1	; 0x3f
    44aa:	08 95       	ret

000044ac <_ZN12Adafruit_GPSC1EP14HardwareSerial>:
    44ac:	ef 92       	push	r14
    44ae:	ff 92       	push	r15
    44b0:	0f 93       	push	r16
    44b2:	1f 93       	push	r17
    44b4:	cf 93       	push	r28
    44b6:	df 93       	push	r29
    44b8:	ec 01       	movw	r28, r24
    44ba:	7b 01       	movw	r14, r22
    44bc:	1b 82       	std	Y+3, r1	; 0x03
    44be:	1a 82       	std	Y+2, r1	; 0x02
    44c0:	8e e8       	ldi	r24, 0x8E	; 142
    44c2:	96 e0       	ldi	r25, 0x06	; 6
    44c4:	99 83       	std	Y+1, r25	; 0x01
    44c6:	88 83       	st	Y, r24
    44c8:	1d 82       	std	Y+5, r1	; 0x05
    44ca:	1c 82       	std	Y+4, r1	; 0x04
    44cc:	1e 82       	std	Y+6, r1	; 0x06
    44ce:	1f 82       	std	Y+7, r1	; 0x07
    44d0:	18 86       	std	Y+8, r1	; 0x08
    44d2:	84 e1       	ldi	r24, 0x14	; 20
    44d4:	fe 01       	movw	r30, r28
    44d6:	39 96       	adiw	r30, 0x09	; 9
    44d8:	df 01       	movw	r26, r30
    44da:	98 2f       	mov	r25, r24
    44dc:	1d 92       	st	X+, r1
    44de:	9a 95       	dec	r25
    44e0:	e9 f7       	brne	.-6      	; 0x44dc <_ZN12Adafruit_GPSC1EP14HardwareSerial+0x30>
    44e2:	1d 8e       	std	Y+29, r1	; 0x1d
    44e4:	1e 8e       	std	Y+30, r1	; 0x1e
    44e6:	1f 8e       	std	Y+31, r1	; 0x1f
    44e8:	77 96       	adiw	r30, 0x17	; 23
    44ea:	df 01       	movw	r26, r30
    44ec:	1d 92       	st	X+, r1
    44ee:	8a 95       	dec	r24
    44f0:	e9 f7       	brne	.-6      	; 0x44ec <_ZN12Adafruit_GPSC1EP14HardwareSerial+0x40>
    44f2:	de 01       	movw	r26, r28
    44f4:	a9 57       	subi	r26, 0x79	; 121
    44f6:	bf 4f       	sbci	r27, 0xFF	; 255
    44f8:	8a e0       	ldi	r24, 0x0A	; 10
    44fa:	e0 e2       	ldi	r30, 0x20	; 32
    44fc:	f2 e0       	ldi	r31, 0x02	; 2
    44fe:	01 90       	ld	r0, Z+
    4500:	0d 92       	st	X+, r0
    4502:	8a 95       	dec	r24
    4504:	e1 f7       	brne	.-8      	; 0x44fe <_ZN12Adafruit_GPSC1EP14HardwareSerial+0x52>
    4506:	de 01       	movw	r26, r28
    4508:	af 56       	subi	r26, 0x6F	; 111
    450a:	bf 4f       	sbci	r27, 0xFF	; 255
    450c:	8a e0       	ldi	r24, 0x0A	; 10
    450e:	ea e2       	ldi	r30, 0x2A	; 42
    4510:	f2 e0       	ldi	r31, 0x02	; 2
    4512:	01 90       	ld	r0, Z+
    4514:	0d 92       	st	X+, r0
    4516:	8a 95       	dec	r24
    4518:	e1 f7       	brne	.-8      	; 0x4512 <_ZN12Adafruit_GPSC1EP14HardwareSerial+0x66>
    451a:	fe 01       	movw	r30, r28
    451c:	e5 56       	subi	r30, 0x65	; 101
    451e:	ff 4f       	sbci	r31, 0xFF	; 255
    4520:	89 e0       	ldi	r24, 0x09	; 9
    4522:	96 e0       	ldi	r25, 0x06	; 6
    4524:	91 83       	std	Z+1, r25	; 0x01
    4526:	80 83       	st	Z, r24
    4528:	32 96       	adiw	r30, 0x02	; 2
    452a:	80 e0       	ldi	r24, 0x00	; 0
    452c:	94 e9       	ldi	r25, 0x94	; 148
    452e:	a5 e3       	ldi	r26, 0x35	; 53
    4530:	b7 e7       	ldi	r27, 0x77	; 119
    4532:	80 83       	st	Z, r24
    4534:	91 83       	std	Z+1, r25	; 0x01
    4536:	a2 83       	std	Z+2, r26	; 0x02
    4538:	b3 83       	std	Z+3, r27	; 0x03
    453a:	34 96       	adiw	r30, 0x04	; 4
    453c:	80 83       	st	Z, r24
    453e:	91 83       	std	Z+1, r25	; 0x01
    4540:	a2 83       	std	Z+2, r26	; 0x02
    4542:	b3 83       	std	Z+3, r27	; 0x03
    4544:	34 96       	adiw	r30, 0x04	; 4
    4546:	80 83       	st	Z, r24
    4548:	91 83       	std	Z+1, r25	; 0x01
    454a:	a2 83       	std	Z+2, r26	; 0x02
    454c:	b3 83       	std	Z+3, r27	; 0x03
    454e:	34 96       	adiw	r30, 0x04	; 4
    4550:	80 83       	st	Z, r24
    4552:	91 83       	std	Z+1, r25	; 0x01
    4554:	a2 83       	std	Z+2, r26	; 0x02
    4556:	b3 83       	std	Z+3, r27	; 0x03
    4558:	34 96       	adiw	r30, 0x04	; 4
    455a:	80 83       	st	Z, r24
    455c:	91 83       	std	Z+1, r25	; 0x01
    455e:	a2 83       	std	Z+2, r26	; 0x02
    4560:	b3 83       	std	Z+3, r27	; 0x03
    4562:	34 96       	adiw	r30, 0x04	; 4
    4564:	80 83       	st	Z, r24
    4566:	91 83       	std	Z+1, r25	; 0x01
    4568:	a2 83       	std	Z+2, r26	; 0x02
    456a:	b3 83       	std	Z+3, r27	; 0x03
    456c:	3d 96       	adiw	r30, 0x0d	; 13
    456e:	1f ef       	ldi	r17, 0xFF	; 255
    4570:	10 83       	st	Z, r17
    4572:	00 e0       	ldi	r16, 0x00	; 0
    4574:	21 e0       	ldi	r18, 0x01	; 1
    4576:	40 e4       	ldi	r20, 0x40	; 64
    4578:	52 e4       	ldi	r21, 0x42	; 66
    457a:	6f e0       	ldi	r22, 0x0F	; 15
    457c:	70 e0       	ldi	r23, 0x00	; 0
    457e:	ce 01       	movw	r24, r28
    4580:	81 54       	subi	r24, 0x41	; 65
    4582:	9f 4f       	sbci	r25, 0xFF	; 255
    4584:	00 da       	rcall	.-3072   	; 0x3986 <_ZN11SPISettingsC1Emhh>
    4586:	fe 01       	movw	r30, r28
    4588:	ea 5b       	subi	r30, 0xBA	; 186
    458a:	fe 4f       	sbci	r31, 0xFE	; 254
    458c:	10 83       	st	Z, r17
    458e:	31 96       	adiw	r30, 0x01	; 1
    4590:	10 82       	st	Z, r1
    4592:	31 96       	adiw	r30, 0x01	; 1
    4594:	10 82       	st	Z, r1
    4596:	ef 50       	subi	r30, 0x0F	; 15
    4598:	ff 4f       	sbci	r31, 0xFF	; 255
    459a:	10 82       	st	Z, r1
    459c:	ce 01       	movw	r24, r28
    459e:	0c df       	rcall	.-488    	; 0x43b8 <_ZN12Adafruit_GPS11common_initEv>
    45a0:	c8 54       	subi	r28, 0x48	; 72
    45a2:	df 4f       	sbci	r29, 0xFF	; 255
    45a4:	f9 82       	std	Y+1, r15	; 0x01
    45a6:	e8 82       	st	Y, r14
    45a8:	df 91       	pop	r29
    45aa:	cf 91       	pop	r28
    45ac:	1f 91       	pop	r17
    45ae:	0f 91       	pop	r16
    45b0:	ff 90       	pop	r15
    45b2:	ef 90       	pop	r14
    45b4:	08 95       	ret

000045b6 <_ZN12Adafruit_GPS15newNMEAreceivedEv>:
    45b6:	82 5c       	subi	r24, 0xC2	; 194
    45b8:	9d 4f       	sbci	r25, 0xFD	; 253
    45ba:	fc 01       	movw	r30, r24
    45bc:	80 81       	ld	r24, Z
    45be:	08 95       	ret

000045c0 <_ZN12Adafruit_GPS8lastNMEAEv>:
    45c0:	fc 01       	movw	r30, r24
    45c2:	e2 5c       	subi	r30, 0xC2	; 194
    45c4:	fd 4f       	sbci	r31, 0xFD	; 253
    45c6:	10 82       	st	Z, r1
    45c8:	32 97       	sbiw	r30, 0x02	; 2
    45ca:	80 81       	ld	r24, Z
    45cc:	91 81       	ldd	r25, Z+1	; 0x01
    45ce:	08 95       	ret

000045d0 <_ZN12Adafruit_GPS8parseHexEc>:
    45d0:	60 33       	cpi	r22, 0x30	; 48
    45d2:	58 f0       	brcs	.+22     	; 0x45ea <_ZN12Adafruit_GPS8parseHexEc+0x1a>
    45d4:	6a 33       	cpi	r22, 0x3A	; 58
    45d6:	10 f4       	brcc	.+4      	; 0x45dc <_ZN12Adafruit_GPS8parseHexEc+0xc>
    45d8:	80 ed       	ldi	r24, 0xD0	; 208
    45da:	05 c0       	rjmp	.+10     	; 0x45e6 <_ZN12Adafruit_GPS8parseHexEc+0x16>
    45dc:	8f eb       	ldi	r24, 0xBF	; 191
    45de:	86 0f       	add	r24, r22
    45e0:	86 30       	cpi	r24, 0x06	; 6
    45e2:	18 f4       	brcc	.+6      	; 0x45ea <_ZN12Adafruit_GPS8parseHexEc+0x1a>
    45e4:	89 ec       	ldi	r24, 0xC9	; 201
    45e6:	86 0f       	add	r24, r22
    45e8:	08 95       	ret
    45ea:	80 e0       	ldi	r24, 0x00	; 0
    45ec:	08 95       	ret

000045ee <_ZN12Adafruit_GPS5checkEPc>:
    45ee:	cf 92       	push	r12
    45f0:	df 92       	push	r13
    45f2:	ef 92       	push	r14
    45f4:	ff 92       	push	r15
    45f6:	0f 93       	push	r16
    45f8:	1f 93       	push	r17
    45fa:	cf 93       	push	r28
    45fc:	df 93       	push	r29
    45fe:	ec 01       	movw	r28, r24
    4600:	1d 82       	std	Y+5, r1	; 0x05
    4602:	1c 82       	std	Y+4, r1	; 0x04
    4604:	fb 01       	movw	r30, r22
    4606:	80 81       	ld	r24, Z
    4608:	84 32       	cpi	r24, 0x24	; 36
    460a:	c1 f4       	brne	.+48     	; 0x463c <_ZN12Adafruit_GPS5checkEPc+0x4e>
    460c:	81 e0       	ldi	r24, 0x01	; 1
    460e:	90 e0       	ldi	r25, 0x00	; 0
    4610:	9d 83       	std	Y+5, r25	; 0x05
    4612:	8c 83       	std	Y+4, r24	; 0x04
    4614:	cb 01       	movw	r24, r22
    4616:	7c 01       	movw	r14, r24
    4618:	01 96       	adiw	r24, 0x01	; 1
    461a:	f7 01       	movw	r30, r14
    461c:	20 81       	ld	r18, Z
    461e:	21 11       	cpse	r18, r1
    4620:	fa cf       	rjmp	.-12     	; 0x4616 <_ZN12Adafruit_GPS5checkEPc+0x28>
    4622:	f7 01       	movw	r30, r14
    4624:	80 81       	ld	r24, Z
    4626:	8a 32       	cpi	r24, 0x2A	; 42
    4628:	59 f0       	breq	.+22     	; 0x4640 <_ZN12Adafruit_GPS5checkEPc+0x52>
    462a:	6e 15       	cp	r22, r14
    462c:	7f 05       	cpc	r23, r15
    462e:	30 f4       	brcc	.+12     	; 0x463c <_ZN12Adafruit_GPS5checkEPc+0x4e>
    4630:	f1 e0       	ldi	r31, 0x01	; 1
    4632:	ef 1a       	sub	r14, r31
    4634:	f1 08       	sbc	r15, r1
    4636:	f5 cf       	rjmp	.-22     	; 0x4622 <_ZN12Adafruit_GPS5checkEPc+0x34>
    4638:	89 2b       	or	r24, r25
    463a:	e1 f0       	breq	.+56     	; 0x4674 <_ZN12Adafruit_GPS5checkEPc+0x86>
    463c:	80 e0       	ldi	r24, 0x00	; 0
    463e:	5e c0       	rjmp	.+188    	; 0x46fc <_ZN12Adafruit_GPS5checkEPc+0x10e>
    4640:	8b 01       	movw	r16, r22
    4642:	f7 01       	movw	r30, r14
    4644:	61 81       	ldd	r22, Z+1	; 0x01
    4646:	ce 01       	movw	r24, r28
    4648:	c3 df       	rcall	.-122    	; 0x45d0 <_ZN12Adafruit_GPS8parseHexEc>
    464a:	f0 e1       	ldi	r31, 0x10	; 16
    464c:	8f 9f       	mul	r24, r31
    464e:	60 01       	movw	r12, r0
    4650:	11 24       	eor	r1, r1
    4652:	f7 01       	movw	r30, r14
    4654:	62 81       	ldd	r22, Z+2	; 0x02
    4656:	ce 01       	movw	r24, r28
    4658:	bb df       	rcall	.-138    	; 0x45d0 <_ZN12Adafruit_GPS8parseHexEc>
    465a:	96 01       	movw	r18, r12
    465c:	28 0f       	add	r18, r24
    465e:	31 1d       	adc	r19, r1
    4660:	c9 01       	movw	r24, r18
    4662:	0f 5f       	subi	r16, 0xFF	; 255
    4664:	1f 4f       	sbci	r17, 0xFF	; 255
    4666:	f8 01       	movw	r30, r16
    4668:	ee 15       	cp	r30, r14
    466a:	ff 05       	cpc	r31, r15
    466c:	28 f7       	brcc	.-54     	; 0x4638 <_ZN12Adafruit_GPS5checkEPc+0x4a>
    466e:	21 91       	ld	r18, Z+
    4670:	82 27       	eor	r24, r18
    4672:	fa cf       	rjmp	.-12     	; 0x4668 <_ZN12Adafruit_GPS5checkEPc+0x7a>
    4674:	83 e0       	ldi	r24, 0x03	; 3
    4676:	90 e0       	ldi	r25, 0x00	; 0
    4678:	9d 83       	std	Y+5, r25	; 0x05
    467a:	8c 83       	std	Y+4, r24	; 0x04
    467c:	ae 01       	movw	r20, r28
    467e:	49 57       	subi	r20, 0x79	; 121
    4680:	5f 4f       	sbci	r21, 0xFF	; 255
    4682:	b8 01       	movw	r22, r16
    4684:	ce 01       	movw	r24, r28
    4686:	49 da       	rcall	.-2926   	; 0x3b1a <_ZN12Adafruit_GPS11tokenOnListEPcPPKc>
    4688:	7c 01       	movw	r14, r24
    468a:	00 97       	sbiw	r24, 0x00	; 0
    468c:	b9 f2       	breq	.-82     	; 0x463c <_ZN12Adafruit_GPS5checkEPc+0x4e>
    468e:	bc 01       	movw	r22, r24
    4690:	ce 01       	movw	r24, r28
    4692:	06 96       	adiw	r24, 0x06	; 6
    4694:	0e 94 78 43 	call	0x86f0	; 0x86f0 <strcpy>
    4698:	8d e0       	ldi	r24, 0x0D	; 13
    469a:	90 e0       	ldi	r25, 0x00	; 0
    469c:	9d 83       	std	Y+5, r25	; 0x05
    469e:	8c 83       	std	Y+4, r24	; 0x04
    46a0:	f7 01       	movw	r30, r14
    46a2:	01 90       	ld	r0, Z+
    46a4:	00 20       	and	r0, r0
    46a6:	e9 f7       	brne	.-6      	; 0x46a2 <_ZN12Adafruit_GPS5checkEPc+0xb4>
    46a8:	31 97       	sbiw	r30, 0x01	; 1
    46aa:	ee 19       	sub	r30, r14
    46ac:	ff 09       	sbc	r31, r15
    46ae:	0e 0f       	add	r16, r30
    46b0:	1f 1f       	adc	r17, r31
    46b2:	ae 01       	movw	r20, r28
    46b4:	4f 56       	subi	r20, 0x6F	; 111
    46b6:	5f 4f       	sbci	r21, 0xFF	; 255
    46b8:	b8 01       	movw	r22, r16
    46ba:	ce 01       	movw	r24, r28
    46bc:	2e da       	rcall	.-2980   	; 0x3b1a <_ZN12Adafruit_GPS11tokenOnListEPcPPKc>
    46be:	00 97       	sbiw	r24, 0x00	; 0
    46c0:	51 f0       	breq	.+20     	; 0x46d6 <_ZN12Adafruit_GPS5checkEPc+0xe8>
    46c2:	bc 01       	movw	r22, r24
    46c4:	ce 01       	movw	r24, r28
    46c6:	09 96       	adiw	r24, 0x09	; 9
    46c8:	0e 94 78 43 	call	0x86f0	; 0x86f0 <strcpy>
    46cc:	89 e4       	ldi	r24, 0x49	; 73
    46ce:	90 e0       	ldi	r25, 0x00	; 0
    46d0:	9d 83       	std	Y+5, r25	; 0x05
    46d2:	8c 83       	std	Y+4, r24	; 0x04
    46d4:	12 c0       	rjmp	.+36     	; 0x46fa <_ZN12Adafruit_GPS5checkEPc+0x10c>
    46d6:	ae 01       	movw	r20, r28
    46d8:	45 56       	subi	r20, 0x65	; 101
    46da:	5f 4f       	sbci	r21, 0xFF	; 255
    46dc:	b8 01       	movw	r22, r16
    46de:	ce 01       	movw	r24, r28
    46e0:	1c da       	rcall	.-3016   	; 0x3b1a <_ZN12Adafruit_GPS11tokenOnListEPcPPKc>
    46e2:	00 97       	sbiw	r24, 0x00	; 0
    46e4:	51 f0       	breq	.+20     	; 0x46fa <_ZN12Adafruit_GPS5checkEPc+0x10c>
    46e6:	bc 01       	movw	r22, r24
    46e8:	ce 01       	movw	r24, r28
    46ea:	09 96       	adiw	r24, 0x09	; 9
    46ec:	0e 94 78 43 	call	0x86f0	; 0x86f0 <strcpy>
    46f0:	81 e2       	ldi	r24, 0x21	; 33
    46f2:	90 e0       	ldi	r25, 0x00	; 0
    46f4:	9d 83       	std	Y+5, r25	; 0x05
    46f6:	8c 83       	std	Y+4, r24	; 0x04
    46f8:	a1 cf       	rjmp	.-190    	; 0x463c <_ZN12Adafruit_GPS5checkEPc+0x4e>
    46fa:	81 e0       	ldi	r24, 0x01	; 1
    46fc:	df 91       	pop	r29
    46fe:	cf 91       	pop	r28
    4700:	1f 91       	pop	r17
    4702:	0f 91       	pop	r16
    4704:	ff 90       	pop	r15
    4706:	ef 90       	pop	r14
    4708:	df 90       	pop	r13
    470a:	cf 90       	pop	r12
    470c:	08 95       	ret

0000470e <_ZN12Adafruit_GPS5parseEPc>:
    470e:	4f 92       	push	r4
    4710:	5f 92       	push	r5
    4712:	6f 92       	push	r6
    4714:	7f 92       	push	r7
    4716:	8f 92       	push	r8
    4718:	9f 92       	push	r9
    471a:	af 92       	push	r10
    471c:	bf 92       	push	r11
    471e:	df 92       	push	r13
    4720:	ef 92       	push	r14
    4722:	ff 92       	push	r15
    4724:	0f 93       	push	r16
    4726:	1f 93       	push	r17
    4728:	cf 93       	push	r28
    472a:	df 93       	push	r29
    472c:	ec 01       	movw	r28, r24
    472e:	8b 01       	movw	r16, r22
    4730:	5e df       	rcall	.-324    	; 0x45ee <_ZN12Adafruit_GPS5checkEPc>
    4732:	d8 2e       	mov	r13, r24
    4734:	81 11       	cpse	r24, r1
    4736:	02 c0       	rjmp	.+4      	; 0x473c <_ZN12Adafruit_GPS5parseEPc+0x2e>
    4738:	d1 2c       	mov	r13, r1
    473a:	35 c2       	rjmp	.+1130   	; 0x4ba6 <_ZN12Adafruit_GPS5parseEPc+0x498>
    473c:	6c e2       	ldi	r22, 0x2C	; 44
    473e:	70 e0       	ldi	r23, 0x00	; 0
    4740:	c8 01       	movw	r24, r16
    4742:	0e 94 64 43 	call	0x86c8	; 0x86c8 <strchr>
    4746:	8c 01       	movw	r16, r24
    4748:	0f 5f       	subi	r16, 0xFF	; 255
    474a:	1f 4f       	sbci	r17, 0xFF	; 255
    474c:	7e 01       	movw	r14, r28
    474e:	89 e0       	ldi	r24, 0x09	; 9
    4750:	e8 0e       	add	r14, r24
    4752:	f1 1c       	adc	r15, r1
    4754:	69 e1       	ldi	r22, 0x19	; 25
    4756:	76 e0       	ldi	r23, 0x06	; 6
    4758:	c7 01       	movw	r24, r14
    475a:	0e 94 6f 43 	call	0x86de	; 0x86de <strcmp>
    475e:	89 2b       	or	r24, r25
    4760:	09 f0       	breq	.+2      	; 0x4764 <_ZN12Adafruit_GPS5parseEPc+0x56>
    4762:	ad c0       	rjmp	.+346    	; 0x48be <_ZN12Adafruit_GPS5parseEPc+0x1b0>
    4764:	b8 01       	movw	r22, r16
    4766:	ce 01       	movw	r24, r28
    4768:	12 da       	rcall	.-3036   	; 0x3b8e <_ZN12Adafruit_GPS9parseTimeEPc>
    476a:	6c e2       	ldi	r22, 0x2C	; 44
    476c:	70 e0       	ldi	r23, 0x00	; 0
    476e:	c8 01       	movw	r24, r16
    4770:	0e 94 64 43 	call	0x86c8	; 0x86c8 <strchr>
    4774:	8c 01       	movw	r16, r24
    4776:	0f 5f       	subi	r16, 0xFF	; 255
    4778:	1f 4f       	sbci	r17, 0xFF	; 255
    477a:	b8 01       	movw	r22, r16
    477c:	ce 01       	movw	r24, r28
    477e:	56 da       	rcall	.-2900   	; 0x3c2c <_ZN12Adafruit_GPS8parseLatEPc>
    4780:	6c e2       	ldi	r22, 0x2C	; 44
    4782:	70 e0       	ldi	r23, 0x00	; 0
    4784:	c8 01       	movw	r24, r16
    4786:	0e 94 64 43 	call	0x86c8	; 0x86c8 <strchr>
    478a:	8c 01       	movw	r16, r24
    478c:	0f 5f       	subi	r16, 0xFF	; 255
    478e:	1f 4f       	sbci	r17, 0xFF	; 255
    4790:	b8 01       	movw	r22, r16
    4792:	ce 01       	movw	r24, r28
    4794:	21 db       	rcall	.-2494   	; 0x3dd8 <_ZN12Adafruit_GPS11parseLatDirEPc>
    4796:	88 23       	and	r24, r24
    4798:	79 f2       	breq	.-98     	; 0x4738 <_ZN12Adafruit_GPS5parseEPc+0x2a>
    479a:	6c e2       	ldi	r22, 0x2C	; 44
    479c:	70 e0       	ldi	r23, 0x00	; 0
    479e:	c8 01       	movw	r24, r16
    47a0:	0e 94 64 43 	call	0x86c8	; 0x86c8 <strchr>
    47a4:	8c 01       	movw	r16, r24
    47a6:	0f 5f       	subi	r16, 0xFF	; 255
    47a8:	1f 4f       	sbci	r17, 0xFF	; 255
    47aa:	b8 01       	movw	r22, r16
    47ac:	ce 01       	movw	r24, r28
    47ae:	48 db       	rcall	.-2416   	; 0x3e40 <_ZN12Adafruit_GPS8parseLonEPc>
    47b0:	6c e2       	ldi	r22, 0x2C	; 44
    47b2:	70 e0       	ldi	r23, 0x00	; 0
    47b4:	c8 01       	movw	r24, r16
    47b6:	0e 94 64 43 	call	0x86c8	; 0x86c8 <strchr>
    47ba:	8c 01       	movw	r16, r24
    47bc:	0f 5f       	subi	r16, 0xFF	; 255
    47be:	1f 4f       	sbci	r17, 0xFF	; 255
    47c0:	b8 01       	movw	r22, r16
    47c2:	ce 01       	movw	r24, r28
    47c4:	15 dc       	rcall	.-2006   	; 0x3ff0 <_ZN12Adafruit_GPS11parseLonDirEPc>
    47c6:	88 23       	and	r24, r24
    47c8:	09 f4       	brne	.+2      	; 0x47cc <_ZN12Adafruit_GPS5parseEPc+0xbe>
    47ca:	b6 cf       	rjmp	.-148    	; 0x4738 <_ZN12Adafruit_GPS5parseEPc+0x2a>
    47cc:	6c e2       	ldi	r22, 0x2C	; 44
    47ce:	70 e0       	ldi	r23, 0x00	; 0
    47d0:	c8 01       	movw	r24, r16
    47d2:	0e 94 64 43 	call	0x86c8	; 0x86c8 <strchr>
    47d6:	8c 01       	movw	r16, r24
    47d8:	0f 5f       	subi	r16, 0xFF	; 255
    47da:	1f 4f       	sbci	r17, 0xFF	; 255
    47dc:	fc 01       	movw	r30, r24
    47de:	81 81       	ldd	r24, Z+1	; 0x01
    47e0:	8c 32       	cpi	r24, 0x2C	; 44
    47e2:	c1 f0       	breq	.+48     	; 0x4814 <_ZN12Adafruit_GPS5parseEPc+0x106>
    47e4:	c8 01       	movw	r24, r16
    47e6:	0e 94 dc 42 	call	0x85b8	; 0x85b8 <atoi>
    47ea:	fe 01       	movw	r30, r28
    47ec:	e8 58       	subi	r30, 0x88	; 136
    47ee:	ff 4f       	sbci	r31, 0xFF	; 255
    47f0:	80 83       	st	Z, r24
    47f2:	31 97       	sbiw	r30, 0x01	; 1
    47f4:	88 23       	and	r24, r24
    47f6:	69 f0       	breq	.+26     	; 0x4812 <_ZN12Adafruit_GPS5parseEPc+0x104>
    47f8:	81 e0       	ldi	r24, 0x01	; 1
    47fa:	80 83       	st	Z, r24
    47fc:	fa 96       	adiw	r30, 0x3a	; 58
    47fe:	80 81       	ld	r24, Z
    4800:	91 81       	ldd	r25, Z+1	; 0x01
    4802:	a2 81       	ldd	r26, Z+2	; 0x02
    4804:	b3 81       	ldd	r27, Z+3	; 0x03
    4806:	70 97       	sbiw	r30, 0x10	; 16
    4808:	80 83       	st	Z, r24
    480a:	91 83       	std	Z+1, r25	; 0x01
    480c:	a2 83       	std	Z+2, r26	; 0x02
    480e:	b3 83       	std	Z+3, r27	; 0x03
    4810:	01 c0       	rjmp	.+2      	; 0x4814 <_ZN12Adafruit_GPS5parseEPc+0x106>
    4812:	10 82       	st	Z, r1
    4814:	6c e2       	ldi	r22, 0x2C	; 44
    4816:	70 e0       	ldi	r23, 0x00	; 0
    4818:	c8 01       	movw	r24, r16
    481a:	0e 94 64 43 	call	0x86c8	; 0x86c8 <strchr>
    481e:	8c 01       	movw	r16, r24
    4820:	0f 5f       	subi	r16, 0xFF	; 255
    4822:	1f 4f       	sbci	r17, 0xFF	; 255
    4824:	fc 01       	movw	r30, r24
    4826:	81 81       	ldd	r24, Z+1	; 0x01
    4828:	8c 32       	cpi	r24, 0x2C	; 44
    482a:	39 f0       	breq	.+14     	; 0x483a <_ZN12Adafruit_GPS5parseEPc+0x12c>
    482c:	c8 01       	movw	r24, r16
    482e:	0e 94 dc 42 	call	0x85b8	; 0x85b8 <atoi>
    4832:	fe 01       	movw	r30, r28
    4834:	e6 58       	subi	r30, 0x86	; 134
    4836:	ff 4f       	sbci	r31, 0xFF	; 255
    4838:	80 83       	st	Z, r24
    483a:	6c e2       	ldi	r22, 0x2C	; 44
    483c:	70 e0       	ldi	r23, 0x00	; 0
    483e:	c8 01       	movw	r24, r16
    4840:	0e 94 64 43 	call	0x86c8	; 0x86c8 <strchr>
    4844:	8c 01       	movw	r16, r24
    4846:	0f 5f       	subi	r16, 0xFF	; 255
    4848:	1f 4f       	sbci	r17, 0xFF	; 255
    484a:	fc 01       	movw	r30, r24
    484c:	81 81       	ldd	r24, Z+1	; 0x01
    484e:	8c 32       	cpi	r24, 0x2C	; 44
    4850:	51 f0       	breq	.+20     	; 0x4866 <_ZN12Adafruit_GPS5parseEPc+0x158>
    4852:	c8 01       	movw	r24, r16
    4854:	0e 94 d9 42 	call	0x85b2	; 0x85b2 <atof>
    4858:	fe 01       	movw	r30, r28
    485a:	e8 59       	subi	r30, 0x98	; 152
    485c:	ff 4f       	sbci	r31, 0xFF	; 255
    485e:	60 83       	st	Z, r22
    4860:	71 83       	std	Z+1, r23	; 0x01
    4862:	82 83       	std	Z+2, r24	; 0x02
    4864:	93 83       	std	Z+3, r25	; 0x03
    4866:	6c e2       	ldi	r22, 0x2C	; 44
    4868:	70 e0       	ldi	r23, 0x00	; 0
    486a:	c8 01       	movw	r24, r16
    486c:	0e 94 64 43 	call	0x86c8	; 0x86c8 <strchr>
    4870:	8c 01       	movw	r16, r24
    4872:	0f 5f       	subi	r16, 0xFF	; 255
    4874:	1f 4f       	sbci	r17, 0xFF	; 255
    4876:	fc 01       	movw	r30, r24
    4878:	81 81       	ldd	r24, Z+1	; 0x01
    487a:	8c 32       	cpi	r24, 0x2C	; 44
    487c:	51 f0       	breq	.+20     	; 0x4892 <_ZN12Adafruit_GPS5parseEPc+0x184>
    487e:	c8 01       	movw	r24, r16
    4880:	0e 94 d9 42 	call	0x85b2	; 0x85b2 <atof>
    4884:	fe 01       	movw	r30, r28
    4886:	e8 5a       	subi	r30, 0xA8	; 168
    4888:	ff 4f       	sbci	r31, 0xFF	; 255
    488a:	60 83       	st	Z, r22
    488c:	71 83       	std	Z+1, r23	; 0x01
    488e:	82 83       	std	Z+2, r24	; 0x02
    4890:	93 83       	std	Z+3, r25	; 0x03
    4892:	6c e2       	ldi	r22, 0x2C	; 44
    4894:	70 e0       	ldi	r23, 0x00	; 0
    4896:	c8 01       	movw	r24, r16
    4898:	0e 94 64 43 	call	0x86c8	; 0x86c8 <strchr>
    489c:	6c e2       	ldi	r22, 0x2C	; 44
    489e:	70 e0       	ldi	r23, 0x00	; 0
    48a0:	01 96       	adiw	r24, 0x01	; 1
    48a2:	0e 94 64 43 	call	0x86c8	; 0x86c8 <strchr>
    48a6:	fc 01       	movw	r30, r24
    48a8:	21 81       	ldd	r18, Z+1	; 0x01
    48aa:	2c 32       	cpi	r18, 0x2C	; 44
    48ac:	09 f4       	brne	.+2      	; 0x48b0 <_ZN12Adafruit_GPS5parseEPc+0x1a2>
    48ae:	67 c1       	rjmp	.+718    	; 0x4b7e <_ZN12Adafruit_GPS5parseEPc+0x470>
    48b0:	01 96       	adiw	r24, 0x01	; 1
    48b2:	0e 94 d9 42 	call	0x85b2	; 0x85b2 <atof>
    48b6:	fe 01       	movw	r30, r28
    48b8:	ec 5a       	subi	r30, 0xAC	; 172
    48ba:	ff 4f       	sbci	r31, 0xFF	; 255
    48bc:	5c c1       	rjmp	.+696    	; 0x4b76 <_ZN12Adafruit_GPS5parseEPc+0x468>
    48be:	65 e2       	ldi	r22, 0x25	; 37
    48c0:	76 e0       	ldi	r23, 0x06	; 6
    48c2:	c7 01       	movw	r24, r14
    48c4:	0e 94 6f 43 	call	0x86de	; 0x86de <strcmp>
    48c8:	89 2b       	or	r24, r25
    48ca:	09 f0       	breq	.+2      	; 0x48ce <_ZN12Adafruit_GPS5parseEPc+0x1c0>
    48cc:	a5 c0       	rjmp	.+330    	; 0x4a18 <_ZN12Adafruit_GPS5parseEPc+0x30a>
    48ce:	b8 01       	movw	r22, r16
    48d0:	ce 01       	movw	r24, r28
    48d2:	5d d9       	rcall	.-3398   	; 0x3b8e <_ZN12Adafruit_GPS9parseTimeEPc>
    48d4:	6c e2       	ldi	r22, 0x2C	; 44
    48d6:	70 e0       	ldi	r23, 0x00	; 0
    48d8:	c8 01       	movw	r24, r16
    48da:	0e 94 64 43 	call	0x86c8	; 0x86c8 <strchr>
    48de:	8c 01       	movw	r16, r24
    48e0:	0f 5f       	subi	r16, 0xFF	; 255
    48e2:	1f 4f       	sbci	r17, 0xFF	; 255
    48e4:	b8 01       	movw	r22, r16
    48e6:	ce 01       	movw	r24, r28
    48e8:	b2 db       	rcall	.-2204   	; 0x404e <_ZN12Adafruit_GPS8parseFixEPc>
    48ea:	88 23       	and	r24, r24
    48ec:	09 f4       	brne	.+2      	; 0x48f0 <_ZN12Adafruit_GPS5parseEPc+0x1e2>
    48ee:	24 cf       	rjmp	.-440    	; 0x4738 <_ZN12Adafruit_GPS5parseEPc+0x2a>
    48f0:	6c e2       	ldi	r22, 0x2C	; 44
    48f2:	70 e0       	ldi	r23, 0x00	; 0
    48f4:	c8 01       	movw	r24, r16
    48f6:	0e 94 64 43 	call	0x86c8	; 0x86c8 <strchr>
    48fa:	8c 01       	movw	r16, r24
    48fc:	0f 5f       	subi	r16, 0xFF	; 255
    48fe:	1f 4f       	sbci	r17, 0xFF	; 255
    4900:	b8 01       	movw	r22, r16
    4902:	ce 01       	movw	r24, r28
    4904:	93 d9       	rcall	.-3290   	; 0x3c2c <_ZN12Adafruit_GPS8parseLatEPc>
    4906:	6c e2       	ldi	r22, 0x2C	; 44
    4908:	70 e0       	ldi	r23, 0x00	; 0
    490a:	c8 01       	movw	r24, r16
    490c:	0e 94 64 43 	call	0x86c8	; 0x86c8 <strchr>
    4910:	8c 01       	movw	r16, r24
    4912:	0f 5f       	subi	r16, 0xFF	; 255
    4914:	1f 4f       	sbci	r17, 0xFF	; 255
    4916:	b8 01       	movw	r22, r16
    4918:	ce 01       	movw	r24, r28
    491a:	5e da       	rcall	.-2884   	; 0x3dd8 <_ZN12Adafruit_GPS11parseLatDirEPc>
    491c:	88 23       	and	r24, r24
    491e:	09 f4       	brne	.+2      	; 0x4922 <_ZN12Adafruit_GPS5parseEPc+0x214>
    4920:	0b cf       	rjmp	.-490    	; 0x4738 <_ZN12Adafruit_GPS5parseEPc+0x2a>
    4922:	6c e2       	ldi	r22, 0x2C	; 44
    4924:	70 e0       	ldi	r23, 0x00	; 0
    4926:	c8 01       	movw	r24, r16
    4928:	0e 94 64 43 	call	0x86c8	; 0x86c8 <strchr>
    492c:	8c 01       	movw	r16, r24
    492e:	0f 5f       	subi	r16, 0xFF	; 255
    4930:	1f 4f       	sbci	r17, 0xFF	; 255
    4932:	b8 01       	movw	r22, r16
    4934:	ce 01       	movw	r24, r28
    4936:	84 da       	rcall	.-2808   	; 0x3e40 <_ZN12Adafruit_GPS8parseLonEPc>
    4938:	6c e2       	ldi	r22, 0x2C	; 44
    493a:	70 e0       	ldi	r23, 0x00	; 0
    493c:	c8 01       	movw	r24, r16
    493e:	0e 94 64 43 	call	0x86c8	; 0x86c8 <strchr>
    4942:	8c 01       	movw	r16, r24
    4944:	0f 5f       	subi	r16, 0xFF	; 255
    4946:	1f 4f       	sbci	r17, 0xFF	; 255
    4948:	b8 01       	movw	r22, r16
    494a:	ce 01       	movw	r24, r28
    494c:	51 db       	rcall	.-2398   	; 0x3ff0 <_ZN12Adafruit_GPS11parseLonDirEPc>
    494e:	88 23       	and	r24, r24
    4950:	09 f4       	brne	.+2      	; 0x4954 <_ZN12Adafruit_GPS5parseEPc+0x246>
    4952:	f2 ce       	rjmp	.-540    	; 0x4738 <_ZN12Adafruit_GPS5parseEPc+0x2a>
    4954:	6c e2       	ldi	r22, 0x2C	; 44
    4956:	70 e0       	ldi	r23, 0x00	; 0
    4958:	c8 01       	movw	r24, r16
    495a:	0e 94 64 43 	call	0x86c8	; 0x86c8 <strchr>
    495e:	8c 01       	movw	r16, r24
    4960:	0f 5f       	subi	r16, 0xFF	; 255
    4962:	1f 4f       	sbci	r17, 0xFF	; 255
    4964:	fc 01       	movw	r30, r24
    4966:	81 81       	ldd	r24, Z+1	; 0x01
    4968:	8c 32       	cpi	r24, 0x2C	; 44
    496a:	51 f0       	breq	.+20     	; 0x4980 <_ZN12Adafruit_GPS5parseEPc+0x272>
    496c:	c8 01       	movw	r24, r16
    496e:	0e 94 d9 42 	call	0x85b2	; 0x85b2 <atof>
    4972:	fe 01       	movw	r30, r28
    4974:	e4 5a       	subi	r30, 0xA4	; 164
    4976:	ff 4f       	sbci	r31, 0xFF	; 255
    4978:	60 83       	st	Z, r22
    497a:	71 83       	std	Z+1, r23	; 0x01
    497c:	82 83       	std	Z+2, r24	; 0x02
    497e:	93 83       	std	Z+3, r25	; 0x03
    4980:	6c e2       	ldi	r22, 0x2C	; 44
    4982:	70 e0       	ldi	r23, 0x00	; 0
    4984:	c8 01       	movw	r24, r16
    4986:	0e 94 64 43 	call	0x86c8	; 0x86c8 <strchr>
    498a:	8c 01       	movw	r16, r24
    498c:	0f 5f       	subi	r16, 0xFF	; 255
    498e:	1f 4f       	sbci	r17, 0xFF	; 255
    4990:	fc 01       	movw	r30, r24
    4992:	81 81       	ldd	r24, Z+1	; 0x01
    4994:	8c 32       	cpi	r24, 0x2C	; 44
    4996:	51 f0       	breq	.+20     	; 0x49ac <_ZN12Adafruit_GPS5parseEPc+0x29e>
    4998:	c8 01       	movw	r24, r16
    499a:	0e 94 d9 42 	call	0x85b2	; 0x85b2 <atof>
    499e:	fe 01       	movw	r30, r28
    49a0:	e0 5a       	subi	r30, 0xA0	; 160
    49a2:	ff 4f       	sbci	r31, 0xFF	; 255
    49a4:	60 83       	st	Z, r22
    49a6:	71 83       	std	Z+1, r23	; 0x01
    49a8:	82 83       	std	Z+2, r24	; 0x02
    49aa:	93 83       	std	Z+3, r25	; 0x03
    49ac:	6c e2       	ldi	r22, 0x2C	; 44
    49ae:	70 e0       	ldi	r23, 0x00	; 0
    49b0:	c8 01       	movw	r24, r16
    49b2:	0e 94 64 43 	call	0x86c8	; 0x86c8 <strchr>
    49b6:	fc 01       	movw	r30, r24
    49b8:	21 81       	ldd	r18, Z+1	; 0x01
    49ba:	2c 32       	cpi	r18, 0x2C	; 44
    49bc:	09 f4       	brne	.+2      	; 0x49c0 <_ZN12Adafruit_GPS5parseEPc+0x2b2>
    49be:	df c0       	rjmp	.+446    	; 0x4b7e <_ZN12Adafruit_GPS5parseEPc+0x470>
    49c0:	01 96       	adiw	r24, 0x01	; 1
    49c2:	0e 94 d9 42 	call	0x85b2	; 0x85b2 <atof>
    49c6:	0e 94 e0 10 	call	0x21c0	; 0x21c0 <__fixunssfsi>
    49ca:	2b 01       	movw	r4, r22
    49cc:	3c 01       	movw	r6, r24
    49ce:	20 e1       	ldi	r18, 0x10	; 16
    49d0:	37 e2       	ldi	r19, 0x27	; 39
    49d2:	40 e0       	ldi	r20, 0x00	; 0
    49d4:	50 e0       	ldi	r21, 0x00	; 0
    49d6:	0e 94 55 40 	call	0x80aa	; 0x80aa <__udivmodsi4>
    49da:	2b af       	std	Y+59, r18	; 0x3b
    49dc:	24 e6       	ldi	r18, 0x64	; 100
    49de:	82 2e       	mov	r8, r18
    49e0:	91 2c       	mov	r9, r1
    49e2:	a1 2c       	mov	r10, r1
    49e4:	b1 2c       	mov	r11, r1
    49e6:	a5 01       	movw	r20, r10
    49e8:	94 01       	movw	r18, r8
    49ea:	0e 94 55 40 	call	0x80aa	; 0x80aa <__udivmodsi4>
    49ee:	2a af       	std	Y+58, r18	; 0x3a
    49f0:	c3 01       	movw	r24, r6
    49f2:	b2 01       	movw	r22, r4
    49f4:	a5 01       	movw	r20, r10
    49f6:	94 01       	movw	r18, r8
    49f8:	0e 94 55 40 	call	0x80aa	; 0x80aa <__udivmodsi4>
    49fc:	69 af       	std	Y+57, r22	; 0x39
    49fe:	fe 01       	movw	r30, r28
    4a00:	ef 54       	subi	r30, 0x4F	; 79
    4a02:	ff 4f       	sbci	r31, 0xFF	; 255
    4a04:	80 81       	ld	r24, Z
    4a06:	91 81       	ldd	r25, Z+1	; 0x01
    4a08:	a2 81       	ldd	r26, Z+2	; 0x02
    4a0a:	b3 81       	ldd	r27, Z+3	; 0x03
    4a0c:	38 97       	sbiw	r30, 0x08	; 8
    4a0e:	80 83       	st	Z, r24
    4a10:	91 83       	std	Z+1, r25	; 0x01
    4a12:	a2 83       	std	Z+2, r26	; 0x02
    4a14:	b3 83       	std	Z+3, r27	; 0x03
    4a16:	b3 c0       	rjmp	.+358    	; 0x4b7e <_ZN12Adafruit_GPS5parseEPc+0x470>
    4a18:	6d e1       	ldi	r22, 0x1D	; 29
    4a1a:	76 e0       	ldi	r23, 0x06	; 6
    4a1c:	c7 01       	movw	r24, r14
    4a1e:	0e 94 6f 43 	call	0x86de	; 0x86de <strcmp>
    4a22:	89 2b       	or	r24, r25
    4a24:	09 f0       	breq	.+2      	; 0x4a28 <_ZN12Adafruit_GPS5parseEPc+0x31a>
    4a26:	42 c0       	rjmp	.+132    	; 0x4aac <_ZN12Adafruit_GPS5parseEPc+0x39e>
    4a28:	b8 01       	movw	r22, r16
    4a2a:	ce 01       	movw	r24, r28
    4a2c:	ff d8       	rcall	.-3586   	; 0x3c2c <_ZN12Adafruit_GPS8parseLatEPc>
    4a2e:	6c e2       	ldi	r22, 0x2C	; 44
    4a30:	70 e0       	ldi	r23, 0x00	; 0
    4a32:	c8 01       	movw	r24, r16
    4a34:	0e 94 64 43 	call	0x86c8	; 0x86c8 <strchr>
    4a38:	8c 01       	movw	r16, r24
    4a3a:	0f 5f       	subi	r16, 0xFF	; 255
    4a3c:	1f 4f       	sbci	r17, 0xFF	; 255
    4a3e:	b8 01       	movw	r22, r16
    4a40:	ce 01       	movw	r24, r28
    4a42:	ca d9       	rcall	.-3180   	; 0x3dd8 <_ZN12Adafruit_GPS11parseLatDirEPc>
    4a44:	88 23       	and	r24, r24
    4a46:	09 f4       	brne	.+2      	; 0x4a4a <_ZN12Adafruit_GPS5parseEPc+0x33c>
    4a48:	77 ce       	rjmp	.-786    	; 0x4738 <_ZN12Adafruit_GPS5parseEPc+0x2a>
    4a4a:	6c e2       	ldi	r22, 0x2C	; 44
    4a4c:	70 e0       	ldi	r23, 0x00	; 0
    4a4e:	c8 01       	movw	r24, r16
    4a50:	0e 94 64 43 	call	0x86c8	; 0x86c8 <strchr>
    4a54:	8c 01       	movw	r16, r24
    4a56:	0f 5f       	subi	r16, 0xFF	; 255
    4a58:	1f 4f       	sbci	r17, 0xFF	; 255
    4a5a:	b8 01       	movw	r22, r16
    4a5c:	ce 01       	movw	r24, r28
    4a5e:	f0 d9       	rcall	.-3104   	; 0x3e40 <_ZN12Adafruit_GPS8parseLonEPc>
    4a60:	6c e2       	ldi	r22, 0x2C	; 44
    4a62:	70 e0       	ldi	r23, 0x00	; 0
    4a64:	c8 01       	movw	r24, r16
    4a66:	0e 94 64 43 	call	0x86c8	; 0x86c8 <strchr>
    4a6a:	8c 01       	movw	r16, r24
    4a6c:	0f 5f       	subi	r16, 0xFF	; 255
    4a6e:	1f 4f       	sbci	r17, 0xFF	; 255
    4a70:	b8 01       	movw	r22, r16
    4a72:	ce 01       	movw	r24, r28
    4a74:	bd da       	rcall	.-2694   	; 0x3ff0 <_ZN12Adafruit_GPS11parseLonDirEPc>
    4a76:	88 23       	and	r24, r24
    4a78:	09 f4       	brne	.+2      	; 0x4a7c <_ZN12Adafruit_GPS5parseEPc+0x36e>
    4a7a:	5e ce       	rjmp	.-836    	; 0x4738 <_ZN12Adafruit_GPS5parseEPc+0x2a>
    4a7c:	6c e2       	ldi	r22, 0x2C	; 44
    4a7e:	70 e0       	ldi	r23, 0x00	; 0
    4a80:	c8 01       	movw	r24, r16
    4a82:	0e 94 64 43 	call	0x86c8	; 0x86c8 <strchr>
    4a86:	8c 01       	movw	r16, r24
    4a88:	0f 5f       	subi	r16, 0xFF	; 255
    4a8a:	1f 4f       	sbci	r17, 0xFF	; 255
    4a8c:	b8 01       	movw	r22, r16
    4a8e:	ce 01       	movw	r24, r28
    4a90:	7e d8       	rcall	.-3844   	; 0x3b8e <_ZN12Adafruit_GPS9parseTimeEPc>
    4a92:	6c e2       	ldi	r22, 0x2C	; 44
    4a94:	70 e0       	ldi	r23, 0x00	; 0
    4a96:	c8 01       	movw	r24, r16
    4a98:	0e 94 64 43 	call	0x86c8	; 0x86c8 <strchr>
    4a9c:	bc 01       	movw	r22, r24
    4a9e:	6f 5f       	subi	r22, 0xFF	; 255
    4aa0:	7f 4f       	sbci	r23, 0xFF	; 255
    4aa2:	ce 01       	movw	r24, r28
    4aa4:	d4 da       	rcall	.-2648   	; 0x404e <_ZN12Adafruit_GPS8parseFixEPc>
    4aa6:	81 11       	cpse	r24, r1
    4aa8:	6a c0       	rjmp	.+212    	; 0x4b7e <_ZN12Adafruit_GPS5parseEPc+0x470>
    4aaa:	46 ce       	rjmp	.-884    	; 0x4738 <_ZN12Adafruit_GPS5parseEPc+0x2a>
    4aac:	61 e2       	ldi	r22, 0x21	; 33
    4aae:	76 e0       	ldi	r23, 0x06	; 6
    4ab0:	c7 01       	movw	r24, r14
    4ab2:	0e 94 6f 43 	call	0x86de	; 0x86de <strcmp>
    4ab6:	89 2b       	or	r24, r25
    4ab8:	09 f0       	breq	.+2      	; 0x4abc <_ZN12Adafruit_GPS5parseEPc+0x3ae>
    4aba:	3e ce       	rjmp	.-900    	; 0x4738 <_ZN12Adafruit_GPS5parseEPc+0x2a>
    4abc:	6c e2       	ldi	r22, 0x2C	; 44
    4abe:	70 e0       	ldi	r23, 0x00	; 0
    4ac0:	c8 01       	movw	r24, r16
    4ac2:	0e 94 64 43 	call	0x86c8	; 0x86c8 <strchr>
    4ac6:	8c 01       	movw	r16, r24
    4ac8:	0f 5f       	subi	r16, 0xFF	; 255
    4aca:	1f 4f       	sbci	r17, 0xFF	; 255
    4acc:	fc 01       	movw	r30, r24
    4ace:	81 81       	ldd	r24, Z+1	; 0x01
    4ad0:	8c 32       	cpi	r24, 0x2C	; 44
    4ad2:	39 f0       	breq	.+14     	; 0x4ae2 <_ZN12Adafruit_GPS5parseEPc+0x3d4>
    4ad4:	c8 01       	movw	r24, r16
    4ad6:	0e 94 dc 42 	call	0x85b8	; 0x85b8 <atoi>
    4ada:	fe 01       	movw	r30, r28
    4adc:	e7 58       	subi	r30, 0x87	; 135
    4ade:	ff 4f       	sbci	r31, 0xFF	; 255
    4ae0:	80 83       	st	Z, r24
    4ae2:	8c e0       	ldi	r24, 0x0C	; 12
    4ae4:	a8 2e       	mov	r10, r24
    4ae6:	b1 2c       	mov	r11, r1
    4ae8:	6c e2       	ldi	r22, 0x2C	; 44
    4aea:	70 e0       	ldi	r23, 0x00	; 0
    4aec:	c8 01       	movw	r24, r16
    4aee:	0e 94 64 43 	call	0x86c8	; 0x86c8 <strchr>
    4af2:	8c 01       	movw	r16, r24
    4af4:	0f 5f       	subi	r16, 0xFF	; 255
    4af6:	1f 4f       	sbci	r17, 0xFF	; 255
    4af8:	f1 e0       	ldi	r31, 0x01	; 1
    4afa:	af 1a       	sub	r10, r31
    4afc:	b1 08       	sbc	r11, r1
    4afe:	a1 f7       	brne	.-24     	; 0x4ae8 <_ZN12Adafruit_GPS5parseEPc+0x3da>
    4b00:	6c e2       	ldi	r22, 0x2C	; 44
    4b02:	70 e0       	ldi	r23, 0x00	; 0
    4b04:	c8 01       	movw	r24, r16
    4b06:	0e 94 64 43 	call	0x86c8	; 0x86c8 <strchr>
    4b0a:	8c 01       	movw	r16, r24
    4b0c:	0f 5f       	subi	r16, 0xFF	; 255
    4b0e:	1f 4f       	sbci	r17, 0xFF	; 255
    4b10:	fc 01       	movw	r30, r24
    4b12:	81 81       	ldd	r24, Z+1	; 0x01
    4b14:	8c 32       	cpi	r24, 0x2C	; 44
    4b16:	51 f0       	breq	.+20     	; 0x4b2c <_ZN12Adafruit_GPS5parseEPc+0x41e>
    4b18:	c8 01       	movw	r24, r16
    4b1a:	0e 94 d9 42 	call	0x85b2	; 0x85b2 <atof>
    4b1e:	fe 01       	movw	r30, r28
    4b20:	e0 59       	subi	r30, 0x90	; 144
    4b22:	ff 4f       	sbci	r31, 0xFF	; 255
    4b24:	60 83       	st	Z, r22
    4b26:	71 83       	std	Z+1, r23	; 0x01
    4b28:	82 83       	std	Z+2, r24	; 0x02
    4b2a:	93 83       	std	Z+3, r25	; 0x03
    4b2c:	6c e2       	ldi	r22, 0x2C	; 44
    4b2e:	70 e0       	ldi	r23, 0x00	; 0
    4b30:	c8 01       	movw	r24, r16
    4b32:	0e 94 64 43 	call	0x86c8	; 0x86c8 <strchr>
    4b36:	8c 01       	movw	r16, r24
    4b38:	0f 5f       	subi	r16, 0xFF	; 255
    4b3a:	1f 4f       	sbci	r17, 0xFF	; 255
    4b3c:	fc 01       	movw	r30, r24
    4b3e:	81 81       	ldd	r24, Z+1	; 0x01
    4b40:	8c 32       	cpi	r24, 0x2C	; 44
    4b42:	51 f0       	breq	.+20     	; 0x4b58 <_ZN12Adafruit_GPS5parseEPc+0x44a>
    4b44:	c8 01       	movw	r24, r16
    4b46:	0e 94 d9 42 	call	0x85b2	; 0x85b2 <atof>
    4b4a:	fe 01       	movw	r30, r28
    4b4c:	e8 59       	subi	r30, 0x98	; 152
    4b4e:	ff 4f       	sbci	r31, 0xFF	; 255
    4b50:	60 83       	st	Z, r22
    4b52:	71 83       	std	Z+1, r23	; 0x01
    4b54:	82 83       	std	Z+2, r24	; 0x02
    4b56:	93 83       	std	Z+3, r25	; 0x03
    4b58:	6c e2       	ldi	r22, 0x2C	; 44
    4b5a:	70 e0       	ldi	r23, 0x00	; 0
    4b5c:	c8 01       	movw	r24, r16
    4b5e:	0e 94 64 43 	call	0x86c8	; 0x86c8 <strchr>
    4b62:	fc 01       	movw	r30, r24
    4b64:	21 81       	ldd	r18, Z+1	; 0x01
    4b66:	2c 32       	cpi	r18, 0x2C	; 44
    4b68:	51 f0       	breq	.+20     	; 0x4b7e <_ZN12Adafruit_GPS5parseEPc+0x470>
    4b6a:	01 96       	adiw	r24, 0x01	; 1
    4b6c:	0e 94 d9 42 	call	0x85b2	; 0x85b2 <atof>
    4b70:	fe 01       	movw	r30, r28
    4b72:	e4 59       	subi	r30, 0x94	; 148
    4b74:	ff 4f       	sbci	r31, 0xFF	; 255
    4b76:	60 83       	st	Z, r22
    4b78:	71 83       	std	Z+1, r23	; 0x01
    4b7a:	82 83       	std	Z+2, r24	; 0x02
    4b7c:	93 83       	std	Z+3, r25	; 0x03
    4b7e:	be 01       	movw	r22, r28
    4b80:	6a 5f       	subi	r22, 0xFA	; 250
    4b82:	7f 4f       	sbci	r23, 0xFF	; 255
    4b84:	ce 01       	movw	r24, r28
    4b86:	4d 96       	adiw	r24, 0x1d	; 29
    4b88:	0e 94 78 43 	call	0x86f0	; 0x86f0 <strcpy>
    4b8c:	b7 01       	movw	r22, r14
    4b8e:	ce 01       	movw	r24, r28
    4b90:	80 96       	adiw	r24, 0x20	; 32
    4b92:	0e 94 78 43 	call	0x86f0	; 0x86f0 <strcpy>
    4b96:	0e 94 e1 18 	call	0x31c2	; 0x31c2 <millis>
    4b9a:	c3 56       	subi	r28, 0x63	; 99
    4b9c:	df 4f       	sbci	r29, 0xFF	; 255
    4b9e:	68 83       	st	Y, r22
    4ba0:	79 83       	std	Y+1, r23	; 0x01
    4ba2:	8a 83       	std	Y+2, r24	; 0x02
    4ba4:	9b 83       	std	Y+3, r25	; 0x03
    4ba6:	8d 2d       	mov	r24, r13
    4ba8:	df 91       	pop	r29
    4baa:	cf 91       	pop	r28
    4bac:	1f 91       	pop	r17
    4bae:	0f 91       	pop	r16
    4bb0:	ff 90       	pop	r15
    4bb2:	ef 90       	pop	r14
    4bb4:	df 90       	pop	r13
    4bb6:	bf 90       	pop	r11
    4bb8:	af 90       	pop	r10
    4bba:	9f 90       	pop	r9
    4bbc:	8f 90       	pop	r8
    4bbe:	7f 90       	pop	r7
    4bc0:	6f 90       	pop	r6
    4bc2:	5f 90       	pop	r5
    4bc4:	4f 90       	pop	r4
    4bc6:	08 95       	ret

00004bc8 <_ZN15Adafruit_ST773511setRotationEh>:
    4bc8:	cf 93       	push	r28
    4bca:	df 93       	push	r29
    4bcc:	1f 92       	push	r1
    4bce:	cd b7       	in	r28, 0x3d	; 61
    4bd0:	de b7       	in	r29, 0x3e	; 62
    4bd2:	fc 01       	movw	r30, r24
    4bd4:	19 82       	std	Y+1, r1	; 0x01
    4bd6:	63 70       	andi	r22, 0x03	; 3
    4bd8:	66 8b       	std	Z+22, r22	; 0x16
    4bda:	dc 01       	movw	r26, r24
    4bdc:	aa 5b       	subi	r26, 0xBA	; 186
    4bde:	bf 4f       	sbci	r27, 0xFF	; 255
    4be0:	8c 91       	ld	r24, X
    4be2:	98 2f       	mov	r25, r24
    4be4:	9b 7f       	andi	r25, 0xFB	; 251
    4be6:	af 01       	movw	r20, r30
    4be8:	4c 5b       	subi	r20, 0xBC	; 188
    4bea:	5f 4f       	sbci	r21, 0xFF	; 255
    4bec:	91 30       	cpi	r25, 0x01	; 1
    4bee:	29 f4       	brne	.+10     	; 0x4bfa <_ZN15Adafruit_ST773511setRotationEh+0x32>
    4bf0:	62 30       	cpi	r22, 0x02	; 2
    4bf2:	08 f4       	brcc	.+2      	; 0x4bf6 <_ZN15Adafruit_ST773511setRotationEh+0x2e>
    4bf4:	93 e0       	ldi	r25, 0x03	; 3
    4bf6:	da 01       	movw	r26, r20
    4bf8:	9c 93       	st	X, r25
    4bfa:	9f 01       	movw	r18, r30
    4bfc:	2d 5b       	subi	r18, 0xBD	; 189
    4bfe:	3f 4f       	sbci	r19, 0xFF	; 255
    4c00:	62 30       	cpi	r22, 0x02	; 2
    4c02:	d9 f0       	breq	.+54     	; 0x4c3a <_ZN15Adafruit_ST773511setRotationEh+0x72>
    4c04:	63 30       	cpi	r22, 0x03	; 3
    4c06:	09 f4       	brne	.+2      	; 0x4c0a <_ZN15Adafruit_ST773511setRotationEh+0x42>
    4c08:	3f c0       	rjmp	.+126    	; 0x4c88 <_ZN15Adafruit_ST773511setRotationEh+0xc0>
    4c0a:	61 30       	cpi	r22, 0x01	; 1
    4c0c:	71 f0       	breq	.+28     	; 0x4c2a <_ZN15Adafruit_ST773511setRotationEh+0x62>
    4c0e:	82 30       	cpi	r24, 0x02	; 2
    4c10:	11 f0       	breq	.+4      	; 0x4c16 <_ZN15Adafruit_ST773511setRotationEh+0x4e>
    4c12:	84 30       	cpi	r24, 0x04	; 4
    4c14:	29 f4       	brne	.+10     	; 0x4c20 <_ZN15Adafruit_ST773511setRotationEh+0x58>
    4c16:	90 ec       	ldi	r25, 0xC0	; 192
    4c18:	99 83       	std	Y+1, r25	; 0x01
    4c1a:	81 30       	cpi	r24, 0x01	; 1
    4c1c:	19 f4       	brne	.+6      	; 0x4c24 <_ZN15Adafruit_ST773511setRotationEh+0x5c>
    4c1e:	15 c0       	rjmp	.+42     	; 0x4c4a <_ZN15Adafruit_ST773511setRotationEh+0x82>
    4c20:	98 ec       	ldi	r25, 0xC8	; 200
    4c22:	10 c0       	rjmp	.+32     	; 0x4c44 <_ZN15Adafruit_ST773511setRotationEh+0x7c>
    4c24:	84 30       	cpi	r24, 0x04	; 4
    4c26:	b1 f0       	breq	.+44     	; 0x4c54 <_ZN15Adafruit_ST773511setRotationEh+0x8c>
    4c28:	1c c0       	rjmp	.+56     	; 0x4c62 <_ZN15Adafruit_ST773511setRotationEh+0x9a>
    4c2a:	82 30       	cpi	r24, 0x02	; 2
    4c2c:	11 f0       	breq	.+4      	; 0x4c32 <_ZN15Adafruit_ST773511setRotationEh+0x6a>
    4c2e:	84 30       	cpi	r24, 0x04	; 4
    4c30:	11 f4       	brne	.+4      	; 0x4c36 <_ZN15Adafruit_ST773511setRotationEh+0x6e>
    4c32:	90 ea       	ldi	r25, 0xA0	; 160
    4c34:	2e c0       	rjmp	.+92     	; 0x4c92 <_ZN15Adafruit_ST773511setRotationEh+0xca>
    4c36:	98 ea       	ldi	r25, 0xA8	; 168
    4c38:	35 c0       	rjmp	.+106    	; 0x4ca4 <_ZN15Adafruit_ST773511setRotationEh+0xdc>
    4c3a:	82 30       	cpi	r24, 0x02	; 2
    4c3c:	91 f0       	breq	.+36     	; 0x4c62 <_ZN15Adafruit_ST773511setRotationEh+0x9a>
    4c3e:	84 30       	cpi	r24, 0x04	; 4
    4c40:	49 f0       	breq	.+18     	; 0x4c54 <_ZN15Adafruit_ST773511setRotationEh+0x8c>
    4c42:	98 e0       	ldi	r25, 0x08	; 8
    4c44:	99 83       	std	Y+1, r25	; 0x01
    4c46:	81 30       	cpi	r24, 0x01	; 1
    4c48:	61 f4       	brne	.+24     	; 0x4c62 <_ZN15Adafruit_ST773511setRotationEh+0x9a>
    4c4a:	80 e8       	ldi	r24, 0x80	; 128
    4c4c:	90 e0       	ldi	r25, 0x00	; 0
    4c4e:	93 87       	std	Z+11, r25	; 0x0b
    4c50:	82 87       	std	Z+10, r24	; 0x0a
    4c52:	0d c0       	rjmp	.+26     	; 0x4c6e <_ZN15Adafruit_ST773511setRotationEh+0xa6>
    4c54:	80 ea       	ldi	r24, 0xA0	; 160
    4c56:	90 e0       	ldi	r25, 0x00	; 0
    4c58:	93 87       	std	Z+11, r25	; 0x0b
    4c5a:	82 87       	std	Z+10, r24	; 0x0a
    4c5c:	80 e5       	ldi	r24, 0x50	; 80
    4c5e:	90 e0       	ldi	r25, 0x00	; 0
    4c60:	06 c0       	rjmp	.+12     	; 0x4c6e <_ZN15Adafruit_ST773511setRotationEh+0xa6>
    4c62:	80 ea       	ldi	r24, 0xA0	; 160
    4c64:	90 e0       	ldi	r25, 0x00	; 0
    4c66:	93 87       	std	Z+11, r25	; 0x0b
    4c68:	82 87       	std	Z+10, r24	; 0x0a
    4c6a:	80 e8       	ldi	r24, 0x80	; 128
    4c6c:	90 e0       	ldi	r25, 0x00	; 0
    4c6e:	91 87       	std	Z+9, r25	; 0x09
    4c70:	80 87       	std	Z+8, r24	; 0x08
    4c72:	d9 01       	movw	r26, r18
    4c74:	8c 91       	ld	r24, X
    4c76:	90 e0       	ldi	r25, 0x00	; 0
    4c78:	92 af       	std	Z+58, r25	; 0x3a
    4c7a:	81 af       	std	Z+57, r24	; 0x39
    4c7c:	da 01       	movw	r26, r20
    4c7e:	8c 91       	ld	r24, X
    4c80:	90 e0       	ldi	r25, 0x00	; 0
    4c82:	94 af       	std	Z+60, r25	; 0x3c
    4c84:	83 af       	std	Z+59, r24	; 0x3b
    4c86:	2d c0       	rjmp	.+90     	; 0x4ce2 <_ZN15Adafruit_ST773511setRotationEh+0x11a>
    4c88:	82 30       	cpi	r24, 0x02	; 2
    4c8a:	11 f0       	breq	.+4      	; 0x4c90 <_ZN15Adafruit_ST773511setRotationEh+0xc8>
    4c8c:	84 30       	cpi	r24, 0x04	; 4
    4c8e:	49 f4       	brne	.+18     	; 0x4ca2 <_ZN15Adafruit_ST773511setRotationEh+0xda>
    4c90:	90 e6       	ldi	r25, 0x60	; 96
    4c92:	99 83       	std	Y+1, r25	; 0x01
    4c94:	81 30       	cpi	r24, 0x01	; 1
    4c96:	51 f4       	brne	.+20     	; 0x4cac <_ZN15Adafruit_ST773511setRotationEh+0xe4>
    4c98:	80 e8       	ldi	r24, 0x80	; 128
    4c9a:	90 e0       	ldi	r25, 0x00	; 0
    4c9c:	91 87       	std	Z+9, r25	; 0x09
    4c9e:	80 87       	std	Z+8, r24	; 0x08
    4ca0:	14 c0       	rjmp	.+40     	; 0x4cca <_ZN15Adafruit_ST773511setRotationEh+0x102>
    4ca2:	98 e6       	ldi	r25, 0x68	; 104
    4ca4:	99 83       	std	Y+1, r25	; 0x01
    4ca6:	81 30       	cpi	r24, 0x01	; 1
    4ca8:	51 f4       	brne	.+20     	; 0x4cbe <_ZN15Adafruit_ST773511setRotationEh+0xf6>
    4caa:	f6 cf       	rjmp	.-20     	; 0x4c98 <_ZN15Adafruit_ST773511setRotationEh+0xd0>
    4cac:	84 30       	cpi	r24, 0x04	; 4
    4cae:	39 f4       	brne	.+14     	; 0x4cbe <_ZN15Adafruit_ST773511setRotationEh+0xf6>
    4cb0:	80 ea       	ldi	r24, 0xA0	; 160
    4cb2:	90 e0       	ldi	r25, 0x00	; 0
    4cb4:	91 87       	std	Z+9, r25	; 0x09
    4cb6:	80 87       	std	Z+8, r24	; 0x08
    4cb8:	80 e5       	ldi	r24, 0x50	; 80
    4cba:	90 e0       	ldi	r25, 0x00	; 0
    4cbc:	06 c0       	rjmp	.+12     	; 0x4cca <_ZN15Adafruit_ST773511setRotationEh+0x102>
    4cbe:	80 ea       	ldi	r24, 0xA0	; 160
    4cc0:	90 e0       	ldi	r25, 0x00	; 0
    4cc2:	91 87       	std	Z+9, r25	; 0x09
    4cc4:	80 87       	std	Z+8, r24	; 0x08
    4cc6:	80 e8       	ldi	r24, 0x80	; 128
    4cc8:	90 e0       	ldi	r25, 0x00	; 0
    4cca:	93 87       	std	Z+11, r25	; 0x0b
    4ccc:	82 87       	std	Z+10, r24	; 0x0a
    4cce:	d9 01       	movw	r26, r18
    4cd0:	8c 91       	ld	r24, X
    4cd2:	90 e0       	ldi	r25, 0x00	; 0
    4cd4:	94 af       	std	Z+60, r25	; 0x3c
    4cd6:	83 af       	std	Z+59, r24	; 0x3b
    4cd8:	da 01       	movw	r26, r20
    4cda:	8c 91       	ld	r24, X
    4cdc:	90 e0       	ldi	r25, 0x00	; 0
    4cde:	92 af       	std	Z+58, r25	; 0x3a
    4ce0:	81 af       	std	Z+57, r24	; 0x39
    4ce2:	21 e0       	ldi	r18, 0x01	; 1
    4ce4:	ae 01       	movw	r20, r28
    4ce6:	4f 5f       	subi	r20, 0xFF	; 255
    4ce8:	5f 4f       	sbci	r21, 0xFF	; 255
    4cea:	66 e3       	ldi	r22, 0x36	; 54
    4cec:	cf 01       	movw	r24, r30
    4cee:	0e 94 b2 39 	call	0x7364	; 0x7364 <_ZN15Adafruit_SPITFT11sendCommandEhPhh>
    4cf2:	0f 90       	pop	r0
    4cf4:	df 91       	pop	r29
    4cf6:	cf 91       	pop	r28
    4cf8:	08 95       	ret

00004cfa <_ZN15Adafruit_ST7735C1Eaaa>:
    4cfa:	ef 92       	push	r14
    4cfc:	0f 93       	push	r16
    4cfe:	cf 93       	push	r28
    4d00:	df 93       	push	r29
    4d02:	ec 01       	movw	r28, r24
    4d04:	e2 2e       	mov	r14, r18
    4d06:	04 2f       	mov	r16, r20
    4d08:	26 2f       	mov	r18, r22
    4d0a:	40 ea       	ldi	r20, 0xA0	; 160
    4d0c:	50 e0       	ldi	r21, 0x00	; 0
    4d0e:	60 e8       	ldi	r22, 0x80	; 128
    4d10:	70 e0       	ldi	r23, 0x00	; 0
    4d12:	b7 d0       	rcall	.+366    	; 0x4e82 <_ZN15Adafruit_ST77xxC1Ejjaaa>
    4d14:	8a e9       	ldi	r24, 0x9A	; 154
    4d16:	96 e0       	ldi	r25, 0x06	; 6
    4d18:	99 83       	std	Y+1, r25	; 0x01
    4d1a:	88 83       	st	Y, r24
    4d1c:	df 91       	pop	r29
    4d1e:	cf 91       	pop	r28
    4d20:	0f 91       	pop	r16
    4d22:	ef 90       	pop	r14
    4d24:	08 95       	ret

00004d26 <_ZN15Adafruit_ST77xx5beginEm>:
    4d26:	41 15       	cp	r20, r1
    4d28:	51 05       	cpc	r21, r1
    4d2a:	61 05       	cpc	r22, r1
    4d2c:	71 05       	cpc	r23, r1
    4d2e:	21 f4       	brne	.+8      	; 0x4d38 <_ZN15Adafruit_ST77xx5beginEm+0x12>
    4d30:	40 e0       	ldi	r20, 0x00	; 0
    4d32:	58 e4       	ldi	r21, 0x48	; 72
    4d34:	68 ee       	ldi	r22, 0xE8	; 232
    4d36:	71 e0       	ldi	r23, 0x01	; 1
    4d38:	fc 01       	movw	r30, r24
    4d3a:	ff 96       	adiw	r30, 0x3f	; 63
    4d3c:	40 83       	st	Z, r20
    4d3e:	51 83       	std	Z+1, r21	; 0x01
    4d40:	62 83       	std	Z+2, r22	; 0x02
    4d42:	73 83       	std	Z+3, r23	; 0x03
    4d44:	21 e2       	ldi	r18, 0x21	; 33
    4d46:	fc 01       	movw	r30, r24
    4d48:	25 af       	std	Z+61, r18	; 0x3d
    4d4a:	20 e2       	ldi	r18, 0x20	; 32
    4d4c:	26 af       	std	Z+62, r18	; 0x3e
    4d4e:	eb 5b       	subi	r30, 0xBB	; 187
    4d50:	ff 4f       	sbci	r31, 0xFF	; 255
    4d52:	20 81       	ld	r18, Z
    4d54:	0c 94 dd 37 	jmp	0x6fba	; 0x6fba <_ZN15Adafruit_SPITFT7initSPIEmh>

00004d58 <_ZN15Adafruit_ST77xx13setAddrWindowEjjjj>:
    4d58:	8f 92       	push	r8
    4d5a:	9f 92       	push	r9
    4d5c:	af 92       	push	r10
    4d5e:	bf 92       	push	r11
    4d60:	cf 92       	push	r12
    4d62:	df 92       	push	r13
    4d64:	ef 92       	push	r14
    4d66:	ff 92       	push	r15
    4d68:	0f 93       	push	r16
    4d6a:	1f 93       	push	r17
    4d6c:	cf 93       	push	r28
    4d6e:	df 93       	push	r29
    4d70:	ec 01       	movw	r28, r24
    4d72:	89 ad       	ldd	r24, Y+57	; 0x39
    4d74:	9a ad       	ldd	r25, Y+58	; 0x3a
    4d76:	4b 01       	movw	r8, r22
    4d78:	88 0e       	add	r8, r24
    4d7a:	99 1e       	adc	r9, r25
    4d7c:	8b ad       	ldd	r24, Y+59	; 0x3b
    4d7e:	9c ad       	ldd	r25, Y+60	; 0x3c
    4d80:	48 0f       	add	r20, r24
    4d82:	59 1f       	adc	r21, r25
    4d84:	c9 01       	movw	r24, r18
    4d86:	01 97       	sbiw	r24, 0x01	; 1
    4d88:	88 0d       	add	r24, r8
    4d8a:	99 1d       	adc	r25, r9
    4d8c:	a0 e0       	ldi	r26, 0x00	; 0
    4d8e:	b0 e0       	ldi	r27, 0x00	; 0
    4d90:	a1 2c       	mov	r10, r1
    4d92:	b1 2c       	mov	r11, r1
    4d94:	54 01       	movw	r10, r8
    4d96:	99 24       	eor	r9, r9
    4d98:	88 24       	eor	r8, r8
    4d9a:	88 2a       	or	r8, r24
    4d9c:	99 2a       	or	r9, r25
    4d9e:	aa 2a       	or	r10, r26
    4da0:	bb 2a       	or	r11, r27
    4da2:	01 50       	subi	r16, 0x01	; 1
    4da4:	11 09       	sbc	r17, r1
    4da6:	68 01       	movw	r12, r16
    4da8:	c4 0e       	add	r12, r20
    4daa:	d5 1e       	adc	r13, r21
    4dac:	86 01       	movw	r16, r12
    4dae:	20 e0       	ldi	r18, 0x00	; 0
    4db0:	30 e0       	ldi	r19, 0x00	; 0
    4db2:	6a 01       	movw	r12, r20
    4db4:	e1 2c       	mov	r14, r1
    4db6:	f1 2c       	mov	r15, r1
    4db8:	76 01       	movw	r14, r12
    4dba:	dd 24       	eor	r13, r13
    4dbc:	cc 24       	eor	r12, r12
    4dbe:	c0 2a       	or	r12, r16
    4dc0:	d1 2a       	or	r13, r17
    4dc2:	e2 2a       	or	r14, r18
    4dc4:	f3 2a       	or	r15, r19
    4dc6:	6a e2       	ldi	r22, 0x2A	; 42
    4dc8:	ce 01       	movw	r24, r28
    4dca:	0e 94 4c 39 	call	0x7298	; 0x7298 <_ZN15Adafruit_SPITFT12writeCommandEh>
    4dce:	b5 01       	movw	r22, r10
    4dd0:	a4 01       	movw	r20, r8
    4dd2:	ce 01       	movw	r24, r28
    4dd4:	0e 94 87 3a 	call	0x750e	; 0x750e <_ZN15Adafruit_SPITFT11SPI_WRITE32Em>
    4dd8:	6b e2       	ldi	r22, 0x2B	; 43
    4dda:	ce 01       	movw	r24, r28
    4ddc:	0e 94 4c 39 	call	0x7298	; 0x7298 <_ZN15Adafruit_SPITFT12writeCommandEh>
    4de0:	b7 01       	movw	r22, r14
    4de2:	a6 01       	movw	r20, r12
    4de4:	ce 01       	movw	r24, r28
    4de6:	0e 94 87 3a 	call	0x750e	; 0x750e <_ZN15Adafruit_SPITFT11SPI_WRITE32Em>
    4dea:	6c e2       	ldi	r22, 0x2C	; 44
    4dec:	ce 01       	movw	r24, r28
    4dee:	df 91       	pop	r29
    4df0:	cf 91       	pop	r28
    4df2:	1f 91       	pop	r17
    4df4:	0f 91       	pop	r16
    4df6:	ff 90       	pop	r15
    4df8:	ef 90       	pop	r14
    4dfa:	df 90       	pop	r13
    4dfc:	cf 90       	pop	r12
    4dfe:	bf 90       	pop	r11
    4e00:	af 90       	pop	r10
    4e02:	9f 90       	pop	r9
    4e04:	8f 90       	pop	r8
    4e06:	0c 94 4c 39 	jmp	0x7298	; 0x7298 <_ZN15Adafruit_SPITFT12writeCommandEh>

00004e0a <_ZN15Adafruit_ST77xx11setRotationEh>:
    4e0a:	cf 93       	push	r28
    4e0c:	df 93       	push	r29
    4e0e:	1f 92       	push	r1
    4e10:	cd b7       	in	r28, 0x3d	; 61
    4e12:	de b7       	in	r29, 0x3e	; 62
    4e14:	fc 01       	movw	r30, r24
    4e16:	19 82       	std	Y+1, r1	; 0x01
    4e18:	63 70       	andi	r22, 0x03	; 3
    4e1a:	66 8b       	std	Z+22, r22	; 0x16
    4e1c:	8d 5b       	subi	r24, 0xBD	; 189
    4e1e:	9f 4f       	sbci	r25, 0xFF	; 255
    4e20:	af 01       	movw	r20, r30
    4e22:	4c 5b       	subi	r20, 0xBC	; 188
    4e24:	5f 4f       	sbci	r21, 0xFF	; 255
    4e26:	62 30       	cpi	r22, 0x02	; 2
    4e28:	49 f0       	breq	.+18     	; 0x4e3c <_ZN15Adafruit_ST77xx11setRotationEh+0x32>
    4e2a:	63 30       	cpi	r22, 0x03	; 3
    4e2c:	91 f0       	breq	.+36     	; 0x4e52 <_ZN15Adafruit_ST77xx11setRotationEh+0x48>
    4e2e:	61 30       	cpi	r22, 0x01	; 1
    4e30:	19 f0       	breq	.+6      	; 0x4e38 <_ZN15Adafruit_ST77xx11setRotationEh+0x2e>
    4e32:	20 ec       	ldi	r18, 0xC0	; 192
    4e34:	29 83       	std	Y+1, r18	; 0x01
    4e36:	02 c0       	rjmp	.+4      	; 0x4e3c <_ZN15Adafruit_ST77xx11setRotationEh+0x32>
    4e38:	20 ea       	ldi	r18, 0xA0	; 160
    4e3a:	0c c0       	rjmp	.+24     	; 0x4e54 <_ZN15Adafruit_ST77xx11setRotationEh+0x4a>
    4e3c:	dc 01       	movw	r26, r24
    4e3e:	8c 91       	ld	r24, X
    4e40:	90 e0       	ldi	r25, 0x00	; 0
    4e42:	92 af       	std	Z+58, r25	; 0x3a
    4e44:	81 af       	std	Z+57, r24	; 0x39
    4e46:	da 01       	movw	r26, r20
    4e48:	8c 91       	ld	r24, X
    4e4a:	90 e0       	ldi	r25, 0x00	; 0
    4e4c:	94 af       	std	Z+60, r25	; 0x3c
    4e4e:	83 af       	std	Z+59, r24	; 0x3b
    4e50:	0c c0       	rjmp	.+24     	; 0x4e6a <_ZN15Adafruit_ST77xx11setRotationEh+0x60>
    4e52:	20 e6       	ldi	r18, 0x60	; 96
    4e54:	29 83       	std	Y+1, r18	; 0x01
    4e56:	dc 01       	movw	r26, r24
    4e58:	8c 91       	ld	r24, X
    4e5a:	90 e0       	ldi	r25, 0x00	; 0
    4e5c:	94 af       	std	Z+60, r25	; 0x3c
    4e5e:	83 af       	std	Z+59, r24	; 0x3b
    4e60:	da 01       	movw	r26, r20
    4e62:	8c 91       	ld	r24, X
    4e64:	90 e0       	ldi	r25, 0x00	; 0
    4e66:	92 af       	std	Z+58, r25	; 0x3a
    4e68:	81 af       	std	Z+57, r24	; 0x39
    4e6a:	21 e0       	ldi	r18, 0x01	; 1
    4e6c:	ae 01       	movw	r20, r28
    4e6e:	4f 5f       	subi	r20, 0xFF	; 255
    4e70:	5f 4f       	sbci	r21, 0xFF	; 255
    4e72:	66 e3       	ldi	r22, 0x36	; 54
    4e74:	cf 01       	movw	r24, r30
    4e76:	0e 94 b2 39 	call	0x7364	; 0x7364 <_ZN15Adafruit_SPITFT11sendCommandEhPhh>
    4e7a:	0f 90       	pop	r0
    4e7c:	df 91       	pop	r29
    4e7e:	cf 91       	pop	r28
    4e80:	08 95       	ret

00004e82 <_ZN15Adafruit_ST77xxC1Ejjaaa>:
    4e82:	ef 92       	push	r14
    4e84:	0f 93       	push	r16
    4e86:	cf 93       	push	r28
    4e88:	df 93       	push	r29
    4e8a:	ec 01       	movw	r28, r24
    4e8c:	0e 94 d0 37 	call	0x6fa0	; 0x6fa0 <_ZN15Adafruit_SPITFTC1Ejjaaa>
    4e90:	8a ec       	ldi	r24, 0xCA	; 202
    4e92:	96 e0       	ldi	r25, 0x06	; 6
    4e94:	99 83       	std	Y+1, r25	; 0x01
    4e96:	88 83       	st	Y, r24
    4e98:	fe 01       	movw	r30, r28
    4e9a:	ed 5b       	subi	r30, 0xBD	; 189
    4e9c:	ff 4f       	sbci	r31, 0xFF	; 255
    4e9e:	10 82       	st	Z, r1
    4ea0:	31 96       	adiw	r30, 0x01	; 1
    4ea2:	10 82       	st	Z, r1
    4ea4:	cb 5b       	subi	r28, 0xBB	; 187
    4ea6:	df 4f       	sbci	r29, 0xFF	; 255
    4ea8:	18 82       	st	Y, r1
    4eaa:	df 91       	pop	r29
    4eac:	cf 91       	pop	r28
    4eae:	0f 91       	pop	r16
    4eb0:	ef 90       	pop	r14
    4eb2:	08 95       	ret

00004eb4 <_ZN6HCSR04C1Eiiii>:
    4eb4:	af 92       	push	r10
    4eb6:	bf 92       	push	r11
    4eb8:	cf 92       	push	r12
    4eba:	df 92       	push	r13
    4ebc:	ef 92       	push	r14
    4ebe:	ff 92       	push	r15
    4ec0:	0f 93       	push	r16
    4ec2:	1f 93       	push	r17
    4ec4:	cf 93       	push	r28
    4ec6:	df 93       	push	r29
    4ec8:	ec 01       	movw	r28, r24
    4eca:	e6 2e       	mov	r14, r22
    4ecc:	a7 2e       	mov	r10, r23
    4ece:	f4 2e       	mov	r15, r20
    4ed0:	b5 2e       	mov	r11, r21
    4ed2:	69 01       	movw	r12, r18
    4ed4:	8f ef       	ldi	r24, 0xFF	; 255
    4ed6:	9f ef       	ldi	r25, 0xFF	; 255
    4ed8:	9d 83       	std	Y+5, r25	; 0x05
    4eda:	8c 83       	std	Y+4, r24	; 0x04
    4edc:	9f 83       	std	Y+7, r25	; 0x07
    4ede:	8e 83       	std	Y+6, r24	; 0x06
    4ee0:	61 e0       	ldi	r22, 0x01	; 1
    4ee2:	8e 2d       	mov	r24, r14
    4ee4:	0e 94 34 1a 	call	0x3468	; 0x3468 <pinMode>
    4ee8:	60 e0       	ldi	r22, 0x00	; 0
    4eea:	8f 2d       	mov	r24, r15
    4eec:	0e 94 34 1a 	call	0x3468	; 0x3468 <pinMode>
    4ef0:	e8 82       	st	Y, r14
    4ef2:	a9 82       	std	Y+1, r10	; 0x01
    4ef4:	fa 82       	std	Y+2, r15	; 0x02
    4ef6:	bb 82       	std	Y+3, r11	; 0x03
    4ef8:	dd 82       	std	Y+5, r13	; 0x05
    4efa:	cc 82       	std	Y+4, r12	; 0x04
    4efc:	1f 83       	std	Y+7, r17	; 0x07
    4efe:	0e 83       	std	Y+6, r16	; 0x06
    4f00:	df 91       	pop	r29
    4f02:	cf 91       	pop	r28
    4f04:	1f 91       	pop	r17
    4f06:	0f 91       	pop	r16
    4f08:	ff 90       	pop	r15
    4f0a:	ef 90       	pop	r14
    4f0c:	df 90       	pop	r13
    4f0e:	cf 90       	pop	r12
    4f10:	bf 90       	pop	r11
    4f12:	af 90       	pop	r10
    4f14:	08 95       	ret

00004f16 <_ZN6HCSR0418echoInMicrosecondsEv>:
    4f16:	cf 92       	push	r12
    4f18:	df 92       	push	r13
    4f1a:	ef 92       	push	r14
    4f1c:	ff 92       	push	r15
    4f1e:	cf 93       	push	r28
    4f20:	df 93       	push	r29
    4f22:	ec 01       	movw	r28, r24
    4f24:	60 e0       	ldi	r22, 0x00	; 0
    4f26:	88 81       	ld	r24, Y
    4f28:	0e 94 70 1a 	call	0x34e0	; 0x34e0 <digitalWrite>
    4f2c:	85 e0       	ldi	r24, 0x05	; 5
    4f2e:	90 e0       	ldi	r25, 0x00	; 0
    4f30:	0e 94 4c 19 	call	0x3298	; 0x3298 <delayMicroseconds>
    4f34:	61 e0       	ldi	r22, 0x01	; 1
    4f36:	88 81       	ld	r24, Y
    4f38:	0e 94 70 1a 	call	0x34e0	; 0x34e0 <digitalWrite>
    4f3c:	8a e0       	ldi	r24, 0x0A	; 10
    4f3e:	90 e0       	ldi	r25, 0x00	; 0
    4f40:	0e 94 4c 19 	call	0x3298	; 0x3298 <delayMicroseconds>
    4f44:	60 e0       	ldi	r22, 0x00	; 0
    4f46:	88 81       	ld	r24, Y
    4f48:	0e 94 70 1a 	call	0x34e0	; 0x34e0 <digitalWrite>
    4f4c:	8a 81       	ldd	r24, Y+2	; 0x02
    4f4e:	0e 94 9e 1a 	call	0x353c	; 0x353c <digitalRead>
    4f52:	89 2b       	or	r24, r25
    4f54:	d9 f3       	breq	.-10     	; 0x4f4c <_ZN6HCSR0418echoInMicrosecondsEv+0x36>
    4f56:	0e 94 ed 18 	call	0x31da	; 0x31da <micros>
    4f5a:	6b 01       	movw	r12, r22
    4f5c:	7c 01       	movw	r14, r24
    4f5e:	8a 81       	ldd	r24, Y+2	; 0x02
    4f60:	0e 94 9e 1a 	call	0x353c	; 0x353c <digitalRead>
    4f64:	01 97       	sbiw	r24, 0x01	; 1
    4f66:	d9 f3       	breq	.-10     	; 0x4f5e <_ZN6HCSR0418echoInMicrosecondsEv+0x48>
    4f68:	0e 94 ed 18 	call	0x31da	; 0x31da <micros>
    4f6c:	cb 01       	movw	r24, r22
    4f6e:	8c 19       	sub	r24, r12
    4f70:	9d 09       	sbc	r25, r13
    4f72:	df 91       	pop	r29
    4f74:	cf 91       	pop	r28
    4f76:	ff 90       	pop	r15
    4f78:	ef 90       	pop	r14
    4f7a:	df 90       	pop	r13
    4f7c:	cf 90       	pop	r12
    4f7e:	08 95       	ret

00004f80 <_ZN6HCSR0421distanceInMillimetersEv>:
    4f80:	cf 93       	push	r28
    4f82:	df 93       	push	r29
    4f84:	ec 01       	movw	r28, r24
    4f86:	c7 df       	rcall	.-114    	; 0x4f16 <_ZN6HCSR0418echoInMicrosecondsEv>
    4f88:	97 fd       	sbrc	r25, 7
    4f8a:	01 96       	adiw	r24, 0x01	; 1
    4f8c:	bc 01       	movw	r22, r24
    4f8e:	75 95       	asr	r23
    4f90:	67 95       	ror	r22
    4f92:	07 2e       	mov	r0, r23
    4f94:	00 0c       	add	r0, r0
    4f96:	88 0b       	sbc	r24, r24
    4f98:	99 0b       	sbc	r25, r25
    4f9a:	0e 94 0e 11 	call	0x221c	; 0x221c <__floatsisf>
    4f9e:	27 ee       	ldi	r18, 0xE7	; 231
    4fa0:	3b ef       	ldi	r19, 0xFB	; 251
    4fa2:	49 ea       	ldi	r20, 0xA9	; 169
    4fa4:	5e e3       	ldi	r21, 0x3E	; 62
    4fa6:	0e 94 c2 11 	call	0x2384	; 0x2384 <__mulsf3>
    4faa:	0e 94 db 10 	call	0x21b6	; 0x21b6 <__fixsfsi>
    4fae:	9b 01       	movw	r18, r22
    4fb0:	4c 81       	ldd	r20, Y+4	; 0x04
    4fb2:	5d 81       	ldd	r21, Y+5	; 0x05
    4fb4:	4f 3f       	cpi	r20, 0xFF	; 255
    4fb6:	af ef       	ldi	r26, 0xFF	; 255
    4fb8:	5a 07       	cpc	r21, r26
    4fba:	21 f4       	brne	.+8      	; 0x4fc4 <_ZN6HCSR0421distanceInMillimetersEv+0x44>
    4fbc:	ee 81       	ldd	r30, Y+6	; 0x06
    4fbe:	ff 81       	ldd	r31, Y+7	; 0x07
    4fc0:	31 96       	adiw	r30, 0x01	; 1
    4fc2:	59 f0       	breq	.+22     	; 0x4fda <_ZN6HCSR0421distanceInMillimetersEv+0x5a>
    4fc4:	42 17       	cp	r20, r18
    4fc6:	53 07       	cpc	r21, r19
    4fc8:	2c f4       	brge	.+10     	; 0x4fd4 <_ZN6HCSR0421distanceInMillimetersEv+0x54>
    4fca:	4e 81       	ldd	r20, Y+6	; 0x06
    4fcc:	5f 81       	ldd	r21, Y+7	; 0x07
    4fce:	24 17       	cp	r18, r20
    4fd0:	35 07       	cpc	r19, r21
    4fd2:	1c f0       	brlt	.+6      	; 0x4fda <_ZN6HCSR0421distanceInMillimetersEv+0x5a>
    4fd4:	8f ef       	ldi	r24, 0xFF	; 255
    4fd6:	9f ef       	ldi	r25, 0xFF	; 255
    4fd8:	01 c0       	rjmp	.+2      	; 0x4fdc <_ZN6HCSR0421distanceInMillimetersEv+0x5c>
    4fda:	cb 01       	movw	r24, r22
    4fdc:	df 91       	pop	r29
    4fde:	cf 91       	pop	r28
    4fe0:	08 95       	ret

00004fe2 <__vector_10>:
    4fe2:	1f 92       	push	r1
    4fe4:	0f 92       	push	r0
    4fe6:	0f b6       	in	r0, 0x3f	; 63
    4fe8:	0f 92       	push	r0
    4fea:	11 24       	eor	r1, r1
    4fec:	0b b6       	in	r0, 0x3b	; 59
    4fee:	0f 92       	push	r0
    4ff0:	2f 93       	push	r18
    4ff2:	3f 93       	push	r19
    4ff4:	4f 93       	push	r20
    4ff6:	5f 93       	push	r21
    4ff8:	6f 93       	push	r22
    4ffa:	7f 93       	push	r23
    4ffc:	8f 93       	push	r24
    4ffe:	9f 93       	push	r25
    5000:	af 93       	push	r26
    5002:	bf 93       	push	r27
    5004:	ef 93       	push	r30
    5006:	ff 93       	push	r31
    5008:	e0 91 d5 11 	lds	r30, 0x11D5	; 0x8011d5 <_ZN14SoftwareSerial13active_objectE>
    500c:	f0 91 d6 11 	lds	r31, 0x11D6	; 0x8011d6 <_ZN14SoftwareSerial13active_objectE+0x1>
    5010:	30 97       	sbiw	r30, 0x00	; 0
    5012:	09 f4       	brne	.+2      	; 0x5016 <__vector_10+0x34>
    5014:	4f c0       	rjmp	.+158    	; 0x50b4 <__vector_10+0xd2>
    5016:	96 8d       	ldd	r25, Z+30	; 0x1e
    5018:	a6 85       	ldd	r26, Z+14	; 0x0e
    501a:	b7 85       	ldd	r27, Z+15	; 0x0f
    501c:	85 85       	ldd	r24, Z+13	; 0x0d
    501e:	91 ff       	sbrs	r25, 1
    5020:	04 c0       	rjmp	.+8      	; 0x502a <__vector_10+0x48>
    5022:	9c 91       	ld	r25, X
    5024:	89 23       	and	r24, r25
    5026:	29 f4       	brne	.+10     	; 0x5032 <__vector_10+0x50>
    5028:	45 c0       	rjmp	.+138    	; 0x50b4 <__vector_10+0xd2>
    502a:	9c 91       	ld	r25, X
    502c:	89 23       	and	r24, r25
    502e:	09 f0       	breq	.+2      	; 0x5032 <__vector_10+0x50>
    5030:	41 c0       	rjmp	.+130    	; 0x50b4 <__vector_10+0xd2>
    5032:	a3 89       	ldd	r26, Z+19	; 0x13
    5034:	b4 89       	ldd	r27, Z+20	; 0x14
    5036:	9c 91       	ld	r25, X
    5038:	85 89       	ldd	r24, Z+21	; 0x15
    503a:	80 95       	com	r24
    503c:	89 23       	and	r24, r25
    503e:	8c 93       	st	X, r24
	__asm__ volatile (
		"1: sbiw %0,1" "\n\t"
		"brne 1b"
		: "=w" (__count)
		: "0" (__count)
	);
    5040:	86 89       	ldd	r24, Z+22	; 0x16
    5042:	97 89       	ldd	r25, Z+23	; 0x17
    5044:	01 97       	sbiw	r24, 0x01	; 1
    5046:	f1 f7       	brne	.-4      	; 0x5044 <__vector_10+0x62>
    5048:	60 8d       	ldd	r22, Z+24	; 0x18
    504a:	71 8d       	ldd	r23, Z+25	; 0x19
    504c:	a6 85       	ldd	r26, Z+14	; 0x0e
    504e:	b7 85       	ldd	r27, Z+15	; 0x0f
    5050:	55 85       	ldd	r21, Z+13	; 0x0d
    5052:	38 e0       	ldi	r19, 0x08	; 8
    5054:	20 e0       	ldi	r18, 0x00	; 0
    5056:	cb 01       	movw	r24, r22
    5058:	01 97       	sbiw	r24, 0x01	; 1
    505a:	f1 f7       	brne	.-4      	; 0x5058 <__vector_10+0x76>
    505c:	82 2f       	mov	r24, r18
    505e:	90 e0       	ldi	r25, 0x00	; 0
    5060:	95 95       	asr	r25
    5062:	87 95       	ror	r24
    5064:	28 2f       	mov	r18, r24
    5066:	4c 91       	ld	r20, X
    5068:	45 23       	and	r20, r21
    506a:	09 f0       	breq	.+2      	; 0x506e <__vector_10+0x8c>
    506c:	20 68       	ori	r18, 0x80	; 128
    506e:	31 50       	subi	r19, 0x01	; 1
    5070:	91 f7       	brne	.-28     	; 0x5056 <__vector_10+0x74>
    5072:	86 8d       	ldd	r24, Z+30	; 0x1e
    5074:	81 fd       	sbrc	r24, 1
    5076:	20 95       	com	r18
    5078:	80 91 d4 10 	lds	r24, 0x10D4	; 0x8010d4 <_ZN14SoftwareSerial20_receive_buffer_tailE>
    507c:	90 e0       	ldi	r25, 0x00	; 0
    507e:	01 96       	adiw	r24, 0x01	; 1
    5080:	30 91 d3 10 	lds	r19, 0x10D3	; 0x8010d3 <_ZN14SoftwareSerial20_receive_buffer_headE>
    5084:	38 17       	cp	r19, r24
    5086:	49 f0       	breq	.+18     	; 0x509a <__vector_10+0xb8>
    5088:	a0 91 d4 10 	lds	r26, 0x10D4	; 0x8010d4 <_ZN14SoftwareSerial20_receive_buffer_tailE>
    508c:	b0 e0       	ldi	r27, 0x00	; 0
    508e:	ab 52       	subi	r26, 0x2B	; 43
    5090:	bf 4e       	sbci	r27, 0xEF	; 239
    5092:	2c 93       	st	X, r18
    5094:	80 93 d4 10 	sts	0x10D4, r24	; 0x8010d4 <_ZN14SoftwareSerial20_receive_buffer_tailE>
    5098:	03 c0       	rjmp	.+6      	; 0x50a0 <__vector_10+0xbe>
    509a:	86 8d       	ldd	r24, Z+30	; 0x1e
    509c:	81 60       	ori	r24, 0x01	; 1
    509e:	86 8f       	std	Z+30, r24	; 0x1e
    50a0:	82 8d       	ldd	r24, Z+26	; 0x1a
    50a2:	93 8d       	ldd	r25, Z+27	; 0x1b
    50a4:	01 97       	sbiw	r24, 0x01	; 1
    50a6:	f1 f7       	brne	.-4      	; 0x50a4 <__vector_10+0xc2>
    50a8:	a3 89       	ldd	r26, Z+19	; 0x13
    50aa:	b4 89       	ldd	r27, Z+20	; 0x14
    50ac:	9c 91       	ld	r25, X
    50ae:	85 89       	ldd	r24, Z+21	; 0x15
    50b0:	89 2b       	or	r24, r25
    50b2:	8c 93       	st	X, r24
    50b4:	ff 91       	pop	r31
    50b6:	ef 91       	pop	r30
    50b8:	bf 91       	pop	r27
    50ba:	af 91       	pop	r26
    50bc:	9f 91       	pop	r25
    50be:	8f 91       	pop	r24
    50c0:	7f 91       	pop	r23
    50c2:	6f 91       	pop	r22
    50c4:	5f 91       	pop	r21
    50c6:	4f 91       	pop	r20
    50c8:	3f 91       	pop	r19
    50ca:	2f 91       	pop	r18
    50cc:	0f 90       	pop	r0
    50ce:	0b be       	out	0x3b, r0	; 59
    50d0:	0f 90       	pop	r0
    50d2:	0f be       	out	0x3f, r0	; 63
    50d4:	0f 90       	pop	r0
    50d6:	1f 90       	pop	r1
    50d8:	18 95       	reti

000050da <_ZN8SPIClass5beginEv>:
    50da:	cf 93       	push	r28
    50dc:	cf b7       	in	r28, 0x3f	; 63
    50de:	f8 94       	cli
    50e0:	80 91 da 11 	lds	r24, 0x11DA	; 0x8011da <_ZN8SPIClass11initializedE>
    50e4:	81 11       	cpse	r24, r1
    50e6:	27 c0       	rjmp	.+78     	; 0x5136 <_ZN8SPIClass5beginEv+0x5c>
    50e8:	eb e3       	ldi	r30, 0x3B	; 59
    50ea:	f2 e0       	ldi	r31, 0x02	; 2
    50ec:	84 91       	lpm	r24, Z
    50ee:	e5 ef       	ldi	r30, 0xF5	; 245
    50f0:	f1 e0       	ldi	r31, 0x01	; 1
    50f2:	94 91       	lpm	r25, Z
    50f4:	e8 2f       	mov	r30, r24
    50f6:	f0 e0       	ldi	r31, 0x00	; 0
    50f8:	ee 0f       	add	r30, r30
    50fa:	ff 1f       	adc	r31, r31
    50fc:	e0 58       	subi	r30, 0x80	; 128
    50fe:	fd 4f       	sbci	r31, 0xFD	; 253
    5100:	a5 91       	lpm	r26, Z+
    5102:	b4 91       	lpm	r27, Z
    5104:	ec 91       	ld	r30, X
    5106:	e9 23       	and	r30, r25
    5108:	21 f4       	brne	.+8      	; 0x5112 <_ZN8SPIClass5beginEv+0x38>
    510a:	61 e0       	ldi	r22, 0x01	; 1
    510c:	85 e3       	ldi	r24, 0x35	; 53
    510e:	0e 94 70 1a 	call	0x34e0	; 0x34e0 <digitalWrite>
    5112:	61 e0       	ldi	r22, 0x01	; 1
    5114:	85 e3       	ldi	r24, 0x35	; 53
    5116:	0e 94 34 1a 	call	0x3468	; 0x3468 <pinMode>
    511a:	8c b5       	in	r24, 0x2c	; 44
    511c:	80 61       	ori	r24, 0x10	; 16
    511e:	8c bd       	out	0x2c, r24	; 44
    5120:	8c b5       	in	r24, 0x2c	; 44
    5122:	80 64       	ori	r24, 0x40	; 64
    5124:	8c bd       	out	0x2c, r24	; 44
    5126:	61 e0       	ldi	r22, 0x01	; 1
    5128:	84 e3       	ldi	r24, 0x34	; 52
    512a:	0e 94 34 1a 	call	0x3468	; 0x3468 <pinMode>
    512e:	61 e0       	ldi	r22, 0x01	; 1
    5130:	83 e3       	ldi	r24, 0x33	; 51
    5132:	0e 94 34 1a 	call	0x3468	; 0x3468 <pinMode>
    5136:	80 91 da 11 	lds	r24, 0x11DA	; 0x8011da <_ZN8SPIClass11initializedE>
    513a:	8f 5f       	subi	r24, 0xFF	; 255
    513c:	80 93 da 11 	sts	0x11DA, r24	; 0x8011da <_ZN8SPIClass11initializedE>
    5140:	cf bf       	out	0x3f, r28	; 63
    5142:	cf 91       	pop	r28
    5144:	08 95       	ret

00005146 <_ZN7TwoWire9availableEv>:
    5146:	80 91 10 12 	lds	r24, 0x1210	; 0x801210 <_ZN7TwoWire14rxBufferLengthE>
    514a:	90 e0       	ldi	r25, 0x00	; 0
    514c:	20 91 11 12 	lds	r18, 0x1211	; 0x801211 <_ZN7TwoWire13rxBufferIndexE>
    5150:	82 1b       	sub	r24, r18
    5152:	91 09       	sbc	r25, r1
    5154:	08 95       	ret

00005156 <_ZN7TwoWire4readEv>:
    5156:	90 91 11 12 	lds	r25, 0x1211	; 0x801211 <_ZN7TwoWire13rxBufferIndexE>
    515a:	80 91 10 12 	lds	r24, 0x1210	; 0x801210 <_ZN7TwoWire14rxBufferLengthE>
    515e:	98 17       	cp	r25, r24
    5160:	50 f4       	brcc	.+20     	; 0x5176 <_ZN7TwoWire4readEv+0x20>
    5162:	e9 2f       	mov	r30, r25
    5164:	f0 e0       	ldi	r31, 0x00	; 0
    5166:	ee 5e       	subi	r30, 0xEE	; 238
    5168:	fd 4e       	sbci	r31, 0xED	; 237
    516a:	20 81       	ld	r18, Z
    516c:	30 e0       	ldi	r19, 0x00	; 0
    516e:	9f 5f       	subi	r25, 0xFF	; 255
    5170:	90 93 11 12 	sts	0x1211, r25	; 0x801211 <_ZN7TwoWire13rxBufferIndexE>
    5174:	02 c0       	rjmp	.+4      	; 0x517a <_ZN7TwoWire4readEv+0x24>
    5176:	2f ef       	ldi	r18, 0xFF	; 255
    5178:	3f ef       	ldi	r19, 0xFF	; 255
    517a:	c9 01       	movw	r24, r18
    517c:	08 95       	ret

0000517e <_ZN7TwoWire4peekEv>:
    517e:	e0 91 11 12 	lds	r30, 0x1211	; 0x801211 <_ZN7TwoWire13rxBufferIndexE>
    5182:	80 91 10 12 	lds	r24, 0x1210	; 0x801210 <_ZN7TwoWire14rxBufferLengthE>
    5186:	e8 17       	cp	r30, r24
    5188:	30 f4       	brcc	.+12     	; 0x5196 <_ZN7TwoWire4peekEv+0x18>
    518a:	f0 e0       	ldi	r31, 0x00	; 0
    518c:	ee 5e       	subi	r30, 0xEE	; 238
    518e:	fd 4e       	sbci	r31, 0xED	; 237
    5190:	80 81       	ld	r24, Z
    5192:	90 e0       	ldi	r25, 0x00	; 0
    5194:	08 95       	ret
    5196:	8f ef       	ldi	r24, 0xFF	; 255
    5198:	9f ef       	ldi	r25, 0xFF	; 255
    519a:	08 95       	ret

0000519c <_ZN7TwoWire5flushEv>:
    519c:	08 95       	ret

0000519e <_ZN7TwoWire16onReceiveServiceEPhi>:
    519e:	cf 93       	push	r28
    51a0:	df 93       	push	r29
    51a2:	ec 01       	movw	r28, r24
    51a4:	e0 91 e8 11 	lds	r30, 0x11E8	; 0x8011e8 <_ZN7TwoWire14user_onReceiveE>
    51a8:	f0 91 e9 11 	lds	r31, 0x11E9	; 0x8011e9 <_ZN7TwoWire14user_onReceiveE+0x1>
    51ac:	30 97       	sbiw	r30, 0x00	; 0
    51ae:	f1 f0       	breq	.+60     	; 0x51ec <_ZN7TwoWire16onReceiveServiceEPhi+0x4e>
    51b0:	90 91 11 12 	lds	r25, 0x1211	; 0x801211 <_ZN7TwoWire13rxBufferIndexE>
    51b4:	80 91 10 12 	lds	r24, 0x1210	; 0x801210 <_ZN7TwoWire14rxBufferLengthE>
    51b8:	98 17       	cp	r25, r24
    51ba:	c0 f0       	brcs	.+48     	; 0x51ec <_ZN7TwoWire16onReceiveServiceEPhi+0x4e>
    51bc:	90 e0       	ldi	r25, 0x00	; 0
    51be:	29 2f       	mov	r18, r25
    51c0:	30 e0       	ldi	r19, 0x00	; 0
    51c2:	26 17       	cp	r18, r22
    51c4:	37 07       	cpc	r19, r23
    51c6:	54 f4       	brge	.+20     	; 0x51dc <_ZN7TwoWire16onReceiveServiceEPhi+0x3e>
    51c8:	de 01       	movw	r26, r28
    51ca:	a2 0f       	add	r26, r18
    51cc:	b3 1f       	adc	r27, r19
    51ce:	4c 91       	ld	r20, X
    51d0:	d9 01       	movw	r26, r18
    51d2:	ae 5e       	subi	r26, 0xEE	; 238
    51d4:	bd 4e       	sbci	r27, 0xED	; 237
    51d6:	4c 93       	st	X, r20
    51d8:	9f 5f       	subi	r25, 0xFF	; 255
    51da:	f1 cf       	rjmp	.-30     	; 0x51be <_ZN7TwoWire16onReceiveServiceEPhi+0x20>
    51dc:	10 92 11 12 	sts	0x1211, r1	; 0x801211 <_ZN7TwoWire13rxBufferIndexE>
    51e0:	60 93 10 12 	sts	0x1210, r22	; 0x801210 <_ZN7TwoWire14rxBufferLengthE>
    51e4:	cb 01       	movw	r24, r22
    51e6:	df 91       	pop	r29
    51e8:	cf 91       	pop	r28
    51ea:	19 94       	eijmp
    51ec:	df 91       	pop	r29
    51ee:	cf 91       	pop	r28
    51f0:	08 95       	ret

000051f2 <_ZN7TwoWire16onRequestServiceEv>:
    51f2:	e0 91 ea 11 	lds	r30, 0x11EA	; 0x8011ea <_ZN7TwoWire14user_onRequestE>
    51f6:	f0 91 eb 11 	lds	r31, 0x11EB	; 0x8011eb <_ZN7TwoWire14user_onRequestE+0x1>
    51fa:	30 97       	sbiw	r30, 0x00	; 0
    51fc:	29 f0       	breq	.+10     	; 0x5208 <_ZN7TwoWire16onRequestServiceEv+0x16>
    51fe:	10 92 ee 11 	sts	0x11EE, r1	; 0x8011ee <_ZN7TwoWire13txBufferIndexE>
    5202:	10 92 ed 11 	sts	0x11ED, r1	; 0x8011ed <_ZN7TwoWire14txBufferLengthE>
    5206:	19 94       	eijmp
    5208:	08 95       	ret

0000520a <_ZN7TwoWire5writeEPKhj>:
    520a:	cf 92       	push	r12
    520c:	df 92       	push	r13
    520e:	ef 92       	push	r14
    5210:	ff 92       	push	r15
    5212:	0f 93       	push	r16
    5214:	1f 93       	push	r17
    5216:	cf 93       	push	r28
    5218:	df 93       	push	r29
    521a:	7c 01       	movw	r14, r24
    521c:	cb 01       	movw	r24, r22
    521e:	8a 01       	movw	r16, r20
    5220:	20 91 ec 11 	lds	r18, 0x11EC	; 0x8011ec <_ZN7TwoWire12transmittingE>
    5224:	22 23       	and	r18, r18
    5226:	89 f0       	breq	.+34     	; 0x524a <_ZN7TwoWire5writeEPKhj+0x40>
    5228:	eb 01       	movw	r28, r22
    522a:	6b 01       	movw	r12, r22
    522c:	c4 0e       	add	r12, r20
    522e:	d5 1e       	adc	r13, r21
    5230:	cc 15       	cp	r28, r12
    5232:	dd 05       	cpc	r29, r13
    5234:	69 f0       	breq	.+26     	; 0x5250 <_ZN7TwoWire5writeEPKhj+0x46>
    5236:	69 91       	ld	r22, Y+
    5238:	d7 01       	movw	r26, r14
    523a:	ed 91       	ld	r30, X+
    523c:	fc 91       	ld	r31, X
    523e:	01 90       	ld	r0, Z+
    5240:	f0 81       	ld	r31, Z
    5242:	e0 2d       	mov	r30, r0
    5244:	c7 01       	movw	r24, r14
    5246:	19 95       	eicall
    5248:	f3 cf       	rjmp	.-26     	; 0x5230 <_ZN7TwoWire5writeEPKhj+0x26>
    524a:	64 2f       	mov	r22, r20
    524c:	0e 94 b2 3e 	call	0x7d64	; 0x7d64 <twi_transmit>
    5250:	c8 01       	movw	r24, r16
    5252:	df 91       	pop	r29
    5254:	cf 91       	pop	r28
    5256:	1f 91       	pop	r17
    5258:	0f 91       	pop	r16
    525a:	ff 90       	pop	r15
    525c:	ef 90       	pop	r14
    525e:	df 90       	pop	r13
    5260:	cf 90       	pop	r12
    5262:	08 95       	ret

00005264 <_ZN7TwoWire5writeEh>:
    5264:	cf 93       	push	r28
    5266:	df 93       	push	r29
    5268:	1f 92       	push	r1
    526a:	cd b7       	in	r28, 0x3d	; 61
    526c:	de b7       	in	r29, 0x3e	; 62
    526e:	69 83       	std	Y+1, r22	; 0x01
    5270:	20 91 ec 11 	lds	r18, 0x11EC	; 0x8011ec <_ZN7TwoWire12transmittingE>
    5274:	22 23       	and	r18, r18
    5276:	d1 f0       	breq	.+52     	; 0x52ac <_ZN7TwoWire5writeEh+0x48>
    5278:	20 91 ed 11 	lds	r18, 0x11ED	; 0x8011ed <_ZN7TwoWire14txBufferLengthE>
    527c:	20 32       	cpi	r18, 0x20	; 32
    527e:	40 f0       	brcs	.+16     	; 0x5290 <_ZN7TwoWire5writeEh+0x2c>
    5280:	21 e0       	ldi	r18, 0x01	; 1
    5282:	30 e0       	ldi	r19, 0x00	; 0
    5284:	fc 01       	movw	r30, r24
    5286:	33 83       	std	Z+3, r19	; 0x03
    5288:	22 83       	std	Z+2, r18	; 0x02
    528a:	80 e0       	ldi	r24, 0x00	; 0
    528c:	90 e0       	ldi	r25, 0x00	; 0
    528e:	15 c0       	rjmp	.+42     	; 0x52ba <_ZN7TwoWire5writeEh+0x56>
    5290:	80 91 ee 11 	lds	r24, 0x11EE	; 0x8011ee <_ZN7TwoWire13txBufferIndexE>
    5294:	e8 2f       	mov	r30, r24
    5296:	f0 e0       	ldi	r31, 0x00	; 0
    5298:	e1 51       	subi	r30, 0x11	; 17
    529a:	fe 4e       	sbci	r31, 0xEE	; 238
    529c:	99 81       	ldd	r25, Y+1	; 0x01
    529e:	90 83       	st	Z, r25
    52a0:	8f 5f       	subi	r24, 0xFF	; 255
    52a2:	80 93 ee 11 	sts	0x11EE, r24	; 0x8011ee <_ZN7TwoWire13txBufferIndexE>
    52a6:	80 93 ed 11 	sts	0x11ED, r24	; 0x8011ed <_ZN7TwoWire14txBufferLengthE>
    52aa:	05 c0       	rjmp	.+10     	; 0x52b6 <_ZN7TwoWire5writeEh+0x52>
    52ac:	61 e0       	ldi	r22, 0x01	; 1
    52ae:	ce 01       	movw	r24, r28
    52b0:	01 96       	adiw	r24, 0x01	; 1
    52b2:	0e 94 b2 3e 	call	0x7d64	; 0x7d64 <twi_transmit>
    52b6:	81 e0       	ldi	r24, 0x01	; 1
    52b8:	90 e0       	ldi	r25, 0x00	; 0
    52ba:	0f 90       	pop	r0
    52bc:	df 91       	pop	r29
    52be:	cf 91       	pop	r28
    52c0:	08 95       	ret

000052c2 <_ZN7TwoWireC1Ev>:
    52c2:	fc 01       	movw	r30, r24
    52c4:	13 82       	std	Z+3, r1	; 0x03
    52c6:	12 82       	std	Z+2, r1	; 0x02
    52c8:	88 ee       	ldi	r24, 0xE8	; 232
    52ca:	93 e0       	ldi	r25, 0x03	; 3
    52cc:	a0 e0       	ldi	r26, 0x00	; 0
    52ce:	b0 e0       	ldi	r27, 0x00	; 0
    52d0:	84 83       	std	Z+4, r24	; 0x04
    52d2:	95 83       	std	Z+5, r25	; 0x05
    52d4:	a6 83       	std	Z+6, r26	; 0x06
    52d6:	b7 83       	std	Z+7, r27	; 0x07
    52d8:	8a ef       	ldi	r24, 0xFA	; 250
    52da:	96 e0       	ldi	r25, 0x06	; 6
    52dc:	91 83       	std	Z+1, r25	; 0x01
    52de:	80 83       	st	Z, r24
    52e0:	08 95       	ret

000052e2 <_ZN7TwoWire5beginEv>:
    52e2:	10 92 11 12 	sts	0x1211, r1	; 0x801211 <_ZN7TwoWire13rxBufferIndexE>
    52e6:	10 92 10 12 	sts	0x1210, r1	; 0x801210 <_ZN7TwoWire14rxBufferLengthE>
    52ea:	10 92 ee 11 	sts	0x11EE, r1	; 0x8011ee <_ZN7TwoWire13txBufferIndexE>
    52ee:	10 92 ed 11 	sts	0x11ED, r1	; 0x8011ed <_ZN7TwoWire14txBufferLengthE>
    52f2:	0e 94 f6 3d 	call	0x7bec	; 0x7bec <twi_init>
    52f6:	89 ef       	ldi	r24, 0xF9	; 249
    52f8:	98 e2       	ldi	r25, 0x28	; 40
    52fa:	0e 94 df 3e 	call	0x7dbe	; 0x7dbe <twi_attachSlaveTxEvent>
    52fe:	8f ec       	ldi	r24, 0xCF	; 207
    5300:	98 e2       	ldi	r25, 0x28	; 40
    5302:	0c 94 da 3e 	jmp	0x7db4	; 0x7db4 <twi_attachSlaveRxEvent>

00005306 <_ZN7TwoWire17beginTransmissionEh>:
    5306:	81 e0       	ldi	r24, 0x01	; 1
    5308:	80 93 ec 11 	sts	0x11EC, r24	; 0x8011ec <_ZN7TwoWire12transmittingE>
    530c:	60 93 0f 12 	sts	0x120F, r22	; 0x80120f <_ZN7TwoWire9txAddressE>
    5310:	10 92 ee 11 	sts	0x11EE, r1	; 0x8011ee <_ZN7TwoWire13txBufferIndexE>
    5314:	10 92 ed 11 	sts	0x11ED, r1	; 0x8011ed <_ZN7TwoWire14txBufferLengthE>
    5318:	08 95       	ret

0000531a <_ZN7TwoWire17beginTransmissionEi>:
    531a:	f5 cf       	rjmp	.-22     	; 0x5306 <_ZN7TwoWire17beginTransmissionEh>

0000531c <_ZN7TwoWire15endTransmissionEh>:
    531c:	0f 93       	push	r16
    531e:	06 2f       	mov	r16, r22
    5320:	21 e0       	ldi	r18, 0x01	; 1
    5322:	40 91 ed 11 	lds	r20, 0x11ED	; 0x8011ed <_ZN7TwoWire14txBufferLengthE>
    5326:	6f ee       	ldi	r22, 0xEF	; 239
    5328:	71 e1       	ldi	r23, 0x11	; 17
    532a:	80 91 0f 12 	lds	r24, 0x120F	; 0x80120f <_ZN7TwoWire9txAddressE>
    532e:	0e 94 5c 3e 	call	0x7cb8	; 0x7cb8 <twi_writeTo>
    5332:	10 92 ee 11 	sts	0x11EE, r1	; 0x8011ee <_ZN7TwoWire13txBufferIndexE>
    5336:	10 92 ed 11 	sts	0x11ED, r1	; 0x8011ed <_ZN7TwoWire14txBufferLengthE>
    533a:	10 92 ec 11 	sts	0x11EC, r1	; 0x8011ec <_ZN7TwoWire12transmittingE>
    533e:	0f 91       	pop	r16
    5340:	08 95       	ret

00005342 <_ZN7TwoWire11requestFromEhhmhh>:
    5342:	4f 92       	push	r4
    5344:	5f 92       	push	r5
    5346:	6f 92       	push	r6
    5348:	7f 92       	push	r7
    534a:	af 92       	push	r10
    534c:	bf 92       	push	r11
    534e:	cf 92       	push	r12
    5350:	ef 92       	push	r14
    5352:	ff 92       	push	r15
    5354:	0f 93       	push	r16
    5356:	1f 93       	push	r17
    5358:	cf 93       	push	r28
    535a:	df 93       	push	r29
    535c:	5c 01       	movw	r10, r24
    535e:	f6 2e       	mov	r15, r22
    5360:	d4 2f       	mov	r29, r20
    5362:	28 01       	movw	r4, r16
    5364:	39 01       	movw	r6, r18
    5366:	ee 20       	and	r14, r14
    5368:	11 f1       	breq	.+68     	; 0x53ae <_ZN7TwoWire11requestFromEhhmhh+0x6c>
    536a:	cd df       	rcall	.-102    	; 0x5306 <_ZN7TwoWire17beginTransmissionEh>
    536c:	ce 2d       	mov	r28, r14
    536e:	c4 30       	cpi	r28, 0x04	; 4
    5370:	08 f0       	brcs	.+2      	; 0x5374 <_ZN7TwoWire11requestFromEhhmhh+0x32>
    5372:	c3 e0       	ldi	r28, 0x03	; 3
    5374:	c1 50       	subi	r28, 0x01	; 1
    5376:	c0 f0       	brcs	.+48     	; 0x53a8 <_ZN7TwoWire11requestFromEhhmhh+0x66>
    5378:	28 e0       	ldi	r18, 0x08	; 8
    537a:	c2 9f       	mul	r28, r18
    537c:	c0 01       	movw	r24, r0
    537e:	11 24       	eor	r1, r1
    5380:	a3 01       	movw	r20, r6
    5382:	92 01       	movw	r18, r4
    5384:	04 c0       	rjmp	.+8      	; 0x538e <_ZN7TwoWire11requestFromEhhmhh+0x4c>
    5386:	56 95       	lsr	r21
    5388:	47 95       	ror	r20
    538a:	37 95       	ror	r19
    538c:	27 95       	ror	r18
    538e:	8a 95       	dec	r24
    5390:	d2 f7       	brpl	.-12     	; 0x5386 <_ZN7TwoWire11requestFromEhhmhh+0x44>
    5392:	ca 01       	movw	r24, r20
    5394:	b9 01       	movw	r22, r18
    5396:	d5 01       	movw	r26, r10
    5398:	ed 91       	ld	r30, X+
    539a:	fc 91       	ld	r31, X
    539c:	01 90       	ld	r0, Z+
    539e:	f0 81       	ld	r31, Z
    53a0:	e0 2d       	mov	r30, r0
    53a2:	c5 01       	movw	r24, r10
    53a4:	19 95       	eicall
    53a6:	e6 cf       	rjmp	.-52     	; 0x5374 <_ZN7TwoWire11requestFromEhhmhh+0x32>
    53a8:	60 e0       	ldi	r22, 0x00	; 0
    53aa:	c5 01       	movw	r24, r10
    53ac:	b7 df       	rcall	.-146    	; 0x531c <_ZN7TwoWire15endTransmissionEh>
    53ae:	4d 2f       	mov	r20, r29
    53b0:	d1 32       	cpi	r29, 0x21	; 33
    53b2:	08 f0       	brcs	.+2      	; 0x53b6 <_ZN7TwoWire11requestFromEhhmhh+0x74>
    53b4:	40 e2       	ldi	r20, 0x20	; 32
    53b6:	2c 2d       	mov	r18, r12
    53b8:	62 e1       	ldi	r22, 0x12	; 18
    53ba:	72 e1       	ldi	r23, 0x12	; 18
    53bc:	8f 2d       	mov	r24, r15
    53be:	0e 94 14 3e 	call	0x7c28	; 0x7c28 <twi_readFrom>
    53c2:	10 92 11 12 	sts	0x1211, r1	; 0x801211 <_ZN7TwoWire13rxBufferIndexE>
    53c6:	80 93 10 12 	sts	0x1210, r24	; 0x801210 <_ZN7TwoWire14rxBufferLengthE>
    53ca:	df 91       	pop	r29
    53cc:	cf 91       	pop	r28
    53ce:	1f 91       	pop	r17
    53d0:	0f 91       	pop	r16
    53d2:	ff 90       	pop	r15
    53d4:	ef 90       	pop	r14
    53d6:	cf 90       	pop	r12
    53d8:	bf 90       	pop	r11
    53da:	af 90       	pop	r10
    53dc:	7f 90       	pop	r7
    53de:	6f 90       	pop	r6
    53e0:	5f 90       	pop	r5
    53e2:	4f 90       	pop	r4
    53e4:	08 95       	ret

000053e6 <_ZN7TwoWire11requestFromEhhh>:
    53e6:	cf 92       	push	r12
    53e8:	ef 92       	push	r14
    53ea:	0f 93       	push	r16
    53ec:	1f 93       	push	r17
    53ee:	c2 2e       	mov	r12, r18
    53f0:	e1 2c       	mov	r14, r1
    53f2:	00 e0       	ldi	r16, 0x00	; 0
    53f4:	10 e0       	ldi	r17, 0x00	; 0
    53f6:	98 01       	movw	r18, r16
    53f8:	a4 df       	rcall	.-184    	; 0x5342 <_ZN7TwoWire11requestFromEhhmhh>
    53fa:	1f 91       	pop	r17
    53fc:	0f 91       	pop	r16
    53fe:	ef 90       	pop	r14
    5400:	cf 90       	pop	r12
    5402:	08 95       	ret

00005404 <_ZN7TwoWire11requestFromEhh>:
    5404:	21 e0       	ldi	r18, 0x01	; 1
    5406:	ef cf       	rjmp	.-34     	; 0x53e6 <_ZN7TwoWire11requestFromEhhh>

00005408 <_ZN7TwoWire11requestFromEii>:
    5408:	21 e0       	ldi	r18, 0x01	; 1
    540a:	ed cf       	rjmp	.-38     	; 0x53e6 <_ZN7TwoWire11requestFromEhhh>

0000540c <_ZN7TwoWire11requestFromEiii>:
    540c:	ec cf       	rjmp	.-40     	; 0x53e6 <_ZN7TwoWire11requestFromEhhh>

0000540e <_ZN7TwoWire15endTransmissionEv>:
    540e:	61 e0       	ldi	r22, 0x01	; 1
    5410:	85 cf       	rjmp	.-246    	; 0x531c <_ZN7TwoWire15endTransmissionEh>

00005412 <_GLOBAL__sub_I__ZN7TwoWire8rxBufferE>:
    5412:	8c ed       	ldi	r24, 0xDC	; 220
    5414:	91 e1       	ldi	r25, 0x11	; 17
    5416:	55 cf       	rjmp	.-342    	; 0x52c2 <_ZN7TwoWireC1Ev>

00005418 <_ZN13Adafruit_FONA9availableEv>:
    5418:	88 5e       	subi	r24, 0xE8	; 232
    541a:	9e 4f       	sbci	r25, 0xFE	; 254
    541c:	dc 01       	movw	r26, r24
    541e:	8d 91       	ld	r24, X+
    5420:	9c 91       	ld	r25, X
    5422:	dc 01       	movw	r26, r24
    5424:	ed 91       	ld	r30, X+
    5426:	fc 91       	ld	r31, X
    5428:	00 84       	ldd	r0, Z+8	; 0x08
    542a:	f1 85       	ldd	r31, Z+9	; 0x09
    542c:	e0 2d       	mov	r30, r0
    542e:	19 94       	eijmp

00005430 <_ZN13Adafruit_FONA5writeEh>:
    5430:	88 5e       	subi	r24, 0xE8	; 232
    5432:	9e 4f       	sbci	r25, 0xFE	; 254
    5434:	dc 01       	movw	r26, r24
    5436:	8d 91       	ld	r24, X+
    5438:	9c 91       	ld	r25, X
    543a:	dc 01       	movw	r26, r24
    543c:	ed 91       	ld	r30, X+
    543e:	fc 91       	ld	r31, X
    5440:	01 90       	ld	r0, Z+
    5442:	f0 81       	ld	r31, Z
    5444:	e0 2d       	mov	r30, r0
    5446:	19 94       	eijmp

00005448 <_ZN13Adafruit_FONA4readEv>:
    5448:	88 5e       	subi	r24, 0xE8	; 232
    544a:	9e 4f       	sbci	r25, 0xFE	; 254
    544c:	dc 01       	movw	r26, r24
    544e:	8d 91       	ld	r24, X+
    5450:	9c 91       	ld	r25, X
    5452:	dc 01       	movw	r26, r24
    5454:	ed 91       	ld	r30, X+
    5456:	fc 91       	ld	r31, X
    5458:	02 84       	ldd	r0, Z+10	; 0x0a
    545a:	f3 85       	ldd	r31, Z+11	; 0x0b
    545c:	e0 2d       	mov	r30, r0
    545e:	19 94       	eijmp

00005460 <_ZN13Adafruit_FONA4peekEv>:
    5460:	88 5e       	subi	r24, 0xE8	; 232
    5462:	9e 4f       	sbci	r25, 0xFE	; 254
    5464:	dc 01       	movw	r26, r24
    5466:	8d 91       	ld	r24, X+
    5468:	9c 91       	ld	r25, X
    546a:	dc 01       	movw	r26, r24
    546c:	ed 91       	ld	r30, X+
    546e:	fc 91       	ld	r31, X
    5470:	04 84       	ldd	r0, Z+12	; 0x0c
    5472:	f5 85       	ldd	r31, Z+13	; 0x0d
    5474:	e0 2d       	mov	r30, r0
    5476:	19 94       	eijmp

00005478 <_ZN13Adafruit_FONA5flushEv>:
    5478:	88 5e       	subi	r24, 0xE8	; 232
    547a:	9e 4f       	sbci	r25, 0xFE	; 254
    547c:	dc 01       	movw	r26, r24
    547e:	8d 91       	ld	r24, X+
    5480:	9c 91       	ld	r25, X
    5482:	dc 01       	movw	r26, r24
    5484:	ed 91       	ld	r30, X+
    5486:	fc 91       	ld	r31, X
    5488:	06 80       	ldd	r0, Z+6	; 0x06
    548a:	f7 81       	ldd	r31, Z+7	; 0x07
    548c:	e0 2d       	mov	r30, r0
    548e:	19 94       	eijmp

00005490 <_ZN13Adafruit_FONAC1Ea>:
    5490:	fc 01       	movw	r30, r24
    5492:	13 82       	std	Z+3, r1	; 0x03
    5494:	12 82       	std	Z+2, r1	; 0x02
    5496:	88 ee       	ldi	r24, 0xE8	; 232
    5498:	93 e0       	ldi	r25, 0x03	; 3
    549a:	a0 e0       	ldi	r26, 0x00	; 0
    549c:	b0 e0       	ldi	r27, 0x00	; 0
    549e:	84 83       	std	Z+4, r24	; 0x04
    54a0:	95 83       	std	Z+5, r25	; 0x05
    54a2:	a6 83       	std	Z+6, r26	; 0x06
    54a4:	b7 83       	std	Z+7, r27	; 0x07
    54a6:	83 e6       	ldi	r24, 0x63	; 99
    54a8:	97 e0       	ldi	r25, 0x07	; 7
    54aa:	91 83       	std	Z+1, r25	; 0x01
    54ac:	80 83       	st	Z, r24
    54ae:	64 87       	std	Z+12, r22	; 0x0c
    54b0:	df 01       	movw	r26, r30
    54b2:	a3 5f       	subi	r26, 0xF3	; 243
    54b4:	be 4f       	sbci	r27, 0xFE	; 254
    54b6:	87 e2       	ldi	r24, 0x27	; 39
    54b8:	94 e0       	ldi	r25, 0x04	; 4
    54ba:	11 96       	adiw	r26, 0x01	; 1
    54bc:	9c 93       	st	X, r25
    54be:	8e 93       	st	-X, r24
    54c0:	12 96       	adiw	r26, 0x02	; 2
    54c2:	11 96       	adiw	r26, 0x01	; 1
    54c4:	1c 92       	st	X, r1
    54c6:	1e 92       	st	-X, r1
    54c8:	12 96       	adiw	r26, 0x02	; 2
    54ca:	11 96       	adiw	r26, 0x01	; 1
    54cc:	1c 92       	st	X, r1
    54ce:	1e 92       	st	-X, r1
    54d0:	17 96       	adiw	r26, 0x07	; 7
    54d2:	11 96       	adiw	r26, 0x01	; 1
    54d4:	1c 92       	st	X, r1
    54d6:	1e 92       	st	-X, r1
    54d8:	15 97       	sbiw	r26, 0x05	; 5
    54da:	1c 92       	st	X, r1
    54dc:	11 96       	adiw	r26, 0x01	; 1
    54de:	82 e2       	ldi	r24, 0x22	; 34
    54e0:	94 e0       	ldi	r25, 0x04	; 4
    54e2:	8d 93       	st	X+, r24
    54e4:	9c 93       	st	X, r25
    54e6:	ea 5e       	subi	r30, 0xEA	; 234
    54e8:	fe 4f       	sbci	r31, 0xFE	; 254
    54ea:	8f e1       	ldi	r24, 0x1F	; 31
    54ec:	94 e0       	ldi	r25, 0x04	; 4
    54ee:	91 83       	std	Z+1, r25	; 0x01
    54f0:	80 83       	st	Z, r24
    54f2:	08 95       	ret

000054f4 <_ZN13Adafruit_FONA10flushInputEv>:
    54f4:	0f 93       	push	r16
    54f6:	1f 93       	push	r17
    54f8:	cf 93       	push	r28
    54fa:	df 93       	push	r29
    54fc:	ec 01       	movw	r28, r24
    54fe:	80 e0       	ldi	r24, 0x00	; 0
    5500:	90 e0       	ldi	r25, 0x00	; 0
    5502:	8c 01       	movw	r16, r24
    5504:	0f 5f       	subi	r16, 0xFF	; 255
    5506:	1f 4f       	sbci	r17, 0xFF	; 255
    5508:	88 97       	sbiw	r24, 0x28	; 40
    550a:	d8 f4       	brcc	.+54     	; 0x5542 <_ZN13Adafruit_FONA10flushInputEv+0x4e>
    550c:	e8 81       	ld	r30, Y
    550e:	f9 81       	ldd	r31, Y+1	; 0x01
    5510:	00 84       	ldd	r0, Z+8	; 0x08
    5512:	f1 85       	ldd	r31, Z+9	; 0x09
    5514:	e0 2d       	mov	r30, r0
    5516:	ce 01       	movw	r24, r28
    5518:	19 95       	eicall
    551a:	89 2b       	or	r24, r25
    551c:	51 f0       	breq	.+20     	; 0x5532 <_ZN13Adafruit_FONA10flushInputEv+0x3e>
    551e:	e8 81       	ld	r30, Y
    5520:	f9 81       	ldd	r31, Y+1	; 0x01
    5522:	02 84       	ldd	r0, Z+10	; 0x0a
    5524:	f3 85       	ldd	r31, Z+11	; 0x0b
    5526:	e0 2d       	mov	r30, r0
    5528:	ce 01       	movw	r24, r28
    552a:	19 95       	eicall
    552c:	00 e0       	ldi	r16, 0x00	; 0
    552e:	10 e0       	ldi	r17, 0x00	; 0
    5530:	ed cf       	rjmp	.-38     	; 0x550c <_ZN13Adafruit_FONA10flushInputEv+0x18>
    5532:	61 e0       	ldi	r22, 0x01	; 1
    5534:	70 e0       	ldi	r23, 0x00	; 0
    5536:	80 e0       	ldi	r24, 0x00	; 0
    5538:	90 e0       	ldi	r25, 0x00	; 0
    553a:	0e 94 12 19 	call	0x3224	; 0x3224 <delay>
    553e:	c8 01       	movw	r24, r16
    5540:	e0 cf       	rjmp	.-64     	; 0x5502 <_ZN13Adafruit_FONA10flushInputEv+0xe>
    5542:	df 91       	pop	r29
    5544:	cf 91       	pop	r28
    5546:	1f 91       	pop	r17
    5548:	0f 91       	pop	r16
    554a:	08 95       	ret

0000554c <_ZN13Adafruit_FONA7readRawEj>:
    554c:	af 92       	push	r10
    554e:	bf 92       	push	r11
    5550:	cf 92       	push	r12
    5552:	df 92       	push	r13
    5554:	ef 92       	push	r14
    5556:	ff 92       	push	r15
    5558:	0f 93       	push	r16
    555a:	1f 93       	push	r17
    555c:	cf 93       	push	r28
    555e:	df 93       	push	r29
    5560:	ec 01       	movw	r28, r24
    5562:	8b 01       	movw	r16, r22
    5564:	6c 01       	movw	r12, r24
    5566:	8e e0       	ldi	r24, 0x0E	; 14
    5568:	c8 0e       	add	r12, r24
    556a:	d1 1c       	adc	r13, r1
    556c:	e1 2c       	mov	r14, r1
    556e:	f1 2c       	mov	r15, r1
    5570:	5e 01       	movw	r10, r28
    5572:	a8 ee       	ldi	r26, 0xE8	; 232
    5574:	aa 1a       	sub	r10, r26
    5576:	ae ef       	ldi	r26, 0xFE	; 254
    5578:	ba 0a       	sbc	r11, r26
    557a:	0e 15       	cp	r16, r14
    557c:	1f 05       	cpc	r17, r15
    557e:	19 f1       	breq	.+70     	; 0x55c6 <_ZN13Adafruit_FONA7readRawEj+0x7a>
    5580:	be ef       	ldi	r27, 0xFE	; 254
    5582:	eb 16       	cp	r14, r27
    5584:	f1 04       	cpc	r15, r1
    5586:	e9 f0       	breq	.+58     	; 0x55c2 <_ZN13Adafruit_FONA7readRawEj+0x76>
    5588:	f5 01       	movw	r30, r10
    558a:	80 81       	ld	r24, Z
    558c:	91 81       	ldd	r25, Z+1	; 0x01
    558e:	dc 01       	movw	r26, r24
    5590:	ed 91       	ld	r30, X+
    5592:	fc 91       	ld	r31, X
    5594:	00 84       	ldd	r0, Z+8	; 0x08
    5596:	f1 85       	ldd	r31, Z+9	; 0x09
    5598:	e0 2d       	mov	r30, r0
    559a:	19 95       	eicall
    559c:	89 2b       	or	r24, r25
    559e:	69 f3       	breq	.-38     	; 0x557a <_ZN13Adafruit_FONA7readRawEj+0x2e>
    55a0:	f5 01       	movw	r30, r10
    55a2:	80 81       	ld	r24, Z
    55a4:	91 81       	ldd	r25, Z+1	; 0x01
    55a6:	dc 01       	movw	r26, r24
    55a8:	ed 91       	ld	r30, X+
    55aa:	fc 91       	ld	r31, X
    55ac:	02 84       	ldd	r0, Z+10	; 0x0a
    55ae:	f3 85       	ldd	r31, Z+11	; 0x0b
    55b0:	e0 2d       	mov	r30, r0
    55b2:	19 95       	eicall
    55b4:	f6 01       	movw	r30, r12
    55b6:	81 93       	st	Z+, r24
    55b8:	6f 01       	movw	r12, r30
    55ba:	ff ef       	ldi	r31, 0xFF	; 255
    55bc:	ef 1a       	sub	r14, r31
    55be:	ff 0a       	sbc	r15, r31
    55c0:	dc cf       	rjmp	.-72     	; 0x557a <_ZN13Adafruit_FONA7readRawEj+0x2e>
    55c2:	0e ef       	ldi	r16, 0xFE	; 254
    55c4:	10 e0       	ldi	r17, 0x00	; 0
    55c6:	c0 0f       	add	r28, r16
    55c8:	d1 1f       	adc	r29, r17
    55ca:	1e 86       	std	Y+14, r1	; 0x0e
    55cc:	c8 01       	movw	r24, r16
    55ce:	df 91       	pop	r29
    55d0:	cf 91       	pop	r28
    55d2:	1f 91       	pop	r17
    55d4:	0f 91       	pop	r16
    55d6:	ff 90       	pop	r15
    55d8:	ef 90       	pop	r14
    55da:	df 90       	pop	r13
    55dc:	cf 90       	pop	r12
    55de:	bf 90       	pop	r11
    55e0:	af 90       	pop	r10
    55e2:	08 95       	ret

000055e4 <_ZN13Adafruit_FONA8readlineEjb>:
    55e4:	bf 92       	push	r11
    55e6:	cf 92       	push	r12
    55e8:	df 92       	push	r13
    55ea:	ef 92       	push	r14
    55ec:	ff 92       	push	r15
    55ee:	0f 93       	push	r16
    55f0:	1f 93       	push	r17
    55f2:	cf 93       	push	r28
    55f4:	df 93       	push	r29
    55f6:	7c 01       	movw	r14, r24
    55f8:	b4 2e       	mov	r11, r20
    55fa:	8b 01       	movw	r16, r22
    55fc:	c0 e0       	ldi	r28, 0x00	; 0
    55fe:	d0 e0       	ldi	r29, 0x00	; 0
    5600:	6c 01       	movw	r12, r24
    5602:	88 ee       	ldi	r24, 0xE8	; 232
    5604:	c8 1a       	sub	r12, r24
    5606:	8e ef       	ldi	r24, 0xFE	; 254
    5608:	d8 0a       	sbc	r13, r24
    560a:	01 15       	cp	r16, r1
    560c:	11 05       	cpc	r17, r1
    560e:	89 f1       	breq	.+98     	; 0x5672 <_ZN13Adafruit_FONA8readlineEjb+0x8e>
    5610:	ce 3f       	cpi	r28, 0xFE	; 254
    5612:	d1 05       	cpc	r29, r1
    5614:	70 f5       	brcc	.+92     	; 0x5672 <_ZN13Adafruit_FONA8readlineEjb+0x8e>
    5616:	d6 01       	movw	r26, r12
    5618:	8d 91       	ld	r24, X+
    561a:	9c 91       	ld	r25, X
    561c:	dc 01       	movw	r26, r24
    561e:	ed 91       	ld	r30, X+
    5620:	fc 91       	ld	r31, X
    5622:	00 84       	ldd	r0, Z+8	; 0x08
    5624:	f1 85       	ldd	r31, Z+9	; 0x09
    5626:	e0 2d       	mov	r30, r0
    5628:	19 95       	eicall
    562a:	89 2b       	or	r24, r25
    562c:	c1 f0       	breq	.+48     	; 0x565e <_ZN13Adafruit_FONA8readlineEjb+0x7a>
    562e:	f6 01       	movw	r30, r12
    5630:	80 81       	ld	r24, Z
    5632:	91 81       	ldd	r25, Z+1	; 0x01
    5634:	dc 01       	movw	r26, r24
    5636:	ed 91       	ld	r30, X+
    5638:	fc 91       	ld	r31, X
    563a:	02 84       	ldd	r0, Z+10	; 0x0a
    563c:	f3 85       	ldd	r31, Z+11	; 0x0b
    563e:	e0 2d       	mov	r30, r0
    5640:	19 95       	eicall
    5642:	8d 30       	cpi	r24, 0x0D	; 13
    5644:	41 f3       	breq	.-48     	; 0x5616 <_ZN13Adafruit_FONA8readlineEjb+0x32>
    5646:	8a 30       	cpi	r24, 0x0A	; 10
    5648:	21 f4       	brne	.+8      	; 0x5652 <_ZN13Adafruit_FONA8readlineEjb+0x6e>
    564a:	20 97       	sbiw	r28, 0x00	; 0
    564c:	21 f3       	breq	.-56     	; 0x5616 <_ZN13Adafruit_FONA8readlineEjb+0x32>
    564e:	bb 20       	and	r11, r11
    5650:	81 f0       	breq	.+32     	; 0x5672 <_ZN13Adafruit_FONA8readlineEjb+0x8e>
    5652:	f7 01       	movw	r30, r14
    5654:	ec 0f       	add	r30, r28
    5656:	fd 1f       	adc	r31, r29
    5658:	86 87       	std	Z+14, r24	; 0x0e
    565a:	21 96       	adiw	r28, 0x01	; 1
    565c:	dc cf       	rjmp	.-72     	; 0x5616 <_ZN13Adafruit_FONA8readlineEjb+0x32>
    565e:	01 50       	subi	r16, 0x01	; 1
    5660:	11 09       	sbc	r17, r1
    5662:	39 f0       	breq	.+14     	; 0x5672 <_ZN13Adafruit_FONA8readlineEjb+0x8e>
    5664:	61 e0       	ldi	r22, 0x01	; 1
    5666:	70 e0       	ldi	r23, 0x00	; 0
    5668:	80 e0       	ldi	r24, 0x00	; 0
    566a:	90 e0       	ldi	r25, 0x00	; 0
    566c:	0e 94 12 19 	call	0x3224	; 0x3224 <delay>
    5670:	cc cf       	rjmp	.-104    	; 0x560a <_ZN13Adafruit_FONA8readlineEjb+0x26>
    5672:	f7 01       	movw	r30, r14
    5674:	ec 0f       	add	r30, r28
    5676:	fd 1f       	adc	r31, r29
    5678:	16 86       	std	Z+14, r1	; 0x0e
    567a:	8c 2f       	mov	r24, r28
    567c:	df 91       	pop	r29
    567e:	cf 91       	pop	r28
    5680:	1f 91       	pop	r17
    5682:	0f 91       	pop	r16
    5684:	ff 90       	pop	r15
    5686:	ef 90       	pop	r14
    5688:	df 90       	pop	r13
    568a:	cf 90       	pop	r12
    568c:	bf 90       	pop	r11
    568e:	08 95       	ret

00005690 <_ZN13Adafruit_FONA8getReplyEPcj>:
    5690:	ef 92       	push	r14
    5692:	ff 92       	push	r15
    5694:	0f 93       	push	r16
    5696:	1f 93       	push	r17
    5698:	cf 93       	push	r28
    569a:	df 93       	push	r29
    569c:	ec 01       	movw	r28, r24
    569e:	8b 01       	movw	r16, r22
    56a0:	7a 01       	movw	r14, r20
    56a2:	28 df       	rcall	.-432    	; 0x54f4 <_ZN13Adafruit_FONA10flushInputEv>
    56a4:	6f ea       	ldi	r22, 0xAF	; 175
    56a6:	72 e0       	ldi	r23, 0x02	; 2
    56a8:	82 e5       	ldi	r24, 0x52	; 82
    56aa:	9e e0       	ldi	r25, 0x0E	; 14
    56ac:	0e 94 30 16 	call	0x2c60	; 0x2c60 <_ZN5Print5printEPK19__FlashStringHelper>
    56b0:	b8 01       	movw	r22, r16
    56b2:	82 e5       	ldi	r24, 0x52	; 82
    56b4:	9e e0       	ldi	r25, 0x0E	; 14
    56b6:	0e 94 8d 16 	call	0x2d1a	; 0x2d1a <_ZN5Print7printlnEPKc>
    56ba:	fe 01       	movw	r30, r28
    56bc:	e8 5e       	subi	r30, 0xE8	; 232
    56be:	fe 4f       	sbci	r31, 0xFE	; 254
    56c0:	b8 01       	movw	r22, r16
    56c2:	80 81       	ld	r24, Z
    56c4:	91 81       	ldd	r25, Z+1	; 0x01
    56c6:	0e 94 8d 16 	call	0x2d1a	; 0x2d1a <_ZN5Print7printlnEPKc>
    56ca:	40 e0       	ldi	r20, 0x00	; 0
    56cc:	b7 01       	movw	r22, r14
    56ce:	ce 01       	movw	r24, r28
    56d0:	89 df       	rcall	.-238    	; 0x55e4 <_ZN13Adafruit_FONA8readlineEjb>
    56d2:	18 2f       	mov	r17, r24
    56d4:	68 ea       	ldi	r22, 0xA8	; 168
    56d6:	72 e0       	ldi	r23, 0x02	; 2
    56d8:	82 e5       	ldi	r24, 0x52	; 82
    56da:	9e e0       	ldi	r25, 0x0E	; 14
    56dc:	0e 94 30 16 	call	0x2c60	; 0x2c60 <_ZN5Print5printEPK19__FlashStringHelper>
    56e0:	be 01       	movw	r22, r28
    56e2:	62 5f       	subi	r22, 0xF2	; 242
    56e4:	7f 4f       	sbci	r23, 0xFF	; 255
    56e6:	82 e5       	ldi	r24, 0x52	; 82
    56e8:	9e e0       	ldi	r25, 0x0E	; 14
    56ea:	0e 94 8d 16 	call	0x2d1a	; 0x2d1a <_ZN5Print7printlnEPKc>
    56ee:	81 2f       	mov	r24, r17
    56f0:	df 91       	pop	r29
    56f2:	cf 91       	pop	r28
    56f4:	1f 91       	pop	r17
    56f6:	0f 91       	pop	r16
    56f8:	ff 90       	pop	r15
    56fa:	ef 90       	pop	r14
    56fc:	08 95       	ret

000056fe <_ZN13Adafruit_FONA8getReplyEPK19__FlashStringHelperj>:
    56fe:	ef 92       	push	r14
    5700:	ff 92       	push	r15
    5702:	0f 93       	push	r16
    5704:	1f 93       	push	r17
    5706:	cf 93       	push	r28
    5708:	df 93       	push	r29
    570a:	ec 01       	movw	r28, r24
    570c:	8b 01       	movw	r16, r22
    570e:	7a 01       	movw	r14, r20
    5710:	f1 de       	rcall	.-542    	; 0x54f4 <_ZN13Adafruit_FONA10flushInputEv>
    5712:	61 ea       	ldi	r22, 0xA1	; 161
    5714:	72 e0       	ldi	r23, 0x02	; 2
    5716:	82 e5       	ldi	r24, 0x52	; 82
    5718:	9e e0       	ldi	r25, 0x0E	; 14
    571a:	0e 94 30 16 	call	0x2c60	; 0x2c60 <_ZN5Print5printEPK19__FlashStringHelper>
    571e:	b8 01       	movw	r22, r16
    5720:	82 e5       	ldi	r24, 0x52	; 82
    5722:	9e e0       	ldi	r25, 0x0E	; 14
    5724:	0e 94 6d 16 	call	0x2cda	; 0x2cda <_ZN5Print7printlnEPK19__FlashStringHelper>
    5728:	fe 01       	movw	r30, r28
    572a:	e8 5e       	subi	r30, 0xE8	; 232
    572c:	fe 4f       	sbci	r31, 0xFE	; 254
    572e:	b8 01       	movw	r22, r16
    5730:	80 81       	ld	r24, Z
    5732:	91 81       	ldd	r25, Z+1	; 0x01
    5734:	0e 94 6d 16 	call	0x2cda	; 0x2cda <_ZN5Print7printlnEPK19__FlashStringHelper>
    5738:	40 e0       	ldi	r20, 0x00	; 0
    573a:	b7 01       	movw	r22, r14
    573c:	ce 01       	movw	r24, r28
    573e:	52 df       	rcall	.-348    	; 0x55e4 <_ZN13Adafruit_FONA8readlineEjb>
    5740:	18 2f       	mov	r17, r24
    5742:	6a e9       	ldi	r22, 0x9A	; 154
    5744:	72 e0       	ldi	r23, 0x02	; 2
    5746:	82 e5       	ldi	r24, 0x52	; 82
    5748:	9e e0       	ldi	r25, 0x0E	; 14
    574a:	0e 94 30 16 	call	0x2c60	; 0x2c60 <_ZN5Print5printEPK19__FlashStringHelper>
    574e:	be 01       	movw	r22, r28
    5750:	62 5f       	subi	r22, 0xF2	; 242
    5752:	7f 4f       	sbci	r23, 0xFF	; 255
    5754:	82 e5       	ldi	r24, 0x52	; 82
    5756:	9e e0       	ldi	r25, 0x0E	; 14
    5758:	0e 94 8d 16 	call	0x2d1a	; 0x2d1a <_ZN5Print7printlnEPKc>
    575c:	81 2f       	mov	r24, r17
    575e:	df 91       	pop	r29
    5760:	cf 91       	pop	r28
    5762:	1f 91       	pop	r17
    5764:	0f 91       	pop	r16
    5766:	ff 90       	pop	r15
    5768:	ef 90       	pop	r14
    576a:	08 95       	ret

0000576c <_ZN13Adafruit_FONA14sendCheckReplyEPK19__FlashStringHelperS2_j>:
    576c:	0f 93       	push	r16
    576e:	1f 93       	push	r17
    5770:	cf 93       	push	r28
    5772:	df 93       	push	r29
    5774:	ec 01       	movw	r28, r24
    5776:	8a 01       	movw	r16, r20
    5778:	a9 01       	movw	r20, r18
    577a:	c1 df       	rcall	.-126    	; 0x56fe <_ZN13Adafruit_FONA8getReplyEPK19__FlashStringHelperj>
    577c:	88 23       	and	r24, r24
    577e:	41 f0       	breq	.+16     	; 0x5790 <_ZN13Adafruit_FONA14sendCheckReplyEPK19__FlashStringHelperS2_j+0x24>
    5780:	b8 01       	movw	r22, r16
    5782:	ce 01       	movw	r24, r28
    5784:	0e 96       	adiw	r24, 0x0e	; 14
    5786:	0e 94 2f 43 	call	0x865e	; 0x865e <strcmp_P>
    578a:	21 e0       	ldi	r18, 0x01	; 1
    578c:	89 2b       	or	r24, r25
    578e:	09 f0       	breq	.+2      	; 0x5792 <_ZN13Adafruit_FONA14sendCheckReplyEPK19__FlashStringHelperS2_j+0x26>
    5790:	20 e0       	ldi	r18, 0x00	; 0
    5792:	82 2f       	mov	r24, r18
    5794:	df 91       	pop	r29
    5796:	cf 91       	pop	r28
    5798:	1f 91       	pop	r17
    579a:	0f 91       	pop	r16
    579c:	08 95       	ret

0000579e <_ZN13Adafruit_FONA5beginER6Stream>:
    579e:	bf 92       	push	r11
    57a0:	cf 92       	push	r12
    57a2:	df 92       	push	r13
    57a4:	ef 92       	push	r14
    57a6:	ff 92       	push	r15
    57a8:	0f 93       	push	r16
    57aa:	1f 93       	push	r17
    57ac:	cf 93       	push	r28
    57ae:	df 93       	push	r29
    57b0:	ec 01       	movw	r28, r24
    57b2:	6c 01       	movw	r12, r24
    57b4:	88 ee       	ldi	r24, 0xE8	; 232
    57b6:	c8 1a       	sub	r12, r24
    57b8:	8e ef       	ldi	r24, 0xFE	; 254
    57ba:	d8 0a       	sbc	r13, r24
    57bc:	d6 01       	movw	r26, r12
    57be:	6d 93       	st	X+, r22
    57c0:	7c 93       	st	X, r23
    57c2:	61 e0       	ldi	r22, 0x01	; 1
    57c4:	8c 85       	ldd	r24, Y+12	; 0x0c
    57c6:	0e 94 34 1a 	call	0x3468	; 0x3468 <pinMode>
    57ca:	61 e0       	ldi	r22, 0x01	; 1
    57cc:	8c 85       	ldd	r24, Y+12	; 0x0c
    57ce:	0e 94 70 1a 	call	0x34e0	; 0x34e0 <digitalWrite>
    57d2:	6a e0       	ldi	r22, 0x0A	; 10
    57d4:	70 e0       	ldi	r23, 0x00	; 0
    57d6:	80 e0       	ldi	r24, 0x00	; 0
    57d8:	90 e0       	ldi	r25, 0x00	; 0
    57da:	0e 94 12 19 	call	0x3224	; 0x3224 <delay>
    57de:	60 e0       	ldi	r22, 0x00	; 0
    57e0:	8c 85       	ldd	r24, Y+12	; 0x0c
    57e2:	0e 94 70 1a 	call	0x34e0	; 0x34e0 <digitalWrite>
    57e6:	64 e6       	ldi	r22, 0x64	; 100
    57e8:	70 e0       	ldi	r23, 0x00	; 0
    57ea:	80 e0       	ldi	r24, 0x00	; 0
    57ec:	90 e0       	ldi	r25, 0x00	; 0
    57ee:	0e 94 12 19 	call	0x3224	; 0x3224 <delay>
    57f2:	61 e0       	ldi	r22, 0x01	; 1
    57f4:	8c 85       	ldd	r24, Y+12	; 0x0c
    57f6:	0e 94 70 1a 	call	0x34e0	; 0x34e0 <digitalWrite>
    57fa:	6e ef       	ldi	r22, 0xFE	; 254
    57fc:	73 e0       	ldi	r23, 0x03	; 3
    57fe:	82 e5       	ldi	r24, 0x52	; 82
    5800:	9e e0       	ldi	r25, 0x0E	; 14
    5802:	0e 94 6d 16 	call	0x2cda	; 0x2cda <_ZN5Print7printlnEPK19__FlashStringHelper>
    5806:	8e e0       	ldi	r24, 0x0E	; 14
    5808:	e8 2e       	mov	r14, r24
    580a:	f1 2c       	mov	r15, r1
    580c:	8e 01       	movw	r16, r28
    580e:	0a 5e       	subi	r16, 0xEA	; 234
    5810:	1e 4f       	sbci	r17, 0xFE	; 254
    5812:	f6 01       	movw	r30, r12
    5814:	80 81       	ld	r24, Z
    5816:	91 81       	ldd	r25, Z+1	; 0x01
    5818:	dc 01       	movw	r26, r24
    581a:	ed 91       	ld	r30, X+
    581c:	fc 91       	ld	r31, X
    581e:	00 84       	ldd	r0, Z+8	; 0x08
    5820:	f1 85       	ldd	r31, Z+9	; 0x09
    5822:	e0 2d       	mov	r30, r0
    5824:	19 95       	eicall
    5826:	89 2b       	or	r24, r25
    5828:	59 f0       	breq	.+22     	; 0x5840 <_ZN13Adafruit_FONA5beginER6Stream+0xa2>
    582a:	f6 01       	movw	r30, r12
    582c:	80 81       	ld	r24, Z
    582e:	91 81       	ldd	r25, Z+1	; 0x01
    5830:	dc 01       	movw	r26, r24
    5832:	ed 91       	ld	r30, X+
    5834:	fc 91       	ld	r31, X
    5836:	02 84       	ldd	r0, Z+10	; 0x0a
    5838:	f3 85       	ldd	r31, Z+11	; 0x0b
    583a:	e0 2d       	mov	r30, r0
    583c:	19 95       	eicall
    583e:	e9 cf       	rjmp	.-46     	; 0x5812 <_ZN13Adafruit_FONA5beginER6Stream+0x74>
    5840:	f8 01       	movw	r30, r16
    5842:	40 81       	ld	r20, Z
    5844:	51 81       	ldd	r21, Z+1	; 0x01
    5846:	24 ef       	ldi	r18, 0xF4	; 244
    5848:	31 e0       	ldi	r19, 0x01	; 1
    584a:	6b ef       	ldi	r22, 0xFB	; 251
    584c:	73 e0       	ldi	r23, 0x03	; 3
    584e:	ce 01       	movw	r24, r28
    5850:	8d df       	rcall	.-230    	; 0x576c <_ZN13Adafruit_FONA14sendCheckReplyEPK19__FlashStringHelperS2_j>
    5852:	81 11       	cpse	r24, r1
    5854:	5f c0       	rjmp	.+190    	; 0x5914 <_ZN13Adafruit_FONA5beginER6Stream+0x176>
    5856:	d6 01       	movw	r26, r12
    5858:	8d 91       	ld	r24, X+
    585a:	9c 91       	ld	r25, X
    585c:	dc 01       	movw	r26, r24
    585e:	ed 91       	ld	r30, X+
    5860:	fc 91       	ld	r31, X
    5862:	00 84       	ldd	r0, Z+8	; 0x08
    5864:	f1 85       	ldd	r31, Z+9	; 0x09
    5866:	e0 2d       	mov	r30, r0
    5868:	19 95       	eicall
    586a:	89 2b       	or	r24, r25
    586c:	59 f0       	breq	.+22     	; 0x5884 <_ZN13Adafruit_FONA5beginER6Stream+0xe6>
    586e:	f6 01       	movw	r30, r12
    5870:	80 81       	ld	r24, Z
    5872:	91 81       	ldd	r25, Z+1	; 0x01
    5874:	dc 01       	movw	r26, r24
    5876:	ed 91       	ld	r30, X+
    5878:	fc 91       	ld	r31, X
    587a:	02 84       	ldd	r0, Z+10	; 0x0a
    587c:	f3 85       	ldd	r31, Z+11	; 0x0b
    587e:	e0 2d       	mov	r30, r0
    5880:	19 95       	eicall
    5882:	e9 cf       	rjmp	.-46     	; 0x5856 <_ZN13Adafruit_FONA5beginER6Stream+0xb8>
    5884:	24 ef       	ldi	r18, 0xF4	; 244
    5886:	31 e0       	ldi	r19, 0x01	; 1
    5888:	48 ef       	ldi	r20, 0xF8	; 248
    588a:	53 e0       	ldi	r21, 0x03	; 3
    588c:	65 ef       	ldi	r22, 0xF5	; 245
    588e:	73 e0       	ldi	r23, 0x03	; 3
    5890:	ce 01       	movw	r24, r28
    5892:	6c df       	rcall	.-296    	; 0x576c <_ZN13Adafruit_FONA14sendCheckReplyEPK19__FlashStringHelperS2_j>
    5894:	81 11       	cpse	r24, r1
    5896:	3e c0       	rjmp	.+124    	; 0x5914 <_ZN13Adafruit_FONA5beginER6Stream+0x176>
    5898:	64 ef       	ldi	r22, 0xF4	; 244
    589a:	71 e0       	ldi	r23, 0x01	; 1
    589c:	80 e0       	ldi	r24, 0x00	; 0
    589e:	90 e0       	ldi	r25, 0x00	; 0
    58a0:	0e 94 12 19 	call	0x3224	; 0x3224 <delay>
    58a4:	b1 e0       	ldi	r27, 0x01	; 1
    58a6:	eb 1a       	sub	r14, r27
    58a8:	f1 08       	sbc	r15, r1
    58aa:	09 f0       	breq	.+2      	; 0x58ae <_ZN13Adafruit_FONA5beginER6Stream+0x110>
    58ac:	b2 cf       	rjmp	.-156    	; 0x5812 <_ZN13Adafruit_FONA5beginER6Stream+0x74>
    58ae:	63 ec       	ldi	r22, 0xC3	; 195
    58b0:	73 e0       	ldi	r23, 0x03	; 3
    58b2:	82 e5       	ldi	r24, 0x52	; 82
    58b4:	9e e0       	ldi	r25, 0x0E	; 14
    58b6:	0e 94 6d 16 	call	0x2cda	; 0x2cda <_ZN5Print7printlnEPK19__FlashStringHelper>
    58ba:	f8 01       	movw	r30, r16
    58bc:	40 81       	ld	r20, Z
    58be:	51 81       	ldd	r21, Z+1	; 0x01
    58c0:	24 ef       	ldi	r18, 0xF4	; 244
    58c2:	31 e0       	ldi	r19, 0x01	; 1
    58c4:	60 ec       	ldi	r22, 0xC0	; 192
    58c6:	73 e0       	ldi	r23, 0x03	; 3
    58c8:	ce 01       	movw	r24, r28
    58ca:	50 df       	rcall	.-352    	; 0x576c <_ZN13Adafruit_FONA14sendCheckReplyEPK19__FlashStringHelperS2_j>
    58cc:	64 e6       	ldi	r22, 0x64	; 100
    58ce:	70 e0       	ldi	r23, 0x00	; 0
    58d0:	80 e0       	ldi	r24, 0x00	; 0
    58d2:	90 e0       	ldi	r25, 0x00	; 0
    58d4:	0e 94 12 19 	call	0x3224	; 0x3224 <delay>
    58d8:	d8 01       	movw	r26, r16
    58da:	4d 91       	ld	r20, X+
    58dc:	5c 91       	ld	r21, X
    58de:	24 ef       	ldi	r18, 0xF4	; 244
    58e0:	31 e0       	ldi	r19, 0x01	; 1
    58e2:	6d eb       	ldi	r22, 0xBD	; 189
    58e4:	73 e0       	ldi	r23, 0x03	; 3
    58e6:	ce 01       	movw	r24, r28
    58e8:	41 df       	rcall	.-382    	; 0x576c <_ZN13Adafruit_FONA14sendCheckReplyEPK19__FlashStringHelperS2_j>
    58ea:	64 e6       	ldi	r22, 0x64	; 100
    58ec:	70 e0       	ldi	r23, 0x00	; 0
    58ee:	80 e0       	ldi	r24, 0x00	; 0
    58f0:	90 e0       	ldi	r25, 0x00	; 0
    58f2:	0e 94 12 19 	call	0x3224	; 0x3224 <delay>
    58f6:	f8 01       	movw	r30, r16
    58f8:	40 81       	ld	r20, Z
    58fa:	51 81       	ldd	r21, Z+1	; 0x01
    58fc:	24 ef       	ldi	r18, 0xF4	; 244
    58fe:	31 e0       	ldi	r19, 0x01	; 1
    5900:	6a eb       	ldi	r22, 0xBA	; 186
    5902:	73 e0       	ldi	r23, 0x03	; 3
    5904:	ce 01       	movw	r24, r28
    5906:	32 df       	rcall	.-412    	; 0x576c <_ZN13Adafruit_FONA14sendCheckReplyEPK19__FlashStringHelperS2_j>
    5908:	64 e6       	ldi	r22, 0x64	; 100
    590a:	70 e0       	ldi	r23, 0x00	; 0
    590c:	80 e0       	ldi	r24, 0x00	; 0
    590e:	90 e0       	ldi	r25, 0x00	; 0
    5910:	0e 94 12 19 	call	0x3224	; 0x3224 <delay>
    5914:	f8 01       	movw	r30, r16
    5916:	40 81       	ld	r20, Z
    5918:	51 81       	ldd	r21, Z+1	; 0x01
    591a:	24 ef       	ldi	r18, 0xF4	; 244
    591c:	31 e0       	ldi	r19, 0x01	; 1
    591e:	65 eb       	ldi	r22, 0xB5	; 181
    5920:	73 e0       	ldi	r23, 0x03	; 3
    5922:	ce 01       	movw	r24, r28
    5924:	23 df       	rcall	.-442    	; 0x576c <_ZN13Adafruit_FONA14sendCheckReplyEPK19__FlashStringHelperS2_j>
    5926:	64 e6       	ldi	r22, 0x64	; 100
    5928:	70 e0       	ldi	r23, 0x00	; 0
    592a:	80 e0       	ldi	r24, 0x00	; 0
    592c:	90 e0       	ldi	r25, 0x00	; 0
    592e:	0e 94 12 19 	call	0x3224	; 0x3224 <delay>
    5932:	d8 01       	movw	r26, r16
    5934:	4d 91       	ld	r20, X+
    5936:	5c 91       	ld	r21, X
    5938:	24 ef       	ldi	r18, 0xF4	; 244
    593a:	31 e0       	ldi	r19, 0x01	; 1
    593c:	60 eb       	ldi	r22, 0xB0	; 176
    593e:	73 e0       	ldi	r23, 0x03	; 3
    5940:	ce 01       	movw	r24, r28
    5942:	14 df       	rcall	.-472    	; 0x576c <_ZN13Adafruit_FONA14sendCheckReplyEPK19__FlashStringHelperS2_j>
    5944:	b8 2e       	mov	r11, r24
    5946:	88 23       	and	r24, r24
    5948:	09 f4       	brne	.+2      	; 0x594c <_ZN13Adafruit_FONA5beginER6Stream+0x1ae>
    594a:	9d c0       	rjmp	.+314    	; 0x5a86 <_ZN13Adafruit_FONA5beginER6Stream+0x2e8>
    594c:	f8 01       	movw	r30, r16
    594e:	40 81       	ld	r20, Z
    5950:	51 81       	ldd	r21, Z+1	; 0x01
    5952:	24 ef       	ldi	r18, 0xF4	; 244
    5954:	31 e0       	ldi	r19, 0x01	; 1
    5956:	66 ea       	ldi	r22, 0xA6	; 166
    5958:	73 e0       	ldi	r23, 0x03	; 3
    595a:	ce 01       	movw	r24, r28
    595c:	07 df       	rcall	.-498    	; 0x576c <_ZN13Adafruit_FONA14sendCheckReplyEPK19__FlashStringHelperS2_j>
    595e:	64 e6       	ldi	r22, 0x64	; 100
    5960:	70 e0       	ldi	r23, 0x00	; 0
    5962:	80 e0       	ldi	r24, 0x00	; 0
    5964:	90 e0       	ldi	r25, 0x00	; 0
    5966:	0e 94 12 19 	call	0x3224	; 0x3224 <delay>
    596a:	ce 01       	movw	r24, r28
    596c:	c3 dd       	rcall	.-1146   	; 0x54f4 <_ZN13Adafruit_FONA10flushInputEv>
    596e:	6f e9       	ldi	r22, 0x9F	; 159
    5970:	73 e0       	ldi	r23, 0x03	; 3
    5972:	82 e5       	ldi	r24, 0x52	; 82
    5974:	9e e0       	ldi	r25, 0x0E	; 14
    5976:	0e 94 30 16 	call	0x2c60	; 0x2c60 <_ZN5Print5printEPK19__FlashStringHelper>
    597a:	6a e1       	ldi	r22, 0x1A	; 26
    597c:	77 e0       	ldi	r23, 0x07	; 7
    597e:	82 e5       	ldi	r24, 0x52	; 82
    5980:	9e e0       	ldi	r25, 0x0E	; 14
    5982:	0e 94 8d 16 	call	0x2d1a	; 0x2d1a <_ZN5Print7printlnEPKc>
    5986:	6a e1       	ldi	r22, 0x1A	; 26
    5988:	77 e0       	ldi	r23, 0x07	; 7
    598a:	d6 01       	movw	r26, r12
    598c:	8d 91       	ld	r24, X+
    598e:	9c 91       	ld	r25, X
    5990:	0e 94 8d 16 	call	0x2d1a	; 0x2d1a <_ZN5Print7printlnEPKc>
    5994:	41 e0       	ldi	r20, 0x01	; 1
    5996:	64 ef       	ldi	r22, 0xF4	; 244
    5998:	71 e0       	ldi	r23, 0x01	; 1
    599a:	ce 01       	movw	r24, r28
    599c:	23 de       	rcall	.-954    	; 0x55e4 <_ZN13Adafruit_FONA8readlineEjb>
    599e:	68 e9       	ldi	r22, 0x98	; 152
    59a0:	73 e0       	ldi	r23, 0x03	; 3
    59a2:	82 e5       	ldi	r24, 0x52	; 82
    59a4:	9e e0       	ldi	r25, 0x0E	; 14
    59a6:	0e 94 30 16 	call	0x2c60	; 0x2c60 <_ZN5Print5printEPK19__FlashStringHelper>
    59aa:	7e 01       	movw	r14, r28
    59ac:	be e0       	ldi	r27, 0x0E	; 14
    59ae:	eb 0e       	add	r14, r27
    59b0:	f1 1c       	adc	r15, r1
    59b2:	b7 01       	movw	r22, r14
    59b4:	82 e5       	ldi	r24, 0x52	; 82
    59b6:	9e e0       	ldi	r25, 0x0E	; 14
    59b8:	0e 94 8d 16 	call	0x2d1a	; 0x2d1a <_ZN5Print7printlnEPKc>
    59bc:	6d e8       	ldi	r22, 0x8D	; 141
    59be:	73 e0       	ldi	r23, 0x03	; 3
    59c0:	c7 01       	movw	r24, r14
    59c2:	0e 94 41 43 	call	0x8682	; 0x8682 <strstr_P>
    59c6:	89 2b       	or	r24, r25
    59c8:	11 f0       	breq	.+4      	; 0x59ce <_ZN13Adafruit_FONA5beginER6Stream+0x230>
    59ca:	83 e0       	ldi	r24, 0x03	; 3
    59cc:	23 c0       	rjmp	.+70     	; 0x5a14 <_ZN13Adafruit_FONA5beginER6Stream+0x276>
    59ce:	62 e8       	ldi	r22, 0x82	; 130
    59d0:	73 e0       	ldi	r23, 0x03	; 3
    59d2:	c7 01       	movw	r24, r14
    59d4:	0e 94 41 43 	call	0x8682	; 0x8682 <strstr_P>
    59d8:	89 2b       	or	r24, r25
    59da:	11 f0       	breq	.+4      	; 0x59e0 <_ZN13Adafruit_FONA5beginER6Stream+0x242>
    59dc:	82 e0       	ldi	r24, 0x02	; 2
    59de:	1a c0       	rjmp	.+52     	; 0x5a14 <_ZN13Adafruit_FONA5beginER6Stream+0x276>
    59e0:	67 e7       	ldi	r22, 0x77	; 119
    59e2:	73 e0       	ldi	r23, 0x03	; 3
    59e4:	c7 01       	movw	r24, r14
    59e6:	0e 94 41 43 	call	0x8682	; 0x8682 <strstr_P>
    59ea:	89 2b       	or	r24, r25
    59ec:	11 f0       	breq	.+4      	; 0x59f2 <_ZN13Adafruit_FONA5beginER6Stream+0x254>
    59ee:	81 e0       	ldi	r24, 0x01	; 1
    59f0:	11 c0       	rjmp	.+34     	; 0x5a14 <_ZN13Adafruit_FONA5beginER6Stream+0x276>
    59f2:	67 e6       	ldi	r22, 0x67	; 103
    59f4:	73 e0       	ldi	r23, 0x03	; 3
    59f6:	c7 01       	movw	r24, r14
    59f8:	0e 94 41 43 	call	0x8682	; 0x8682 <strstr_P>
    59fc:	89 2b       	or	r24, r25
    59fe:	11 f0       	breq	.+4      	; 0x5a04 <_ZN13Adafruit_FONA5beginER6Stream+0x266>
    5a00:	84 e0       	ldi	r24, 0x04	; 4
    5a02:	08 c0       	rjmp	.+16     	; 0x5a14 <_ZN13Adafruit_FONA5beginER6Stream+0x276>
    5a04:	67 e5       	ldi	r22, 0x57	; 87
    5a06:	73 e0       	ldi	r23, 0x03	; 3
    5a08:	c7 01       	movw	r24, r14
    5a0a:	0e 94 41 43 	call	0x8682	; 0x8682 <strstr_P>
    5a0e:	89 2b       	or	r24, r25
    5a10:	11 f0       	breq	.+4      	; 0x5a16 <_ZN13Adafruit_FONA5beginER6Stream+0x278>
    5a12:	85 e0       	ldi	r24, 0x05	; 5
    5a14:	8d 87       	std	Y+13, r24	; 0x0d
    5a16:	8d 85       	ldd	r24, Y+13	; 0x0d
    5a18:	81 30       	cpi	r24, 0x01	; 1
    5a1a:	61 f5       	brne	.+88     	; 0x5a74 <_ZN13Adafruit_FONA5beginER6Stream+0x2d6>
    5a1c:	60 e5       	ldi	r22, 0x50	; 80
    5a1e:	73 e0       	ldi	r23, 0x03	; 3
    5a20:	82 e5       	ldi	r24, 0x52	; 82
    5a22:	9e e0       	ldi	r25, 0x0E	; 14
    5a24:	0e 94 30 16 	call	0x2c60	; 0x2c60 <_ZN5Print5printEPK19__FlashStringHelper>
    5a28:	6e e1       	ldi	r22, 0x1E	; 30
    5a2a:	77 e0       	ldi	r23, 0x07	; 7
    5a2c:	82 e5       	ldi	r24, 0x52	; 82
    5a2e:	9e e0       	ldi	r25, 0x0E	; 14
    5a30:	0e 94 8d 16 	call	0x2d1a	; 0x2d1a <_ZN5Print7printlnEPKc>
    5a34:	6e e1       	ldi	r22, 0x1E	; 30
    5a36:	77 e0       	ldi	r23, 0x07	; 7
    5a38:	f6 01       	movw	r30, r12
    5a3a:	80 81       	ld	r24, Z
    5a3c:	91 81       	ldd	r25, Z+1	; 0x01
    5a3e:	0e 94 8d 16 	call	0x2d1a	; 0x2d1a <_ZN5Print7printlnEPKc>
    5a42:	41 e0       	ldi	r20, 0x01	; 1
    5a44:	64 ef       	ldi	r22, 0xF4	; 244
    5a46:	71 e0       	ldi	r23, 0x01	; 1
    5a48:	ce 01       	movw	r24, r28
    5a4a:	cc dd       	rcall	.-1128   	; 0x55e4 <_ZN13Adafruit_FONA8readlineEjb>
    5a4c:	69 e4       	ldi	r22, 0x49	; 73
    5a4e:	73 e0       	ldi	r23, 0x03	; 3
    5a50:	82 e5       	ldi	r24, 0x52	; 82
    5a52:	9e e0       	ldi	r25, 0x0E	; 14
    5a54:	0e 94 30 16 	call	0x2c60	; 0x2c60 <_ZN5Print5printEPK19__FlashStringHelper>
    5a58:	b7 01       	movw	r22, r14
    5a5a:	82 e5       	ldi	r24, 0x52	; 82
    5a5c:	9e e0       	ldi	r25, 0x0E	; 14
    5a5e:	0e 94 8d 16 	call	0x2d1a	; 0x2d1a <_ZN5Print7printlnEPKc>
    5a62:	61 e4       	ldi	r22, 0x41	; 65
    5a64:	73 e0       	ldi	r23, 0x03	; 3
    5a66:	c7 01       	movw	r24, r14
    5a68:	0e 94 41 43 	call	0x8682	; 0x8682 <strstr_P>
    5a6c:	89 2b       	or	r24, r25
    5a6e:	11 f0       	breq	.+4      	; 0x5a74 <_ZN13Adafruit_FONA5beginER6Stream+0x2d6>
    5a70:	86 e0       	ldi	r24, 0x06	; 6
    5a72:	8d 87       	std	Y+13, r24	; 0x0d
    5a74:	d8 01       	movw	r26, r16
    5a76:	4d 91       	ld	r20, X+
    5a78:	5c 91       	ld	r21, X
    5a7a:	24 ef       	ldi	r18, 0xF4	; 244
    5a7c:	31 e0       	ldi	r19, 0x01	; 1
    5a7e:	6a e2       	ldi	r22, 0x2A	; 42
    5a80:	73 e0       	ldi	r23, 0x03	; 3
    5a82:	ce 01       	movw	r24, r28
    5a84:	73 de       	rcall	.-794    	; 0x576c <_ZN13Adafruit_FONA14sendCheckReplyEPK19__FlashStringHelperS2_j>
    5a86:	8b 2d       	mov	r24, r11
    5a88:	df 91       	pop	r29
    5a8a:	cf 91       	pop	r28
    5a8c:	1f 91       	pop	r17
    5a8e:	0f 91       	pop	r16
    5a90:	ff 90       	pop	r15
    5a92:	ef 90       	pop	r14
    5a94:	df 90       	pop	r13
    5a96:	cf 90       	pop	r12
    5a98:	bf 90       	pop	r11
    5a9a:	08 95       	ret

00005a9c <_ZN13Adafruit_FONA14sendCheckReplyEPcPK19__FlashStringHelperj>:
    5a9c:	0f 93       	push	r16
    5a9e:	1f 93       	push	r17
    5aa0:	cf 93       	push	r28
    5aa2:	df 93       	push	r29
    5aa4:	ec 01       	movw	r28, r24
    5aa6:	8a 01       	movw	r16, r20
    5aa8:	a9 01       	movw	r20, r18
    5aaa:	f2 dd       	rcall	.-1052   	; 0x5690 <_ZN13Adafruit_FONA8getReplyEPcj>
    5aac:	88 23       	and	r24, r24
    5aae:	41 f0       	breq	.+16     	; 0x5ac0 <_ZN13Adafruit_FONA14sendCheckReplyEPcPK19__FlashStringHelperj+0x24>
    5ab0:	b8 01       	movw	r22, r16
    5ab2:	ce 01       	movw	r24, r28
    5ab4:	0e 96       	adiw	r24, 0x0e	; 14
    5ab6:	0e 94 2f 43 	call	0x865e	; 0x865e <strcmp_P>
    5aba:	21 e0       	ldi	r18, 0x01	; 1
    5abc:	89 2b       	or	r24, r25
    5abe:	09 f0       	breq	.+2      	; 0x5ac2 <_ZN13Adafruit_FONA14sendCheckReplyEPcPK19__FlashStringHelperj+0x26>
    5ac0:	20 e0       	ldi	r18, 0x00	; 0
    5ac2:	82 2f       	mov	r24, r18
    5ac4:	df 91       	pop	r29
    5ac6:	cf 91       	pop	r28
    5ac8:	1f 91       	pop	r17
    5aca:	0f 91       	pop	r16
    5acc:	08 95       	ret

00005ace <_ZN13Adafruit_FONA7sendSMSEPcS0_>:
    5ace:	af 92       	push	r10
    5ad0:	bf 92       	push	r11
    5ad2:	cf 92       	push	r12
    5ad4:	df 92       	push	r13
    5ad6:	ef 92       	push	r14
    5ad8:	ff 92       	push	r15
    5ada:	0f 93       	push	r16
    5adc:	1f 93       	push	r17
    5ade:	cf 93       	push	r28
    5ae0:	df 93       	push	r29
    5ae2:	cd b7       	in	r28, 0x3d	; 61
    5ae4:	de b7       	in	r29, 0x3e	; 62
    5ae6:	6e 97       	sbiw	r28, 0x1e	; 30
    5ae8:	0f b6       	in	r0, 0x3f	; 63
    5aea:	f8 94       	cli
    5aec:	de bf       	out	0x3e, r29	; 62
    5aee:	0f be       	out	0x3f, r0	; 63
    5af0:	cd bf       	out	0x3d, r28	; 61
    5af2:	8c 01       	movw	r16, r24
    5af4:	5b 01       	movw	r10, r22
    5af6:	6a 01       	movw	r12, r20
    5af8:	fc 01       	movw	r30, r24
    5afa:	ea 5e       	subi	r30, 0xEA	; 234
    5afc:	fe 4f       	sbci	r31, 0xFE	; 254
    5afe:	40 81       	ld	r20, Z
    5b00:	51 81       	ldd	r21, Z+1	; 0x01
    5b02:	24 ef       	ldi	r18, 0xF4	; 244
    5b04:	31 e0       	ldi	r19, 0x01	; 1
    5b06:	66 ec       	ldi	r22, 0xC6	; 198
    5b08:	72 e0       	ldi	r23, 0x02	; 2
    5b0a:	30 de       	rcall	.-928    	; 0x576c <_ZN13Adafruit_FONA14sendCheckReplyEPK19__FlashStringHelperS2_j>
    5b0c:	88 23       	and	r24, r24
    5b0e:	09 f4       	brne	.+2      	; 0x5b12 <_ZN13Adafruit_FONA7sendSMSEPcS0_+0x44>
    5b10:	83 c0       	rjmp	.+262    	; 0x5c18 <_ZN13Adafruit_FONA7sendSMSEPcS0_+0x14a>
    5b12:	8a e0       	ldi	r24, 0x0A	; 10
    5b14:	e5 e6       	ldi	r30, 0x65	; 101
    5b16:	f2 e0       	ldi	r31, 0x02	; 2
    5b18:	9e 01       	movw	r18, r28
    5b1a:	2f 5f       	subi	r18, 0xFF	; 255
    5b1c:	3f 4f       	sbci	r19, 0xFF	; 255
    5b1e:	79 01       	movw	r14, r18
    5b20:	d9 01       	movw	r26, r18
    5b22:	01 90       	ld	r0, Z+
    5b24:	0d 92       	st	X+, r0
    5b26:	8a 95       	dec	r24
    5b28:	e1 f7       	brne	.-8      	; 0x5b22 <_ZN13Adafruit_FONA7sendSMSEPcS0_+0x54>
    5b2a:	fe 01       	movw	r30, r28
    5b2c:	3b 96       	adiw	r30, 0x0b	; 11
    5b2e:	84 e1       	ldi	r24, 0x14	; 20
    5b30:	df 01       	movw	r26, r30
    5b32:	1d 92       	st	X+, r1
    5b34:	8a 95       	dec	r24
    5b36:	e9 f7       	brne	.-6      	; 0x5b32 <_ZN13Adafruit_FONA7sendSMSEPcS0_+0x64>
    5b38:	43 e1       	ldi	r20, 0x13	; 19
    5b3a:	50 e0       	ldi	r21, 0x00	; 0
    5b3c:	b5 01       	movw	r22, r10
    5b3e:	ce 01       	movw	r24, r28
    5b40:	0a 96       	adiw	r24, 0x0a	; 10
    5b42:	0e 94 8d 43 	call	0x871a	; 0x871a <strncpy>
    5b46:	f7 01       	movw	r30, r14
    5b48:	01 90       	ld	r0, Z+
    5b4a:	00 20       	and	r0, r0
    5b4c:	e9 f7       	brne	.-6      	; 0x5b48 <_ZN13Adafruit_FONA7sendSMSEPcS0_+0x7a>
    5b4e:	31 97       	sbiw	r30, 0x01	; 1
    5b50:	82 e2       	ldi	r24, 0x22	; 34
    5b52:	80 83       	st	Z, r24
    5b54:	24 ef       	ldi	r18, 0xF4	; 244
    5b56:	31 e0       	ldi	r19, 0x01	; 1
    5b58:	43 ec       	ldi	r20, 0xC3	; 195
    5b5a:	52 e0       	ldi	r21, 0x02	; 2
    5b5c:	b7 01       	movw	r22, r14
    5b5e:	c8 01       	movw	r24, r16
    5b60:	9d df       	rcall	.-198    	; 0x5a9c <_ZN13Adafruit_FONA14sendCheckReplyEPcPK19__FlashStringHelperj>
    5b62:	88 23       	and	r24, r24
    5b64:	09 f4       	brne	.+2      	; 0x5b68 <_ZN13Adafruit_FONA7sendSMSEPcS0_+0x9a>
    5b66:	58 c0       	rjmp	.+176    	; 0x5c18 <_ZN13Adafruit_FONA7sendSMSEPcS0_+0x14a>
    5b68:	60 ec       	ldi	r22, 0xC0	; 192
    5b6a:	72 e0       	ldi	r23, 0x02	; 2
    5b6c:	82 e5       	ldi	r24, 0x52	; 82
    5b6e:	9e e0       	ldi	r25, 0x0E	; 14
    5b70:	0e 94 30 16 	call	0x2c60	; 0x2c60 <_ZN5Print5printEPK19__FlashStringHelper>
    5b74:	b6 01       	movw	r22, r12
    5b76:	82 e5       	ldi	r24, 0x52	; 82
    5b78:	9e e0       	ldi	r25, 0x0E	; 14
    5b7a:	0e 94 8d 16 	call	0x2d1a	; 0x2d1a <_ZN5Print7printlnEPKc>
    5b7e:	b6 01       	movw	r22, r12
    5b80:	78 01       	movw	r14, r16
    5b82:	b8 ee       	ldi	r27, 0xE8	; 232
    5b84:	eb 1a       	sub	r14, r27
    5b86:	be ef       	ldi	r27, 0xFE	; 254
    5b88:	fb 0a       	sbc	r15, r27
    5b8a:	f7 01       	movw	r30, r14
    5b8c:	80 81       	ld	r24, Z
    5b8e:	91 81       	ldd	r25, Z+1	; 0x01
    5b90:	0e 94 8d 16 	call	0x2d1a	; 0x2d1a <_ZN5Print7printlnEPKc>
    5b94:	d7 01       	movw	r26, r14
    5b96:	8d 91       	ld	r24, X+
    5b98:	9c 91       	ld	r25, X
    5b9a:	0e 94 6a 16 	call	0x2cd4	; 0x2cd4 <_ZN5Print7printlnEv>
    5b9e:	f7 01       	movw	r30, r14
    5ba0:	80 81       	ld	r24, Z
    5ba2:	91 81       	ldd	r25, Z+1	; 0x01
    5ba4:	dc 01       	movw	r26, r24
    5ba6:	ed 91       	ld	r30, X+
    5ba8:	fc 91       	ld	r31, X
    5baa:	01 90       	ld	r0, Z+
    5bac:	f0 81       	ld	r31, Z
    5bae:	e0 2d       	mov	r30, r0
    5bb0:	6a e1       	ldi	r22, 0x1A	; 26
    5bb2:	19 95       	eicall
    5bb4:	67 e3       	ldi	r22, 0x37	; 55
    5bb6:	77 e0       	ldi	r23, 0x07	; 7
    5bb8:	82 e5       	ldi	r24, 0x52	; 82
    5bba:	9e e0       	ldi	r25, 0x0E	; 14
    5bbc:	0e 94 8d 16 	call	0x2d1a	; 0x2d1a <_ZN5Print7printlnEPKc>
    5bc0:	f8 01       	movw	r30, r16
    5bc2:	85 85       	ldd	r24, Z+13	; 0x0d
    5bc4:	84 50       	subi	r24, 0x04	; 4
    5bc6:	82 30       	cpi	r24, 0x02	; 2
    5bc8:	50 f4       	brcc	.+20     	; 0x5bde <_ZN13Adafruit_FONA7sendSMSEPcS0_+0x110>
    5bca:	40 e0       	ldi	r20, 0x00	; 0
    5bcc:	68 ec       	ldi	r22, 0xC8	; 200
    5bce:	70 e0       	ldi	r23, 0x00	; 0
    5bd0:	c8 01       	movw	r24, r16
    5bd2:	08 dd       	rcall	.-1520   	; 0x55e4 <_ZN13Adafruit_FONA8readlineEjb>
    5bd4:	40 e0       	ldi	r20, 0x00	; 0
    5bd6:	68 ec       	ldi	r22, 0xC8	; 200
    5bd8:	70 e0       	ldi	r23, 0x00	; 0
    5bda:	c8 01       	movw	r24, r16
    5bdc:	03 dd       	rcall	.-1530   	; 0x55e4 <_ZN13Adafruit_FONA8readlineEjb>
    5bde:	40 e0       	ldi	r20, 0x00	; 0
    5be0:	60 e1       	ldi	r22, 0x10	; 16
    5be2:	77 e2       	ldi	r23, 0x27	; 39
    5be4:	c8 01       	movw	r24, r16
    5be6:	fe dc       	rcall	.-1540   	; 0x55e4 <_ZN13Adafruit_FONA8readlineEjb>
    5be8:	78 01       	movw	r14, r16
    5bea:	fe e0       	ldi	r31, 0x0E	; 14
    5bec:	ef 0e       	add	r14, r31
    5bee:	f1 1c       	adc	r15, r1
    5bf0:	6a e3       	ldi	r22, 0x3A	; 58
    5bf2:	77 e0       	ldi	r23, 0x07	; 7
    5bf4:	c7 01       	movw	r24, r14
    5bf6:	0e 94 9c 43 	call	0x8738	; 0x8738 <strstr>
    5bfa:	89 2b       	or	r24, r25
    5bfc:	69 f0       	breq	.+26     	; 0x5c18 <_ZN13Adafruit_FONA7sendSMSEPcS0_+0x14a>
    5bfe:	40 e0       	ldi	r20, 0x00	; 0
    5c00:	68 ee       	ldi	r22, 0xE8	; 232
    5c02:	73 e0       	ldi	r23, 0x03	; 3
    5c04:	c8 01       	movw	r24, r16
    5c06:	ee dc       	rcall	.-1572   	; 0x55e4 <_ZN13Adafruit_FONA8readlineEjb>
    5c08:	6d e0       	ldi	r22, 0x0D	; 13
    5c0a:	77 e0       	ldi	r23, 0x07	; 7
    5c0c:	c7 01       	movw	r24, r14
    5c0e:	0e 94 6f 43 	call	0x86de	; 0x86de <strcmp>
    5c12:	21 e0       	ldi	r18, 0x01	; 1
    5c14:	89 2b       	or	r24, r25
    5c16:	09 f0       	breq	.+2      	; 0x5c1a <_ZN13Adafruit_FONA7sendSMSEPcS0_+0x14c>
    5c18:	20 e0       	ldi	r18, 0x00	; 0
    5c1a:	82 2f       	mov	r24, r18
    5c1c:	6e 96       	adiw	r28, 0x1e	; 30
    5c1e:	0f b6       	in	r0, 0x3f	; 63
    5c20:	f8 94       	cli
    5c22:	de bf       	out	0x3e, r29	; 62
    5c24:	0f be       	out	0x3f, r0	; 63
    5c26:	cd bf       	out	0x3d, r28	; 61
    5c28:	df 91       	pop	r29
    5c2a:	cf 91       	pop	r28
    5c2c:	1f 91       	pop	r17
    5c2e:	0f 91       	pop	r16
    5c30:	ff 90       	pop	r15
    5c32:	ef 90       	pop	r14
    5c34:	df 90       	pop	r13
    5c36:	cf 90       	pop	r12
    5c38:	bf 90       	pop	r11
    5c3a:	af 90       	pop	r10
    5c3c:	08 95       	ret

00005c3e <_ZN13Adafruit_FONA9deleteSMSEh>:
    5c3e:	df 92       	push	r13
    5c40:	ef 92       	push	r14
    5c42:	ff 92       	push	r15
    5c44:	0f 93       	push	r16
    5c46:	1f 93       	push	r17
    5c48:	cf 93       	push	r28
    5c4a:	df 93       	push	r29
    5c4c:	cd b7       	in	r28, 0x3d	; 61
    5c4e:	de b7       	in	r29, 0x3e	; 62
    5c50:	2c 97       	sbiw	r28, 0x0c	; 12
    5c52:	0f b6       	in	r0, 0x3f	; 63
    5c54:	f8 94       	cli
    5c56:	de bf       	out	0x3e, r29	; 62
    5c58:	0f be       	out	0x3f, r0	; 63
    5c5a:	cd bf       	out	0x3d, r28	; 61
    5c5c:	8c 01       	movw	r16, r24
    5c5e:	d6 2e       	mov	r13, r22
    5c60:	7c 01       	movw	r14, r24
    5c62:	8a ee       	ldi	r24, 0xEA	; 234
    5c64:	e8 1a       	sub	r14, r24
    5c66:	8e ef       	ldi	r24, 0xFE	; 254
    5c68:	f8 0a       	sbc	r15, r24
    5c6a:	f7 01       	movw	r30, r14
    5c6c:	40 81       	ld	r20, Z
    5c6e:	51 81       	ldd	r21, Z+1	; 0x01
    5c70:	24 ef       	ldi	r18, 0xF4	; 244
    5c72:	31 e0       	ldi	r19, 0x01	; 1
    5c74:	66 eb       	ldi	r22, 0xB6	; 182
    5c76:	72 e0       	ldi	r23, 0x02	; 2
    5c78:	c8 01       	movw	r24, r16
    5c7a:	78 dd       	rcall	.-1296   	; 0x576c <_ZN13Adafruit_FONA14sendCheckReplyEPK19__FlashStringHelperS2_j>
    5c7c:	88 23       	and	r24, r24
    5c7e:	11 f1       	breq	.+68     	; 0x5cc4 <_ZN13Adafruit_FONA9deleteSMSEh+0x86>
    5c80:	8c e0       	ldi	r24, 0x0C	; 12
    5c82:	e0 e4       	ldi	r30, 0x40	; 64
    5c84:	f7 e0       	ldi	r31, 0x07	; 7
    5c86:	de 01       	movw	r26, r28
    5c88:	11 96       	adiw	r26, 0x01	; 1
    5c8a:	01 90       	ld	r0, Z+
    5c8c:	0d 92       	st	X+, r0
    5c8e:	8a 95       	dec	r24
    5c90:	e1 f7       	brne	.-8      	; 0x5c8a <_ZN13Adafruit_FONA9deleteSMSEh+0x4c>
    5c92:	8d 2d       	mov	r24, r13
    5c94:	64 e6       	ldi	r22, 0x64	; 100
    5c96:	0e 94 36 40 	call	0x806c	; 0x806c <__udivmodqi4>
    5c9a:	20 e3       	ldi	r18, 0x30	; 48
    5c9c:	28 0f       	add	r18, r24
    5c9e:	29 87       	std	Y+9, r18	; 0x09
    5ca0:	89 2f       	mov	r24, r25
    5ca2:	6a e0       	ldi	r22, 0x0A	; 10
    5ca4:	0e 94 36 40 	call	0x806c	; 0x806c <__udivmodqi4>
    5ca8:	80 5d       	subi	r24, 0xD0	; 208
    5caa:	8a 87       	std	Y+10, r24	; 0x0a
    5cac:	90 5d       	subi	r25, 0xD0	; 208
    5cae:	9b 87       	std	Y+11, r25	; 0x0b
    5cb0:	f7 01       	movw	r30, r14
    5cb2:	40 81       	ld	r20, Z
    5cb4:	51 81       	ldd	r21, Z+1	; 0x01
    5cb6:	20 ed       	ldi	r18, 0xD0	; 208
    5cb8:	37 e0       	ldi	r19, 0x07	; 7
    5cba:	be 01       	movw	r22, r28
    5cbc:	6f 5f       	subi	r22, 0xFF	; 255
    5cbe:	7f 4f       	sbci	r23, 0xFF	; 255
    5cc0:	c8 01       	movw	r24, r16
    5cc2:	ec de       	rcall	.-552    	; 0x5a9c <_ZN13Adafruit_FONA14sendCheckReplyEPcPK19__FlashStringHelperj>
    5cc4:	2c 96       	adiw	r28, 0x0c	; 12
    5cc6:	0f b6       	in	r0, 0x3f	; 63
    5cc8:	f8 94       	cli
    5cca:	de bf       	out	0x3e, r29	; 62
    5ccc:	0f be       	out	0x3f, r0	; 63
    5cce:	cd bf       	out	0x3d, r28	; 61
    5cd0:	df 91       	pop	r29
    5cd2:	cf 91       	pop	r28
    5cd4:	1f 91       	pop	r17
    5cd6:	0f 91       	pop	r16
    5cd8:	ff 90       	pop	r15
    5cda:	ef 90       	pop	r14
    5cdc:	df 90       	pop	r13
    5cde:	08 95       	ret

00005ce0 <_ZN13Adafruit_FONA10parseReplyEPK19__FlashStringHelperPjch>:
    5ce0:	af 92       	push	r10
    5ce2:	bf 92       	push	r11
    5ce4:	cf 92       	push	r12
    5ce6:	df 92       	push	r13
    5ce8:	ef 92       	push	r14
    5cea:	ff 92       	push	r15
    5cec:	0f 93       	push	r16
    5cee:	cf 93       	push	r28
    5cf0:	df 93       	push	r29
    5cf2:	5b 01       	movw	r10, r22
    5cf4:	6a 01       	movw	r12, r20
    5cf6:	e2 2e       	mov	r14, r18
    5cf8:	0e 96       	adiw	r24, 0x0e	; 14
    5cfa:	0e 94 41 43 	call	0x8682	; 0x8682 <strstr_P>
    5cfe:	ec 01       	movw	r28, r24
    5d00:	89 2b       	or	r24, r25
    5d02:	c1 f0       	breq	.+48     	; 0x5d34 <_ZN13Adafruit_FONA10parseReplyEPK19__FlashStringHelperPjch+0x54>
    5d04:	c5 01       	movw	r24, r10
    5d06:	0e 94 38 43 	call	0x8670	; 0x8670 <__strlen_P>
    5d0a:	8c 0f       	add	r24, r28
    5d0c:	9d 1f       	adc	r25, r29
    5d0e:	c0 e0       	ldi	r28, 0x00	; 0
    5d10:	f1 2c       	mov	r15, r1
    5d12:	c0 17       	cp	r28, r16
    5d14:	41 f0       	breq	.+16     	; 0x5d26 <_ZN13Adafruit_FONA10parseReplyEPK19__FlashStringHelperPjch+0x46>
    5d16:	b7 01       	movw	r22, r14
    5d18:	0e 94 64 43 	call	0x86c8	; 0x86c8 <strchr>
    5d1c:	00 97       	sbiw	r24, 0x00	; 0
    5d1e:	51 f0       	breq	.+20     	; 0x5d34 <_ZN13Adafruit_FONA10parseReplyEPK19__FlashStringHelperPjch+0x54>
    5d20:	01 96       	adiw	r24, 0x01	; 1
    5d22:	cf 5f       	subi	r28, 0xFF	; 255
    5d24:	f6 cf       	rjmp	.-20     	; 0x5d12 <_ZN13Adafruit_FONA10parseReplyEPK19__FlashStringHelperPjch+0x32>
    5d26:	0e 94 dc 42 	call	0x85b8	; 0x85b8 <atoi>
    5d2a:	f6 01       	movw	r30, r12
    5d2c:	91 83       	std	Z+1, r25	; 0x01
    5d2e:	80 83       	st	Z, r24
    5d30:	81 e0       	ldi	r24, 0x01	; 1
    5d32:	01 c0       	rjmp	.+2      	; 0x5d36 <_ZN13Adafruit_FONA10parseReplyEPK19__FlashStringHelperPjch+0x56>
    5d34:	80 e0       	ldi	r24, 0x00	; 0
    5d36:	df 91       	pop	r29
    5d38:	cf 91       	pop	r28
    5d3a:	0f 91       	pop	r16
    5d3c:	ff 90       	pop	r15
    5d3e:	ef 90       	pop	r14
    5d40:	df 90       	pop	r13
    5d42:	cf 90       	pop	r12
    5d44:	bf 90       	pop	r11
    5d46:	af 90       	pop	r10
    5d48:	08 95       	ret

00005d4a <_ZN13Adafruit_FONA7readSMSEhPcjPj>:
    5d4a:	5f 92       	push	r5
    5d4c:	6f 92       	push	r6
    5d4e:	7f 92       	push	r7
    5d50:	8f 92       	push	r8
    5d52:	9f 92       	push	r9
    5d54:	af 92       	push	r10
    5d56:	bf 92       	push	r11
    5d58:	cf 92       	push	r12
    5d5a:	df 92       	push	r13
    5d5c:	ef 92       	push	r14
    5d5e:	ff 92       	push	r15
    5d60:	0f 93       	push	r16
    5d62:	1f 93       	push	r17
    5d64:	cf 93       	push	r28
    5d66:	df 93       	push	r29
    5d68:	1f 92       	push	r1
    5d6a:	1f 92       	push	r1
    5d6c:	cd b7       	in	r28, 0x3d	; 61
    5d6e:	de b7       	in	r29, 0x3e	; 62
    5d70:	3c 01       	movw	r6, r24
    5d72:	f6 2e       	mov	r15, r22
    5d74:	6a 01       	movw	r12, r20
    5d76:	49 01       	movw	r8, r18
    5d78:	58 01       	movw	r10, r16
    5d7a:	8c 01       	movw	r16, r24
    5d7c:	0a 5e       	subi	r16, 0xEA	; 234
    5d7e:	1e 4f       	sbci	r17, 0xFE	; 254
    5d80:	f8 01       	movw	r30, r16
    5d82:	40 81       	ld	r20, Z
    5d84:	51 81       	ldd	r21, Z+1	; 0x01
    5d86:	24 ef       	ldi	r18, 0xF4	; 244
    5d88:	31 e0       	ldi	r19, 0x01	; 1
    5d8a:	60 e2       	ldi	r22, 0x20	; 32
    5d8c:	73 e0       	ldi	r23, 0x03	; 3
    5d8e:	ee dc       	rcall	.-1572   	; 0x576c <_ZN13Adafruit_FONA14sendCheckReplyEPK19__FlashStringHelperS2_j>
    5d90:	81 11       	cpse	r24, r1
    5d92:	02 c0       	rjmp	.+4      	; 0x5d98 <_ZN13Adafruit_FONA7readSMSEhPcjPj+0x4e>
    5d94:	51 2c       	mov	r5, r1
    5d96:	6d c0       	rjmp	.+218    	; 0x5e72 <_ZN13Adafruit_FONA7readSMSEhPcjPj+0x128>
    5d98:	f8 01       	movw	r30, r16
    5d9a:	40 81       	ld	r20, Z
    5d9c:	51 81       	ldd	r21, Z+1	; 0x01
    5d9e:	24 ef       	ldi	r18, 0xF4	; 244
    5da0:	31 e0       	ldi	r19, 0x01	; 1
    5da2:	66 e1       	ldi	r22, 0x16	; 22
    5da4:	73 e0       	ldi	r23, 0x03	; 3
    5da6:	c3 01       	movw	r24, r6
    5da8:	e1 dc       	rcall	.-1598   	; 0x576c <_ZN13Adafruit_FONA14sendCheckReplyEPK19__FlashStringHelperS2_j>
    5daa:	88 23       	and	r24, r24
    5dac:	99 f3       	breq	.-26     	; 0x5d94 <_ZN13Adafruit_FONA7readSMSEhPcjPj+0x4a>
    5dae:	1a 82       	std	Y+2, r1	; 0x02
    5db0:	19 82       	std	Y+1, r1	; 0x01
    5db2:	6d e0       	ldi	r22, 0x0D	; 13
    5db4:	73 e0       	ldi	r23, 0x03	; 3
    5db6:	82 e5       	ldi	r24, 0x52	; 82
    5db8:	9e e0       	ldi	r25, 0x0E	; 14
    5dba:	0e 94 30 16 	call	0x2c60	; 0x2c60 <_ZN5Print5printEPK19__FlashStringHelper>
    5dbe:	4a e0       	ldi	r20, 0x0A	; 10
    5dc0:	50 e0       	ldi	r21, 0x00	; 0
    5dc2:	6f 2d       	mov	r22, r15
    5dc4:	82 e5       	ldi	r24, 0x52	; 82
    5dc6:	9e e0       	ldi	r25, 0x0E	; 14
    5dc8:	0e 94 07 17 	call	0x2e0e	; 0x2e0e <_ZN5Print7printlnEhi>
    5dcc:	64 e0       	ldi	r22, 0x04	; 4
    5dce:	73 e0       	ldi	r23, 0x03	; 3
    5dd0:	83 01       	movw	r16, r6
    5dd2:	08 5e       	subi	r16, 0xE8	; 232
    5dd4:	1e 4f       	sbci	r17, 0xFE	; 254
    5dd6:	f8 01       	movw	r30, r16
    5dd8:	80 81       	ld	r24, Z
    5dda:	91 81       	ldd	r25, Z+1	; 0x01
    5ddc:	0e 94 30 16 	call	0x2c60	; 0x2c60 <_ZN5Print5printEPK19__FlashStringHelper>
    5de0:	4a e0       	ldi	r20, 0x0A	; 10
    5de2:	50 e0       	ldi	r21, 0x00	; 0
    5de4:	6f 2d       	mov	r22, r15
    5de6:	f8 01       	movw	r30, r16
    5de8:	80 81       	ld	r24, Z
    5dea:	91 81       	ldd	r25, Z+1	; 0x01
    5dec:	0e 94 07 17 	call	0x2e0e	; 0x2e0e <_ZN5Print7printlnEhi>
    5df0:	40 e0       	ldi	r20, 0x00	; 0
    5df2:	68 ee       	ldi	r22, 0xE8	; 232
    5df4:	73 e0       	ldi	r23, 0x03	; 3
    5df6:	c3 01       	movw	r24, r6
    5df8:	f5 db       	rcall	.-2070   	; 0x55e4 <_ZN13Adafruit_FONA8readlineEjb>
    5dfa:	73 01       	movw	r14, r6
    5dfc:	fe e0       	ldi	r31, 0x0E	; 14
    5dfe:	ef 0e       	add	r14, r31
    5e00:	f1 1c       	adc	r15, r1
    5e02:	b7 01       	movw	r22, r14
    5e04:	82 e5       	ldi	r24, 0x52	; 82
    5e06:	9e e0       	ldi	r25, 0x0E	; 14
    5e08:	0e 94 8d 16 	call	0x2d1a	; 0x2d1a <_ZN5Print7printlnEPKc>
    5e0c:	0b e0       	ldi	r16, 0x0B	; 11
    5e0e:	2c e2       	ldi	r18, 0x2C	; 44
    5e10:	ae 01       	movw	r20, r28
    5e12:	4f 5f       	subi	r20, 0xFF	; 255
    5e14:	5f 4f       	sbci	r21, 0xFF	; 255
    5e16:	6d ef       	ldi	r22, 0xFD	; 253
    5e18:	72 e0       	ldi	r23, 0x02	; 2
    5e1a:	c3 01       	movw	r24, r6
    5e1c:	61 df       	rcall	.-318    	; 0x5ce0 <_ZN13Adafruit_FONA10parseReplyEPK19__FlashStringHelperPjch>
    5e1e:	58 2e       	mov	r5, r24
    5e20:	81 11       	cpse	r24, r1
    5e22:	04 c0       	rjmp	.+8      	; 0x5e2c <_ZN13Adafruit_FONA7readSMSEhPcjPj+0xe2>
    5e24:	f5 01       	movw	r30, r10
    5e26:	11 82       	std	Z+1, r1	; 0x01
    5e28:	10 82       	st	Z, r1
    5e2a:	23 c0       	rjmp	.+70     	; 0x5e72 <_ZN13Adafruit_FONA7readSMSEhPcjPj+0x128>
    5e2c:	69 81       	ldd	r22, Y+1	; 0x01
    5e2e:	7a 81       	ldd	r23, Y+2	; 0x02
    5e30:	c3 01       	movw	r24, r6
    5e32:	8c db       	rcall	.-2280   	; 0x554c <_ZN13Adafruit_FONA7readRawEj>
    5e34:	c3 01       	movw	r24, r6
    5e36:	5e db       	rcall	.-2372   	; 0x54f4 <_ZN13Adafruit_FONA10flushInputEv>
    5e38:	f7 01       	movw	r30, r14
    5e3a:	01 90       	ld	r0, Z+
    5e3c:	00 20       	and	r0, r0
    5e3e:	e9 f7       	brne	.-6      	; 0x5e3a <_ZN13Adafruit_FONA7readSMSEhPcjPj+0xf0>
    5e40:	31 97       	sbiw	r30, 0x01	; 1
    5e42:	8f 01       	movw	r16, r30
    5e44:	0e 19       	sub	r16, r14
    5e46:	1f 09       	sbc	r17, r15
    5e48:	80 16       	cp	r8, r16
    5e4a:	91 06       	cpc	r9, r17
    5e4c:	08 f4       	brcc	.+2      	; 0x5e50 <_ZN13Adafruit_FONA7readSMSEhPcjPj+0x106>
    5e4e:	84 01       	movw	r16, r8
    5e50:	a8 01       	movw	r20, r16
    5e52:	b7 01       	movw	r22, r14
    5e54:	c6 01       	movw	r24, r12
    5e56:	0e 94 8d 43 	call	0x871a	; 0x871a <strncpy>
    5e5a:	f6 01       	movw	r30, r12
    5e5c:	e0 0f       	add	r30, r16
    5e5e:	f1 1f       	adc	r31, r17
    5e60:	10 82       	st	Z, r1
    5e62:	b7 01       	movw	r22, r14
    5e64:	82 e5       	ldi	r24, 0x52	; 82
    5e66:	9e e0       	ldi	r25, 0x0E	; 14
    5e68:	0e 94 8d 16 	call	0x2d1a	; 0x2d1a <_ZN5Print7printlnEPKc>
    5e6c:	f5 01       	movw	r30, r10
    5e6e:	11 83       	std	Z+1, r17	; 0x01
    5e70:	00 83       	st	Z, r16
    5e72:	85 2d       	mov	r24, r5
    5e74:	0f 90       	pop	r0
    5e76:	0f 90       	pop	r0
    5e78:	df 91       	pop	r29
    5e7a:	cf 91       	pop	r28
    5e7c:	1f 91       	pop	r17
    5e7e:	0f 91       	pop	r16
    5e80:	ff 90       	pop	r15
    5e82:	ef 90       	pop	r14
    5e84:	df 90       	pop	r13
    5e86:	cf 90       	pop	r12
    5e88:	bf 90       	pop	r11
    5e8a:	af 90       	pop	r10
    5e8c:	9f 90       	pop	r9
    5e8e:	8f 90       	pop	r8
    5e90:	7f 90       	pop	r7
    5e92:	6f 90       	pop	r6
    5e94:	5f 90       	pop	r5
    5e96:	08 95       	ret

00005e98 <_ZN13Adafruit_FONA16parseReplyQuotedEPK19__FlashStringHelperPcich>:
    5e98:	8f 92       	push	r8
    5e9a:	9f 92       	push	r9
    5e9c:	af 92       	push	r10
    5e9e:	bf 92       	push	r11
    5ea0:	cf 92       	push	r12
    5ea2:	df 92       	push	r13
    5ea4:	ef 92       	push	r14
    5ea6:	0f 93       	push	r16
    5ea8:	1f 93       	push	r17
    5eaa:	cf 93       	push	r28
    5eac:	df 93       	push	r29
    5eae:	4b 01       	movw	r8, r22
    5eb0:	ea 01       	movw	r28, r20
    5eb2:	69 01       	movw	r12, r18
    5eb4:	0e 96       	adiw	r24, 0x0e	; 14
    5eb6:	0e 94 41 43 	call	0x8682	; 0x8682 <strstr_P>
    5eba:	5c 01       	movw	r10, r24
    5ebc:	89 2b       	or	r24, r25
    5ebe:	a9 f1       	breq	.+106    	; 0x5f2a <_ZN13Adafruit_FONA16parseReplyQuotedEPK19__FlashStringHelperPcich+0x92>
#else
extern size_t __strlen_P(const char *) __ATTR_CONST__;  /* internal helper function */
__attribute__((__always_inline__)) static __inline__ size_t strlen_P(const char * s);
static __inline__ size_t strlen_P(const char *s) {
  return __builtin_constant_p(__builtin_strlen(s))
     ? __builtin_strlen(s) : __strlen_P(s);
    5ec0:	c4 01       	movw	r24, r8
    5ec2:	0e 94 38 43 	call	0x8670	; 0x8670 <__strlen_P>
    5ec6:	8a 0d       	add	r24, r10
    5ec8:	9b 1d       	adc	r25, r11
    5eca:	10 e0       	ldi	r17, 0x00	; 0
    5ecc:	a0 2e       	mov	r10, r16
    5ece:	b1 2c       	mov	r11, r1
    5ed0:	1e 11       	cpse	r17, r14
    5ed2:	03 c0       	rjmp	.+6      	; 0x5eda <_ZN13Adafruit_FONA16parseReplyQuotedEPK19__FlashStringHelperPcich+0x42>
    5ed4:	70 e0       	ldi	r23, 0x00	; 0
    5ed6:	60 e0       	ldi	r22, 0x00	; 0
    5ed8:	22 c0       	rjmp	.+68     	; 0x5f1e <_ZN13Adafruit_FONA16parseReplyQuotedEPK19__FlashStringHelperPcich+0x86>
    5eda:	b5 01       	movw	r22, r10
    5edc:	0e 94 64 43 	call	0x86c8	; 0x86c8 <strchr>
    5ee0:	00 97       	sbiw	r24, 0x00	; 0
    5ee2:	19 f1       	breq	.+70     	; 0x5f2a <_ZN13Adafruit_FONA16parseReplyQuotedEPK19__FlashStringHelperPcich+0x92>
    5ee4:	01 96       	adiw	r24, 0x01	; 1
    5ee6:	1f 5f       	subi	r17, 0xFF	; 255
    5ee8:	f3 cf       	rjmp	.-26     	; 0x5ed0 <_ZN13Adafruit_FONA16parseReplyQuotedEPK19__FlashStringHelperPcich+0x38>
    5eea:	26 2f       	mov	r18, r22
    5eec:	30 e0       	ldi	r19, 0x00	; 0
    5eee:	fc 01       	movw	r30, r24
    5ef0:	01 90       	ld	r0, Z+
    5ef2:	00 20       	and	r0, r0
    5ef4:	e9 f7       	brne	.-6      	; 0x5ef0 <_ZN13Adafruit_FONA16parseReplyQuotedEPK19__FlashStringHelperPcich+0x58>
    5ef6:	31 97       	sbiw	r30, 0x01	; 1
    5ef8:	e8 1b       	sub	r30, r24
    5efa:	f9 0b       	sbc	r31, r25
    5efc:	2e 17       	cp	r18, r30
    5efe:	3f 07       	cpc	r19, r31
    5f00:	b0 f4       	brcc	.+44     	; 0x5f2e <_ZN13Adafruit_FONA16parseReplyQuotedEPK19__FlashStringHelperPcich+0x96>
    5f02:	fc 01       	movw	r30, r24
    5f04:	e2 0f       	add	r30, r18
    5f06:	f3 1f       	adc	r31, r19
    5f08:	20 81       	ld	r18, Z
    5f0a:	02 17       	cp	r16, r18
    5f0c:	81 f0       	breq	.+32     	; 0x5f2e <_ZN13Adafruit_FONA16parseReplyQuotedEPK19__FlashStringHelperPcich+0x96>
    5f0e:	22 32       	cpi	r18, 0x22	; 34
    5f10:	29 f0       	breq	.+10     	; 0x5f1c <_ZN13Adafruit_FONA16parseReplyQuotedEPK19__FlashStringHelperPcich+0x84>
    5f12:	fe 01       	movw	r30, r28
    5f14:	e4 0f       	add	r30, r20
    5f16:	f5 1f       	adc	r31, r21
    5f18:	20 83       	st	Z, r18
    5f1a:	7f 5f       	subi	r23, 0xFF	; 255
    5f1c:	6f 5f       	subi	r22, 0xFF	; 255
    5f1e:	47 2f       	mov	r20, r23
    5f20:	50 e0       	ldi	r21, 0x00	; 0
    5f22:	4c 15       	cp	r20, r12
    5f24:	5d 05       	cpc	r21, r13
    5f26:	0c f3       	brlt	.-62     	; 0x5eea <_ZN13Adafruit_FONA16parseReplyQuotedEPK19__FlashStringHelperPcich+0x52>
    5f28:	06 c0       	rjmp	.+12     	; 0x5f36 <_ZN13Adafruit_FONA16parseReplyQuotedEPK19__FlashStringHelperPcich+0x9e>
    5f2a:	80 e0       	ldi	r24, 0x00	; 0
    5f2c:	05 c0       	rjmp	.+10     	; 0x5f38 <_ZN13Adafruit_FONA16parseReplyQuotedEPK19__FlashStringHelperPcich+0xa0>
    5f2e:	fe 01       	movw	r30, r28
    5f30:	e4 0f       	add	r30, r20
    5f32:	f5 1f       	adc	r31, r21
    5f34:	10 82       	st	Z, r1
    5f36:	81 e0       	ldi	r24, 0x01	; 1
    5f38:	df 91       	pop	r29
    5f3a:	cf 91       	pop	r28
    5f3c:	1f 91       	pop	r17
    5f3e:	0f 91       	pop	r16
    5f40:	ef 90       	pop	r14
    5f42:	df 90       	pop	r13
    5f44:	cf 90       	pop	r12
    5f46:	bf 90       	pop	r11
    5f48:	af 90       	pop	r10
    5f4a:	9f 90       	pop	r9
    5f4c:	8f 90       	pop	r8
    5f4e:	08 95       	ret

00005f50 <_ZN13Adafruit_FONA12getSMSSenderEhPci>:
    5f50:	af 92       	push	r10
    5f52:	bf 92       	push	r11
    5f54:	cf 92       	push	r12
    5f56:	df 92       	push	r13
    5f58:	ef 92       	push	r14
    5f5a:	ff 92       	push	r15
    5f5c:	0f 93       	push	r16
    5f5e:	1f 93       	push	r17
    5f60:	cf 93       	push	r28
    5f62:	df 93       	push	r29
    5f64:	ec 01       	movw	r28, r24
    5f66:	f6 2e       	mov	r15, r22
    5f68:	6a 01       	movw	r12, r20
    5f6a:	59 01       	movw	r10, r18
    5f6c:	8c 01       	movw	r16, r24
    5f6e:	0a 5e       	subi	r16, 0xEA	; 234
    5f70:	1e 4f       	sbci	r17, 0xFE	; 254
    5f72:	f8 01       	movw	r30, r16
    5f74:	40 81       	ld	r20, Z
    5f76:	51 81       	ldd	r21, Z+1	; 0x01
    5f78:	24 ef       	ldi	r18, 0xF4	; 244
    5f7a:	31 e0       	ldi	r19, 0x01	; 1
    5f7c:	63 ef       	ldi	r22, 0xF3	; 243
    5f7e:	72 e0       	ldi	r23, 0x02	; 2
    5f80:	f5 db       	rcall	.-2070   	; 0x576c <_ZN13Adafruit_FONA14sendCheckReplyEPK19__FlashStringHelperS2_j>
    5f82:	81 11       	cpse	r24, r1
    5f84:	02 c0       	rjmp	.+4      	; 0x5f8a <_ZN13Adafruit_FONA12getSMSSenderEhPci+0x3a>
    5f86:	80 e0       	ldi	r24, 0x00	; 0
    5f88:	43 c0       	rjmp	.+134    	; 0x6010 <_ZN13Adafruit_FONA12getSMSSenderEhPci+0xc0>
    5f8a:	f8 01       	movw	r30, r16
    5f8c:	40 81       	ld	r20, Z
    5f8e:	51 81       	ldd	r21, Z+1	; 0x01
    5f90:	24 ef       	ldi	r18, 0xF4	; 244
    5f92:	31 e0       	ldi	r19, 0x01	; 1
    5f94:	69 ee       	ldi	r22, 0xE9	; 233
    5f96:	72 e0       	ldi	r23, 0x02	; 2
    5f98:	ce 01       	movw	r24, r28
    5f9a:	e8 db       	rcall	.-2096   	; 0x576c <_ZN13Adafruit_FONA14sendCheckReplyEPK19__FlashStringHelperS2_j>
    5f9c:	88 23       	and	r24, r24
    5f9e:	99 f3       	breq	.-26     	; 0x5f86 <_ZN13Adafruit_FONA12getSMSSenderEhPci+0x36>
    5fa0:	60 ee       	ldi	r22, 0xE0	; 224
    5fa2:	72 e0       	ldi	r23, 0x02	; 2
    5fa4:	82 e5       	ldi	r24, 0x52	; 82
    5fa6:	9e e0       	ldi	r25, 0x0E	; 14
    5fa8:	0e 94 30 16 	call	0x2c60	; 0x2c60 <_ZN5Print5printEPK19__FlashStringHelper>
    5fac:	4a e0       	ldi	r20, 0x0A	; 10
    5fae:	50 e0       	ldi	r21, 0x00	; 0
    5fb0:	6f 2d       	mov	r22, r15
    5fb2:	82 e5       	ldi	r24, 0x52	; 82
    5fb4:	9e e0       	ldi	r25, 0x0E	; 14
    5fb6:	0e 94 07 17 	call	0x2e0e	; 0x2e0e <_ZN5Print7printlnEhi>
    5fba:	8e 01       	movw	r16, r28
    5fbc:	08 5e       	subi	r16, 0xE8	; 232
    5fbe:	1e 4f       	sbci	r17, 0xFE	; 254
    5fc0:	67 ed       	ldi	r22, 0xD7	; 215
    5fc2:	72 e0       	ldi	r23, 0x02	; 2
    5fc4:	f8 01       	movw	r30, r16
    5fc6:	80 81       	ld	r24, Z
    5fc8:	91 81       	ldd	r25, Z+1	; 0x01
    5fca:	0e 94 30 16 	call	0x2c60	; 0x2c60 <_ZN5Print5printEPK19__FlashStringHelper>
    5fce:	4a e0       	ldi	r20, 0x0A	; 10
    5fd0:	50 e0       	ldi	r21, 0x00	; 0
    5fd2:	6f 2d       	mov	r22, r15
    5fd4:	f8 01       	movw	r30, r16
    5fd6:	80 81       	ld	r24, Z
    5fd8:	91 81       	ldd	r25, Z+1	; 0x01
    5fda:	0e 94 07 17 	call	0x2e0e	; 0x2e0e <_ZN5Print7printlnEhi>
    5fde:	40 e0       	ldi	r20, 0x00	; 0
    5fe0:	68 ee       	ldi	r22, 0xE8	; 232
    5fe2:	73 e0       	ldi	r23, 0x03	; 3
    5fe4:	ce 01       	movw	r24, r28
    5fe6:	fe da       	rcall	.-2564   	; 0x55e4 <_ZN13Adafruit_FONA8readlineEjb>
    5fe8:	be 01       	movw	r22, r28
    5fea:	62 5f       	subi	r22, 0xF2	; 242
    5fec:	7f 4f       	sbci	r23, 0xFF	; 255
    5fee:	82 e5       	ldi	r24, 0x52	; 82
    5ff0:	9e e0       	ldi	r25, 0x0E	; 14
    5ff2:	0e 94 8d 16 	call	0x2d1a	; 0x2d1a <_ZN5Print7printlnEPKc>
    5ff6:	ee 24       	eor	r14, r14
    5ff8:	e3 94       	inc	r14
    5ffa:	0c e2       	ldi	r16, 0x2C	; 44
    5ffc:	95 01       	movw	r18, r10
    5ffe:	a6 01       	movw	r20, r12
    6000:	60 ed       	ldi	r22, 0xD0	; 208
    6002:	72 e0       	ldi	r23, 0x02	; 2
    6004:	ce 01       	movw	r24, r28
    6006:	48 df       	rcall	.-368    	; 0x5e98 <_ZN13Adafruit_FONA16parseReplyQuotedEPK19__FlashStringHelperPcich>
    6008:	18 2f       	mov	r17, r24
    600a:	ce 01       	movw	r24, r28
    600c:	73 da       	rcall	.-2842   	; 0x54f4 <_ZN13Adafruit_FONA10flushInputEv>
    600e:	81 2f       	mov	r24, r17
    6010:	df 91       	pop	r29
    6012:	cf 91       	pop	r28
    6014:	1f 91       	pop	r17
    6016:	0f 91       	pop	r16
    6018:	ff 90       	pop	r15
    601a:	ef 90       	pop	r14
    601c:	df 90       	pop	r13
    601e:	cf 90       	pop	r12
    6020:	bf 90       	pop	r11
    6022:	af 90       	pop	r10
    6024:	08 95       	ret

00006026 <__cxa_pure_virtual>:
    6026:	0e 94 d5 42 	call	0x85aa	; 0x85aa <abort>

0000602a <yield>:
    602a:	08 95       	ret

0000602c <nothing>:
    602c:	08 95       	ret

0000602e <__vector_1>:
    602e:	1f 92       	push	r1
    6030:	0f 92       	push	r0
    6032:	0f b6       	in	r0, 0x3f	; 63
    6034:	0f 92       	push	r0
    6036:	11 24       	eor	r1, r1
    6038:	0b b6       	in	r0, 0x3b	; 59
    603a:	0f 92       	push	r0
    603c:	2f 93       	push	r18
    603e:	3f 93       	push	r19
    6040:	4f 93       	push	r20
    6042:	5f 93       	push	r21
    6044:	6f 93       	push	r22
    6046:	7f 93       	push	r23
    6048:	8f 93       	push	r24
    604a:	9f 93       	push	r25
    604c:	af 93       	push	r26
    604e:	bf 93       	push	r27
    6050:	ef 93       	push	r30
    6052:	ff 93       	push	r31
    6054:	e0 91 14 02 	lds	r30, 0x0214	; 0x800214 <intFunc+0x4>
    6058:	f0 91 15 02 	lds	r31, 0x0215	; 0x800215 <intFunc+0x5>
    605c:	19 95       	eicall
    605e:	ff 91       	pop	r31
    6060:	ef 91       	pop	r30
    6062:	bf 91       	pop	r27
    6064:	af 91       	pop	r26
    6066:	9f 91       	pop	r25
    6068:	8f 91       	pop	r24
    606a:	7f 91       	pop	r23
    606c:	6f 91       	pop	r22
    606e:	5f 91       	pop	r21
    6070:	4f 91       	pop	r20
    6072:	3f 91       	pop	r19
    6074:	2f 91       	pop	r18
    6076:	0f 90       	pop	r0
    6078:	0b be       	out	0x3b, r0	; 59
    607a:	0f 90       	pop	r0
    607c:	0f be       	out	0x3f, r0	; 63
    607e:	0f 90       	pop	r0
    6080:	1f 90       	pop	r1
    6082:	18 95       	reti

00006084 <__vector_2>:
    6084:	1f 92       	push	r1
    6086:	0f 92       	push	r0
    6088:	0f b6       	in	r0, 0x3f	; 63
    608a:	0f 92       	push	r0
    608c:	11 24       	eor	r1, r1
    608e:	0b b6       	in	r0, 0x3b	; 59
    6090:	0f 92       	push	r0
    6092:	2f 93       	push	r18
    6094:	3f 93       	push	r19
    6096:	4f 93       	push	r20
    6098:	5f 93       	push	r21
    609a:	6f 93       	push	r22
    609c:	7f 93       	push	r23
    609e:	8f 93       	push	r24
    60a0:	9f 93       	push	r25
    60a2:	af 93       	push	r26
    60a4:	bf 93       	push	r27
    60a6:	ef 93       	push	r30
    60a8:	ff 93       	push	r31
    60aa:	e0 91 16 02 	lds	r30, 0x0216	; 0x800216 <intFunc+0x6>
    60ae:	f0 91 17 02 	lds	r31, 0x0217	; 0x800217 <intFunc+0x7>
    60b2:	19 95       	eicall
    60b4:	ff 91       	pop	r31
    60b6:	ef 91       	pop	r30
    60b8:	bf 91       	pop	r27
    60ba:	af 91       	pop	r26
    60bc:	9f 91       	pop	r25
    60be:	8f 91       	pop	r24
    60c0:	7f 91       	pop	r23
    60c2:	6f 91       	pop	r22
    60c4:	5f 91       	pop	r21
    60c6:	4f 91       	pop	r20
    60c8:	3f 91       	pop	r19
    60ca:	2f 91       	pop	r18
    60cc:	0f 90       	pop	r0
    60ce:	0b be       	out	0x3b, r0	; 59
    60d0:	0f 90       	pop	r0
    60d2:	0f be       	out	0x3f, r0	; 63
    60d4:	0f 90       	pop	r0
    60d6:	1f 90       	pop	r1
    60d8:	18 95       	reti

000060da <__vector_3>:
    60da:	1f 92       	push	r1
    60dc:	0f 92       	push	r0
    60de:	0f b6       	in	r0, 0x3f	; 63
    60e0:	0f 92       	push	r0
    60e2:	11 24       	eor	r1, r1
    60e4:	0b b6       	in	r0, 0x3b	; 59
    60e6:	0f 92       	push	r0
    60e8:	2f 93       	push	r18
    60ea:	3f 93       	push	r19
    60ec:	4f 93       	push	r20
    60ee:	5f 93       	push	r21
    60f0:	6f 93       	push	r22
    60f2:	7f 93       	push	r23
    60f4:	8f 93       	push	r24
    60f6:	9f 93       	push	r25
    60f8:	af 93       	push	r26
    60fa:	bf 93       	push	r27
    60fc:	ef 93       	push	r30
    60fe:	ff 93       	push	r31
    6100:	e0 91 18 02 	lds	r30, 0x0218	; 0x800218 <intFunc+0x8>
    6104:	f0 91 19 02 	lds	r31, 0x0219	; 0x800219 <intFunc+0x9>
    6108:	19 95       	eicall
    610a:	ff 91       	pop	r31
    610c:	ef 91       	pop	r30
    610e:	bf 91       	pop	r27
    6110:	af 91       	pop	r26
    6112:	9f 91       	pop	r25
    6114:	8f 91       	pop	r24
    6116:	7f 91       	pop	r23
    6118:	6f 91       	pop	r22
    611a:	5f 91       	pop	r21
    611c:	4f 91       	pop	r20
    611e:	3f 91       	pop	r19
    6120:	2f 91       	pop	r18
    6122:	0f 90       	pop	r0
    6124:	0b be       	out	0x3b, r0	; 59
    6126:	0f 90       	pop	r0
    6128:	0f be       	out	0x3f, r0	; 63
    612a:	0f 90       	pop	r0
    612c:	1f 90       	pop	r1
    612e:	18 95       	reti

00006130 <__vector_4>:
    6130:	1f 92       	push	r1
    6132:	0f 92       	push	r0
    6134:	0f b6       	in	r0, 0x3f	; 63
    6136:	0f 92       	push	r0
    6138:	11 24       	eor	r1, r1
    613a:	0b b6       	in	r0, 0x3b	; 59
    613c:	0f 92       	push	r0
    613e:	2f 93       	push	r18
    6140:	3f 93       	push	r19
    6142:	4f 93       	push	r20
    6144:	5f 93       	push	r21
    6146:	6f 93       	push	r22
    6148:	7f 93       	push	r23
    614a:	8f 93       	push	r24
    614c:	9f 93       	push	r25
    614e:	af 93       	push	r26
    6150:	bf 93       	push	r27
    6152:	ef 93       	push	r30
    6154:	ff 93       	push	r31
    6156:	e0 91 1a 02 	lds	r30, 0x021A	; 0x80021a <intFunc+0xa>
    615a:	f0 91 1b 02 	lds	r31, 0x021B	; 0x80021b <intFunc+0xb>
    615e:	19 95       	eicall
    6160:	ff 91       	pop	r31
    6162:	ef 91       	pop	r30
    6164:	bf 91       	pop	r27
    6166:	af 91       	pop	r26
    6168:	9f 91       	pop	r25
    616a:	8f 91       	pop	r24
    616c:	7f 91       	pop	r23
    616e:	6f 91       	pop	r22
    6170:	5f 91       	pop	r21
    6172:	4f 91       	pop	r20
    6174:	3f 91       	pop	r19
    6176:	2f 91       	pop	r18
    6178:	0f 90       	pop	r0
    617a:	0b be       	out	0x3b, r0	; 59
    617c:	0f 90       	pop	r0
    617e:	0f be       	out	0x3f, r0	; 63
    6180:	0f 90       	pop	r0
    6182:	1f 90       	pop	r1
    6184:	18 95       	reti

00006186 <__vector_5>:
    6186:	1f 92       	push	r1
    6188:	0f 92       	push	r0
    618a:	0f b6       	in	r0, 0x3f	; 63
    618c:	0f 92       	push	r0
    618e:	11 24       	eor	r1, r1
    6190:	0b b6       	in	r0, 0x3b	; 59
    6192:	0f 92       	push	r0
    6194:	2f 93       	push	r18
    6196:	3f 93       	push	r19
    6198:	4f 93       	push	r20
    619a:	5f 93       	push	r21
    619c:	6f 93       	push	r22
    619e:	7f 93       	push	r23
    61a0:	8f 93       	push	r24
    61a2:	9f 93       	push	r25
    61a4:	af 93       	push	r26
    61a6:	bf 93       	push	r27
    61a8:	ef 93       	push	r30
    61aa:	ff 93       	push	r31
    61ac:	e0 91 10 02 	lds	r30, 0x0210	; 0x800210 <intFunc>
    61b0:	f0 91 11 02 	lds	r31, 0x0211	; 0x800211 <intFunc+0x1>
    61b4:	19 95       	eicall
    61b6:	ff 91       	pop	r31
    61b8:	ef 91       	pop	r30
    61ba:	bf 91       	pop	r27
    61bc:	af 91       	pop	r26
    61be:	9f 91       	pop	r25
    61c0:	8f 91       	pop	r24
    61c2:	7f 91       	pop	r23
    61c4:	6f 91       	pop	r22
    61c6:	5f 91       	pop	r21
    61c8:	4f 91       	pop	r20
    61ca:	3f 91       	pop	r19
    61cc:	2f 91       	pop	r18
    61ce:	0f 90       	pop	r0
    61d0:	0b be       	out	0x3b, r0	; 59
    61d2:	0f 90       	pop	r0
    61d4:	0f be       	out	0x3f, r0	; 63
    61d6:	0f 90       	pop	r0
    61d8:	1f 90       	pop	r1
    61da:	18 95       	reti

000061dc <__vector_6>:
    61dc:	1f 92       	push	r1
    61de:	0f 92       	push	r0
    61e0:	0f b6       	in	r0, 0x3f	; 63
    61e2:	0f 92       	push	r0
    61e4:	11 24       	eor	r1, r1
    61e6:	0b b6       	in	r0, 0x3b	; 59
    61e8:	0f 92       	push	r0
    61ea:	2f 93       	push	r18
    61ec:	3f 93       	push	r19
    61ee:	4f 93       	push	r20
    61f0:	5f 93       	push	r21
    61f2:	6f 93       	push	r22
    61f4:	7f 93       	push	r23
    61f6:	8f 93       	push	r24
    61f8:	9f 93       	push	r25
    61fa:	af 93       	push	r26
    61fc:	bf 93       	push	r27
    61fe:	ef 93       	push	r30
    6200:	ff 93       	push	r31
    6202:	e0 91 12 02 	lds	r30, 0x0212	; 0x800212 <intFunc+0x2>
    6206:	f0 91 13 02 	lds	r31, 0x0213	; 0x800213 <intFunc+0x3>
    620a:	19 95       	eicall
    620c:	ff 91       	pop	r31
    620e:	ef 91       	pop	r30
    6210:	bf 91       	pop	r27
    6212:	af 91       	pop	r26
    6214:	9f 91       	pop	r25
    6216:	8f 91       	pop	r24
    6218:	7f 91       	pop	r23
    621a:	6f 91       	pop	r22
    621c:	5f 91       	pop	r21
    621e:	4f 91       	pop	r20
    6220:	3f 91       	pop	r19
    6222:	2f 91       	pop	r18
    6224:	0f 90       	pop	r0
    6226:	0b be       	out	0x3b, r0	; 59
    6228:	0f 90       	pop	r0
    622a:	0f be       	out	0x3f, r0	; 63
    622c:	0f 90       	pop	r0
    622e:	1f 90       	pop	r1
    6230:	18 95       	reti

00006232 <__vector_7>:
    6232:	1f 92       	push	r1
    6234:	0f 92       	push	r0
    6236:	0f b6       	in	r0, 0x3f	; 63
    6238:	0f 92       	push	r0
    623a:	11 24       	eor	r1, r1
    623c:	0b b6       	in	r0, 0x3b	; 59
    623e:	0f 92       	push	r0
    6240:	2f 93       	push	r18
    6242:	3f 93       	push	r19
    6244:	4f 93       	push	r20
    6246:	5f 93       	push	r21
    6248:	6f 93       	push	r22
    624a:	7f 93       	push	r23
    624c:	8f 93       	push	r24
    624e:	9f 93       	push	r25
    6250:	af 93       	push	r26
    6252:	bf 93       	push	r27
    6254:	ef 93       	push	r30
    6256:	ff 93       	push	r31
    6258:	e0 91 1c 02 	lds	r30, 0x021C	; 0x80021c <intFunc+0xc>
    625c:	f0 91 1d 02 	lds	r31, 0x021D	; 0x80021d <intFunc+0xd>
    6260:	19 95       	eicall
    6262:	ff 91       	pop	r31
    6264:	ef 91       	pop	r30
    6266:	bf 91       	pop	r27
    6268:	af 91       	pop	r26
    626a:	9f 91       	pop	r25
    626c:	8f 91       	pop	r24
    626e:	7f 91       	pop	r23
    6270:	6f 91       	pop	r22
    6272:	5f 91       	pop	r21
    6274:	4f 91       	pop	r20
    6276:	3f 91       	pop	r19
    6278:	2f 91       	pop	r18
    627a:	0f 90       	pop	r0
    627c:	0b be       	out	0x3b, r0	; 59
    627e:	0f 90       	pop	r0
    6280:	0f be       	out	0x3f, r0	; 63
    6282:	0f 90       	pop	r0
    6284:	1f 90       	pop	r1
    6286:	18 95       	reti

00006288 <__vector_8>:
    6288:	1f 92       	push	r1
    628a:	0f 92       	push	r0
    628c:	0f b6       	in	r0, 0x3f	; 63
    628e:	0f 92       	push	r0
    6290:	11 24       	eor	r1, r1
    6292:	0b b6       	in	r0, 0x3b	; 59
    6294:	0f 92       	push	r0
    6296:	2f 93       	push	r18
    6298:	3f 93       	push	r19
    629a:	4f 93       	push	r20
    629c:	5f 93       	push	r21
    629e:	6f 93       	push	r22
    62a0:	7f 93       	push	r23
    62a2:	8f 93       	push	r24
    62a4:	9f 93       	push	r25
    62a6:	af 93       	push	r26
    62a8:	bf 93       	push	r27
    62aa:	ef 93       	push	r30
    62ac:	ff 93       	push	r31
    62ae:	e0 91 1e 02 	lds	r30, 0x021E	; 0x80021e <intFunc+0xe>
    62b2:	f0 91 1f 02 	lds	r31, 0x021F	; 0x80021f <intFunc+0xf>
    62b6:	19 95       	eicall
    62b8:	ff 91       	pop	r31
    62ba:	ef 91       	pop	r30
    62bc:	bf 91       	pop	r27
    62be:	af 91       	pop	r26
    62c0:	9f 91       	pop	r25
    62c2:	8f 91       	pop	r24
    62c4:	7f 91       	pop	r23
    62c6:	6f 91       	pop	r22
    62c8:	5f 91       	pop	r21
    62ca:	4f 91       	pop	r20
    62cc:	3f 91       	pop	r19
    62ce:	2f 91       	pop	r18
    62d0:	0f 90       	pop	r0
    62d2:	0b be       	out	0x3b, r0	; 59
    62d4:	0f 90       	pop	r0
    62d6:	0f be       	out	0x3f, r0	; 63
    62d8:	0f 90       	pop	r0
    62da:	1f 90       	pop	r1
    62dc:	18 95       	reti

000062de <_ZN12Adafruit_GFX9writeLineEiiiij>:
    62de:	2f 92       	push	r2
    62e0:	3f 92       	push	r3
    62e2:	4f 92       	push	r4
    62e4:	5f 92       	push	r5
    62e6:	6f 92       	push	r6
    62e8:	7f 92       	push	r7
    62ea:	8f 92       	push	r8
    62ec:	9f 92       	push	r9
    62ee:	af 92       	push	r10
    62f0:	bf 92       	push	r11
    62f2:	cf 92       	push	r12
    62f4:	df 92       	push	r13
    62f6:	ef 92       	push	r14
    62f8:	ff 92       	push	r15
    62fa:	0f 93       	push	r16
    62fc:	1f 93       	push	r17
    62fe:	cf 93       	push	r28
    6300:	df 93       	push	r29
    6302:	00 d0       	rcall	.+0      	; 0x6304 <_ZN12Adafruit_GFX9writeLineEiiiij+0x26>
    6304:	00 d0       	rcall	.+0      	; 0x6306 <_ZN12Adafruit_GFX9writeLineEiiiij+0x28>
    6306:	cd b7       	in	r28, 0x3d	; 61
    6308:	de b7       	in	r29, 0x3e	; 62
    630a:	2c 01       	movw	r4, r24
    630c:	7e 83       	std	Y+6, r23	; 0x06
    630e:	6d 83       	std	Y+5, r22	; 0x05
    6310:	6a 01       	movw	r12, r20
    6312:	59 01       	movw	r10, r18
    6314:	c8 01       	movw	r24, r16
    6316:	fc 82       	std	Y+4, r15	; 0x04
    6318:	eb 82       	std	Y+3, r14	; 0x03
    631a:	48 01       	movw	r8, r16
    631c:	84 1a       	sub	r8, r20
    631e:	95 0a       	sbc	r9, r21
    6320:	97 fe       	sbrs	r9, 7
    6322:	03 c0       	rjmp	.+6      	; 0x632a <_ZN12Adafruit_GFX9writeLineEiiiij+0x4c>
    6324:	91 94       	neg	r9
    6326:	81 94       	neg	r8
    6328:	91 08       	sbc	r9, r1
    632a:	35 01       	movw	r6, r10
    632c:	2d 81       	ldd	r18, Y+5	; 0x05
    632e:	3e 81       	ldd	r19, Y+6	; 0x06
    6330:	62 1a       	sub	r6, r18
    6332:	73 0a       	sbc	r7, r19
    6334:	77 fe       	sbrs	r7, 7
    6336:	03 c0       	rjmp	.+6      	; 0x633e <_ZN12Adafruit_GFX9writeLineEiiiij+0x60>
    6338:	71 94       	neg	r7
    633a:	61 94       	neg	r6
    633c:	71 08       	sbc	r7, r1
    633e:	68 14       	cp	r6, r8
    6340:	79 04       	cpc	r7, r9
    6342:	5c f4       	brge	.+22     	; 0x635a <_ZN12Adafruit_GFX9writeLineEiiiij+0x7c>
    6344:	3a 2d       	mov	r19, r10
    6346:	2b 2d       	mov	r18, r11
    6348:	5c 01       	movw	r10, r24
    634a:	83 2f       	mov	r24, r19
    634c:	92 2f       	mov	r25, r18
    634e:	3d 81       	ldd	r19, Y+5	; 0x05
    6350:	2e 81       	ldd	r18, Y+6	; 0x06
    6352:	de 82       	std	Y+6, r13	; 0x06
    6354:	cd 82       	std	Y+5, r12	; 0x05
    6356:	c3 2e       	mov	r12, r19
    6358:	d2 2e       	mov	r13, r18
    635a:	ad 81       	ldd	r26, Y+5	; 0x05
    635c:	be 81       	ldd	r27, Y+6	; 0x06
    635e:	aa 16       	cp	r10, r26
    6360:	bb 06       	cpc	r11, r27
    6362:	5c f4       	brge	.+22     	; 0x637a <_ZN12Adafruit_GFX9writeLineEiiiij+0x9c>
    6364:	3c 2d       	mov	r19, r12
    6366:	2d 2d       	mov	r18, r13
    6368:	6c 01       	movw	r12, r24
    636a:	83 2f       	mov	r24, r19
    636c:	92 2f       	mov	r25, r18
    636e:	3d 81       	ldd	r19, Y+5	; 0x05
    6370:	2e 81       	ldd	r18, Y+6	; 0x06
    6372:	be 82       	std	Y+6, r11	; 0x06
    6374:	ad 82       	std	Y+5, r10	; 0x05
    6376:	a3 2e       	mov	r10, r19
    6378:	b2 2e       	mov	r11, r18
    637a:	85 01       	movw	r16, r10
    637c:	2d 81       	ldd	r18, Y+5	; 0x05
    637e:	3e 81       	ldd	r19, Y+6	; 0x06
    6380:	02 1b       	sub	r16, r18
    6382:	13 0b       	sbc	r17, r19
    6384:	1c 01       	movw	r2, r24
    6386:	2c 18       	sub	r2, r12
    6388:	3d 08       	sbc	r3, r13
    638a:	37 fe       	sbrs	r3, 7
    638c:	03 c0       	rjmp	.+6      	; 0x6394 <_ZN12Adafruit_GFX9writeLineEiiiij+0xb6>
    638e:	31 94       	neg	r3
    6390:	21 94       	neg	r2
    6392:	31 08       	sbc	r3, r1
    6394:	78 01       	movw	r14, r16
    6396:	17 ff       	sbrs	r17, 7
    6398:	03 c0       	rjmp	.+6      	; 0x63a0 <_ZN12Adafruit_GFX9writeLineEiiiij+0xc2>
    639a:	3f ef       	ldi	r19, 0xFF	; 255
    639c:	e3 1a       	sub	r14, r19
    639e:	f3 0a       	sbc	r15, r19
    63a0:	f5 94       	asr	r15
    63a2:	e7 94       	ror	r14
    63a4:	c8 16       	cp	r12, r24
    63a6:	d9 06       	cpc	r13, r25
    63a8:	2c f0       	brlt	.+10     	; 0x63b4 <_ZN12Adafruit_GFX9writeLineEiiiij+0xd6>
    63aa:	8f ef       	ldi	r24, 0xFF	; 255
    63ac:	9f ef       	ldi	r25, 0xFF	; 255
    63ae:	9a 83       	std	Y+2, r25	; 0x02
    63b0:	89 83       	std	Y+1, r24	; 0x01
    63b2:	04 c0       	rjmp	.+8      	; 0x63bc <_ZN12Adafruit_GFX9writeLineEiiiij+0xde>
    63b4:	a1 e0       	ldi	r26, 0x01	; 1
    63b6:	b0 e0       	ldi	r27, 0x00	; 0
    63b8:	ba 83       	std	Y+2, r27	; 0x02
    63ba:	a9 83       	std	Y+1, r26	; 0x01
    63bc:	2d 81       	ldd	r18, Y+5	; 0x05
    63be:	3e 81       	ldd	r19, Y+6	; 0x06
    63c0:	a2 16       	cp	r10, r18
    63c2:	b3 06       	cpc	r11, r19
    63c4:	24 f1       	brlt	.+72     	; 0x640e <_ZN12Adafruit_GFX9writeLineEiiiij+0x130>
    63c6:	d2 01       	movw	r26, r4
    63c8:	ed 91       	ld	r30, X+
    63ca:	fc 91       	ld	r31, X
    63cc:	04 84       	ldd	r0, Z+12	; 0x0c
    63ce:	f5 85       	ldd	r31, Z+13	; 0x0d
    63d0:	e0 2d       	mov	r30, r0
    63d2:	2b 81       	ldd	r18, Y+3	; 0x03
    63d4:	3c 81       	ldd	r19, Y+4	; 0x04
    63d6:	68 14       	cp	r6, r8
    63d8:	79 04       	cpc	r7, r9
    63da:	24 f4       	brge	.+8      	; 0x63e4 <_ZN12Adafruit_GFX9writeLineEiiiij+0x106>
    63dc:	4d 81       	ldd	r20, Y+5	; 0x05
    63de:	5e 81       	ldd	r21, Y+6	; 0x06
    63e0:	b6 01       	movw	r22, r12
    63e2:	03 c0       	rjmp	.+6      	; 0x63ea <_ZN12Adafruit_GFX9writeLineEiiiij+0x10c>
    63e4:	a6 01       	movw	r20, r12
    63e6:	6d 81       	ldd	r22, Y+5	; 0x05
    63e8:	7e 81       	ldd	r23, Y+6	; 0x06
    63ea:	c2 01       	movw	r24, r4
    63ec:	19 95       	eicall
    63ee:	e2 18       	sub	r14, r2
    63f0:	f3 08       	sbc	r15, r3
    63f2:	f7 fe       	sbrs	r15, 7
    63f4:	06 c0       	rjmp	.+12     	; 0x6402 <_ZN12Adafruit_GFX9writeLineEiiiij+0x124>
    63f6:	29 81       	ldd	r18, Y+1	; 0x01
    63f8:	3a 81       	ldd	r19, Y+2	; 0x02
    63fa:	c2 0e       	add	r12, r18
    63fc:	d3 1e       	adc	r13, r19
    63fe:	e0 0e       	add	r14, r16
    6400:	f1 1e       	adc	r15, r17
    6402:	8d 81       	ldd	r24, Y+5	; 0x05
    6404:	9e 81       	ldd	r25, Y+6	; 0x06
    6406:	01 96       	adiw	r24, 0x01	; 1
    6408:	9e 83       	std	Y+6, r25	; 0x06
    640a:	8d 83       	std	Y+5, r24	; 0x05
    640c:	d7 cf       	rjmp	.-82     	; 0x63bc <_ZN12Adafruit_GFX9writeLineEiiiij+0xde>
    640e:	26 96       	adiw	r28, 0x06	; 6
    6410:	0f b6       	in	r0, 0x3f	; 63
    6412:	f8 94       	cli
    6414:	de bf       	out	0x3e, r29	; 62
    6416:	0f be       	out	0x3f, r0	; 63
    6418:	cd bf       	out	0x3d, r28	; 61
    641a:	df 91       	pop	r29
    641c:	cf 91       	pop	r28
    641e:	1f 91       	pop	r17
    6420:	0f 91       	pop	r16
    6422:	ff 90       	pop	r15
    6424:	ef 90       	pop	r14
    6426:	df 90       	pop	r13
    6428:	cf 90       	pop	r12
    642a:	bf 90       	pop	r11
    642c:	af 90       	pop	r10
    642e:	9f 90       	pop	r9
    6430:	8f 90       	pop	r8
    6432:	7f 90       	pop	r7
    6434:	6f 90       	pop	r6
    6436:	5f 90       	pop	r5
    6438:	4f 90       	pop	r4
    643a:	3f 90       	pop	r3
    643c:	2f 90       	pop	r2
    643e:	08 95       	ret

00006440 <_ZN12Adafruit_GFX10writePixelEiij>:
    6440:	dc 01       	movw	r26, r24
    6442:	ed 91       	ld	r30, X+
    6444:	fc 91       	ld	r31, X
    6446:	00 84       	ldd	r0, Z+8	; 0x08
    6448:	f1 85       	ldd	r31, Z+9	; 0x09
    644a:	e0 2d       	mov	r30, r0
    644c:	19 94       	eijmp

0000644e <_ZN12Adafruit_GFX14writeFastVLineEiiij>:
    644e:	0f 93       	push	r16
    6450:	1f 93       	push	r17
    6452:	dc 01       	movw	r26, r24
    6454:	ed 91       	ld	r30, X+
    6456:	fc 91       	ld	r31, X
    6458:	04 8c       	ldd	r0, Z+28	; 0x1c
    645a:	f5 8d       	ldd	r31, Z+29	; 0x1d
    645c:	e0 2d       	mov	r30, r0
    645e:	19 95       	eicall
    6460:	1f 91       	pop	r17
    6462:	0f 91       	pop	r16
    6464:	08 95       	ret

00006466 <_ZN12Adafruit_GFX14writeFastHLineEiiij>:
    6466:	0f 93       	push	r16
    6468:	1f 93       	push	r17
    646a:	dc 01       	movw	r26, r24
    646c:	ed 91       	ld	r30, X+
    646e:	fc 91       	ld	r31, X
    6470:	06 8c       	ldd	r0, Z+30	; 0x1e
    6472:	f7 8d       	ldd	r31, Z+31	; 0x1f
    6474:	e0 2d       	mov	r30, r0
    6476:	19 95       	eicall
    6478:	1f 91       	pop	r17
    647a:	0f 91       	pop	r16
    647c:	08 95       	ret

0000647e <_ZN12Adafruit_GFX13writeFillRectEiiiij>:
    647e:	ef 92       	push	r14
    6480:	ff 92       	push	r15
    6482:	0f 93       	push	r16
    6484:	1f 93       	push	r17
    6486:	dc 01       	movw	r26, r24
    6488:	ed 91       	ld	r30, X+
    648a:	fc 91       	ld	r31, X
    648c:	00 a0       	ldd	r0, Z+32	; 0x20
    648e:	f1 a1       	ldd	r31, Z+33	; 0x21
    6490:	e0 2d       	mov	r30, r0
    6492:	19 95       	eicall
    6494:	1f 91       	pop	r17
    6496:	0f 91       	pop	r16
    6498:	ff 90       	pop	r15
    649a:	ef 90       	pop	r14
    649c:	08 95       	ret

0000649e <_ZN12Adafruit_GFX10startWriteEv>:
    649e:	08 95       	ret

000064a0 <_ZN12Adafruit_GFX13drawFastVLineEiiij>:
    64a0:	8f 92       	push	r8
    64a2:	9f 92       	push	r9
    64a4:	af 92       	push	r10
    64a6:	bf 92       	push	r11
    64a8:	cf 92       	push	r12
    64aa:	df 92       	push	r13
    64ac:	ef 92       	push	r14
    64ae:	ff 92       	push	r15
    64b0:	0f 93       	push	r16
    64b2:	1f 93       	push	r17
    64b4:	cf 93       	push	r28
    64b6:	df 93       	push	r29
    64b8:	ec 01       	movw	r28, r24
    64ba:	5b 01       	movw	r10, r22
    64bc:	4a 01       	movw	r8, r20
    64be:	69 01       	movw	r12, r18
    64c0:	78 01       	movw	r14, r16
    64c2:	e8 81       	ld	r30, Y
    64c4:	f9 81       	ldd	r31, Y+1	; 0x01
    64c6:	02 84       	ldd	r0, Z+10	; 0x0a
    64c8:	f3 85       	ldd	r31, Z+11	; 0x0b
    64ca:	e0 2d       	mov	r30, r0
    64cc:	19 95       	eicall
    64ce:	c8 0c       	add	r12, r8
    64d0:	d9 1c       	adc	r13, r9
    64d2:	86 01       	movw	r16, r12
    64d4:	01 50       	subi	r16, 0x01	; 1
    64d6:	11 09       	sbc	r17, r1
    64d8:	e8 81       	ld	r30, Y
    64da:	f9 81       	ldd	r31, Y+1	; 0x01
    64dc:	04 88       	ldd	r0, Z+20	; 0x14
    64de:	f5 89       	ldd	r31, Z+21	; 0x15
    64e0:	e0 2d       	mov	r30, r0
    64e2:	95 01       	movw	r18, r10
    64e4:	a4 01       	movw	r20, r8
    64e6:	b5 01       	movw	r22, r10
    64e8:	ce 01       	movw	r24, r28
    64ea:	19 95       	eicall
    64ec:	e8 81       	ld	r30, Y
    64ee:	f9 81       	ldd	r31, Y+1	; 0x01
    64f0:	06 88       	ldd	r0, Z+22	; 0x16
    64f2:	f7 89       	ldd	r31, Z+23	; 0x17
    64f4:	e0 2d       	mov	r30, r0
    64f6:	ce 01       	movw	r24, r28
    64f8:	df 91       	pop	r29
    64fa:	cf 91       	pop	r28
    64fc:	1f 91       	pop	r17
    64fe:	0f 91       	pop	r16
    6500:	ff 90       	pop	r15
    6502:	ef 90       	pop	r14
    6504:	df 90       	pop	r13
    6506:	cf 90       	pop	r12
    6508:	bf 90       	pop	r11
    650a:	af 90       	pop	r10
    650c:	9f 90       	pop	r9
    650e:	8f 90       	pop	r8
    6510:	19 94       	eijmp

00006512 <_ZN12Adafruit_GFX13drawFastHLineEiiij>:
    6512:	8f 92       	push	r8
    6514:	9f 92       	push	r9
    6516:	af 92       	push	r10
    6518:	bf 92       	push	r11
    651a:	cf 92       	push	r12
    651c:	df 92       	push	r13
    651e:	ef 92       	push	r14
    6520:	ff 92       	push	r15
    6522:	0f 93       	push	r16
    6524:	1f 93       	push	r17
    6526:	cf 93       	push	r28
    6528:	df 93       	push	r29
    652a:	ec 01       	movw	r28, r24
    652c:	5b 01       	movw	r10, r22
    652e:	4a 01       	movw	r8, r20
    6530:	69 01       	movw	r12, r18
    6532:	e8 81       	ld	r30, Y
    6534:	f9 81       	ldd	r31, Y+1	; 0x01
    6536:	02 84       	ldd	r0, Z+10	; 0x0a
    6538:	f3 85       	ldd	r31, Z+11	; 0x0b
    653a:	e0 2d       	mov	r30, r0
    653c:	19 95       	eicall
    653e:	95 01       	movw	r18, r10
    6540:	2c 0d       	add	r18, r12
    6542:	3d 1d       	adc	r19, r13
    6544:	21 50       	subi	r18, 0x01	; 1
    6546:	31 09       	sbc	r19, r1
    6548:	e8 81       	ld	r30, Y
    654a:	f9 81       	ldd	r31, Y+1	; 0x01
    654c:	04 88       	ldd	r0, Z+20	; 0x14
    654e:	f5 89       	ldd	r31, Z+21	; 0x15
    6550:	e0 2d       	mov	r30, r0
    6552:	78 01       	movw	r14, r16
    6554:	84 01       	movw	r16, r8
    6556:	a4 01       	movw	r20, r8
    6558:	b5 01       	movw	r22, r10
    655a:	ce 01       	movw	r24, r28
    655c:	19 95       	eicall
    655e:	e8 81       	ld	r30, Y
    6560:	f9 81       	ldd	r31, Y+1	; 0x01
    6562:	06 88       	ldd	r0, Z+22	; 0x16
    6564:	f7 89       	ldd	r31, Z+23	; 0x17
    6566:	e0 2d       	mov	r30, r0
    6568:	ce 01       	movw	r24, r28
    656a:	df 91       	pop	r29
    656c:	cf 91       	pop	r28
    656e:	1f 91       	pop	r17
    6570:	0f 91       	pop	r16
    6572:	ff 90       	pop	r15
    6574:	ef 90       	pop	r14
    6576:	df 90       	pop	r13
    6578:	cf 90       	pop	r12
    657a:	bf 90       	pop	r11
    657c:	af 90       	pop	r10
    657e:	9f 90       	pop	r9
    6580:	8f 90       	pop	r8
    6582:	19 94       	eijmp

00006584 <_ZN12Adafruit_GFX8fillRectEiiiij>:
    6584:	4f 92       	push	r4
    6586:	5f 92       	push	r5
    6588:	6f 92       	push	r6
    658a:	7f 92       	push	r7
    658c:	8f 92       	push	r8
    658e:	9f 92       	push	r9
    6590:	af 92       	push	r10
    6592:	bf 92       	push	r11
    6594:	cf 92       	push	r12
    6596:	df 92       	push	r13
    6598:	ef 92       	push	r14
    659a:	ff 92       	push	r15
    659c:	0f 93       	push	r16
    659e:	1f 93       	push	r17
    65a0:	cf 93       	push	r28
    65a2:	df 93       	push	r29
    65a4:	6c 01       	movw	r12, r24
    65a6:	2b 01       	movw	r4, r22
    65a8:	5a 01       	movw	r10, r20
    65aa:	39 01       	movw	r6, r18
    65ac:	48 01       	movw	r8, r16
    65ae:	dc 01       	movw	r26, r24
    65b0:	ed 91       	ld	r30, X+
    65b2:	fc 91       	ld	r31, X
    65b4:	02 84       	ldd	r0, Z+10	; 0x0a
    65b6:	f3 85       	ldd	r31, Z+11	; 0x0b
    65b8:	e0 2d       	mov	r30, r0
    65ba:	19 95       	eicall
    65bc:	e2 01       	movw	r28, r4
    65be:	64 0c       	add	r6, r4
    65c0:	75 1c       	adc	r7, r5
    65c2:	d6 01       	movw	r26, r12
    65c4:	ed 91       	ld	r30, X+
    65c6:	fc 91       	ld	r31, X
    65c8:	c6 15       	cp	r28, r6
    65ca:	d7 05       	cpc	r29, r7
    65cc:	5c f4       	brge	.+22     	; 0x65e4 <_ZN12Adafruit_GFX8fillRectEiiiij+0x60>
    65ce:	00 88       	ldd	r0, Z+16	; 0x10
    65d0:	f1 89       	ldd	r31, Z+17	; 0x11
    65d2:	e0 2d       	mov	r30, r0
    65d4:	87 01       	movw	r16, r14
    65d6:	94 01       	movw	r18, r8
    65d8:	a5 01       	movw	r20, r10
    65da:	be 01       	movw	r22, r28
    65dc:	c6 01       	movw	r24, r12
    65de:	19 95       	eicall
    65e0:	21 96       	adiw	r28, 0x01	; 1
    65e2:	ef cf       	rjmp	.-34     	; 0x65c2 <_ZN12Adafruit_GFX8fillRectEiiiij+0x3e>
    65e4:	06 88       	ldd	r0, Z+22	; 0x16
    65e6:	f7 89       	ldd	r31, Z+23	; 0x17
    65e8:	e0 2d       	mov	r30, r0
    65ea:	c6 01       	movw	r24, r12
    65ec:	df 91       	pop	r29
    65ee:	cf 91       	pop	r28
    65f0:	1f 91       	pop	r17
    65f2:	0f 91       	pop	r16
    65f4:	ff 90       	pop	r15
    65f6:	ef 90       	pop	r14
    65f8:	df 90       	pop	r13
    65fa:	cf 90       	pop	r12
    65fc:	bf 90       	pop	r11
    65fe:	af 90       	pop	r10
    6600:	9f 90       	pop	r9
    6602:	8f 90       	pop	r8
    6604:	7f 90       	pop	r7
    6606:	6f 90       	pop	r6
    6608:	5f 90       	pop	r5
    660a:	4f 90       	pop	r4
    660c:	19 94       	eijmp

0000660e <_ZN12Adafruit_GFX10fillScreenEj>:
    660e:	ef 92       	push	r14
    6610:	ff 92       	push	r15
    6612:	0f 93       	push	r16
    6614:	1f 93       	push	r17
    6616:	dc 01       	movw	r26, r24
    6618:	1a 96       	adiw	r26, 0x0a	; 10
    661a:	0d 91       	ld	r16, X+
    661c:	1c 91       	ld	r17, X
    661e:	1b 97       	sbiw	r26, 0x0b	; 11
    6620:	18 96       	adiw	r26, 0x08	; 8
    6622:	2d 91       	ld	r18, X+
    6624:	3c 91       	ld	r19, X
    6626:	19 97       	sbiw	r26, 0x09	; 9
    6628:	ed 91       	ld	r30, X+
    662a:	fc 91       	ld	r31, X
    662c:	00 a0       	ldd	r0, Z+32	; 0x20
    662e:	f1 a1       	ldd	r31, Z+33	; 0x21
    6630:	e0 2d       	mov	r30, r0
    6632:	7b 01       	movw	r14, r22
    6634:	40 e0       	ldi	r20, 0x00	; 0
    6636:	50 e0       	ldi	r21, 0x00	; 0
    6638:	60 e0       	ldi	r22, 0x00	; 0
    663a:	70 e0       	ldi	r23, 0x00	; 0
    663c:	19 95       	eicall
    663e:	1f 91       	pop	r17
    6640:	0f 91       	pop	r16
    6642:	ff 90       	pop	r15
    6644:	ef 90       	pop	r14
    6646:	08 95       	ret

00006648 <_ZN12Adafruit_GFX8drawLineEiiiij>:
    6648:	8f 92       	push	r8
    664a:	9f 92       	push	r9
    664c:	af 92       	push	r10
    664e:	bf 92       	push	r11
    6650:	cf 92       	push	r12
    6652:	df 92       	push	r13
    6654:	ef 92       	push	r14
    6656:	ff 92       	push	r15
    6658:	0f 93       	push	r16
    665a:	1f 93       	push	r17
    665c:	cf 93       	push	r28
    665e:	df 93       	push	r29
    6660:	4c 01       	movw	r8, r24
    6662:	6b 01       	movw	r12, r22
    6664:	5a 01       	movw	r10, r20
    6666:	e9 01       	movw	r28, r18
    6668:	dc 01       	movw	r26, r24
    666a:	ed 91       	ld	r30, X+
    666c:	fc 91       	ld	r31, X
    666e:	62 17       	cp	r22, r18
    6670:	73 07       	cpc	r23, r19
    6672:	81 f4       	brne	.+32     	; 0x6694 <_ZN12Adafruit_GFX8drawLineEiiiij+0x4c>
    6674:	04 17       	cp	r16, r20
    6676:	15 07       	cpc	r17, r21
    6678:	24 f4       	brge	.+8      	; 0x6682 <_ZN12Adafruit_GFX8drawLineEiiiij+0x3a>
    667a:	8b 2d       	mov	r24, r11
    667c:	58 01       	movw	r10, r16
    667e:	04 2f       	mov	r16, r20
    6680:	18 2f       	mov	r17, r24
    6682:	0a 19       	sub	r16, r10
    6684:	1b 09       	sbc	r17, r11
    6686:	98 01       	movw	r18, r16
    6688:	2f 5f       	subi	r18, 0xFF	; 255
    668a:	3f 4f       	sbci	r19, 0xFF	; 255
    668c:	04 8c       	ldd	r0, Z+28	; 0x1c
    668e:	f5 8d       	ldd	r31, Z+29	; 0x1d
    6690:	e0 2d       	mov	r30, r0
    6692:	12 c0       	rjmp	.+36     	; 0x66b8 <_ZN12Adafruit_GFX8drawLineEiiiij+0x70>
    6694:	40 17       	cp	r20, r16
    6696:	51 07       	cpc	r21, r17
    6698:	09 f5       	brne	.+66     	; 0x66dc <_ZN12Adafruit_GFX8drawLineEiiiij+0x94>
    669a:	26 17       	cp	r18, r22
    669c:	37 07       	cpc	r19, r23
    669e:	24 f4       	brge	.+8      	; 0x66a8 <_ZN12Adafruit_GFX8drawLineEiiiij+0x60>
    66a0:	8d 2d       	mov	r24, r13
    66a2:	69 01       	movw	r12, r18
    66a4:	c6 2f       	mov	r28, r22
    66a6:	d8 2f       	mov	r29, r24
    66a8:	9e 01       	movw	r18, r28
    66aa:	2c 19       	sub	r18, r12
    66ac:	3d 09       	sbc	r19, r13
    66ae:	2f 5f       	subi	r18, 0xFF	; 255
    66b0:	3f 4f       	sbci	r19, 0xFF	; 255
    66b2:	06 8c       	ldd	r0, Z+30	; 0x1e
    66b4:	f7 8d       	ldd	r31, Z+31	; 0x1f
    66b6:	e0 2d       	mov	r30, r0
    66b8:	87 01       	movw	r16, r14
    66ba:	a5 01       	movw	r20, r10
    66bc:	b6 01       	movw	r22, r12
    66be:	c4 01       	movw	r24, r8
    66c0:	19 95       	eicall
    66c2:	df 91       	pop	r29
    66c4:	cf 91       	pop	r28
    66c6:	1f 91       	pop	r17
    66c8:	0f 91       	pop	r16
    66ca:	ff 90       	pop	r15
    66cc:	ef 90       	pop	r14
    66ce:	df 90       	pop	r13
    66d0:	cf 90       	pop	r12
    66d2:	bf 90       	pop	r11
    66d4:	af 90       	pop	r10
    66d6:	9f 90       	pop	r9
    66d8:	8f 90       	pop	r8
    66da:	08 95       	ret
    66dc:	02 84       	ldd	r0, Z+10	; 0x0a
    66de:	f3 85       	ldd	r31, Z+11	; 0x0b
    66e0:	e0 2d       	mov	r30, r0
    66e2:	19 95       	eicall
    66e4:	d4 01       	movw	r26, r8
    66e6:	ed 91       	ld	r30, X+
    66e8:	fc 91       	ld	r31, X
    66ea:	04 88       	ldd	r0, Z+20	; 0x14
    66ec:	f5 89       	ldd	r31, Z+21	; 0x15
    66ee:	e0 2d       	mov	r30, r0
    66f0:	9e 01       	movw	r18, r28
    66f2:	a5 01       	movw	r20, r10
    66f4:	b6 01       	movw	r22, r12
    66f6:	c4 01       	movw	r24, r8
    66f8:	19 95       	eicall
    66fa:	d4 01       	movw	r26, r8
    66fc:	ed 91       	ld	r30, X+
    66fe:	fc 91       	ld	r31, X
    6700:	06 88       	ldd	r0, Z+22	; 0x16
    6702:	f7 89       	ldd	r31, Z+23	; 0x17
    6704:	e0 2d       	mov	r30, r0
    6706:	c4 01       	movw	r24, r8
    6708:	df 91       	pop	r29
    670a:	cf 91       	pop	r28
    670c:	1f 91       	pop	r17
    670e:	0f 91       	pop	r16
    6710:	ff 90       	pop	r15
    6712:	ef 90       	pop	r14
    6714:	df 90       	pop	r13
    6716:	cf 90       	pop	r12
    6718:	bf 90       	pop	r11
    671a:	af 90       	pop	r10
    671c:	9f 90       	pop	r9
    671e:	8f 90       	pop	r8
    6720:	19 94       	eijmp

00006722 <_ZN12Adafruit_GFX8drawRectEiiiij>:
    6722:	6f 92       	push	r6
    6724:	7f 92       	push	r7
    6726:	8f 92       	push	r8
    6728:	9f 92       	push	r9
    672a:	af 92       	push	r10
    672c:	bf 92       	push	r11
    672e:	cf 92       	push	r12
    6730:	df 92       	push	r13
    6732:	ef 92       	push	r14
    6734:	ff 92       	push	r15
    6736:	0f 93       	push	r16
    6738:	1f 93       	push	r17
    673a:	cf 93       	push	r28
    673c:	df 93       	push	r29
    673e:	ec 01       	movw	r28, r24
    6740:	4b 01       	movw	r8, r22
    6742:	5a 01       	movw	r10, r20
    6744:	69 01       	movw	r12, r18
    6746:	38 01       	movw	r6, r16
    6748:	e8 81       	ld	r30, Y
    674a:	f9 81       	ldd	r31, Y+1	; 0x01
    674c:	02 84       	ldd	r0, Z+10	; 0x0a
    674e:	f3 85       	ldd	r31, Z+11	; 0x0b
    6750:	e0 2d       	mov	r30, r0
    6752:	19 95       	eicall
    6754:	e8 81       	ld	r30, Y
    6756:	f9 81       	ldd	r31, Y+1	; 0x01
    6758:	02 88       	ldd	r0, Z+18	; 0x12
    675a:	f3 89       	ldd	r31, Z+19	; 0x13
    675c:	e0 2d       	mov	r30, r0
    675e:	87 01       	movw	r16, r14
    6760:	96 01       	movw	r18, r12
    6762:	a5 01       	movw	r20, r10
    6764:	b4 01       	movw	r22, r8
    6766:	ce 01       	movw	r24, r28
    6768:	19 95       	eicall
    676a:	a5 01       	movw	r20, r10
    676c:	46 0d       	add	r20, r6
    676e:	57 1d       	adc	r21, r7
    6770:	41 50       	subi	r20, 0x01	; 1
    6772:	51 09       	sbc	r21, r1
    6774:	e8 81       	ld	r30, Y
    6776:	f9 81       	ldd	r31, Y+1	; 0x01
    6778:	02 88       	ldd	r0, Z+18	; 0x12
    677a:	f3 89       	ldd	r31, Z+19	; 0x13
    677c:	e0 2d       	mov	r30, r0
    677e:	96 01       	movw	r18, r12
    6780:	b4 01       	movw	r22, r8
    6782:	ce 01       	movw	r24, r28
    6784:	19 95       	eicall
    6786:	e8 81       	ld	r30, Y
    6788:	f9 81       	ldd	r31, Y+1	; 0x01
    678a:	00 88       	ldd	r0, Z+16	; 0x10
    678c:	f1 89       	ldd	r31, Z+17	; 0x11
    678e:	e0 2d       	mov	r30, r0
    6790:	93 01       	movw	r18, r6
    6792:	a5 01       	movw	r20, r10
    6794:	b4 01       	movw	r22, r8
    6796:	ce 01       	movw	r24, r28
    6798:	19 95       	eicall
    679a:	c8 0c       	add	r12, r8
    679c:	d9 1c       	adc	r13, r9
    679e:	b6 01       	movw	r22, r12
    67a0:	61 50       	subi	r22, 0x01	; 1
    67a2:	71 09       	sbc	r23, r1
    67a4:	e8 81       	ld	r30, Y
    67a6:	f9 81       	ldd	r31, Y+1	; 0x01
    67a8:	00 88       	ldd	r0, Z+16	; 0x10
    67aa:	f1 89       	ldd	r31, Z+17	; 0x11
    67ac:	e0 2d       	mov	r30, r0
    67ae:	93 01       	movw	r18, r6
    67b0:	a5 01       	movw	r20, r10
    67b2:	ce 01       	movw	r24, r28
    67b4:	19 95       	eicall
    67b6:	e8 81       	ld	r30, Y
    67b8:	f9 81       	ldd	r31, Y+1	; 0x01
    67ba:	06 88       	ldd	r0, Z+22	; 0x16
    67bc:	f7 89       	ldd	r31, Z+23	; 0x17
    67be:	e0 2d       	mov	r30, r0
    67c0:	ce 01       	movw	r24, r28
    67c2:	df 91       	pop	r29
    67c4:	cf 91       	pop	r28
    67c6:	1f 91       	pop	r17
    67c8:	0f 91       	pop	r16
    67ca:	ff 90       	pop	r15
    67cc:	ef 90       	pop	r14
    67ce:	df 90       	pop	r13
    67d0:	cf 90       	pop	r12
    67d2:	bf 90       	pop	r11
    67d4:	af 90       	pop	r10
    67d6:	9f 90       	pop	r9
    67d8:	8f 90       	pop	r8
    67da:	7f 90       	pop	r7
    67dc:	6f 90       	pop	r6
    67de:	19 94       	eijmp

000067e0 <_ZN12Adafruit_GFX13invertDisplayEb>:
    67e0:	08 95       	ret

000067e2 <_ZN12Adafruit_GFX11setRotationEh>:
    67e2:	fc 01       	movw	r30, r24
    67e4:	63 70       	andi	r22, 0x03	; 3
    67e6:	66 8b       	std	Z+22, r22	; 0x16
    67e8:	84 81       	ldd	r24, Z+4	; 0x04
    67ea:	95 81       	ldd	r25, Z+5	; 0x05
    67ec:	26 81       	ldd	r18, Z+6	; 0x06
    67ee:	37 81       	ldd	r19, Z+7	; 0x07
    67f0:	61 30       	cpi	r22, 0x01	; 1
    67f2:	39 f0       	breq	.+14     	; 0x6802 <_ZN12Adafruit_GFX11setRotationEh+0x20>
    67f4:	63 30       	cpi	r22, 0x03	; 3
    67f6:	29 f0       	breq	.+10     	; 0x6802 <_ZN12Adafruit_GFX11setRotationEh+0x20>
    67f8:	91 87       	std	Z+9, r25	; 0x09
    67fa:	80 87       	std	Z+8, r24	; 0x08
    67fc:	33 87       	std	Z+11, r19	; 0x0b
    67fe:	22 87       	std	Z+10, r18	; 0x0a
    6800:	08 95       	ret
    6802:	31 87       	std	Z+9, r19	; 0x09
    6804:	20 87       	std	Z+8, r18	; 0x08
    6806:	93 87       	std	Z+11, r25	; 0x0b
    6808:	82 87       	std	Z+10, r24	; 0x0a
    680a:	08 95       	ret

0000680c <_ZN12Adafruit_GFXC1Eii>:
    680c:	fc 01       	movw	r30, r24
    680e:	13 82       	std	Z+3, r1	; 0x03
    6810:	12 82       	std	Z+2, r1	; 0x02
    6812:	85 e7       	ldi	r24, 0x75	; 117
    6814:	97 e0       	ldi	r25, 0x07	; 7
    6816:	91 83       	std	Z+1, r25	; 0x01
    6818:	80 83       	st	Z, r24
    681a:	75 83       	std	Z+5, r23	; 0x05
    681c:	64 83       	std	Z+4, r22	; 0x04
    681e:	57 83       	std	Z+7, r21	; 0x07
    6820:	46 83       	std	Z+6, r20	; 0x06
    6822:	71 87       	std	Z+9, r23	; 0x09
    6824:	60 87       	std	Z+8, r22	; 0x08
    6826:	53 87       	std	Z+11, r21	; 0x0b
    6828:	42 87       	std	Z+10, r20	; 0x0a
    682a:	16 8a       	std	Z+22, r1	; 0x16
    682c:	15 86       	std	Z+13, r1	; 0x0d
    682e:	14 86       	std	Z+12, r1	; 0x0c
    6830:	17 86       	std	Z+15, r1	; 0x0f
    6832:	16 86       	std	Z+14, r1	; 0x0e
    6834:	81 e0       	ldi	r24, 0x01	; 1
    6836:	85 8b       	std	Z+21, r24	; 0x15
    6838:	84 8b       	std	Z+20, r24	; 0x14
    683a:	2f ef       	ldi	r18, 0xFF	; 255
    683c:	3f ef       	ldi	r19, 0xFF	; 255
    683e:	33 8b       	std	Z+19, r19	; 0x13
    6840:	22 8b       	std	Z+18, r18	; 0x12
    6842:	31 8b       	std	Z+17, r19	; 0x11
    6844:	20 8b       	std	Z+16, r18	; 0x10
    6846:	87 8b       	std	Z+23, r24	; 0x17
    6848:	10 8e       	std	Z+24, r1	; 0x18
    684a:	12 8e       	std	Z+26, r1	; 0x1a
    684c:	11 8e       	std	Z+25, r1	; 0x19
    684e:	08 95       	ret

00006850 <_ZN12Adafruit_GFX8drawCharEiihjjhh>:
    6850:	2f 92       	push	r2
    6852:	3f 92       	push	r3
    6854:	4f 92       	push	r4
    6856:	5f 92       	push	r5
    6858:	6f 92       	push	r6
    685a:	7f 92       	push	r7
    685c:	8f 92       	push	r8
    685e:	9f 92       	push	r9
    6860:	af 92       	push	r10
    6862:	bf 92       	push	r11
    6864:	cf 92       	push	r12
    6866:	df 92       	push	r13
    6868:	ef 92       	push	r14
    686a:	ff 92       	push	r15
    686c:	0f 93       	push	r16
    686e:	1f 93       	push	r17
    6870:	cf 93       	push	r28
    6872:	df 93       	push	r29
    6874:	cd b7       	in	r28, 0x3d	; 61
    6876:	de b7       	in	r29, 0x3e	; 62
    6878:	6b 97       	sbiw	r28, 0x1b	; 27
    687a:	0f b6       	in	r0, 0x3f	; 63
    687c:	f8 94       	cli
    687e:	de bf       	out	0x3e, r29	; 62
    6880:	0f be       	out	0x3f, r0	; 63
    6882:	cd bf       	out	0x3d, r28	; 61
    6884:	9b 8f       	std	Y+27, r25	; 0x1b
    6886:	8a 8f       	std	Y+26, r24	; 0x1a
    6888:	2b 01       	movw	r4, r22
    688a:	5a 83       	std	Y+2, r21	; 0x02
    688c:	49 83       	std	Y+1, r20	; 0x01
    688e:	d2 2e       	mov	r13, r18
    6890:	19 87       	std	Y+9, r17	; 0x09
    6892:	08 87       	std	Y+8, r16	; 0x08
    6894:	47 01       	movw	r8, r14
    6896:	ab 82       	std	Y+3, r10	; 0x03
    6898:	dc 01       	movw	r26, r24
    689a:	59 96       	adiw	r26, 0x19	; 25
    689c:	2d 91       	ld	r18, X+
    689e:	3c 91       	ld	r19, X
    68a0:	5a 97       	sbiw	r26, 0x1a	; 26
    68a2:	21 15       	cp	r18, r1
    68a4:	31 05       	cpc	r19, r1
    68a6:	09 f0       	breq	.+2      	; 0x68aa <_ZN12Adafruit_GFX8drawCharEiihjjhh+0x5a>
    68a8:	00 c1       	rjmp	.+512    	; 0x6aaa <_ZN12Adafruit_GFX8drawCharEiihjjhh+0x25a>
    68aa:	18 96       	adiw	r26, 0x08	; 8
    68ac:	8d 91       	ld	r24, X+
    68ae:	9c 91       	ld	r25, X
    68b0:	19 97       	sbiw	r26, 0x09	; 9
    68b2:	68 17       	cp	r22, r24
    68b4:	79 07       	cpc	r23, r25
    68b6:	0c f0       	brlt	.+2      	; 0x68ba <_ZN12Adafruit_GFX8drawCharEiihjjhh+0x6a>
    68b8:	e7 c1       	rjmp	.+974    	; 0x6c88 <_ZN12Adafruit_GFX8drawCharEiihjjhh+0x438>
    68ba:	1a 96       	adiw	r26, 0x0a	; 10
    68bc:	8d 91       	ld	r24, X+
    68be:	9c 91       	ld	r25, X
    68c0:	1b 97       	sbiw	r26, 0x0b	; 11
    68c2:	48 17       	cp	r20, r24
    68c4:	59 07       	cpc	r21, r25
    68c6:	0c f0       	brlt	.+2      	; 0x68ca <_ZN12Adafruit_GFX8drawCharEiihjjhh+0x7a>
    68c8:	df c1       	rjmp	.+958    	; 0x6c88 <_ZN12Adafruit_GFX8drawCharEiihjjhh+0x438>
    68ca:	2c 2c       	mov	r2, r12
    68cc:	31 2c       	mov	r3, r1
    68ce:	fb 01       	movw	r30, r22
    68d0:	26 e0       	ldi	r18, 0x06	; 6
    68d2:	c2 9e       	mul	r12, r18
    68d4:	e0 0d       	add	r30, r0
    68d6:	f1 1d       	adc	r31, r1
    68d8:	11 24       	eor	r1, r1
    68da:	fd 87       	std	Y+13, r31	; 0x0d
    68dc:	ec 87       	std	Y+12, r30	; 0x0c
    68de:	1e 16       	cp	r1, r30
    68e0:	1f 06       	cpc	r1, r31
    68e2:	0c f0       	brlt	.+2      	; 0x68e6 <_ZN12Adafruit_GFX8drawCharEiihjjhh+0x96>
    68e4:	d1 c1       	rjmp	.+930    	; 0x6c88 <_ZN12Adafruit_GFX8drawCharEiihjjhh+0x438>
    68e6:	4a 2d       	mov	r20, r10
    68e8:	50 e0       	ldi	r21, 0x00	; 0
    68ea:	5b 87       	std	Y+11, r21	; 0x0b
    68ec:	4a 87       	std	Y+10, r20	; 0x0a
    68ee:	83 e0       	ldi	r24, 0x03	; 3
    68f0:	44 0f       	add	r20, r20
    68f2:	55 1f       	adc	r21, r21
    68f4:	8a 95       	dec	r24
    68f6:	e1 f7       	brne	.-8      	; 0x68f0 <_ZN12Adafruit_GFX8drawCharEiihjjhh+0xa0>
    68f8:	5f 87       	std	Y+15, r21	; 0x0f
    68fa:	4e 87       	std	Y+14, r20	; 0x0e
    68fc:	89 81       	ldd	r24, Y+1	; 0x01
    68fe:	9a 81       	ldd	r25, Y+2	; 0x02
    6900:	84 0f       	add	r24, r20
    6902:	95 1f       	adc	r25, r21
    6904:	18 16       	cp	r1, r24
    6906:	19 06       	cpc	r1, r25
    6908:	0c f0       	brlt	.+2      	; 0x690c <_ZN12Adafruit_GFX8drawCharEiihjjhh+0xbc>
    690a:	be c1       	rjmp	.+892    	; 0x6c88 <_ZN12Adafruit_GFX8drawCharEiihjjhh+0x438>
    690c:	58 96       	adiw	r26, 0x18	; 24
    690e:	8c 91       	ld	r24, X
    6910:	81 11       	cpse	r24, r1
    6912:	04 c0       	rjmp	.+8      	; 0x691c <_ZN12Adafruit_GFX8drawCharEiihjjhh+0xcc>
    6914:	6f ea       	ldi	r22, 0xAF	; 175
    6916:	6d 15       	cp	r22, r13
    6918:	08 f4       	brcc	.+2      	; 0x691c <_ZN12Adafruit_GFX8drawCharEiihjjhh+0xcc>
    691a:	d3 94       	inc	r13
    691c:	aa 8d       	ldd	r26, Y+26	; 0x1a
    691e:	bb 8d       	ldd	r27, Y+27	; 0x1b
    6920:	ed 91       	ld	r30, X+
    6922:	fc 91       	ld	r31, X
    6924:	11 97       	sbiw	r26, 0x01	; 1
    6926:	02 84       	ldd	r0, Z+10	; 0x0a
    6928:	f3 85       	ldd	r31, Z+11	; 0x0b
    692a:	e0 2d       	mov	r30, r0
    692c:	cd 01       	movw	r24, r26
    692e:	19 95       	eicall
    6930:	b5 e0       	ldi	r27, 0x05	; 5
    6932:	db 9e       	mul	r13, r27
    6934:	c0 01       	movw	r24, r0
    6936:	11 24       	eor	r1, r1
    6938:	ec 2d       	mov	r30, r12
    693a:	f0 e0       	ldi	r31, 0x00	; 0
    693c:	f9 8b       	std	Y+17, r31	; 0x11
    693e:	e8 8b       	std	Y+16, r30	; 0x10
    6940:	92 01       	movw	r18, r4
    6942:	2b 5f       	subi	r18, 0xFB	; 251
    6944:	3f 4f       	sbci	r19, 0xFF	; 255
    6946:	3b 8b       	std	Y+19, r19	; 0x13
    6948:	2a 8b       	std	Y+18, r18	; 0x12
    694a:	32 01       	movw	r6, r4
    694c:	5d 82       	std	Y+5, r5	; 0x05
    694e:	4c 82       	std	Y+4, r4	; 0x04
    6950:	ac 01       	movw	r20, r24
    6952:	44 19       	sub	r20, r4
    6954:	55 09       	sbc	r21, r5
    6956:	5d 8b       	std	Y+21, r21	; 0x15
    6958:	4c 8b       	std	Y+20, r20	; 0x14
    695a:	7b 81       	ldd	r23, Y+3	; 0x03
    695c:	67 2f       	mov	r22, r23
    695e:	70 e0       	ldi	r23, 0x00	; 0
    6960:	7f 8b       	std	Y+23, r23	; 0x17
    6962:	6e 8b       	std	Y+22, r22	; 0x16
    6964:	89 81       	ldd	r24, Y+1	; 0x01
    6966:	9a 81       	ldd	r25, Y+2	; 0x02
    6968:	08 96       	adiw	r24, 0x08	; 8
    696a:	99 8f       	std	Y+25, r25	; 0x19
    696c:	88 8f       	std	Y+24, r24	; 0x18
    696e:	ec 89       	ldd	r30, Y+20	; 0x14
    6970:	fd 89       	ldd	r31, Y+21	; 0x15
    6972:	e6 0d       	add	r30, r6
    6974:	f7 1d       	adc	r31, r7
    6976:	e1 5d       	subi	r30, 0xD1	; 209
    6978:	fb 4f       	sbci	r31, 0xFB	; 251
    697a:	d4 90       	lpm	r13, Z
    697c:	a9 81       	ldd	r26, Y+1	; 0x01
    697e:	ba 81       	ldd	r27, Y+2	; 0x02
    6980:	bf 83       	std	Y+7, r27	; 0x07
    6982:	ae 83       	std	Y+6, r26	; 0x06
    6984:	5d 01       	movw	r10, r26
    6986:	d0 fe       	sbrs	r13, 0
    6988:	16 c0       	rjmp	.+44     	; 0x69b6 <_ZN12Adafruit_GFX8drawCharEiihjjhh+0x166>
    698a:	aa 8d       	ldd	r26, Y+26	; 0x1a
    698c:	bb 8d       	ldd	r27, Y+27	; 0x1b
    698e:	ed 91       	ld	r30, X+
    6990:	fc 91       	ld	r31, X
    6992:	b1 e0       	ldi	r27, 0x01	; 1
    6994:	cb 12       	cpse	r12, r27
    6996:	09 c0       	rjmp	.+18     	; 0x69aa <_ZN12Adafruit_GFX8drawCharEiihjjhh+0x15a>
    6998:	2b 81       	ldd	r18, Y+3	; 0x03
    699a:	21 30       	cpi	r18, 0x01	; 1
    699c:	31 f4       	brne	.+12     	; 0x69aa <_ZN12Adafruit_GFX8drawCharEiihjjhh+0x15a>
    699e:	04 84       	ldd	r0, Z+12	; 0x0c
    69a0:	f5 85       	ldd	r31, Z+13	; 0x0d
    69a2:	e0 2d       	mov	r30, r0
    69a4:	28 85       	ldd	r18, Y+8	; 0x08
    69a6:	39 85       	ldd	r19, Y+9	; 0x09
    69a8:	19 c0       	rjmp	.+50     	; 0x69dc <_ZN12Adafruit_GFX8drawCharEiihjjhh+0x18c>
    69aa:	06 84       	ldd	r0, Z+14	; 0x0e
    69ac:	f7 85       	ldd	r31, Z+15	; 0x0f
    69ae:	e0 2d       	mov	r30, r0
    69b0:	e8 84       	ldd	r14, Y+8	; 0x08
    69b2:	f9 84       	ldd	r15, Y+9	; 0x09
    69b4:	1d c0       	rjmp	.+58     	; 0x69f0 <_ZN12Adafruit_GFX8drawCharEiihjjhh+0x1a0>
    69b6:	48 85       	ldd	r20, Y+8	; 0x08
    69b8:	59 85       	ldd	r21, Y+9	; 0x09
    69ba:	48 15       	cp	r20, r8
    69bc:	59 05       	cpc	r21, r9
    69be:	11 f1       	breq	.+68     	; 0x6a04 <_ZN12Adafruit_GFX8drawCharEiihjjhh+0x1b4>
    69c0:	aa 8d       	ldd	r26, Y+26	; 0x1a
    69c2:	bb 8d       	ldd	r27, Y+27	; 0x1b
    69c4:	ed 91       	ld	r30, X+
    69c6:	fc 91       	ld	r31, X
    69c8:	b1 e0       	ldi	r27, 0x01	; 1
    69ca:	cb 12       	cpse	r12, r27
    69cc:	0d c0       	rjmp	.+26     	; 0x69e8 <_ZN12Adafruit_GFX8drawCharEiihjjhh+0x198>
    69ce:	2b 81       	ldd	r18, Y+3	; 0x03
    69d0:	21 30       	cpi	r18, 0x01	; 1
    69d2:	51 f4       	brne	.+20     	; 0x69e8 <_ZN12Adafruit_GFX8drawCharEiihjjhh+0x198>
    69d4:	04 84       	ldd	r0, Z+12	; 0x0c
    69d6:	f5 85       	ldd	r31, Z+13	; 0x0d
    69d8:	e0 2d       	mov	r30, r0
    69da:	94 01       	movw	r18, r8
    69dc:	a5 01       	movw	r20, r10
    69de:	b3 01       	movw	r22, r6
    69e0:	8a 8d       	ldd	r24, Y+26	; 0x1a
    69e2:	9b 8d       	ldd	r25, Y+27	; 0x1b
    69e4:	19 95       	eicall
    69e6:	0e c0       	rjmp	.+28     	; 0x6a04 <_ZN12Adafruit_GFX8drawCharEiihjjhh+0x1b4>
    69e8:	06 84       	ldd	r0, Z+14	; 0x0e
    69ea:	f7 85       	ldd	r31, Z+15	; 0x0f
    69ec:	e0 2d       	mov	r30, r0
    69ee:	74 01       	movw	r14, r8
    69f0:	0a 85       	ldd	r16, Y+10	; 0x0a
    69f2:	1b 85       	ldd	r17, Y+11	; 0x0b
    69f4:	91 01       	movw	r18, r2
    69f6:	4e 81       	ldd	r20, Y+6	; 0x06
    69f8:	5f 81       	ldd	r21, Y+7	; 0x07
    69fa:	6c 81       	ldd	r22, Y+4	; 0x04
    69fc:	7d 81       	ldd	r23, Y+5	; 0x05
    69fe:	8a 8d       	ldd	r24, Y+26	; 0x1a
    6a00:	9b 8d       	ldd	r25, Y+27	; 0x1b
    6a02:	19 95       	eicall
    6a04:	d6 94       	lsr	r13
    6a06:	4e 81       	ldd	r20, Y+6	; 0x06
    6a08:	5f 81       	ldd	r21, Y+7	; 0x07
    6a0a:	6e 89       	ldd	r22, Y+22	; 0x16
    6a0c:	7f 89       	ldd	r23, Y+23	; 0x17
    6a0e:	46 0f       	add	r20, r22
    6a10:	57 1f       	adc	r21, r23
    6a12:	5f 83       	std	Y+7, r21	; 0x07
    6a14:	4e 83       	std	Y+6, r20	; 0x06
    6a16:	7f ef       	ldi	r23, 0xFF	; 255
    6a18:	a7 1a       	sub	r10, r23
    6a1a:	b7 0a       	sbc	r11, r23
    6a1c:	88 8d       	ldd	r24, Y+24	; 0x18
    6a1e:	99 8d       	ldd	r25, Y+25	; 0x19
    6a20:	a8 16       	cp	r10, r24
    6a22:	b9 06       	cpc	r11, r25
    6a24:	09 f0       	breq	.+2      	; 0x6a28 <_ZN12Adafruit_GFX8drawCharEiihjjhh+0x1d8>
    6a26:	af cf       	rjmp	.-162    	; 0x6986 <_ZN12Adafruit_GFX8drawCharEiihjjhh+0x136>
    6a28:	ac 81       	ldd	r26, Y+4	; 0x04
    6a2a:	bd 81       	ldd	r27, Y+5	; 0x05
    6a2c:	e8 89       	ldd	r30, Y+16	; 0x10
    6a2e:	f9 89       	ldd	r31, Y+17	; 0x11
    6a30:	ae 0f       	add	r26, r30
    6a32:	bf 1f       	adc	r27, r31
    6a34:	bd 83       	std	Y+5, r27	; 0x05
    6a36:	ac 83       	std	Y+4, r26	; 0x04
    6a38:	ff ef       	ldi	r31, 0xFF	; 255
    6a3a:	6f 1a       	sub	r6, r31
    6a3c:	7f 0a       	sbc	r7, r31
    6a3e:	2a 89       	ldd	r18, Y+18	; 0x12
    6a40:	3b 89       	ldd	r19, Y+19	; 0x13
    6a42:	62 16       	cp	r6, r18
    6a44:	73 06       	cpc	r7, r19
    6a46:	09 f0       	breq	.+2      	; 0x6a4a <_ZN12Adafruit_GFX8drawCharEiihjjhh+0x1fa>
    6a48:	92 cf       	rjmp	.-220    	; 0x696e <_ZN12Adafruit_GFX8drawCharEiihjjhh+0x11e>
    6a4a:	48 85       	ldd	r20, Y+8	; 0x08
    6a4c:	59 85       	ldd	r21, Y+9	; 0x09
    6a4e:	48 15       	cp	r20, r8
    6a50:	59 05       	cpc	r21, r9
    6a52:	09 f4       	brne	.+2      	; 0x6a56 <_ZN12Adafruit_GFX8drawCharEiihjjhh+0x206>
    6a54:	f7 c0       	rjmp	.+494    	; 0x6c44 <_ZN12Adafruit_GFX8drawCharEiihjjhh+0x3f4>
    6a56:	aa 8d       	ldd	r26, Y+26	; 0x1a
    6a58:	bb 8d       	ldd	r27, Y+27	; 0x1b
    6a5a:	ed 91       	ld	r30, X+
    6a5c:	fc 91       	ld	r31, X
    6a5e:	b1 e0       	ldi	r27, 0x01	; 1
    6a60:	cb 12       	cpse	r12, r27
    6a62:	12 c0       	rjmp	.+36     	; 0x6a88 <_ZN12Adafruit_GFX8drawCharEiihjjhh+0x238>
    6a64:	2b 81       	ldd	r18, Y+3	; 0x03
    6a66:	21 30       	cpi	r18, 0x01	; 1
    6a68:	79 f4       	brne	.+30     	; 0x6a88 <_ZN12Adafruit_GFX8drawCharEiihjjhh+0x238>
    6a6a:	b2 01       	movw	r22, r4
    6a6c:	6b 5f       	subi	r22, 0xFB	; 251
    6a6e:	7f 4f       	sbci	r23, 0xFF	; 255
    6a70:	00 88       	ldd	r0, Z+16	; 0x10
    6a72:	f1 89       	ldd	r31, Z+17	; 0x11
    6a74:	e0 2d       	mov	r30, r0
    6a76:	84 01       	movw	r16, r8
    6a78:	28 e0       	ldi	r18, 0x08	; 8
    6a7a:	30 e0       	ldi	r19, 0x00	; 0
    6a7c:	49 81       	ldd	r20, Y+1	; 0x01
    6a7e:	5a 81       	ldd	r21, Y+2	; 0x02
    6a80:	8a 8d       	ldd	r24, Y+26	; 0x1a
    6a82:	9b 8d       	ldd	r25, Y+27	; 0x1b
    6a84:	19 95       	eicall
    6a86:	de c0       	rjmp	.+444    	; 0x6c44 <_ZN12Adafruit_GFX8drawCharEiihjjhh+0x3f4>
    6a88:	6c 85       	ldd	r22, Y+12	; 0x0c
    6a8a:	7d 85       	ldd	r23, Y+13	; 0x0d
    6a8c:	62 19       	sub	r22, r2
    6a8e:	73 09       	sbc	r23, r3
    6a90:	06 84       	ldd	r0, Z+14	; 0x0e
    6a92:	f7 85       	ldd	r31, Z+15	; 0x0f
    6a94:	e0 2d       	mov	r30, r0
    6a96:	74 01       	movw	r14, r8
    6a98:	0e 85       	ldd	r16, Y+14	; 0x0e
    6a9a:	1f 85       	ldd	r17, Y+15	; 0x0f
    6a9c:	91 01       	movw	r18, r2
    6a9e:	49 81       	ldd	r20, Y+1	; 0x01
    6aa0:	5a 81       	ldd	r21, Y+2	; 0x02
    6aa2:	8a 8d       	ldd	r24, Y+26	; 0x1a
    6aa4:	9b 8d       	ldd	r25, Y+27	; 0x1b
    6aa6:	19 95       	eicall
    6aa8:	cd c0       	rjmp	.+410    	; 0x6c44 <_ZN12Adafruit_GFX8drawCharEiihjjhh+0x3f4>
    6aaa:	f9 01       	movw	r30, r18
    6aac:	34 96       	adiw	r30, 0x04	; 4
    6aae:	e4 91       	lpm	r30, Z
    6ab0:	de 1a       	sub	r13, r30
    6ab2:	f9 01       	movw	r30, r18
    6ab4:	32 96       	adiw	r30, 0x02	; 2
    6ab6:	85 91       	lpm	r24, Z+
    6ab8:	94 91       	lpm	r25, Z
    6aba:	b7 e0       	ldi	r27, 0x07	; 7
    6abc:	db 9e       	mul	r13, r27
    6abe:	80 0d       	add	r24, r0
    6ac0:	91 1d       	adc	r25, r1
    6ac2:	11 24       	eor	r1, r1
    6ac4:	f9 01       	movw	r30, r18
    6ac6:	25 91       	lpm	r18, Z+
    6ac8:	34 91       	lpm	r19, Z
    6aca:	39 8b       	std	Y+17, r19	; 0x11
    6acc:	28 8b       	std	Y+16, r18	; 0x10
    6ace:	fc 01       	movw	r30, r24
    6ad0:	25 90       	lpm	r2, Z+
    6ad2:	34 90       	lpm	r3, Z
    6ad4:	fc 01       	movw	r30, r24
    6ad6:	32 96       	adiw	r30, 0x02	; 2
    6ad8:	74 90       	lpm	r7, Z
    6ada:	31 96       	adiw	r30, 0x01	; 1
    6adc:	a4 90       	lpm	r10, Z
    6ade:	32 96       	adiw	r30, 0x02	; 2
    6ae0:	94 90       	lpm	r9, Z
    6ae2:	31 96       	adiw	r30, 0x01	; 1
    6ae4:	b4 90       	lpm	r11, Z
    6ae6:	31 e0       	ldi	r19, 0x01	; 1
    6ae8:	3c 15       	cp	r19, r12
    6aea:	18 f0       	brcs	.+6      	; 0x6af2 <_ZN12Adafruit_GFX8drawCharEiihjjhh+0x2a2>
    6aec:	4b 81       	ldd	r20, Y+3	; 0x03
    6aee:	42 30       	cpi	r20, 0x02	; 2
    6af0:	68 f0       	brcs	.+26     	; 0x6b0c <_ZN12Adafruit_GFX8drawCharEiihjjhh+0x2bc>
    6af2:	69 2d       	mov	r22, r9
    6af4:	09 2c       	mov	r0, r9
    6af6:	00 0c       	add	r0, r0
    6af8:	77 0b       	sbc	r23, r23
    6afa:	7d 83       	std	Y+5, r23	; 0x05
    6afc:	6c 83       	std	Y+4, r22	; 0x04
    6afe:	8b 2d       	mov	r24, r11
    6b00:	0b 2c       	mov	r0, r11
    6b02:	00 0c       	add	r0, r0
    6b04:	99 0b       	sbc	r25, r25
    6b06:	9f 83       	std	Y+7, r25	; 0x07
    6b08:	8e 83       	std	Y+6, r24	; 0x06
    6b0a:	04 c0       	rjmp	.+8      	; 0x6b14 <_ZN12Adafruit_GFX8drawCharEiihjjhh+0x2c4>
    6b0c:	1f 82       	std	Y+7, r1	; 0x07
    6b0e:	1e 82       	std	Y+6, r1	; 0x06
    6b10:	1d 82       	std	Y+5, r1	; 0x05
    6b12:	1c 82       	std	Y+4, r1	; 0x04
    6b14:	aa 8d       	ldd	r26, Y+26	; 0x1a
    6b16:	bb 8d       	ldd	r27, Y+27	; 0x1b
    6b18:	ed 91       	ld	r30, X+
    6b1a:	fc 91       	ld	r31, X
    6b1c:	11 97       	sbiw	r26, 0x01	; 1
    6b1e:	02 84       	ldd	r0, Z+10	; 0x0a
    6b20:	f3 85       	ldd	r31, Z+11	; 0x0b
    6b22:	e0 2d       	mov	r30, r0
    6b24:	cd 01       	movw	r24, r26
    6b26:	19 95       	eicall
    6b28:	61 2c       	mov	r6, r1
    6b2a:	d1 2c       	mov	r13, r1
    6b2c:	81 2c       	mov	r8, r1
    6b2e:	fb 81       	ldd	r31, Y+3	; 0x03
    6b30:	ef 2f       	mov	r30, r31
    6b32:	f0 e0       	ldi	r31, 0x00	; 0
    6b34:	fb 87       	std	Y+11, r31	; 0x0b
    6b36:	ea 87       	std	Y+10, r30	; 0x0a
    6b38:	2c 2d       	mov	r18, r12
    6b3a:	30 e0       	ldi	r19, 0x00	; 0
    6b3c:	3d 87       	std	Y+13, r19	; 0x0d
    6b3e:	2c 87       	std	Y+12, r18	; 0x0c
    6b40:	49 81       	ldd	r20, Y+1	; 0x01
    6b42:	5a 81       	ldd	r21, Y+2	; 0x02
    6b44:	4b 0d       	add	r20, r11
    6b46:	51 1d       	adc	r21, r1
    6b48:	b7 fc       	sbrc	r11, 7
    6b4a:	5a 95       	dec	r21
    6b4c:	5d 8b       	std	Y+21, r21	; 0x15
    6b4e:	4c 8b       	std	Y+20, r20	; 0x14
    6b50:	b2 01       	movw	r22, r4
    6b52:	69 0d       	add	r22, r9
    6b54:	71 1d       	adc	r23, r1
    6b56:	97 fc       	sbrc	r9, 7
    6b58:	7a 95       	dec	r23
    6b5a:	7f 8b       	std	Y+23, r23	; 0x17
    6b5c:	6e 8b       	std	Y+22, r22	; 0x16
    6b5e:	8a 14       	cp	r8, r10
    6b60:	08 f0       	brcs	.+2      	; 0x6b64 <_ZN12Adafruit_GFX8drawCharEiihjjhh+0x314>
    6b62:	70 c0       	rjmp	.+224    	; 0x6c44 <_ZN12Adafruit_GFX8drawCharEiihjjhh+0x3f4>
    6b64:	28 2d       	mov	r18, r8
    6b66:	30 e0       	ldi	r19, 0x00	; 0
    6b68:	4e 81       	ldd	r20, Y+6	; 0x06
    6b6a:	5f 81       	ldd	r21, Y+7	; 0x07
    6b6c:	42 0f       	add	r20, r18
    6b6e:	53 1f       	adc	r21, r19
    6b70:	aa 85       	ldd	r26, Y+10	; 0x0a
    6b72:	bb 85       	ldd	r27, Y+11	; 0x0b
    6b74:	a4 9f       	mul	r26, r20
    6b76:	c0 01       	movw	r24, r0
    6b78:	a5 9f       	mul	r26, r21
    6b7a:	90 0d       	add	r25, r0
    6b7c:	b4 9f       	mul	r27, r20
    6b7e:	90 0d       	add	r25, r0
    6b80:	11 24       	eor	r1, r1
    6b82:	e9 81       	ldd	r30, Y+1	; 0x01
    6b84:	fa 81       	ldd	r31, Y+2	; 0x02
    6b86:	e8 0f       	add	r30, r24
    6b88:	f9 1f       	adc	r31, r25
    6b8a:	ff 87       	std	Y+15, r31	; 0x0f
    6b8c:	ee 87       	std	Y+14, r30	; 0x0e
    6b8e:	86 2d       	mov	r24, r6
    6b90:	91 2c       	mov	r9, r1
    6b92:	4c 89       	ldd	r20, Y+20	; 0x14
    6b94:	5d 89       	ldd	r21, Y+21	; 0x15
    6b96:	42 0f       	add	r20, r18
    6b98:	53 1f       	adc	r21, r19
    6b9a:	5b 8b       	std	Y+19, r21	; 0x13
    6b9c:	4a 8b       	std	Y+18, r20	; 0x12
    6b9e:	97 14       	cp	r9, r7
    6ba0:	08 f0       	brcs	.+2      	; 0x6ba4 <_ZN12Adafruit_GFX8drawCharEiihjjhh+0x354>
    6ba2:	4d c0       	rjmp	.+154    	; 0x6c3e <_ZN12Adafruit_GFX8drawCharEiihjjhh+0x3ee>
    6ba4:	bb 24       	eor	r11, r11
    6ba6:	b3 94       	inc	r11
    6ba8:	b8 0e       	add	r11, r24
    6baa:	87 70       	andi	r24, 0x07	; 7
    6bac:	41 f4       	brne	.+16     	; 0x6bbe <_ZN12Adafruit_GFX8drawCharEiihjjhh+0x36e>
    6bae:	c1 01       	movw	r24, r2
    6bb0:	01 96       	adiw	r24, 0x01	; 1
    6bb2:	e8 89       	ldd	r30, Y+16	; 0x10
    6bb4:	f9 89       	ldd	r31, Y+17	; 0x11
    6bb6:	e2 0d       	add	r30, r2
    6bb8:	f3 1d       	adc	r31, r3
    6bba:	d4 90       	lpm	r13, Z
    6bbc:	1c 01       	movw	r2, r24
    6bbe:	d7 fe       	sbrs	r13, 7
    6bc0:	3a c0       	rjmp	.+116    	; 0x6c36 <_ZN12Adafruit_GFX8drawCharEiihjjhh+0x3e6>
    6bc2:	51 e0       	ldi	r21, 0x01	; 1
    6bc4:	c5 12       	cpse	r12, r21
    6bc6:	16 c0       	rjmp	.+44     	; 0x6bf4 <_ZN12Adafruit_GFX8drawCharEiihjjhh+0x3a4>
    6bc8:	6b 81       	ldd	r22, Y+3	; 0x03
    6bca:	61 30       	cpi	r22, 0x01	; 1
    6bcc:	99 f4       	brne	.+38     	; 0x6bf4 <_ZN12Adafruit_GFX8drawCharEiihjjhh+0x3a4>
    6bce:	aa 8d       	ldd	r26, Y+26	; 0x1a
    6bd0:	bb 8d       	ldd	r27, Y+27	; 0x1b
    6bd2:	ed 91       	ld	r30, X+
    6bd4:	fc 91       	ld	r31, X
    6bd6:	11 97       	sbiw	r26, 0x01	; 1
    6bd8:	04 84       	ldd	r0, Z+12	; 0x0c
    6bda:	f5 85       	ldd	r31, Z+13	; 0x0d
    6bdc:	e0 2d       	mov	r30, r0
    6bde:	28 85       	ldd	r18, Y+8	; 0x08
    6be0:	39 85       	ldd	r19, Y+9	; 0x09
    6be2:	4a 89       	ldd	r20, Y+18	; 0x12
    6be4:	5b 89       	ldd	r21, Y+19	; 0x13
    6be6:	6e 89       	ldd	r22, Y+22	; 0x16
    6be8:	7f 89       	ldd	r23, Y+23	; 0x17
    6bea:	69 0d       	add	r22, r9
    6bec:	71 1d       	adc	r23, r1
    6bee:	cd 01       	movw	r24, r26
    6bf0:	19 95       	eicall
    6bf2:	21 c0       	rjmp	.+66     	; 0x6c36 <_ZN12Adafruit_GFX8drawCharEiihjjhh+0x3e6>
    6bf4:	8c 81       	ldd	r24, Y+4	; 0x04
    6bf6:	9d 81       	ldd	r25, Y+5	; 0x05
    6bf8:	89 0d       	add	r24, r9
    6bfa:	91 1d       	adc	r25, r1
    6bfc:	ec 85       	ldd	r30, Y+12	; 0x0c
    6bfe:	fd 85       	ldd	r31, Y+13	; 0x0d
    6c00:	8e 9f       	mul	r24, r30
    6c02:	b0 01       	movw	r22, r0
    6c04:	8f 9f       	mul	r24, r31
    6c06:	70 0d       	add	r23, r0
    6c08:	9e 9f       	mul	r25, r30
    6c0a:	70 0d       	add	r23, r0
    6c0c:	11 24       	eor	r1, r1
    6c0e:	64 0d       	add	r22, r4
    6c10:	75 1d       	adc	r23, r5
    6c12:	aa 8d       	ldd	r26, Y+26	; 0x1a
    6c14:	bb 8d       	ldd	r27, Y+27	; 0x1b
    6c16:	ed 91       	ld	r30, X+
    6c18:	fc 91       	ld	r31, X
    6c1a:	11 97       	sbiw	r26, 0x01	; 1
    6c1c:	06 84       	ldd	r0, Z+14	; 0x0e
    6c1e:	f7 85       	ldd	r31, Z+15	; 0x0f
    6c20:	e0 2d       	mov	r30, r0
    6c22:	e8 84       	ldd	r14, Y+8	; 0x08
    6c24:	f9 84       	ldd	r15, Y+9	; 0x09
    6c26:	0a 85       	ldd	r16, Y+10	; 0x0a
    6c28:	1b 85       	ldd	r17, Y+11	; 0x0b
    6c2a:	2c 85       	ldd	r18, Y+12	; 0x0c
    6c2c:	3d 85       	ldd	r19, Y+13	; 0x0d
    6c2e:	4e 85       	ldd	r20, Y+14	; 0x0e
    6c30:	5f 85       	ldd	r21, Y+15	; 0x0f
    6c32:	cd 01       	movw	r24, r26
    6c34:	19 95       	eicall
    6c36:	dd 0c       	add	r13, r13
    6c38:	93 94       	inc	r9
    6c3a:	8b 2d       	mov	r24, r11
    6c3c:	b0 cf       	rjmp	.-160    	; 0x6b9e <_ZN12Adafruit_GFX8drawCharEiihjjhh+0x34e>
    6c3e:	67 0c       	add	r6, r7
    6c40:	83 94       	inc	r8
    6c42:	8d cf       	rjmp	.-230    	; 0x6b5e <_ZN12Adafruit_GFX8drawCharEiihjjhh+0x30e>
    6c44:	aa 8d       	ldd	r26, Y+26	; 0x1a
    6c46:	bb 8d       	ldd	r27, Y+27	; 0x1b
    6c48:	ed 91       	ld	r30, X+
    6c4a:	fc 91       	ld	r31, X
    6c4c:	11 97       	sbiw	r26, 0x01	; 1
    6c4e:	06 88       	ldd	r0, Z+22	; 0x16
    6c50:	f7 89       	ldd	r31, Z+23	; 0x17
    6c52:	e0 2d       	mov	r30, r0
    6c54:	cd 01       	movw	r24, r26
    6c56:	6b 96       	adiw	r28, 0x1b	; 27
    6c58:	0f b6       	in	r0, 0x3f	; 63
    6c5a:	f8 94       	cli
    6c5c:	de bf       	out	0x3e, r29	; 62
    6c5e:	0f be       	out	0x3f, r0	; 63
    6c60:	cd bf       	out	0x3d, r28	; 61
    6c62:	df 91       	pop	r29
    6c64:	cf 91       	pop	r28
    6c66:	1f 91       	pop	r17
    6c68:	0f 91       	pop	r16
    6c6a:	ff 90       	pop	r15
    6c6c:	ef 90       	pop	r14
    6c6e:	df 90       	pop	r13
    6c70:	cf 90       	pop	r12
    6c72:	bf 90       	pop	r11
    6c74:	af 90       	pop	r10
    6c76:	9f 90       	pop	r9
    6c78:	8f 90       	pop	r8
    6c7a:	7f 90       	pop	r7
    6c7c:	6f 90       	pop	r6
    6c7e:	5f 90       	pop	r5
    6c80:	4f 90       	pop	r4
    6c82:	3f 90       	pop	r3
    6c84:	2f 90       	pop	r2
    6c86:	19 94       	eijmp
    6c88:	6b 96       	adiw	r28, 0x1b	; 27
    6c8a:	0f b6       	in	r0, 0x3f	; 63
    6c8c:	f8 94       	cli
    6c8e:	de bf       	out	0x3e, r29	; 62
    6c90:	0f be       	out	0x3f, r0	; 63
    6c92:	cd bf       	out	0x3d, r28	; 61
    6c94:	df 91       	pop	r29
    6c96:	cf 91       	pop	r28
    6c98:	1f 91       	pop	r17
    6c9a:	0f 91       	pop	r16
    6c9c:	ff 90       	pop	r15
    6c9e:	ef 90       	pop	r14
    6ca0:	df 90       	pop	r13
    6ca2:	cf 90       	pop	r12
    6ca4:	bf 90       	pop	r11
    6ca6:	af 90       	pop	r10
    6ca8:	9f 90       	pop	r9
    6caa:	8f 90       	pop	r8
    6cac:	7f 90       	pop	r7
    6cae:	6f 90       	pop	r6
    6cb0:	5f 90       	pop	r5
    6cb2:	4f 90       	pop	r4
    6cb4:	3f 90       	pop	r3
    6cb6:	2f 90       	pop	r2
    6cb8:	08 95       	ret

00006cba <_ZN12Adafruit_GFX5writeEh>:
    6cba:	8f 92       	push	r8
    6cbc:	9f 92       	push	r9
    6cbe:	af 92       	push	r10
    6cc0:	cf 92       	push	r12
    6cc2:	ef 92       	push	r14
    6cc4:	ff 92       	push	r15
    6cc6:	0f 93       	push	r16
    6cc8:	1f 93       	push	r17
    6cca:	cf 93       	push	r28
    6ccc:	df 93       	push	r29
    6cce:	ec 01       	movw	r28, r24
    6cd0:	26 2f       	mov	r18, r22
    6cd2:	89 8d       	ldd	r24, Y+25	; 0x19
    6cd4:	9a 8d       	ldd	r25, Y+26	; 0x1a
    6cd6:	00 97       	sbiw	r24, 0x00	; 0
    6cd8:	09 f0       	breq	.+2      	; 0x6cdc <_ZN12Adafruit_GFX5writeEh+0x22>
    6cda:	41 c0       	rjmp	.+130    	; 0x6d5e <_ZN12Adafruit_GFX5writeEh+0xa4>
    6cdc:	6a 30       	cpi	r22, 0x0A	; 10
    6cde:	59 f4       	brne	.+22     	; 0x6cf6 <_ZN12Adafruit_GFX5writeEh+0x3c>
    6ce0:	1d 86       	std	Y+13, r1	; 0x0d
    6ce2:	1c 86       	std	Y+12, r1	; 0x0c
    6ce4:	2d 89       	ldd	r18, Y+21	; 0x15
    6ce6:	8e 85       	ldd	r24, Y+14	; 0x0e
    6ce8:	9f 85       	ldd	r25, Y+15	; 0x0f
    6cea:	38 e0       	ldi	r19, 0x08	; 8
    6cec:	23 9f       	mul	r18, r19
    6cee:	80 0d       	add	r24, r0
    6cf0:	91 1d       	adc	r25, r1
    6cf2:	11 24       	eor	r1, r1
    6cf4:	42 c0       	rjmp	.+132    	; 0x6d7a <_ZN12Adafruit_GFX5writeEh+0xc0>
    6cf6:	6d 30       	cpi	r22, 0x0D	; 13
    6cf8:	09 f4       	brne	.+2      	; 0x6cfc <_ZN12Adafruit_GFX5writeEh+0x42>
    6cfa:	a8 c0       	rjmp	.+336    	; 0x6e4c <_ZN12Adafruit_GFX5writeEh+0x192>
    6cfc:	8f 89       	ldd	r24, Y+23	; 0x17
    6cfe:	88 23       	and	r24, r24
    6d00:	c9 f0       	breq	.+50     	; 0x6d34 <_ZN12Adafruit_GFX5writeEh+0x7a>
    6d02:	3c 89       	ldd	r19, Y+20	; 0x14
    6d04:	8c 85       	ldd	r24, Y+12	; 0x0c
    6d06:	9d 85       	ldd	r25, Y+13	; 0x0d
    6d08:	46 e0       	ldi	r20, 0x06	; 6
    6d0a:	34 9f       	mul	r19, r20
    6d0c:	80 0d       	add	r24, r0
    6d0e:	91 1d       	adc	r25, r1
    6d10:	11 24       	eor	r1, r1
    6d12:	48 85       	ldd	r20, Y+8	; 0x08
    6d14:	59 85       	ldd	r21, Y+9	; 0x09
    6d16:	48 17       	cp	r20, r24
    6d18:	59 07       	cpc	r21, r25
    6d1a:	64 f4       	brge	.+24     	; 0x6d34 <_ZN12Adafruit_GFX5writeEh+0x7a>
    6d1c:	1d 86       	std	Y+13, r1	; 0x0d
    6d1e:	1c 86       	std	Y+12, r1	; 0x0c
    6d20:	3d 89       	ldd	r19, Y+21	; 0x15
    6d22:	8e 85       	ldd	r24, Y+14	; 0x0e
    6d24:	9f 85       	ldd	r25, Y+15	; 0x0f
    6d26:	48 e0       	ldi	r20, 0x08	; 8
    6d28:	34 9f       	mul	r19, r20
    6d2a:	80 0d       	add	r24, r0
    6d2c:	91 1d       	adc	r25, r1
    6d2e:	11 24       	eor	r1, r1
    6d30:	9f 87       	std	Y+15, r25	; 0x0f
    6d32:	8e 87       	std	Y+14, r24	; 0x0e
    6d34:	ea 88       	ldd	r14, Y+18	; 0x12
    6d36:	fb 88       	ldd	r15, Y+19	; 0x13
    6d38:	08 89       	ldd	r16, Y+16	; 0x10
    6d3a:	19 89       	ldd	r17, Y+17	; 0x11
    6d3c:	4e 85       	ldd	r20, Y+14	; 0x0e
    6d3e:	5f 85       	ldd	r21, Y+15	; 0x0f
    6d40:	6c 85       	ldd	r22, Y+12	; 0x0c
    6d42:	7d 85       	ldd	r23, Y+13	; 0x0d
    6d44:	ad 88       	ldd	r10, Y+21	; 0x15
    6d46:	cc 88       	ldd	r12, Y+20	; 0x14
    6d48:	ce 01       	movw	r24, r28
    6d4a:	82 dd       	rcall	.-1276   	; 0x6850 <_ZN12Adafruit_GFX8drawCharEiihjjhh>
    6d4c:	2c 89       	ldd	r18, Y+20	; 0x14
    6d4e:	8c 85       	ldd	r24, Y+12	; 0x0c
    6d50:	9d 85       	ldd	r25, Y+13	; 0x0d
    6d52:	36 e0       	ldi	r19, 0x06	; 6
    6d54:	23 9f       	mul	r18, r19
    6d56:	80 0d       	add	r24, r0
    6d58:	91 1d       	adc	r25, r1
    6d5a:	11 24       	eor	r1, r1
    6d5c:	3e c0       	rjmp	.+124    	; 0x6dda <_ZN12Adafruit_GFX5writeEh+0x120>
    6d5e:	6a 30       	cpi	r22, 0x0A	; 10
    6d60:	79 f4       	brne	.+30     	; 0x6d80 <_ZN12Adafruit_GFX5writeEh+0xc6>
    6d62:	1d 86       	std	Y+13, r1	; 0x0d
    6d64:	1c 86       	std	Y+12, r1	; 0x0c
    6d66:	2d 89       	ldd	r18, Y+21	; 0x15
    6d68:	fc 01       	movw	r30, r24
    6d6a:	36 96       	adiw	r30, 0x06	; 6
    6d6c:	e4 91       	lpm	r30, Z
    6d6e:	8e 85       	ldd	r24, Y+14	; 0x0e
    6d70:	9f 85       	ldd	r25, Y+15	; 0x0f
    6d72:	2e 9f       	mul	r18, r30
    6d74:	80 0d       	add	r24, r0
    6d76:	91 1d       	adc	r25, r1
    6d78:	11 24       	eor	r1, r1
    6d7a:	9f 87       	std	Y+15, r25	; 0x0f
    6d7c:	8e 87       	std	Y+14, r24	; 0x0e
    6d7e:	66 c0       	rjmp	.+204    	; 0x6e4c <_ZN12Adafruit_GFX5writeEh+0x192>
    6d80:	6d 30       	cpi	r22, 0x0D	; 13
    6d82:	09 f4       	brne	.+2      	; 0x6d86 <_ZN12Adafruit_GFX5writeEh+0xcc>
    6d84:	63 c0       	rjmp	.+198    	; 0x6e4c <_ZN12Adafruit_GFX5writeEh+0x192>
    6d86:	fc 01       	movw	r30, r24
    6d88:	34 96       	adiw	r30, 0x04	; 4
    6d8a:	34 91       	lpm	r19, Z
    6d8c:	63 17       	cp	r22, r19
    6d8e:	08 f4       	brcc	.+2      	; 0x6d92 <_ZN12Adafruit_GFX5writeEh+0xd8>
    6d90:	5d c0       	rjmp	.+186    	; 0x6e4c <_ZN12Adafruit_GFX5writeEh+0x192>
    6d92:	31 96       	adiw	r30, 0x01	; 1
    6d94:	e4 91       	lpm	r30, Z
    6d96:	e6 17       	cp	r30, r22
    6d98:	08 f4       	brcc	.+2      	; 0x6d9c <_ZN12Adafruit_GFX5writeEh+0xe2>
    6d9a:	58 c0       	rjmp	.+176    	; 0x6e4c <_ZN12Adafruit_GFX5writeEh+0x192>
    6d9c:	46 2f       	mov	r20, r22
    6d9e:	43 1b       	sub	r20, r19
    6da0:	34 2f       	mov	r19, r20
    6da2:	fc 01       	movw	r30, r24
    6da4:	32 96       	adiw	r30, 0x02	; 2
    6da6:	85 90       	lpm	r8, Z+
    6da8:	94 90       	lpm	r9, Z
    6daa:	47 e0       	ldi	r20, 0x07	; 7
    6dac:	34 9f       	mul	r19, r20
    6dae:	80 0c       	add	r8, r0
    6db0:	91 1c       	adc	r9, r1
    6db2:	11 24       	eor	r1, r1
    6db4:	f4 01       	movw	r30, r8
    6db6:	32 96       	adiw	r30, 0x02	; 2
    6db8:	34 91       	lpm	r19, Z
    6dba:	31 96       	adiw	r30, 0x01	; 1
    6dbc:	e4 91       	lpm	r30, Z
    6dbe:	33 23       	and	r19, r19
    6dc0:	11 f0       	breq	.+4      	; 0x6dc6 <_ZN12Adafruit_GFX5writeEh+0x10c>
    6dc2:	e1 11       	cpse	r30, r1
    6dc4:	0d c0       	rjmp	.+26     	; 0x6de0 <_ZN12Adafruit_GFX5writeEh+0x126>
    6dc6:	f4 01       	movw	r30, r8
    6dc8:	34 96       	adiw	r30, 0x04	; 4
    6dca:	e4 91       	lpm	r30, Z
    6dcc:	2c 89       	ldd	r18, Y+20	; 0x14
    6dce:	8c 85       	ldd	r24, Y+12	; 0x0c
    6dd0:	9d 85       	ldd	r25, Y+13	; 0x0d
    6dd2:	e2 9f       	mul	r30, r18
    6dd4:	80 0d       	add	r24, r0
    6dd6:	91 1d       	adc	r25, r1
    6dd8:	11 24       	eor	r1, r1
    6dda:	9d 87       	std	Y+13, r25	; 0x0d
    6ddc:	8c 87       	std	Y+12, r24	; 0x0c
    6dde:	36 c0       	rjmp	.+108    	; 0x6e4c <_ZN12Adafruit_GFX5writeEh+0x192>
    6de0:	f4 01       	movw	r30, r8
    6de2:	35 96       	adiw	r30, 0x05	; 5
    6de4:	44 91       	lpm	r20, Z
    6de6:	5f 89       	ldd	r21, Y+23	; 0x17
    6de8:	55 23       	and	r21, r21
    6dea:	19 f1       	breq	.+70     	; 0x6e32 <_ZN12Adafruit_GFX5writeEh+0x178>
    6dec:	5c 89       	ldd	r21, Y+20	; 0x14
    6dee:	e3 2f       	mov	r30, r19
    6df0:	f0 e0       	ldi	r31, 0x00	; 0
    6df2:	e4 0f       	add	r30, r20
    6df4:	f1 1d       	adc	r31, r1
    6df6:	47 fd       	sbrc	r20, 7
    6df8:	fa 95       	dec	r31
    6dfa:	5e 9f       	mul	r21, r30
    6dfc:	b0 01       	movw	r22, r0
    6dfe:	5f 9f       	mul	r21, r31
    6e00:	70 0d       	add	r23, r0
    6e02:	11 24       	eor	r1, r1
    6e04:	4c 85       	ldd	r20, Y+12	; 0x0c
    6e06:	5d 85       	ldd	r21, Y+13	; 0x0d
    6e08:	46 0f       	add	r20, r22
    6e0a:	57 1f       	adc	r21, r23
    6e0c:	68 85       	ldd	r22, Y+8	; 0x08
    6e0e:	79 85       	ldd	r23, Y+9	; 0x09
    6e10:	64 17       	cp	r22, r20
    6e12:	75 07       	cpc	r23, r21
    6e14:	74 f4       	brge	.+28     	; 0x6e32 <_ZN12Adafruit_GFX5writeEh+0x178>
    6e16:	1d 86       	std	Y+13, r1	; 0x0d
    6e18:	1c 86       	std	Y+12, r1	; 0x0c
    6e1a:	3d 89       	ldd	r19, Y+21	; 0x15
    6e1c:	fc 01       	movw	r30, r24
    6e1e:	36 96       	adiw	r30, 0x06	; 6
    6e20:	e4 91       	lpm	r30, Z
    6e22:	8e 85       	ldd	r24, Y+14	; 0x0e
    6e24:	9f 85       	ldd	r25, Y+15	; 0x0f
    6e26:	3e 9f       	mul	r19, r30
    6e28:	80 0d       	add	r24, r0
    6e2a:	91 1d       	adc	r25, r1
    6e2c:	11 24       	eor	r1, r1
    6e2e:	9f 87       	std	Y+15, r25	; 0x0f
    6e30:	8e 87       	std	Y+14, r24	; 0x0e
    6e32:	ea 88       	ldd	r14, Y+18	; 0x12
    6e34:	fb 88       	ldd	r15, Y+19	; 0x13
    6e36:	08 89       	ldd	r16, Y+16	; 0x10
    6e38:	19 89       	ldd	r17, Y+17	; 0x11
    6e3a:	4e 85       	ldd	r20, Y+14	; 0x0e
    6e3c:	5f 85       	ldd	r21, Y+15	; 0x0f
    6e3e:	6c 85       	ldd	r22, Y+12	; 0x0c
    6e40:	7d 85       	ldd	r23, Y+13	; 0x0d
    6e42:	ad 88       	ldd	r10, Y+21	; 0x15
    6e44:	cc 88       	ldd	r12, Y+20	; 0x14
    6e46:	ce 01       	movw	r24, r28
    6e48:	03 dd       	rcall	.-1530   	; 0x6850 <_ZN12Adafruit_GFX8drawCharEiihjjhh>
    6e4a:	bd cf       	rjmp	.-134    	; 0x6dc6 <_ZN12Adafruit_GFX5writeEh+0x10c>
    6e4c:	81 e0       	ldi	r24, 0x01	; 1
    6e4e:	90 e0       	ldi	r25, 0x00	; 0
    6e50:	df 91       	pop	r29
    6e52:	cf 91       	pop	r28
    6e54:	1f 91       	pop	r17
    6e56:	0f 91       	pop	r16
    6e58:	ff 90       	pop	r15
    6e5a:	ef 90       	pop	r14
    6e5c:	cf 90       	pop	r12
    6e5e:	af 90       	pop	r10
    6e60:	9f 90       	pop	r9
    6e62:	8f 90       	pop	r8
    6e64:	08 95       	ret

00006e66 <_ZN15Adafruit_SPITFT11SPI_CS_HIGHEv>:
    6e66:	dc 01       	movw	r26, r24
    6e68:	5b 96       	adiw	r26, 0x1b	; 27
    6e6a:	ed 91       	ld	r30, X+
    6e6c:	fc 91       	ld	r31, X
    6e6e:	5c 97       	sbiw	r26, 0x1c	; 28
    6e70:	90 81       	ld	r25, Z
    6e72:	d1 96       	adiw	r26, 0x31	; 49
    6e74:	8c 91       	ld	r24, X
    6e76:	89 2b       	or	r24, r25
    6e78:	80 83       	st	Z, r24
    6e7a:	08 95       	ret

00006e7c <_ZN15Adafruit_SPITFT8endWriteEv>:
    6e7c:	cf 93       	push	r28
    6e7e:	df 93       	push	r29
    6e80:	ec 01       	movw	r28, r24
    6e82:	8f a9       	ldd	r24, Y+55	; 0x37
    6e84:	87 fd       	sbrc	r24, 7
    6e86:	02 c0       	rjmp	.+4      	; 0x6e8c <_ZN15Adafruit_SPITFT8endWriteEv+0x10>
    6e88:	ce 01       	movw	r24, r28
    6e8a:	ed df       	rcall	.-38     	; 0x6e66 <_ZN15Adafruit_SPITFT11SPI_CS_HIGHEv>
    6e8c:	8d a9       	ldd	r24, Y+53	; 0x35
    6e8e:	81 11       	cpse	r24, r1
    6e90:	04 c0       	rjmp	.+8      	; 0x6e9a <_ZN15Adafruit_SPITFT8endWriteEv+0x1e>
    6e92:	df 91       	pop	r29
    6e94:	cf 91       	pop	r28
    6e96:	0c 94 02 1d 	jmp	0x3a04	; 0x3a04 <_ZN8SPIClass14endTransactionEv>
    6e9a:	df 91       	pop	r29
    6e9c:	cf 91       	pop	r28
    6e9e:	08 95       	ret

00006ea0 <_ZN15Adafruit_SPITFT10SPI_CS_LOWEv>:
    6ea0:	dc 01       	movw	r26, r24
    6ea2:	5b 96       	adiw	r26, 0x1b	; 27
    6ea4:	ed 91       	ld	r30, X+
    6ea6:	fc 91       	ld	r31, X
    6ea8:	5c 97       	sbiw	r26, 0x1c	; 28
    6eaa:	90 81       	ld	r25, Z
    6eac:	d2 96       	adiw	r26, 0x32	; 50
    6eae:	8c 91       	ld	r24, X
    6eb0:	89 23       	and	r24, r25
    6eb2:	80 83       	st	Z, r24
    6eb4:	08 95       	ret

00006eb6 <_ZN15Adafruit_SPITFT11SPI_DC_HIGHEv>:
    6eb6:	dc 01       	movw	r26, r24
    6eb8:	5d 96       	adiw	r26, 0x1d	; 29
    6eba:	ed 91       	ld	r30, X+
    6ebc:	fc 91       	ld	r31, X
    6ebe:	5e 97       	sbiw	r26, 0x1e	; 30
    6ec0:	90 81       	ld	r25, Z
    6ec2:	d3 96       	adiw	r26, 0x33	; 51
    6ec4:	8c 91       	ld	r24, X
    6ec6:	89 2b       	or	r24, r25
    6ec8:	80 83       	st	Z, r24
    6eca:	08 95       	ret

00006ecc <_ZN15Adafruit_SPITFT10SPI_DC_LOWEv>:
    6ecc:	dc 01       	movw	r26, r24
    6ece:	5d 96       	adiw	r26, 0x1d	; 29
    6ed0:	ed 91       	ld	r30, X+
    6ed2:	fc 91       	ld	r31, X
    6ed4:	5e 97       	sbiw	r26, 0x1e	; 30
    6ed6:	90 81       	ld	r25, Z
    6ed8:	d4 96       	adiw	r26, 0x34	; 52
    6eda:	8c 91       	ld	r24, X
    6edc:	89 23       	and	r24, r25
    6ede:	80 83       	st	Z, r24
    6ee0:	08 95       	ret

00006ee2 <_ZN15Adafruit_SPITFTC1EjjP8SPIClassaaa>:
    6ee2:	af 92       	push	r10
    6ee4:	bf 92       	push	r11
    6ee6:	cf 92       	push	r12
    6ee8:	ef 92       	push	r14
    6eea:	0f 93       	push	r16
    6eec:	1f 93       	push	r17
    6eee:	cf 93       	push	r28
    6ef0:	df 93       	push	r29
    6ef2:	ec 01       	movw	r28, r24
    6ef4:	59 01       	movw	r10, r18
    6ef6:	8a dc       	rcall	.-1772   	; 0x680c <_ZN12Adafruit_GFXC1Eii>
    6ef8:	81 ea       	ldi	r24, 0xA1	; 161
    6efa:	97 e0       	ldi	r25, 0x07	; 7
    6efc:	99 83       	std	Y+1, r25	; 0x01
    6efe:	88 83       	st	Y, r24
    6f00:	1d aa       	std	Y+53, r1	; 0x35
    6f02:	ce aa       	std	Y+54, r12	; 0x36
    6f04:	0f ab       	std	Y+55, r16	; 0x37
    6f06:	e8 ae       	std	Y+56, r14	; 0x38
    6f08:	1a ae       	std	Y+58, r1	; 0x3a
    6f0a:	19 ae       	std	Y+57, r1	; 0x39
    6f0c:	1c ae       	std	Y+60, r1	; 0x3c
    6f0e:	1b ae       	std	Y+59, r1	; 0x3b
    6f10:	1d ae       	std	Y+61, r1	; 0x3d
    6f12:	1e ae       	std	Y+62, r1	; 0x3e
    6f14:	fe 01       	movw	r30, r28
    6f16:	ff 96       	adiw	r30, 0x3f	; 63
    6f18:	10 82       	st	Z, r1
    6f1a:	11 82       	std	Z+1, r1	; 0x01
    6f1c:	12 82       	std	Z+2, r1	; 0x02
    6f1e:	13 82       	std	Z+3, r1	; 0x03
    6f20:	b8 a2       	std	Y+32, r11	; 0x20
    6f22:	af 8e       	std	Y+31, r10	; 0x1f
    6f24:	8e 2d       	mov	r24, r14
    6f26:	ee 0c       	add	r14, r14
    6f28:	99 0b       	sbc	r25, r25
    6f2a:	fc 01       	movw	r30, r24
    6f2c:	ea 5f       	subi	r30, 0xFA	; 250
    6f2e:	fd 4f       	sbci	r31, 0xFD	; 253
    6f30:	e4 91       	lpm	r30, Z
    6f32:	f0 e0       	ldi	r31, 0x00	; 0
    6f34:	ee 0f       	add	r30, r30
    6f36:	ff 1f       	adc	r31, r31
    6f38:	ea 59       	subi	r30, 0x9A	; 154
    6f3a:	fd 4f       	sbci	r31, 0xFD	; 253
    6f3c:	25 91       	lpm	r18, Z+
    6f3e:	34 91       	lpm	r19, Z
    6f40:	3e 8f       	std	Y+30, r19	; 0x1e
    6f42:	2d 8f       	std	Y+29, r18	; 0x1d
    6f44:	fc 01       	movw	r30, r24
    6f46:	e0 54       	subi	r30, 0x40	; 64
    6f48:	fe 4f       	sbci	r31, 0xFE	; 254
    6f4a:	84 91       	lpm	r24, Z
    6f4c:	8b ab       	std	Y+51, r24	; 0x33
    6f4e:	07 fd       	sbrc	r16, 7
    6f50:	16 c0       	rjmp	.+44     	; 0x6f7e <_ZN15Adafruit_SPITFTC1EjjP8SPIClassaaa+0x9c>
    6f52:	00 2e       	mov	r0, r16
    6f54:	00 0c       	add	r0, r0
    6f56:	11 0b       	sbc	r17, r17
    6f58:	f8 01       	movw	r30, r16
    6f5a:	ea 5f       	subi	r30, 0xFA	; 250
    6f5c:	fd 4f       	sbci	r31, 0xFD	; 253
    6f5e:	e4 91       	lpm	r30, Z
    6f60:	f0 e0       	ldi	r31, 0x00	; 0
    6f62:	ee 0f       	add	r30, r30
    6f64:	ff 1f       	adc	r31, r31
    6f66:	ea 59       	subi	r30, 0x9A	; 154
    6f68:	fd 4f       	sbci	r31, 0xFD	; 253
    6f6a:	25 91       	lpm	r18, Z+
    6f6c:	34 91       	lpm	r19, Z
    6f6e:	3c 8f       	std	Y+28, r19	; 0x1c
    6f70:	2b 8f       	std	Y+27, r18	; 0x1b
    6f72:	f8 01       	movw	r30, r16
    6f74:	e0 54       	subi	r30, 0x40	; 64
    6f76:	fe 4f       	sbci	r31, 0xFE	; 254
    6f78:	04 91       	lpm	r16, Z
    6f7a:	09 ab       	std	Y+49, r16	; 0x31
    6f7c:	03 c0       	rjmp	.+6      	; 0x6f84 <_ZN15Adafruit_SPITFTC1EjjP8SPIClassaaa+0xa2>
    6f7e:	3c 8f       	std	Y+28, r19	; 0x1c
    6f80:	2b 8f       	std	Y+27, r18	; 0x1b
    6f82:	19 aa       	std	Y+49, r1	; 0x31
    6f84:	99 a9       	ldd	r25, Y+49	; 0x31
    6f86:	90 95       	com	r25
    6f88:	9a ab       	std	Y+50, r25	; 0x32
    6f8a:	80 95       	com	r24
    6f8c:	8c ab       	std	Y+52, r24	; 0x34
    6f8e:	df 91       	pop	r29
    6f90:	cf 91       	pop	r28
    6f92:	1f 91       	pop	r17
    6f94:	0f 91       	pop	r16
    6f96:	ef 90       	pop	r14
    6f98:	cf 90       	pop	r12
    6f9a:	bf 90       	pop	r11
    6f9c:	af 90       	pop	r10
    6f9e:	08 95       	ret

00006fa0 <_ZN15Adafruit_SPITFTC1Ejjaaa>:
    6fa0:	cf 92       	push	r12
    6fa2:	ef 92       	push	r14
    6fa4:	0f 93       	push	r16
    6fa6:	ce 2c       	mov	r12, r14
    6fa8:	e0 2e       	mov	r14, r16
    6faa:	02 2f       	mov	r16, r18
    6fac:	2b ed       	ldi	r18, 0xDB	; 219
    6fae:	31 e1       	ldi	r19, 0x11	; 17
    6fb0:	98 df       	rcall	.-208    	; 0x6ee2 <_ZN15Adafruit_SPITFTC1EjjP8SPIClassaaa>
    6fb2:	0f 91       	pop	r16
    6fb4:	ef 90       	pop	r14
    6fb6:	cf 90       	pop	r12
    6fb8:	08 95       	ret

00006fba <_ZN15Adafruit_SPITFT7initSPIEmh>:
    6fba:	8f 92       	push	r8
    6fbc:	9f 92       	push	r9
    6fbe:	af 92       	push	r10
    6fc0:	bf 92       	push	r11
    6fc2:	df 92       	push	r13
    6fc4:	ef 92       	push	r14
    6fc6:	ff 92       	push	r15
    6fc8:	0f 93       	push	r16
    6fca:	1f 93       	push	r17
    6fcc:	cf 93       	push	r28
    6fce:	df 93       	push	r29
    6fd0:	1f 92       	push	r1
    6fd2:	1f 92       	push	r1
    6fd4:	cd b7       	in	r28, 0x3d	; 61
    6fd6:	de b7       	in	r29, 0x3e	; 62
    6fd8:	7c 01       	movw	r14, r24
    6fda:	4a 01       	movw	r8, r20
    6fdc:	5b 01       	movw	r10, r22
    6fde:	12 2f       	mov	r17, r18
    6fe0:	45 2b       	or	r20, r21
    6fe2:	46 2b       	or	r20, r22
    6fe4:	47 2b       	or	r20, r23
    6fe6:	31 f4       	brne	.+12     	; 0x6ff4 <_ZN15Adafruit_SPITFT7initSPIEmh+0x3a>
    6fe8:	81 2c       	mov	r8, r1
    6fea:	92 e1       	ldi	r25, 0x12	; 18
    6fec:	99 2e       	mov	r9, r25
    6fee:	9a e7       	ldi	r25, 0x7A	; 122
    6ff0:	a9 2e       	mov	r10, r25
    6ff2:	b1 2c       	mov	r11, r1
    6ff4:	f7 01       	movw	r30, r14
    6ff6:	87 a9       	ldd	r24, Z+55	; 0x37
    6ff8:	87 fd       	sbrc	r24, 7
    6ffa:	08 c0       	rjmp	.+16     	; 0x700c <_ZN15Adafruit_SPITFT7initSPIEmh+0x52>
    6ffc:	61 e0       	ldi	r22, 0x01	; 1
    6ffe:	0e 94 34 1a 	call	0x3468	; 0x3468 <pinMode>
    7002:	61 e0       	ldi	r22, 0x01	; 1
    7004:	f7 01       	movw	r30, r14
    7006:	87 a9       	ldd	r24, Z+55	; 0x37
    7008:	0e 94 70 1a 	call	0x34e0	; 0x34e0 <digitalWrite>
    700c:	61 e0       	ldi	r22, 0x01	; 1
    700e:	f7 01       	movw	r30, r14
    7010:	80 ad       	ldd	r24, Z+56	; 0x38
    7012:	0e 94 34 1a 	call	0x3468	; 0x3468 <pinMode>
    7016:	61 e0       	ldi	r22, 0x01	; 1
    7018:	f7 01       	movw	r30, r14
    701a:	80 ad       	ldd	r24, Z+56	; 0x38
    701c:	0e 94 70 1a 	call	0x34e0	; 0x34e0 <digitalWrite>
    7020:	f7 01       	movw	r30, r14
    7022:	85 a9       	ldd	r24, Z+53	; 0x35
    7024:	81 11       	cpse	r24, r1
    7026:	18 c0       	rjmp	.+48     	; 0x7058 <_ZN15Adafruit_SPITFT7initSPIEmh+0x9e>
    7028:	01 2f       	mov	r16, r17
    702a:	21 e0       	ldi	r18, 0x01	; 1
    702c:	b5 01       	movw	r22, r10
    702e:	a4 01       	movw	r20, r8
    7030:	ce 01       	movw	r24, r28
    7032:	01 96       	adiw	r24, 0x01	; 1
    7034:	0e 94 c3 1c 	call	0x3986	; 0x3986 <_ZN11SPISettingsC1Emhh>
    7038:	89 81       	ldd	r24, Y+1	; 0x01
    703a:	9a 81       	ldd	r25, Y+2	; 0x02
    703c:	f7 01       	movw	r30, r14
    703e:	92 a3       	std	Z+34, r25	; 0x22
    7040:	81 a3       	std	Z+33, r24	; 0x21
    7042:	01 2f       	mov	r16, r17
    7044:	10 e0       	ldi	r17, 0x00	; 0
    7046:	20 e0       	ldi	r18, 0x00	; 0
    7048:	30 e0       	ldi	r19, 0x00	; 0
    704a:	03 a3       	std	Z+35, r16	; 0x23
    704c:	14 a3       	std	Z+36, r17	; 0x24
    704e:	25 a3       	std	Z+37, r18	; 0x25
    7050:	36 a3       	std	Z+38, r19	; 0x26
    7052:	0e 94 6d 28 	call	0x50da	; 0x50da <_ZN8SPIClass5beginEv>
    7056:	55 c0       	rjmp	.+170    	; 0x7102 <_ZN15Adafruit_SPITFT7initSPIEmh+0x148>
    7058:	81 30       	cpi	r24, 0x01	; 1
    705a:	e1 f4       	brne	.+56     	; 0x7094 <_ZN15Adafruit_SPITFT7initSPIEmh+0xda>
    705c:	61 e0       	ldi	r22, 0x01	; 1
    705e:	f7 01       	movw	r30, r14
    7060:	82 a5       	ldd	r24, Z+42	; 0x2a
    7062:	0e 94 34 1a 	call	0x3468	; 0x3468 <pinMode>
    7066:	60 e0       	ldi	r22, 0x00	; 0
    7068:	f7 01       	movw	r30, r14
    706a:	82 a5       	ldd	r24, Z+42	; 0x2a
    706c:	0e 94 70 1a 	call	0x34e0	; 0x34e0 <digitalWrite>
    7070:	61 e0       	ldi	r22, 0x01	; 1
    7072:	f7 01       	movw	r30, r14
    7074:	84 a5       	ldd	r24, Z+44	; 0x2c
    7076:	0e 94 34 1a 	call	0x3468	; 0x3468 <pinMode>
    707a:	60 e0       	ldi	r22, 0x00	; 0
    707c:	f7 01       	movw	r30, r14
    707e:	84 a5       	ldd	r24, Z+44	; 0x2c
    7080:	0e 94 70 1a 	call	0x34e0	; 0x34e0 <digitalWrite>
    7084:	f7 01       	movw	r30, r14
    7086:	83 a5       	ldd	r24, Z+43	; 0x2b
    7088:	87 fd       	sbrc	r24, 7
    708a:	3b c0       	rjmp	.+118    	; 0x7102 <_ZN15Adafruit_SPITFT7initSPIEmh+0x148>
    708c:	60 e0       	ldi	r22, 0x00	; 0
    708e:	0e 94 34 1a 	call	0x3468	; 0x3468 <pinMode>
    7092:	37 c0       	rjmp	.+110    	; 0x7102 <_ZN15Adafruit_SPITFT7initSPIEmh+0x148>
    7094:	06 e0       	ldi	r16, 0x06	; 6
    7096:	12 e0       	ldi	r17, 0x02	; 2
    7098:	d1 2c       	mov	r13, r1
    709a:	f8 01       	movw	r30, r16
    709c:	84 91       	lpm	r24, Z
    709e:	e8 2f       	mov	r30, r24
    70a0:	f0 e0       	ldi	r31, 0x00	; 0
    70a2:	ee 0f       	add	r30, r30
    70a4:	ff 1f       	adc	r31, r31
    70a6:	ea 59       	subi	r30, 0x9A	; 154
    70a8:	fd 4f       	sbci	r31, 0xFD	; 253
    70aa:	85 91       	lpm	r24, Z+
    70ac:	94 91       	lpm	r25, Z
    70ae:	f7 01       	movw	r30, r14
    70b0:	27 8d       	ldd	r18, Z+31	; 0x1f
    70b2:	30 a1       	ldd	r19, Z+32	; 0x20
    70b4:	28 17       	cp	r18, r24
    70b6:	39 07       	cpc	r19, r25
    70b8:	41 f4       	brne	.+16     	; 0x70ca <_ZN15Adafruit_SPITFT7initSPIEmh+0x110>
    70ba:	61 e0       	ldi	r22, 0x01	; 1
    70bc:	8d 2d       	mov	r24, r13
    70be:	0e 94 34 1a 	call	0x3468	; 0x3468 <pinMode>
    70c2:	60 e0       	ldi	r22, 0x00	; 0
    70c4:	8d 2d       	mov	r24, r13
    70c6:	0e 94 70 1a 	call	0x34e0	; 0x34e0 <digitalWrite>
    70ca:	d3 94       	inc	r13
    70cc:	0f 5f       	subi	r16, 0xFF	; 255
    70ce:	1f 4f       	sbci	r17, 0xFF	; 255
    70d0:	f6 e4       	ldi	r31, 0x46	; 70
    70d2:	df 12       	cpse	r13, r31
    70d4:	e2 cf       	rjmp	.-60     	; 0x709a <_ZN15Adafruit_SPITFT7initSPIEmh+0xe0>
    70d6:	61 e0       	ldi	r22, 0x01	; 1
    70d8:	f7 01       	movw	r30, r14
    70da:	86 a5       	ldd	r24, Z+46	; 0x2e
    70dc:	0e 94 34 1a 	call	0x3468	; 0x3468 <pinMode>
    70e0:	61 e0       	ldi	r22, 0x01	; 1
    70e2:	f7 01       	movw	r30, r14
    70e4:	86 a5       	ldd	r24, Z+46	; 0x2e
    70e6:	0e 94 70 1a 	call	0x34e0	; 0x34e0 <digitalWrite>
    70ea:	f7 01       	movw	r30, r14
    70ec:	87 a5       	ldd	r24, Z+47	; 0x2f
    70ee:	87 fd       	sbrc	r24, 7
    70f0:	08 c0       	rjmp	.+16     	; 0x7102 <_ZN15Adafruit_SPITFT7initSPIEmh+0x148>
    70f2:	61 e0       	ldi	r22, 0x01	; 1
    70f4:	0e 94 34 1a 	call	0x3468	; 0x3468 <pinMode>
    70f8:	61 e0       	ldi	r22, 0x01	; 1
    70fa:	f7 01       	movw	r30, r14
    70fc:	87 a5       	ldd	r24, Z+47	; 0x2f
    70fe:	0e 94 70 1a 	call	0x34e0	; 0x34e0 <digitalWrite>
    7102:	f7 01       	movw	r30, r14
    7104:	86 a9       	ldd	r24, Z+54	; 0x36
    7106:	87 fd       	sbrc	r24, 7
    7108:	24 c0       	rjmp	.+72     	; 0x7152 <_ZN15Adafruit_SPITFT7initSPIEmh+0x198>
    710a:	61 e0       	ldi	r22, 0x01	; 1
    710c:	0e 94 34 1a 	call	0x3468	; 0x3468 <pinMode>
    7110:	61 e0       	ldi	r22, 0x01	; 1
    7112:	f7 01       	movw	r30, r14
    7114:	86 a9       	ldd	r24, Z+54	; 0x36
    7116:	0e 94 70 1a 	call	0x34e0	; 0x34e0 <digitalWrite>
    711a:	64 e6       	ldi	r22, 0x64	; 100
    711c:	70 e0       	ldi	r23, 0x00	; 0
    711e:	80 e0       	ldi	r24, 0x00	; 0
    7120:	90 e0       	ldi	r25, 0x00	; 0
    7122:	0e 94 12 19 	call	0x3224	; 0x3224 <delay>
    7126:	60 e0       	ldi	r22, 0x00	; 0
    7128:	f7 01       	movw	r30, r14
    712a:	86 a9       	ldd	r24, Z+54	; 0x36
    712c:	0e 94 70 1a 	call	0x34e0	; 0x34e0 <digitalWrite>
    7130:	64 e6       	ldi	r22, 0x64	; 100
    7132:	70 e0       	ldi	r23, 0x00	; 0
    7134:	80 e0       	ldi	r24, 0x00	; 0
    7136:	90 e0       	ldi	r25, 0x00	; 0
    7138:	0e 94 12 19 	call	0x3224	; 0x3224 <delay>
    713c:	61 e0       	ldi	r22, 0x01	; 1
    713e:	f7 01       	movw	r30, r14
    7140:	86 a9       	ldd	r24, Z+54	; 0x36
    7142:	0e 94 70 1a 	call	0x34e0	; 0x34e0 <digitalWrite>
    7146:	68 ec       	ldi	r22, 0xC8	; 200
    7148:	70 e0       	ldi	r23, 0x00	; 0
    714a:	80 e0       	ldi	r24, 0x00	; 0
    714c:	90 e0       	ldi	r25, 0x00	; 0
    714e:	0e 94 12 19 	call	0x3224	; 0x3224 <delay>
    7152:	0f 90       	pop	r0
    7154:	0f 90       	pop	r0
    7156:	df 91       	pop	r29
    7158:	cf 91       	pop	r28
    715a:	1f 91       	pop	r17
    715c:	0f 91       	pop	r16
    715e:	ff 90       	pop	r15
    7160:	ef 90       	pop	r14
    7162:	df 90       	pop	r13
    7164:	bf 90       	pop	r11
    7166:	af 90       	pop	r10
    7168:	9f 90       	pop	r9
    716a:	8f 90       	pop	r8
    716c:	08 95       	ret

0000716e <_ZN15Adafruit_SPITFT21SPI_BEGIN_TRANSACTIONEv>:
    716e:	fc 01       	movw	r30, r24
    7170:	85 a9       	ldd	r24, Z+53	; 0x35
    7172:	81 11       	cpse	r24, r1
    7174:	1b c0       	rjmp	.+54     	; 0x71ac <_ZN15Adafruit_SPITFT21SPI_BEGIN_TRANSACTIONEv+0x3e>
    7176:	41 a1       	ldd	r20, Z+33	; 0x21
    7178:	32 a1       	ldd	r19, Z+34	; 0x22
    717a:	80 91 d9 11 	lds	r24, 0x11D9	; 0x8011d9 <_ZN8SPIClass13interruptModeE>
    717e:	88 23       	and	r24, r24
    7180:	99 f0       	breq	.+38     	; 0x71a8 <_ZN15Adafruit_SPITFT21SPI_BEGIN_TRANSACTIONEv+0x3a>
    7182:	2f b7       	in	r18, 0x3f	; 63
    7184:	f8 94       	cli
    7186:	80 91 d9 11 	lds	r24, 0x11D9	; 0x8011d9 <_ZN8SPIClass13interruptModeE>
    718a:	81 30       	cpi	r24, 0x01	; 1
    718c:	59 f4       	brne	.+22     	; 0x71a4 <_ZN15Adafruit_SPITFT21SPI_BEGIN_TRANSACTIONEv+0x36>
    718e:	8d b3       	in	r24, 0x1d	; 29
    7190:	80 93 d7 11 	sts	0x11D7, r24	; 0x8011d7 <_ZN8SPIClass13interruptSaveE>
    7194:	9d b3       	in	r25, 0x1d	; 29
    7196:	80 91 d8 11 	lds	r24, 0x11D8	; 0x8011d8 <_ZN8SPIClass13interruptMaskE>
    719a:	80 95       	com	r24
    719c:	89 23       	and	r24, r25
    719e:	8d bb       	out	0x1d, r24	; 29
    71a0:	2f bf       	out	0x3f, r18	; 63
    71a2:	02 c0       	rjmp	.+4      	; 0x71a8 <_ZN15Adafruit_SPITFT21SPI_BEGIN_TRANSACTIONEv+0x3a>
    71a4:	20 93 d7 11 	sts	0x11D7, r18	; 0x8011d7 <_ZN8SPIClass13interruptSaveE>
    71a8:	4c bd       	out	0x2c, r20	; 44
    71aa:	3d bd       	out	0x2d, r19	; 45
    71ac:	08 95       	ret

000071ae <_ZN15Adafruit_SPITFT10startWriteEv>:
    71ae:	cf 93       	push	r28
    71b0:	df 93       	push	r29
    71b2:	ec 01       	movw	r28, r24
    71b4:	dc df       	rcall	.-72     	; 0x716e <_ZN15Adafruit_SPITFT21SPI_BEGIN_TRANSACTIONEv>
    71b6:	8f a9       	ldd	r24, Y+55	; 0x37
    71b8:	87 fd       	sbrc	r24, 7
    71ba:	04 c0       	rjmp	.+8      	; 0x71c4 <_ZN15Adafruit_SPITFT10startWriteEv+0x16>
    71bc:	ce 01       	movw	r24, r28
    71be:	df 91       	pop	r29
    71c0:	cf 91       	pop	r28
    71c2:	6e ce       	rjmp	.-804    	; 0x6ea0 <_ZN15Adafruit_SPITFT10SPI_CS_LOWEv>
    71c4:	df 91       	pop	r29
    71c6:	cf 91       	pop	r28
    71c8:	08 95       	ret

000071ca <_ZN15Adafruit_SPITFT13SPI_MOSI_HIGHEv>:
    71ca:	dc 01       	movw	r26, r24
    71cc:	91 96       	adiw	r26, 0x21	; 33
    71ce:	ed 91       	ld	r30, X+
    71d0:	fc 91       	ld	r31, X
    71d2:	92 97       	sbiw	r26, 0x22	; 34
    71d4:	90 81       	ld	r25, Z
    71d6:	95 96       	adiw	r26, 0x25	; 37
    71d8:	8c 91       	ld	r24, X
    71da:	89 2b       	or	r24, r25
    71dc:	80 83       	st	Z, r24
    71de:	08 95       	ret

000071e0 <_ZN15Adafruit_SPITFT12SPI_MOSI_LOWEv>:
    71e0:	dc 01       	movw	r26, r24
    71e2:	91 96       	adiw	r26, 0x21	; 33
    71e4:	ed 91       	ld	r30, X+
    71e6:	fc 91       	ld	r31, X
    71e8:	92 97       	sbiw	r26, 0x22	; 34
    71ea:	90 81       	ld	r25, Z
    71ec:	96 96       	adiw	r26, 0x26	; 38
    71ee:	8c 91       	ld	r24, X
    71f0:	89 23       	and	r24, r25
    71f2:	80 83       	st	Z, r24
    71f4:	08 95       	ret

000071f6 <_ZN15Adafruit_SPITFT12SPI_SCK_HIGHEv>:
    71f6:	dc 01       	movw	r26, r24
    71f8:	93 96       	adiw	r26, 0x23	; 35
    71fa:	ed 91       	ld	r30, X+
    71fc:	fc 91       	ld	r31, X
    71fe:	94 97       	sbiw	r26, 0x24	; 36
    7200:	90 81       	ld	r25, Z
    7202:	97 96       	adiw	r26, 0x27	; 39
    7204:	8c 91       	ld	r24, X
    7206:	89 2b       	or	r24, r25
    7208:	80 83       	st	Z, r24
    720a:	08 95       	ret

0000720c <_ZN15Adafruit_SPITFT11SPI_SCK_LOWEv>:
    720c:	dc 01       	movw	r26, r24
    720e:	93 96       	adiw	r26, 0x23	; 35
    7210:	ed 91       	ld	r30, X+
    7212:	fc 91       	ld	r31, X
    7214:	94 97       	sbiw	r26, 0x24	; 36
    7216:	90 81       	ld	r25, Z
    7218:	98 96       	adiw	r26, 0x28	; 40
    721a:	8c 91       	ld	r24, X
    721c:	89 23       	and	r24, r25
    721e:	80 83       	st	Z, r24
    7220:	08 95       	ret

00007222 <_ZN15Adafruit_SPITFT13TFT_WR_STROBEEv>:
    7222:	fc 01       	movw	r30, r24
    7224:	a5 a1       	ldd	r26, Z+37	; 0x25
    7226:	b6 a1       	ldd	r27, Z+38	; 0x26
    7228:	9c 91       	ld	r25, X
    722a:	82 a5       	ldd	r24, Z+42	; 0x2a
    722c:	89 23       	and	r24, r25
    722e:	8c 93       	st	X, r24
    7230:	a5 a1       	ldd	r26, Z+37	; 0x25
    7232:	b6 a1       	ldd	r27, Z+38	; 0x26
    7234:	9c 91       	ld	r25, X
    7236:	81 a5       	ldd	r24, Z+41	; 0x29
    7238:	89 2b       	or	r24, r25
    723a:	8c 93       	st	X, r24
    723c:	08 95       	ret

0000723e <_ZN15Adafruit_SPITFT8spiWriteEh>:
    723e:	0f 93       	push	r16
    7240:	1f 93       	push	r17
    7242:	cf 93       	push	r28
    7244:	df 93       	push	r29
    7246:	ec 01       	movw	r28, r24
    7248:	16 2f       	mov	r17, r22
    724a:	8d a9       	ldd	r24, Y+53	; 0x35
    724c:	81 11       	cpse	r24, r1
    724e:	05 c0       	rjmp	.+10     	; 0x725a <_ZN15Adafruit_SPITFT8spiWriteEh+0x1c>
    7250:	6e bd       	out	0x2e, r22	; 46
    7252:	0d b4       	in	r0, 0x2d	; 45
    7254:	07 fe       	sbrs	r0, 7
    7256:	fd cf       	rjmp	.-6      	; 0x7252 <_ZN15Adafruit_SPITFT8spiWriteEh+0x14>
    7258:	1a c0       	rjmp	.+52     	; 0x728e <_ZN15Adafruit_SPITFT8spiWriteEh+0x50>
    725a:	81 30       	cpi	r24, 0x01	; 1
    725c:	79 f4       	brne	.+30     	; 0x727c <_ZN15Adafruit_SPITFT8spiWriteEh+0x3e>
    725e:	08 e0       	ldi	r16, 0x08	; 8
    7260:	ce 01       	movw	r24, r28
    7262:	17 ff       	sbrs	r17, 7
    7264:	02 c0       	rjmp	.+4      	; 0x726a <_ZN15Adafruit_SPITFT8spiWriteEh+0x2c>
    7266:	b1 df       	rcall	.-158    	; 0x71ca <_ZN15Adafruit_SPITFT13SPI_MOSI_HIGHEv>
    7268:	01 c0       	rjmp	.+2      	; 0x726c <_ZN15Adafruit_SPITFT8spiWriteEh+0x2e>
    726a:	ba df       	rcall	.-140    	; 0x71e0 <_ZN15Adafruit_SPITFT12SPI_MOSI_LOWEv>
    726c:	ce 01       	movw	r24, r28
    726e:	c3 df       	rcall	.-122    	; 0x71f6 <_ZN15Adafruit_SPITFT12SPI_SCK_HIGHEv>
    7270:	11 0f       	add	r17, r17
    7272:	ce 01       	movw	r24, r28
    7274:	cb df       	rcall	.-106    	; 0x720c <_ZN15Adafruit_SPITFT11SPI_SCK_LOWEv>
    7276:	01 50       	subi	r16, 0x01	; 1
    7278:	99 f7       	brne	.-26     	; 0x7260 <_ZN15Adafruit_SPITFT8spiWriteEh+0x22>
    727a:	09 c0       	rjmp	.+18     	; 0x728e <_ZN15Adafruit_SPITFT8spiWriteEh+0x50>
    727c:	ef 8d       	ldd	r30, Y+31	; 0x1f
    727e:	f8 a1       	ldd	r31, Y+32	; 0x20
    7280:	60 83       	st	Z, r22
    7282:	ce 01       	movw	r24, r28
    7284:	df 91       	pop	r29
    7286:	cf 91       	pop	r28
    7288:	1f 91       	pop	r17
    728a:	0f 91       	pop	r16
    728c:	ca cf       	rjmp	.-108    	; 0x7222 <_ZN15Adafruit_SPITFT13TFT_WR_STROBEEv>
    728e:	df 91       	pop	r29
    7290:	cf 91       	pop	r28
    7292:	1f 91       	pop	r17
    7294:	0f 91       	pop	r16
    7296:	08 95       	ret

00007298 <_ZN15Adafruit_SPITFT12writeCommandEh>:
    7298:	1f 93       	push	r17
    729a:	cf 93       	push	r28
    729c:	df 93       	push	r29
    729e:	ec 01       	movw	r28, r24
    72a0:	16 2f       	mov	r17, r22
    72a2:	14 de       	rcall	.-984    	; 0x6ecc <_ZN15Adafruit_SPITFT10SPI_DC_LOWEv>
    72a4:	61 2f       	mov	r22, r17
    72a6:	ce 01       	movw	r24, r28
    72a8:	ca df       	rcall	.-108    	; 0x723e <_ZN15Adafruit_SPITFT8spiWriteEh>
    72aa:	ce 01       	movw	r24, r28
    72ac:	df 91       	pop	r29
    72ae:	cf 91       	pop	r28
    72b0:	1f 91       	pop	r17
    72b2:	01 ce       	rjmp	.-1022   	; 0x6eb6 <_ZN15Adafruit_SPITFT11SPI_DC_HIGHEv>

000072b4 <_ZN15Adafruit_SPITFT13invertDisplayEb>:
    72b4:	1f 93       	push	r17
    72b6:	cf 93       	push	r28
    72b8:	df 93       	push	r29
    72ba:	ec 01       	movw	r28, r24
    72bc:	16 2f       	mov	r17, r22
    72be:	e8 81       	ld	r30, Y
    72c0:	f9 81       	ldd	r31, Y+1	; 0x01
    72c2:	02 84       	ldd	r0, Z+10	; 0x0a
    72c4:	f3 85       	ldd	r31, Z+11	; 0x0b
    72c6:	e0 2d       	mov	r30, r0
    72c8:	19 95       	eicall
    72ca:	11 23       	and	r17, r17
    72cc:	11 f0       	breq	.+4      	; 0x72d2 <_ZN15Adafruit_SPITFT13invertDisplayEb+0x1e>
    72ce:	6d ad       	ldd	r22, Y+61	; 0x3d
    72d0:	01 c0       	rjmp	.+2      	; 0x72d4 <_ZN15Adafruit_SPITFT13invertDisplayEb+0x20>
    72d2:	6e ad       	ldd	r22, Y+62	; 0x3e
    72d4:	ce 01       	movw	r24, r28
    72d6:	e0 df       	rcall	.-64     	; 0x7298 <_ZN15Adafruit_SPITFT12writeCommandEh>
    72d8:	e8 81       	ld	r30, Y
    72da:	f9 81       	ldd	r31, Y+1	; 0x01
    72dc:	06 88       	ldd	r0, Z+22	; 0x16
    72de:	f7 89       	ldd	r31, Z+23	; 0x17
    72e0:	e0 2d       	mov	r30, r0
    72e2:	ce 01       	movw	r24, r28
    72e4:	df 91       	pop	r29
    72e6:	cf 91       	pop	r28
    72e8:	1f 91       	pop	r17
    72ea:	19 94       	eijmp

000072ec <_ZN15Adafruit_SPITFT11SPI_WRITE16Ej>:
    72ec:	ff 92       	push	r15
    72ee:	0f 93       	push	r16
    72f0:	1f 93       	push	r17
    72f2:	cf 93       	push	r28
    72f4:	df 93       	push	r29
    72f6:	ec 01       	movw	r28, r24
    72f8:	8b 01       	movw	r16, r22
    72fa:	8d a9       	ldd	r24, Y+53	; 0x35
    72fc:	81 11       	cpse	r24, r1
    72fe:	09 c0       	rjmp	.+18     	; 0x7312 <_ZN15Adafruit_SPITFT11SPI_WRITE16Ej+0x26>
    7300:	1e bd       	out	0x2e, r17	; 46
    7302:	0d b4       	in	r0, 0x2d	; 45
    7304:	07 fe       	sbrs	r0, 7
    7306:	fd cf       	rjmp	.-6      	; 0x7302 <_ZN15Adafruit_SPITFT11SPI_WRITE16Ej+0x16>
    7308:	0e bd       	out	0x2e, r16	; 46
    730a:	0d b4       	in	r0, 0x2d	; 45
    730c:	07 fe       	sbrs	r0, 7
    730e:	fd cf       	rjmp	.-6      	; 0x730a <_ZN15Adafruit_SPITFT11SPI_WRITE16Ej+0x1e>
    7310:	23 c0       	rjmp	.+70     	; 0x7358 <_ZN15Adafruit_SPITFT11SPI_WRITE16Ej+0x6c>
    7312:	81 30       	cpi	r24, 0x01	; 1
    7314:	91 f4       	brne	.+36     	; 0x733a <_ZN15Adafruit_SPITFT11SPI_WRITE16Ej+0x4e>
    7316:	90 e1       	ldi	r25, 0x10	; 16
    7318:	f9 2e       	mov	r15, r25
    731a:	ce 01       	movw	r24, r28
    731c:	17 ff       	sbrs	r17, 7
    731e:	02 c0       	rjmp	.+4      	; 0x7324 <_ZN15Adafruit_SPITFT11SPI_WRITE16Ej+0x38>
    7320:	54 df       	rcall	.-344    	; 0x71ca <_ZN15Adafruit_SPITFT13SPI_MOSI_HIGHEv>
    7322:	01 c0       	rjmp	.+2      	; 0x7326 <_ZN15Adafruit_SPITFT11SPI_WRITE16Ej+0x3a>
    7324:	5d df       	rcall	.-326    	; 0x71e0 <_ZN15Adafruit_SPITFT12SPI_MOSI_LOWEv>
    7326:	ce 01       	movw	r24, r28
    7328:	66 df       	rcall	.-308    	; 0x71f6 <_ZN15Adafruit_SPITFT12SPI_SCK_HIGHEv>
    732a:	ce 01       	movw	r24, r28
    732c:	6f df       	rcall	.-290    	; 0x720c <_ZN15Adafruit_SPITFT11SPI_SCK_LOWEv>
    732e:	00 0f       	add	r16, r16
    7330:	11 1f       	adc	r17, r17
    7332:	fa 94       	dec	r15
    7334:	f1 10       	cpse	r15, r1
    7336:	f1 cf       	rjmp	.-30     	; 0x731a <_ZN15Adafruit_SPITFT11SPI_WRITE16Ej+0x2e>
    7338:	0f c0       	rjmp	.+30     	; 0x7358 <_ZN15Adafruit_SPITFT11SPI_WRITE16Ej+0x6c>
    733a:	ef 8d       	ldd	r30, Y+31	; 0x1f
    733c:	f8 a1       	ldd	r31, Y+32	; 0x20
    733e:	10 83       	st	Z, r17
    7340:	ce 01       	movw	r24, r28
    7342:	6f df       	rcall	.-290    	; 0x7222 <_ZN15Adafruit_SPITFT13TFT_WR_STROBEEv>
    7344:	ef 8d       	ldd	r30, Y+31	; 0x1f
    7346:	f8 a1       	ldd	r31, Y+32	; 0x20
    7348:	00 83       	st	Z, r16
    734a:	ce 01       	movw	r24, r28
    734c:	df 91       	pop	r29
    734e:	cf 91       	pop	r28
    7350:	1f 91       	pop	r17
    7352:	0f 91       	pop	r16
    7354:	ff 90       	pop	r15
    7356:	65 cf       	rjmp	.-310    	; 0x7222 <_ZN15Adafruit_SPITFT13TFT_WR_STROBEEv>
    7358:	df 91       	pop	r29
    735a:	cf 91       	pop	r28
    735c:	1f 91       	pop	r17
    735e:	0f 91       	pop	r16
    7360:	ff 90       	pop	r15
    7362:	08 95       	ret

00007364 <_ZN15Adafruit_SPITFT11sendCommandEhPhh>:
    7364:	cf 92       	push	r12
    7366:	df 92       	push	r13
    7368:	ef 92       	push	r14
    736a:	ff 92       	push	r15
    736c:	0f 93       	push	r16
    736e:	1f 93       	push	r17
    7370:	cf 93       	push	r28
    7372:	df 93       	push	r29
    7374:	ec 01       	movw	r28, r24
    7376:	f6 2e       	mov	r15, r22
    7378:	8a 01       	movw	r16, r20
    737a:	c2 2e       	mov	r12, r18
    737c:	f8 de       	rcall	.-528    	; 0x716e <_ZN15Adafruit_SPITFT21SPI_BEGIN_TRANSACTIONEv>
    737e:	8f a9       	ldd	r24, Y+55	; 0x37
    7380:	87 fd       	sbrc	r24, 7
    7382:	02 c0       	rjmp	.+4      	; 0x7388 <_ZN15Adafruit_SPITFT11sendCommandEhPhh+0x24>
    7384:	ce 01       	movw	r24, r28
    7386:	8c dd       	rcall	.-1256   	; 0x6ea0 <_ZN15Adafruit_SPITFT10SPI_CS_LOWEv>
    7388:	ce 01       	movw	r24, r28
    738a:	a0 dd       	rcall	.-1216   	; 0x6ecc <_ZN15Adafruit_SPITFT10SPI_DC_LOWEv>
    738c:	6f 2d       	mov	r22, r15
    738e:	ce 01       	movw	r24, r28
    7390:	56 df       	rcall	.-340    	; 0x723e <_ZN15Adafruit_SPITFT8spiWriteEh>
    7392:	ce 01       	movw	r24, r28
    7394:	90 dd       	rcall	.-1248   	; 0x6eb6 <_ZN15Adafruit_SPITFT11SPI_DC_HIGHEv>
    7396:	e1 2c       	mov	r14, r1
    7398:	f1 2c       	mov	r15, r1
    739a:	d1 2c       	mov	r13, r1
    739c:	ec 14       	cp	r14, r12
    739e:	fd 04       	cpc	r15, r13
    73a0:	dc f4       	brge	.+54     	; 0x73d8 <_ZN15Adafruit_SPITFT11sendCommandEhPhh+0x74>
    73a2:	f8 01       	movw	r30, r16
    73a4:	60 81       	ld	r22, Z
    73a6:	ce 01       	movw	r24, r28
    73a8:	4a df       	rcall	.-364    	; 0x723e <_ZN15Adafruit_SPITFT8spiWriteEh>
    73aa:	8d a9       	ldd	r24, Y+53	; 0x35
    73ac:	f8 01       	movw	r30, r16
    73ae:	82 30       	cpi	r24, 0x02	; 2
    73b0:	51 f4       	brne	.+20     	; 0x73c6 <_ZN15Adafruit_SPITFT11sendCommandEhPhh+0x62>
    73b2:	88 a9       	ldd	r24, Y+48	; 0x30
    73b4:	88 23       	and	r24, r24
    73b6:	39 f0       	breq	.+14     	; 0x73c6 <_ZN15Adafruit_SPITFT11sendCommandEhPhh+0x62>
    73b8:	61 81       	ldd	r22, Z+1	; 0x01
    73ba:	72 81       	ldd	r23, Z+2	; 0x02
    73bc:	ce 01       	movw	r24, r28
    73be:	96 df       	rcall	.-212    	; 0x72ec <_ZN15Adafruit_SPITFT11SPI_WRITE16Ej>
    73c0:	0d 5f       	subi	r16, 0xFD	; 253
    73c2:	1f 4f       	sbci	r17, 0xFF	; 255
    73c4:	05 c0       	rjmp	.+10     	; 0x73d0 <_ZN15Adafruit_SPITFT11sendCommandEhPhh+0x6c>
    73c6:	61 81       	ldd	r22, Z+1	; 0x01
    73c8:	ce 01       	movw	r24, r28
    73ca:	39 df       	rcall	.-398    	; 0x723e <_ZN15Adafruit_SPITFT8spiWriteEh>
    73cc:	0e 5f       	subi	r16, 0xFE	; 254
    73ce:	1f 4f       	sbci	r17, 0xFF	; 255
    73d0:	ff ef       	ldi	r31, 0xFF	; 255
    73d2:	ef 1a       	sub	r14, r31
    73d4:	ff 0a       	sbc	r15, r31
    73d6:	e2 cf       	rjmp	.-60     	; 0x739c <_ZN15Adafruit_SPITFT11sendCommandEhPhh+0x38>
    73d8:	8f a9       	ldd	r24, Y+55	; 0x37
    73da:	87 fd       	sbrc	r24, 7
    73dc:	02 c0       	rjmp	.+4      	; 0x73e2 <_ZN15Adafruit_SPITFT11sendCommandEhPhh+0x7e>
    73de:	ce 01       	movw	r24, r28
    73e0:	42 dd       	rcall	.-1404   	; 0x6e66 <_ZN15Adafruit_SPITFT11SPI_CS_HIGHEv>
    73e2:	8d a9       	ldd	r24, Y+53	; 0x35
    73e4:	81 11       	cpse	r24, r1
    73e6:	0a c0       	rjmp	.+20     	; 0x73fc <_ZN15Adafruit_SPITFT11sendCommandEhPhh+0x98>
    73e8:	df 91       	pop	r29
    73ea:	cf 91       	pop	r28
    73ec:	1f 91       	pop	r17
    73ee:	0f 91       	pop	r16
    73f0:	ff 90       	pop	r15
    73f2:	ef 90       	pop	r14
    73f4:	df 90       	pop	r13
    73f6:	cf 90       	pop	r12
    73f8:	0c 94 02 1d 	jmp	0x3a04	; 0x3a04 <_ZN8SPIClass14endTransactionEv>
    73fc:	df 91       	pop	r29
    73fe:	cf 91       	pop	r28
    7400:	1f 91       	pop	r17
    7402:	0f 91       	pop	r16
    7404:	ff 90       	pop	r15
    7406:	ef 90       	pop	r14
    7408:	df 90       	pop	r13
    740a:	cf 90       	pop	r12
    740c:	08 95       	ret

0000740e <_ZN15Adafruit_SPITFT9drawPixelEiij>:
    740e:	af 92       	push	r10
    7410:	bf 92       	push	r11
    7412:	cf 92       	push	r12
    7414:	df 92       	push	r13
    7416:	ef 92       	push	r14
    7418:	ff 92       	push	r15
    741a:	0f 93       	push	r16
    741c:	1f 93       	push	r17
    741e:	cf 93       	push	r28
    7420:	df 93       	push	r29
    7422:	ec 01       	movw	r28, r24
    7424:	77 fd       	sbrc	r23, 7
    7426:	37 c0       	rjmp	.+110    	; 0x7496 <_ZN15Adafruit_SPITFT9drawPixelEiij+0x88>
    7428:	88 85       	ldd	r24, Y+8	; 0x08
    742a:	99 85       	ldd	r25, Y+9	; 0x09
    742c:	68 17       	cp	r22, r24
    742e:	79 07       	cpc	r23, r25
    7430:	94 f5       	brge	.+100    	; 0x7496 <_ZN15Adafruit_SPITFT9drawPixelEiij+0x88>
    7432:	57 fd       	sbrc	r21, 7
    7434:	30 c0       	rjmp	.+96     	; 0x7496 <_ZN15Adafruit_SPITFT9drawPixelEiij+0x88>
    7436:	8a 85       	ldd	r24, Y+10	; 0x0a
    7438:	9b 85       	ldd	r25, Y+11	; 0x0b
    743a:	48 17       	cp	r20, r24
    743c:	59 07       	cpc	r21, r25
    743e:	5c f5       	brge	.+86     	; 0x7496 <_ZN15Adafruit_SPITFT9drawPixelEiij+0x88>
    7440:	69 01       	movw	r12, r18
    7442:	7a 01       	movw	r14, r20
    7444:	5b 01       	movw	r10, r22
    7446:	e8 81       	ld	r30, Y
    7448:	f9 81       	ldd	r31, Y+1	; 0x01
    744a:	02 84       	ldd	r0, Z+10	; 0x0a
    744c:	f3 85       	ldd	r31, Z+11	; 0x0b
    744e:	e0 2d       	mov	r30, r0
    7450:	ce 01       	movw	r24, r28
    7452:	19 95       	eicall
    7454:	e8 81       	ld	r30, Y
    7456:	f9 81       	ldd	r31, Y+1	; 0x01
    7458:	02 a4       	ldd	r0, Z+42	; 0x2a
    745a:	f3 a5       	ldd	r31, Z+43	; 0x2b
    745c:	e0 2d       	mov	r30, r0
    745e:	01 e0       	ldi	r16, 0x01	; 1
    7460:	10 e0       	ldi	r17, 0x00	; 0
    7462:	21 e0       	ldi	r18, 0x01	; 1
    7464:	30 e0       	ldi	r19, 0x00	; 0
    7466:	a7 01       	movw	r20, r14
    7468:	b5 01       	movw	r22, r10
    746a:	ce 01       	movw	r24, r28
    746c:	19 95       	eicall
    746e:	b6 01       	movw	r22, r12
    7470:	ce 01       	movw	r24, r28
    7472:	3c df       	rcall	.-392    	; 0x72ec <_ZN15Adafruit_SPITFT11SPI_WRITE16Ej>
    7474:	e8 81       	ld	r30, Y
    7476:	f9 81       	ldd	r31, Y+1	; 0x01
    7478:	06 88       	ldd	r0, Z+22	; 0x16
    747a:	f7 89       	ldd	r31, Z+23	; 0x17
    747c:	e0 2d       	mov	r30, r0
    747e:	ce 01       	movw	r24, r28
    7480:	df 91       	pop	r29
    7482:	cf 91       	pop	r28
    7484:	1f 91       	pop	r17
    7486:	0f 91       	pop	r16
    7488:	ff 90       	pop	r15
    748a:	ef 90       	pop	r14
    748c:	df 90       	pop	r13
    748e:	cf 90       	pop	r12
    7490:	bf 90       	pop	r11
    7492:	af 90       	pop	r10
    7494:	19 94       	eijmp
    7496:	df 91       	pop	r29
    7498:	cf 91       	pop	r28
    749a:	1f 91       	pop	r17
    749c:	0f 91       	pop	r16
    749e:	ff 90       	pop	r15
    74a0:	ef 90       	pop	r14
    74a2:	df 90       	pop	r13
    74a4:	cf 90       	pop	r12
    74a6:	bf 90       	pop	r11
    74a8:	af 90       	pop	r10
    74aa:	08 95       	ret

000074ac <_ZN15Adafruit_SPITFT10writePixelEiij>:
    74ac:	ef 92       	push	r14
    74ae:	ff 92       	push	r15
    74b0:	0f 93       	push	r16
    74b2:	1f 93       	push	r17
    74b4:	cf 93       	push	r28
    74b6:	df 93       	push	r29
    74b8:	ec 01       	movw	r28, r24
    74ba:	77 fd       	sbrc	r23, 7
    74bc:	21 c0       	rjmp	.+66     	; 0x7500 <_ZN15Adafruit_SPITFT10writePixelEiij+0x54>
    74be:	88 85       	ldd	r24, Y+8	; 0x08
    74c0:	99 85       	ldd	r25, Y+9	; 0x09
    74c2:	68 17       	cp	r22, r24
    74c4:	79 07       	cpc	r23, r25
    74c6:	e4 f4       	brge	.+56     	; 0x7500 <_ZN15Adafruit_SPITFT10writePixelEiij+0x54>
    74c8:	57 fd       	sbrc	r21, 7
    74ca:	1a c0       	rjmp	.+52     	; 0x7500 <_ZN15Adafruit_SPITFT10writePixelEiij+0x54>
    74cc:	8a 85       	ldd	r24, Y+10	; 0x0a
    74ce:	9b 85       	ldd	r25, Y+11	; 0x0b
    74d0:	48 17       	cp	r20, r24
    74d2:	59 07       	cpc	r21, r25
    74d4:	ac f4       	brge	.+42     	; 0x7500 <_ZN15Adafruit_SPITFT10writePixelEiij+0x54>
    74d6:	79 01       	movw	r14, r18
    74d8:	e8 81       	ld	r30, Y
    74da:	f9 81       	ldd	r31, Y+1	; 0x01
    74dc:	02 a4       	ldd	r0, Z+42	; 0x2a
    74de:	f3 a5       	ldd	r31, Z+43	; 0x2b
    74e0:	e0 2d       	mov	r30, r0
    74e2:	01 e0       	ldi	r16, 0x01	; 1
    74e4:	10 e0       	ldi	r17, 0x00	; 0
    74e6:	21 e0       	ldi	r18, 0x01	; 1
    74e8:	30 e0       	ldi	r19, 0x00	; 0
    74ea:	ce 01       	movw	r24, r28
    74ec:	19 95       	eicall
    74ee:	b7 01       	movw	r22, r14
    74f0:	ce 01       	movw	r24, r28
    74f2:	df 91       	pop	r29
    74f4:	cf 91       	pop	r28
    74f6:	1f 91       	pop	r17
    74f8:	0f 91       	pop	r16
    74fa:	ff 90       	pop	r15
    74fc:	ef 90       	pop	r14
    74fe:	f6 ce       	rjmp	.-532    	; 0x72ec <_ZN15Adafruit_SPITFT11SPI_WRITE16Ej>
    7500:	df 91       	pop	r29
    7502:	cf 91       	pop	r28
    7504:	1f 91       	pop	r17
    7506:	0f 91       	pop	r16
    7508:	ff 90       	pop	r15
    750a:	ef 90       	pop	r14
    750c:	08 95       	ret

0000750e <_ZN15Adafruit_SPITFT11SPI_WRITE32Em>:
    750e:	cf 92       	push	r12
    7510:	df 92       	push	r13
    7512:	ef 92       	push	r14
    7514:	ff 92       	push	r15
    7516:	1f 93       	push	r17
    7518:	cf 93       	push	r28
    751a:	df 93       	push	r29
    751c:	ec 01       	movw	r28, r24
    751e:	6a 01       	movw	r12, r20
    7520:	7b 01       	movw	r14, r22
    7522:	8d a9       	ldd	r24, Y+53	; 0x35
    7524:	81 11       	cpse	r24, r1
    7526:	1c c0       	rjmp	.+56     	; 0x7560 <_ZN15Adafruit_SPITFT11SPI_WRITE32Em+0x52>
    7528:	8f 2d       	mov	r24, r15
    752a:	99 27       	eor	r25, r25
    752c:	aa 27       	eor	r26, r26
    752e:	bb 27       	eor	r27, r27
    7530:	8e bd       	out	0x2e, r24	; 46
    7532:	0d b4       	in	r0, 0x2d	; 45
    7534:	07 fe       	sbrs	r0, 7
    7536:	fd cf       	rjmp	.-6      	; 0x7532 <_ZN15Adafruit_SPITFT11SPI_WRITE32Em+0x24>
    7538:	c7 01       	movw	r24, r14
    753a:	aa 27       	eor	r26, r26
    753c:	bb 27       	eor	r27, r27
    753e:	8e bd       	out	0x2e, r24	; 46
    7540:	0d b4       	in	r0, 0x2d	; 45
    7542:	07 fe       	sbrs	r0, 7
    7544:	fd cf       	rjmp	.-6      	; 0x7540 <_ZN15Adafruit_SPITFT11SPI_WRITE32Em+0x32>
    7546:	bb 27       	eor	r27, r27
    7548:	af 2d       	mov	r26, r15
    754a:	9e 2d       	mov	r25, r14
    754c:	8d 2d       	mov	r24, r13
    754e:	8e bd       	out	0x2e, r24	; 46
    7550:	0d b4       	in	r0, 0x2d	; 45
    7552:	07 fe       	sbrs	r0, 7
    7554:	fd cf       	rjmp	.-6      	; 0x7550 <_ZN15Adafruit_SPITFT11SPI_WRITE32Em+0x42>
    7556:	ce bc       	out	0x2e, r12	; 46
    7558:	0d b4       	in	r0, 0x2d	; 45
    755a:	07 fe       	sbrs	r0, 7
    755c:	fd cf       	rjmp	.-6      	; 0x7558 <_ZN15Adafruit_SPITFT11SPI_WRITE32Em+0x4a>
    755e:	3a c0       	rjmp	.+116    	; 0x75d4 <_ZN15Adafruit_SPITFT11SPI_WRITE32Em+0xc6>
    7560:	81 30       	cpi	r24, 0x01	; 1
    7562:	91 f4       	brne	.+36     	; 0x7588 <_ZN15Adafruit_SPITFT11SPI_WRITE32Em+0x7a>
    7564:	10 e2       	ldi	r17, 0x20	; 32
    7566:	ce 01       	movw	r24, r28
    7568:	f7 fe       	sbrs	r15, 7
    756a:	02 c0       	rjmp	.+4      	; 0x7570 <_ZN15Adafruit_SPITFT11SPI_WRITE32Em+0x62>
    756c:	2e de       	rcall	.-932    	; 0x71ca <_ZN15Adafruit_SPITFT13SPI_MOSI_HIGHEv>
    756e:	01 c0       	rjmp	.+2      	; 0x7572 <_ZN15Adafruit_SPITFT11SPI_WRITE32Em+0x64>
    7570:	37 de       	rcall	.-914    	; 0x71e0 <_ZN15Adafruit_SPITFT12SPI_MOSI_LOWEv>
    7572:	ce 01       	movw	r24, r28
    7574:	40 de       	rcall	.-896    	; 0x71f6 <_ZN15Adafruit_SPITFT12SPI_SCK_HIGHEv>
    7576:	ce 01       	movw	r24, r28
    7578:	49 de       	rcall	.-878    	; 0x720c <_ZN15Adafruit_SPITFT11SPI_SCK_LOWEv>
    757a:	cc 0c       	add	r12, r12
    757c:	dd 1c       	adc	r13, r13
    757e:	ee 1c       	adc	r14, r14
    7580:	ff 1c       	adc	r15, r15
    7582:	11 50       	subi	r17, 0x01	; 1
    7584:	81 f7       	brne	.-32     	; 0x7566 <_ZN15Adafruit_SPITFT11SPI_WRITE32Em+0x58>
    7586:	26 c0       	rjmp	.+76     	; 0x75d4 <_ZN15Adafruit_SPITFT11SPI_WRITE32Em+0xc6>
    7588:	ef 8d       	ldd	r30, Y+31	; 0x1f
    758a:	f8 a1       	ldd	r31, Y+32	; 0x20
    758c:	87 2f       	mov	r24, r23
    758e:	99 27       	eor	r25, r25
    7590:	aa 27       	eor	r26, r26
    7592:	bb 27       	eor	r27, r27
    7594:	80 83       	st	Z, r24
    7596:	ce 01       	movw	r24, r28
    7598:	44 de       	rcall	.-888    	; 0x7222 <_ZN15Adafruit_SPITFT13TFT_WR_STROBEEv>
    759a:	ef 8d       	ldd	r30, Y+31	; 0x1f
    759c:	f8 a1       	ldd	r31, Y+32	; 0x20
    759e:	c7 01       	movw	r24, r14
    75a0:	aa 27       	eor	r26, r26
    75a2:	bb 27       	eor	r27, r27
    75a4:	80 83       	st	Z, r24
    75a6:	ce 01       	movw	r24, r28
    75a8:	3c de       	rcall	.-904    	; 0x7222 <_ZN15Adafruit_SPITFT13TFT_WR_STROBEEv>
    75aa:	ef 8d       	ldd	r30, Y+31	; 0x1f
    75ac:	f8 a1       	ldd	r31, Y+32	; 0x20
    75ae:	bb 27       	eor	r27, r27
    75b0:	af 2d       	mov	r26, r15
    75b2:	9e 2d       	mov	r25, r14
    75b4:	8d 2d       	mov	r24, r13
    75b6:	80 83       	st	Z, r24
    75b8:	ce 01       	movw	r24, r28
    75ba:	33 de       	rcall	.-922    	; 0x7222 <_ZN15Adafruit_SPITFT13TFT_WR_STROBEEv>
    75bc:	ef 8d       	ldd	r30, Y+31	; 0x1f
    75be:	f8 a1       	ldd	r31, Y+32	; 0x20
    75c0:	c0 82       	st	Z, r12
    75c2:	ce 01       	movw	r24, r28
    75c4:	df 91       	pop	r29
    75c6:	cf 91       	pop	r28
    75c8:	1f 91       	pop	r17
    75ca:	ff 90       	pop	r15
    75cc:	ef 90       	pop	r14
    75ce:	df 90       	pop	r13
    75d0:	cf 90       	pop	r12
    75d2:	27 ce       	rjmp	.-946    	; 0x7222 <_ZN15Adafruit_SPITFT13TFT_WR_STROBEEv>
    75d4:	df 91       	pop	r29
    75d6:	cf 91       	pop	r28
    75d8:	1f 91       	pop	r17
    75da:	ff 90       	pop	r15
    75dc:	ef 90       	pop	r14
    75de:	df 90       	pop	r13
    75e0:	cf 90       	pop	r12
    75e2:	08 95       	ret

000075e4 <_ZN15Adafruit_SPITFT10writeColorEjm>:
    75e4:	af 92       	push	r10
    75e6:	bf 92       	push	r11
    75e8:	cf 92       	push	r12
    75ea:	df 92       	push	r13
    75ec:	ef 92       	push	r14
    75ee:	ff 92       	push	r15
    75f0:	0f 93       	push	r16
    75f2:	1f 93       	push	r17
    75f4:	cf 93       	push	r28
    75f6:	df 93       	push	r29
    75f8:	ec 01       	movw	r28, r24
    75fa:	8b 01       	movw	r16, r22
    75fc:	21 15       	cp	r18, r1
    75fe:	31 05       	cpc	r19, r1
    7600:	41 05       	cpc	r20, r1
    7602:	51 05       	cpc	r21, r1
    7604:	09 f4       	brne	.+2      	; 0x7608 <_ZN15Adafruit_SPITFT10writeColorEjm+0x24>
    7606:	69 c0       	rjmp	.+210    	; 0x76da <_ZN15Adafruit_SPITFT10writeColorEjm+0xf6>
    7608:	8d a9       	ldd	r24, Y+53	; 0x35
    760a:	81 11       	cpse	r24, r1
    760c:	0f c0       	rjmp	.+30     	; 0x762c <_ZN15Adafruit_SPITFT10writeColorEjm+0x48>
    760e:	21 50       	subi	r18, 0x01	; 1
    7610:	31 09       	sbc	r19, r1
    7612:	41 09       	sbc	r20, r1
    7614:	51 09       	sbc	r21, r1
    7616:	08 f4       	brcc	.+2      	; 0x761a <_ZN15Adafruit_SPITFT10writeColorEjm+0x36>
    7618:	60 c0       	rjmp	.+192    	; 0x76da <_ZN15Adafruit_SPITFT10writeColorEjm+0xf6>
    761a:	1e bd       	out	0x2e, r17	; 46
    761c:	0d b4       	in	r0, 0x2d	; 45
    761e:	07 fe       	sbrs	r0, 7
    7620:	fd cf       	rjmp	.-6      	; 0x761c <_ZN15Adafruit_SPITFT10writeColorEjm+0x38>
    7622:	0e bd       	out	0x2e, r16	; 46
    7624:	0d b4       	in	r0, 0x2d	; 45
    7626:	07 fe       	sbrs	r0, 7
    7628:	fd cf       	rjmp	.-6      	; 0x7624 <_ZN15Adafruit_SPITFT10writeColorEjm+0x40>
    762a:	f1 cf       	rjmp	.-30     	; 0x760e <_ZN15Adafruit_SPITFT10writeColorEjm+0x2a>
    762c:	81 30       	cpi	r24, 0x01	; 1
    762e:	59 f5       	brne	.+86     	; 0x7686 <_ZN15Adafruit_SPITFT10writeColorEjm+0xa2>
    7630:	69 01       	movw	r12, r18
    7632:	7a 01       	movw	r14, r20
    7634:	a1 2e       	mov	r10, r17
    7636:	28 e0       	ldi	r18, 0x08	; 8
    7638:	b2 2e       	mov	r11, r18
    763a:	ce 01       	movw	r24, r28
    763c:	a7 fe       	sbrs	r10, 7
    763e:	02 c0       	rjmp	.+4      	; 0x7644 <_ZN15Adafruit_SPITFT10writeColorEjm+0x60>
    7640:	c4 dd       	rcall	.-1144   	; 0x71ca <_ZN15Adafruit_SPITFT13SPI_MOSI_HIGHEv>
    7642:	01 c0       	rjmp	.+2      	; 0x7646 <_ZN15Adafruit_SPITFT10writeColorEjm+0x62>
    7644:	cd dd       	rcall	.-1126   	; 0x71e0 <_ZN15Adafruit_SPITFT12SPI_MOSI_LOWEv>
    7646:	ce 01       	movw	r24, r28
    7648:	d6 dd       	rcall	.-1108   	; 0x71f6 <_ZN15Adafruit_SPITFT12SPI_SCK_HIGHEv>
    764a:	ce 01       	movw	r24, r28
    764c:	df dd       	rcall	.-1090   	; 0x720c <_ZN15Adafruit_SPITFT11SPI_SCK_LOWEv>
    764e:	aa 0c       	add	r10, r10
    7650:	ba 94       	dec	r11
    7652:	b1 10       	cpse	r11, r1
    7654:	f2 cf       	rjmp	.-28     	; 0x763a <_ZN15Adafruit_SPITFT10writeColorEjm+0x56>
    7656:	a0 2e       	mov	r10, r16
    7658:	98 e0       	ldi	r25, 0x08	; 8
    765a:	b9 2e       	mov	r11, r25
    765c:	ce 01       	movw	r24, r28
    765e:	a7 fe       	sbrs	r10, 7
    7660:	02 c0       	rjmp	.+4      	; 0x7666 <_ZN15Adafruit_SPITFT10writeColorEjm+0x82>
    7662:	b3 dd       	rcall	.-1178   	; 0x71ca <_ZN15Adafruit_SPITFT13SPI_MOSI_HIGHEv>
    7664:	01 c0       	rjmp	.+2      	; 0x7668 <_ZN15Adafruit_SPITFT10writeColorEjm+0x84>
    7666:	bc dd       	rcall	.-1160   	; 0x71e0 <_ZN15Adafruit_SPITFT12SPI_MOSI_LOWEv>
    7668:	ce 01       	movw	r24, r28
    766a:	c5 dd       	rcall	.-1142   	; 0x71f6 <_ZN15Adafruit_SPITFT12SPI_SCK_HIGHEv>
    766c:	ce 01       	movw	r24, r28
    766e:	ce dd       	rcall	.-1124   	; 0x720c <_ZN15Adafruit_SPITFT11SPI_SCK_LOWEv>
    7670:	aa 0c       	add	r10, r10
    7672:	ba 94       	dec	r11
    7674:	b1 10       	cpse	r11, r1
    7676:	f2 cf       	rjmp	.-28     	; 0x765c <_ZN15Adafruit_SPITFT10writeColorEjm+0x78>
    7678:	81 e0       	ldi	r24, 0x01	; 1
    767a:	c8 1a       	sub	r12, r24
    767c:	d1 08       	sbc	r13, r1
    767e:	e1 08       	sbc	r14, r1
    7680:	f1 08       	sbc	r15, r1
    7682:	c1 f6       	brne	.-80     	; 0x7634 <_ZN15Adafruit_SPITFT10writeColorEjm+0x50>
    7684:	2a c0       	rjmp	.+84     	; 0x76da <_ZN15Adafruit_SPITFT10writeColorEjm+0xf6>
    7686:	16 13       	cpse	r17, r22
    7688:	16 c0       	rjmp	.+44     	; 0x76b6 <_ZN15Adafruit_SPITFT10writeColorEjm+0xd2>
    768a:	ef 8d       	ldd	r30, Y+31	; 0x1f
    768c:	f8 a1       	ldd	r31, Y+32	; 0x20
    768e:	10 83       	st	Z, r17
    7690:	69 01       	movw	r12, r18
    7692:	7a 01       	movw	r14, r20
    7694:	cc 0c       	add	r12, r12
    7696:	dd 1c       	adc	r13, r13
    7698:	ee 1c       	adc	r14, r14
    769a:	ff 1c       	adc	r15, r15
    769c:	c1 14       	cp	r12, r1
    769e:	d1 04       	cpc	r13, r1
    76a0:	e1 04       	cpc	r14, r1
    76a2:	f1 04       	cpc	r15, r1
    76a4:	d1 f0       	breq	.+52     	; 0x76da <_ZN15Adafruit_SPITFT10writeColorEjm+0xf6>
    76a6:	ce 01       	movw	r24, r28
    76a8:	bc dd       	rcall	.-1160   	; 0x7222 <_ZN15Adafruit_SPITFT13TFT_WR_STROBEEv>
    76aa:	81 e0       	ldi	r24, 0x01	; 1
    76ac:	c8 1a       	sub	r12, r24
    76ae:	d1 08       	sbc	r13, r1
    76b0:	e1 08       	sbc	r14, r1
    76b2:	f1 08       	sbc	r15, r1
    76b4:	f3 cf       	rjmp	.-26     	; 0x769c <_ZN15Adafruit_SPITFT10writeColorEjm+0xb8>
    76b6:	69 01       	movw	r12, r18
    76b8:	7a 01       	movw	r14, r20
    76ba:	ef 8d       	ldd	r30, Y+31	; 0x1f
    76bc:	f8 a1       	ldd	r31, Y+32	; 0x20
    76be:	10 83       	st	Z, r17
    76c0:	ce 01       	movw	r24, r28
    76c2:	af dd       	rcall	.-1186   	; 0x7222 <_ZN15Adafruit_SPITFT13TFT_WR_STROBEEv>
    76c4:	ef 8d       	ldd	r30, Y+31	; 0x1f
    76c6:	f8 a1       	ldd	r31, Y+32	; 0x20
    76c8:	00 83       	st	Z, r16
    76ca:	ce 01       	movw	r24, r28
    76cc:	aa dd       	rcall	.-1196   	; 0x7222 <_ZN15Adafruit_SPITFT13TFT_WR_STROBEEv>
    76ce:	81 e0       	ldi	r24, 0x01	; 1
    76d0:	c8 1a       	sub	r12, r24
    76d2:	d1 08       	sbc	r13, r1
    76d4:	e1 08       	sbc	r14, r1
    76d6:	f1 08       	sbc	r15, r1
    76d8:	81 f7       	brne	.-32     	; 0x76ba <_ZN15Adafruit_SPITFT10writeColorEjm+0xd6>
    76da:	df 91       	pop	r29
    76dc:	cf 91       	pop	r28
    76de:	1f 91       	pop	r17
    76e0:	0f 91       	pop	r16
    76e2:	ff 90       	pop	r15
    76e4:	ef 90       	pop	r14
    76e6:	df 90       	pop	r13
    76e8:	cf 90       	pop	r12
    76ea:	bf 90       	pop	r11
    76ec:	af 90       	pop	r10
    76ee:	08 95       	ret

000076f0 <_ZN15Adafruit_SPITFT23writeFillRectPreclippedEiiiij>:
    76f0:	af 92       	push	r10
    76f2:	bf 92       	push	r11
    76f4:	cf 92       	push	r12
    76f6:	df 92       	push	r13
    76f8:	ef 92       	push	r14
    76fa:	ff 92       	push	r15
    76fc:	0f 93       	push	r16
    76fe:	1f 93       	push	r17
    7700:	cf 93       	push	r28
    7702:	df 93       	push	r29
    7704:	ec 01       	movw	r28, r24
    7706:	59 01       	movw	r10, r18
    7708:	e8 81       	ld	r30, Y
    770a:	f9 81       	ldd	r31, Y+1	; 0x01
    770c:	02 a4       	ldd	r0, Z+42	; 0x2a
    770e:	f3 a5       	ldd	r31, Z+43	; 0x2b
    7710:	e0 2d       	mov	r30, r0
    7712:	19 95       	eicall
    7714:	95 01       	movw	r18, r10
    7716:	d8 01       	movw	r26, r16
    7718:	0e d5       	rcall	.+2588   	; 0x8136 <__mulhisi3>
    771a:	9b 01       	movw	r18, r22
    771c:	ac 01       	movw	r20, r24
    771e:	b7 01       	movw	r22, r14
    7720:	ce 01       	movw	r24, r28
    7722:	df 91       	pop	r29
    7724:	cf 91       	pop	r28
    7726:	1f 91       	pop	r17
    7728:	0f 91       	pop	r16
    772a:	ff 90       	pop	r15
    772c:	ef 90       	pop	r14
    772e:	df 90       	pop	r13
    7730:	cf 90       	pop	r12
    7732:	bf 90       	pop	r11
    7734:	af 90       	pop	r10
    7736:	56 cf       	rjmp	.-340    	; 0x75e4 <_ZN15Adafruit_SPITFT10writeColorEjm>

00007738 <_ZN15Adafruit_SPITFT14writeFastVLineEiiij>:
    7738:	ef 92       	push	r14
    773a:	ff 92       	push	r15
    773c:	0f 93       	push	r16
    773e:	1f 93       	push	r17
    7740:	cf 93       	push	r28
    7742:	df 93       	push	r29
    7744:	77 fd       	sbrc	r23, 7
    7746:	33 c0       	rjmp	.+102    	; 0x77ae <_ZN15Adafruit_SPITFT14writeFastVLineEiiij+0x76>
    7748:	dc 01       	movw	r26, r24
    774a:	18 96       	adiw	r26, 0x08	; 8
    774c:	ed 91       	ld	r30, X+
    774e:	fc 91       	ld	r31, X
    7750:	19 97       	sbiw	r26, 0x09	; 9
    7752:	6e 17       	cp	r22, r30
    7754:	7f 07       	cpc	r23, r31
    7756:	5c f5       	brge	.+86     	; 0x77ae <_ZN15Adafruit_SPITFT14writeFastVLineEiiij+0x76>
    7758:	21 15       	cp	r18, r1
    775a:	31 05       	cpc	r19, r1
    775c:	41 f1       	breq	.+80     	; 0x77ae <_ZN15Adafruit_SPITFT14writeFastVLineEiiij+0x76>
    775e:	37 ff       	sbrs	r19, 7
    7760:	07 c0       	rjmp	.+14     	; 0x7770 <_ZN15Adafruit_SPITFT14writeFastVLineEiiij+0x38>
    7762:	f9 01       	movw	r30, r18
    7764:	31 96       	adiw	r30, 0x01	; 1
    7766:	4e 0f       	add	r20, r30
    7768:	5f 1f       	adc	r21, r31
    776a:	31 95       	neg	r19
    776c:	21 95       	neg	r18
    776e:	31 09       	sbc	r19, r1
    7770:	dc 01       	movw	r26, r24
    7772:	1a 96       	adiw	r26, 0x0a	; 10
    7774:	ed 91       	ld	r30, X+
    7776:	fc 91       	ld	r31, X
    7778:	1b 97       	sbiw	r26, 0x0b	; 11
    777a:	4e 17       	cp	r20, r30
    777c:	5f 07       	cpc	r21, r31
    777e:	bc f4       	brge	.+46     	; 0x77ae <_ZN15Adafruit_SPITFT14writeFastVLineEiiij+0x76>
    7780:	ea 01       	movw	r28, r20
    7782:	c2 0f       	add	r28, r18
    7784:	d3 1f       	adc	r29, r19
    7786:	de 01       	movw	r26, r28
    7788:	11 97       	sbiw	r26, 0x01	; 1
    778a:	b7 fd       	sbrc	r27, 7
    778c:	10 c0       	rjmp	.+32     	; 0x77ae <_ZN15Adafruit_SPITFT14writeFastVLineEiiij+0x76>
    778e:	57 ff       	sbrs	r21, 7
    7790:	03 c0       	rjmp	.+6      	; 0x7798 <_ZN15Adafruit_SPITFT14writeFastVLineEiiij+0x60>
    7792:	9e 01       	movw	r18, r28
    7794:	40 e0       	ldi	r20, 0x00	; 0
    7796:	50 e0       	ldi	r21, 0x00	; 0
    7798:	ae 17       	cp	r26, r30
    779a:	bf 07       	cpc	r27, r31
    779c:	1c f0       	brlt	.+6      	; 0x77a4 <_ZN15Adafruit_SPITFT14writeFastVLineEiiij+0x6c>
    779e:	9f 01       	movw	r18, r30
    77a0:	24 1b       	sub	r18, r20
    77a2:	35 0b       	sbc	r19, r21
    77a4:	78 01       	movw	r14, r16
    77a6:	89 01       	movw	r16, r18
    77a8:	21 e0       	ldi	r18, 0x01	; 1
    77aa:	30 e0       	ldi	r19, 0x00	; 0
    77ac:	a1 df       	rcall	.-190    	; 0x76f0 <_ZN15Adafruit_SPITFT23writeFillRectPreclippedEiiiij>
    77ae:	df 91       	pop	r29
    77b0:	cf 91       	pop	r28
    77b2:	1f 91       	pop	r17
    77b4:	0f 91       	pop	r16
    77b6:	ff 90       	pop	r15
    77b8:	ef 90       	pop	r14
    77ba:	08 95       	ret

000077bc <_ZN15Adafruit_SPITFT14writeFastHLineEiiij>:
    77bc:	ef 92       	push	r14
    77be:	ff 92       	push	r15
    77c0:	0f 93       	push	r16
    77c2:	1f 93       	push	r17
    77c4:	cf 93       	push	r28
    77c6:	df 93       	push	r29
    77c8:	57 fd       	sbrc	r21, 7
    77ca:	32 c0       	rjmp	.+100    	; 0x7830 <_ZN15Adafruit_SPITFT14writeFastHLineEiiij+0x74>
    77cc:	dc 01       	movw	r26, r24
    77ce:	1a 96       	adiw	r26, 0x0a	; 10
    77d0:	ed 91       	ld	r30, X+
    77d2:	fc 91       	ld	r31, X
    77d4:	1b 97       	sbiw	r26, 0x0b	; 11
    77d6:	4e 17       	cp	r20, r30
    77d8:	5f 07       	cpc	r21, r31
    77da:	54 f5       	brge	.+84     	; 0x7830 <_ZN15Adafruit_SPITFT14writeFastHLineEiiij+0x74>
    77dc:	21 15       	cp	r18, r1
    77de:	31 05       	cpc	r19, r1
    77e0:	39 f1       	breq	.+78     	; 0x7830 <_ZN15Adafruit_SPITFT14writeFastHLineEiiij+0x74>
    77e2:	37 ff       	sbrs	r19, 7
    77e4:	07 c0       	rjmp	.+14     	; 0x77f4 <_ZN15Adafruit_SPITFT14writeFastHLineEiiij+0x38>
    77e6:	f9 01       	movw	r30, r18
    77e8:	31 96       	adiw	r30, 0x01	; 1
    77ea:	6e 0f       	add	r22, r30
    77ec:	7f 1f       	adc	r23, r31
    77ee:	31 95       	neg	r19
    77f0:	21 95       	neg	r18
    77f2:	31 09       	sbc	r19, r1
    77f4:	dc 01       	movw	r26, r24
    77f6:	18 96       	adiw	r26, 0x08	; 8
    77f8:	ed 91       	ld	r30, X+
    77fa:	fc 91       	ld	r31, X
    77fc:	19 97       	sbiw	r26, 0x09	; 9
    77fe:	6e 17       	cp	r22, r30
    7800:	7f 07       	cpc	r23, r31
    7802:	b4 f4       	brge	.+44     	; 0x7830 <_ZN15Adafruit_SPITFT14writeFastHLineEiiij+0x74>
    7804:	eb 01       	movw	r28, r22
    7806:	c2 0f       	add	r28, r18
    7808:	d3 1f       	adc	r29, r19
    780a:	de 01       	movw	r26, r28
    780c:	11 97       	sbiw	r26, 0x01	; 1
    780e:	b7 fd       	sbrc	r27, 7
    7810:	0f c0       	rjmp	.+30     	; 0x7830 <_ZN15Adafruit_SPITFT14writeFastHLineEiiij+0x74>
    7812:	77 ff       	sbrs	r23, 7
    7814:	03 c0       	rjmp	.+6      	; 0x781c <_ZN15Adafruit_SPITFT14writeFastHLineEiiij+0x60>
    7816:	9e 01       	movw	r18, r28
    7818:	60 e0       	ldi	r22, 0x00	; 0
    781a:	70 e0       	ldi	r23, 0x00	; 0
    781c:	ae 17       	cp	r26, r30
    781e:	bf 07       	cpc	r27, r31
    7820:	1c f0       	brlt	.+6      	; 0x7828 <_ZN15Adafruit_SPITFT14writeFastHLineEiiij+0x6c>
    7822:	9f 01       	movw	r18, r30
    7824:	26 1b       	sub	r18, r22
    7826:	37 0b       	sbc	r19, r23
    7828:	78 01       	movw	r14, r16
    782a:	01 e0       	ldi	r16, 0x01	; 1
    782c:	10 e0       	ldi	r17, 0x00	; 0
    782e:	60 df       	rcall	.-320    	; 0x76f0 <_ZN15Adafruit_SPITFT23writeFillRectPreclippedEiiiij>
    7830:	df 91       	pop	r29
    7832:	cf 91       	pop	r28
    7834:	1f 91       	pop	r17
    7836:	0f 91       	pop	r16
    7838:	ff 90       	pop	r15
    783a:	ef 90       	pop	r14
    783c:	08 95       	ret

0000783e <_ZN15Adafruit_SPITFT13drawFastVLineEiiij>:
    783e:	8f 92       	push	r8
    7840:	9f 92       	push	r9
    7842:	af 92       	push	r10
    7844:	bf 92       	push	r11
    7846:	cf 92       	push	r12
    7848:	df 92       	push	r13
    784a:	ef 92       	push	r14
    784c:	ff 92       	push	r15
    784e:	0f 93       	push	r16
    7850:	1f 93       	push	r17
    7852:	cf 93       	push	r28
    7854:	df 93       	push	r29
    7856:	5c 01       	movw	r10, r24
    7858:	4b 01       	movw	r8, r22
    785a:	6a 01       	movw	r12, r20
    785c:	e9 01       	movw	r28, r18
    785e:	77 fd       	sbrc	r23, 7
    7860:	52 c0       	rjmp	.+164    	; 0x7906 <_ZN15Adafruit_SPITFT13drawFastVLineEiiij+0xc8>
    7862:	dc 01       	movw	r26, r24
    7864:	18 96       	adiw	r26, 0x08	; 8
    7866:	8d 91       	ld	r24, X+
    7868:	9c 91       	ld	r25, X
    786a:	19 97       	sbiw	r26, 0x09	; 9
    786c:	68 17       	cp	r22, r24
    786e:	79 07       	cpc	r23, r25
    7870:	0c f0       	brlt	.+2      	; 0x7874 <_ZN15Adafruit_SPITFT13drawFastVLineEiiij+0x36>
    7872:	49 c0       	rjmp	.+146    	; 0x7906 <_ZN15Adafruit_SPITFT13drawFastVLineEiiij+0xc8>
    7874:	20 97       	sbiw	r28, 0x00	; 0
    7876:	09 f4       	brne	.+2      	; 0x787a <_ZN15Adafruit_SPITFT13drawFastVLineEiiij+0x3c>
    7878:	46 c0       	rjmp	.+140    	; 0x7906 <_ZN15Adafruit_SPITFT13drawFastVLineEiiij+0xc8>
    787a:	37 ff       	sbrs	r19, 7
    787c:	07 c0       	rjmp	.+14     	; 0x788c <_ZN15Adafruit_SPITFT13drawFastVLineEiiij+0x4e>
    787e:	c9 01       	movw	r24, r18
    7880:	01 96       	adiw	r24, 0x01	; 1
    7882:	c8 0e       	add	r12, r24
    7884:	d9 1e       	adc	r13, r25
    7886:	d1 95       	neg	r29
    7888:	c1 95       	neg	r28
    788a:	d1 09       	sbc	r29, r1
    788c:	f5 01       	movw	r30, r10
    788e:	82 85       	ldd	r24, Z+10	; 0x0a
    7890:	93 85       	ldd	r25, Z+11	; 0x0b
    7892:	c8 16       	cp	r12, r24
    7894:	d9 06       	cpc	r13, r25
    7896:	bc f5       	brge	.+110    	; 0x7906 <_ZN15Adafruit_SPITFT13drawFastVLineEiiij+0xc8>
    7898:	a6 01       	movw	r20, r12
    789a:	4c 0f       	add	r20, r28
    789c:	5d 1f       	adc	r21, r29
    789e:	9a 01       	movw	r18, r20
    78a0:	21 50       	subi	r18, 0x01	; 1
    78a2:	31 09       	sbc	r19, r1
    78a4:	37 fd       	sbrc	r19, 7
    78a6:	2f c0       	rjmp	.+94     	; 0x7906 <_ZN15Adafruit_SPITFT13drawFastVLineEiiij+0xc8>
    78a8:	d7 fe       	sbrs	r13, 7
    78aa:	03 c0       	rjmp	.+6      	; 0x78b2 <_ZN15Adafruit_SPITFT13drawFastVLineEiiij+0x74>
    78ac:	ea 01       	movw	r28, r20
    78ae:	c1 2c       	mov	r12, r1
    78b0:	d1 2c       	mov	r13, r1
    78b2:	28 17       	cp	r18, r24
    78b4:	39 07       	cpc	r19, r25
    78b6:	1c f0       	brlt	.+6      	; 0x78be <_ZN15Adafruit_SPITFT13drawFastVLineEiiij+0x80>
    78b8:	ec 01       	movw	r28, r24
    78ba:	cc 19       	sub	r28, r12
    78bc:	dd 09       	sbc	r29, r13
    78be:	d5 01       	movw	r26, r10
    78c0:	ed 91       	ld	r30, X+
    78c2:	fc 91       	ld	r31, X
    78c4:	02 84       	ldd	r0, Z+10	; 0x0a
    78c6:	f3 85       	ldd	r31, Z+11	; 0x0b
    78c8:	e0 2d       	mov	r30, r0
    78ca:	c5 01       	movw	r24, r10
    78cc:	19 95       	eicall
    78ce:	78 01       	movw	r14, r16
    78d0:	8e 01       	movw	r16, r28
    78d2:	21 e0       	ldi	r18, 0x01	; 1
    78d4:	30 e0       	ldi	r19, 0x00	; 0
    78d6:	a6 01       	movw	r20, r12
    78d8:	b4 01       	movw	r22, r8
    78da:	c5 01       	movw	r24, r10
    78dc:	09 df       	rcall	.-494    	; 0x76f0 <_ZN15Adafruit_SPITFT23writeFillRectPreclippedEiiiij>
    78de:	d5 01       	movw	r26, r10
    78e0:	ed 91       	ld	r30, X+
    78e2:	fc 91       	ld	r31, X
    78e4:	06 88       	ldd	r0, Z+22	; 0x16
    78e6:	f7 89       	ldd	r31, Z+23	; 0x17
    78e8:	e0 2d       	mov	r30, r0
    78ea:	c5 01       	movw	r24, r10
    78ec:	df 91       	pop	r29
    78ee:	cf 91       	pop	r28
    78f0:	1f 91       	pop	r17
    78f2:	0f 91       	pop	r16
    78f4:	ff 90       	pop	r15
    78f6:	ef 90       	pop	r14
    78f8:	df 90       	pop	r13
    78fa:	cf 90       	pop	r12
    78fc:	bf 90       	pop	r11
    78fe:	af 90       	pop	r10
    7900:	9f 90       	pop	r9
    7902:	8f 90       	pop	r8
    7904:	19 94       	eijmp
    7906:	df 91       	pop	r29
    7908:	cf 91       	pop	r28
    790a:	1f 91       	pop	r17
    790c:	0f 91       	pop	r16
    790e:	ff 90       	pop	r15
    7910:	ef 90       	pop	r14
    7912:	df 90       	pop	r13
    7914:	cf 90       	pop	r12
    7916:	bf 90       	pop	r11
    7918:	af 90       	pop	r10
    791a:	9f 90       	pop	r9
    791c:	8f 90       	pop	r8
    791e:	08 95       	ret

00007920 <_ZN15Adafruit_SPITFT13drawFastHLineEiiij>:
    7920:	8f 92       	push	r8
    7922:	9f 92       	push	r9
    7924:	af 92       	push	r10
    7926:	bf 92       	push	r11
    7928:	cf 92       	push	r12
    792a:	df 92       	push	r13
    792c:	ef 92       	push	r14
    792e:	ff 92       	push	r15
    7930:	0f 93       	push	r16
    7932:	1f 93       	push	r17
    7934:	cf 93       	push	r28
    7936:	df 93       	push	r29
    7938:	5c 01       	movw	r10, r24
    793a:	6b 01       	movw	r12, r22
    793c:	4a 01       	movw	r8, r20
    793e:	e9 01       	movw	r28, r18
    7940:	57 fd       	sbrc	r21, 7
    7942:	52 c0       	rjmp	.+164    	; 0x79e8 <_ZN15Adafruit_SPITFT13drawFastHLineEiiij+0xc8>
    7944:	dc 01       	movw	r26, r24
    7946:	1a 96       	adiw	r26, 0x0a	; 10
    7948:	8d 91       	ld	r24, X+
    794a:	9c 91       	ld	r25, X
    794c:	1b 97       	sbiw	r26, 0x0b	; 11
    794e:	48 17       	cp	r20, r24
    7950:	59 07       	cpc	r21, r25
    7952:	0c f0       	brlt	.+2      	; 0x7956 <_ZN15Adafruit_SPITFT13drawFastHLineEiiij+0x36>
    7954:	49 c0       	rjmp	.+146    	; 0x79e8 <_ZN15Adafruit_SPITFT13drawFastHLineEiiij+0xc8>
    7956:	20 97       	sbiw	r28, 0x00	; 0
    7958:	09 f4       	brne	.+2      	; 0x795c <_ZN15Adafruit_SPITFT13drawFastHLineEiiij+0x3c>
    795a:	46 c0       	rjmp	.+140    	; 0x79e8 <_ZN15Adafruit_SPITFT13drawFastHLineEiiij+0xc8>
    795c:	37 ff       	sbrs	r19, 7
    795e:	07 c0       	rjmp	.+14     	; 0x796e <_ZN15Adafruit_SPITFT13drawFastHLineEiiij+0x4e>
    7960:	c9 01       	movw	r24, r18
    7962:	01 96       	adiw	r24, 0x01	; 1
    7964:	c8 0e       	add	r12, r24
    7966:	d9 1e       	adc	r13, r25
    7968:	d1 95       	neg	r29
    796a:	c1 95       	neg	r28
    796c:	d1 09       	sbc	r29, r1
    796e:	f5 01       	movw	r30, r10
    7970:	80 85       	ldd	r24, Z+8	; 0x08
    7972:	91 85       	ldd	r25, Z+9	; 0x09
    7974:	c8 16       	cp	r12, r24
    7976:	d9 06       	cpc	r13, r25
    7978:	bc f5       	brge	.+110    	; 0x79e8 <_ZN15Adafruit_SPITFT13drawFastHLineEiiij+0xc8>
    797a:	a6 01       	movw	r20, r12
    797c:	4c 0f       	add	r20, r28
    797e:	5d 1f       	adc	r21, r29
    7980:	9a 01       	movw	r18, r20
    7982:	21 50       	subi	r18, 0x01	; 1
    7984:	31 09       	sbc	r19, r1
    7986:	37 fd       	sbrc	r19, 7
    7988:	2f c0       	rjmp	.+94     	; 0x79e8 <_ZN15Adafruit_SPITFT13drawFastHLineEiiij+0xc8>
    798a:	d7 fe       	sbrs	r13, 7
    798c:	03 c0       	rjmp	.+6      	; 0x7994 <_ZN15Adafruit_SPITFT13drawFastHLineEiiij+0x74>
    798e:	ea 01       	movw	r28, r20
    7990:	c1 2c       	mov	r12, r1
    7992:	d1 2c       	mov	r13, r1
    7994:	28 17       	cp	r18, r24
    7996:	39 07       	cpc	r19, r25
    7998:	1c f0       	brlt	.+6      	; 0x79a0 <_ZN15Adafruit_SPITFT13drawFastHLineEiiij+0x80>
    799a:	ec 01       	movw	r28, r24
    799c:	cc 19       	sub	r28, r12
    799e:	dd 09       	sbc	r29, r13
    79a0:	d5 01       	movw	r26, r10
    79a2:	ed 91       	ld	r30, X+
    79a4:	fc 91       	ld	r31, X
    79a6:	02 84       	ldd	r0, Z+10	; 0x0a
    79a8:	f3 85       	ldd	r31, Z+11	; 0x0b
    79aa:	e0 2d       	mov	r30, r0
    79ac:	c5 01       	movw	r24, r10
    79ae:	19 95       	eicall
    79b0:	78 01       	movw	r14, r16
    79b2:	01 e0       	ldi	r16, 0x01	; 1
    79b4:	10 e0       	ldi	r17, 0x00	; 0
    79b6:	9e 01       	movw	r18, r28
    79b8:	a4 01       	movw	r20, r8
    79ba:	b6 01       	movw	r22, r12
    79bc:	c5 01       	movw	r24, r10
    79be:	98 de       	rcall	.-720    	; 0x76f0 <_ZN15Adafruit_SPITFT23writeFillRectPreclippedEiiiij>
    79c0:	d5 01       	movw	r26, r10
    79c2:	ed 91       	ld	r30, X+
    79c4:	fc 91       	ld	r31, X
    79c6:	06 88       	ldd	r0, Z+22	; 0x16
    79c8:	f7 89       	ldd	r31, Z+23	; 0x17
    79ca:	e0 2d       	mov	r30, r0
    79cc:	c5 01       	movw	r24, r10
    79ce:	df 91       	pop	r29
    79d0:	cf 91       	pop	r28
    79d2:	1f 91       	pop	r17
    79d4:	0f 91       	pop	r16
    79d6:	ff 90       	pop	r15
    79d8:	ef 90       	pop	r14
    79da:	df 90       	pop	r13
    79dc:	cf 90       	pop	r12
    79de:	bf 90       	pop	r11
    79e0:	af 90       	pop	r10
    79e2:	9f 90       	pop	r9
    79e4:	8f 90       	pop	r8
    79e6:	19 94       	eijmp
    79e8:	df 91       	pop	r29
    79ea:	cf 91       	pop	r28
    79ec:	1f 91       	pop	r17
    79ee:	0f 91       	pop	r16
    79f0:	ff 90       	pop	r15
    79f2:	ef 90       	pop	r14
    79f4:	df 90       	pop	r13
    79f6:	cf 90       	pop	r12
    79f8:	bf 90       	pop	r11
    79fa:	af 90       	pop	r10
    79fc:	9f 90       	pop	r9
    79fe:	8f 90       	pop	r8
    7a00:	08 95       	ret

00007a02 <_ZN15Adafruit_SPITFT8fillRectEiiiij>:
    7a02:	8f 92       	push	r8
    7a04:	9f 92       	push	r9
    7a06:	af 92       	push	r10
    7a08:	bf 92       	push	r11
    7a0a:	cf 92       	push	r12
    7a0c:	df 92       	push	r13
    7a0e:	ef 92       	push	r14
    7a10:	ff 92       	push	r15
    7a12:	0f 93       	push	r16
    7a14:	1f 93       	push	r17
    7a16:	cf 93       	push	r28
    7a18:	df 93       	push	r29
    7a1a:	4c 01       	movw	r8, r24
    7a1c:	6b 01       	movw	r12, r22
    7a1e:	5a 01       	movw	r10, r20
    7a20:	e9 01       	movw	r28, r18
    7a22:	20 97       	sbiw	r28, 0x00	; 0
    7a24:	09 f4       	brne	.+2      	; 0x7a28 <_ZN15Adafruit_SPITFT8fillRectEiiiij+0x26>
    7a26:	6b c0       	rjmp	.+214    	; 0x7afe <_ZN15Adafruit_SPITFT8fillRectEiiiij+0xfc>
    7a28:	01 15       	cp	r16, r1
    7a2a:	11 05       	cpc	r17, r1
    7a2c:	09 f4       	brne	.+2      	; 0x7a30 <_ZN15Adafruit_SPITFT8fillRectEiiiij+0x2e>
    7a2e:	67 c0       	rjmp	.+206    	; 0x7afe <_ZN15Adafruit_SPITFT8fillRectEiiiij+0xfc>
    7a30:	37 ff       	sbrs	r19, 7
    7a32:	07 c0       	rjmp	.+14     	; 0x7a42 <_ZN15Adafruit_SPITFT8fillRectEiiiij+0x40>
    7a34:	c9 01       	movw	r24, r18
    7a36:	01 96       	adiw	r24, 0x01	; 1
    7a38:	c8 0e       	add	r12, r24
    7a3a:	d9 1e       	adc	r13, r25
    7a3c:	d1 95       	neg	r29
    7a3e:	c1 95       	neg	r28
    7a40:	d1 09       	sbc	r29, r1
    7a42:	f4 01       	movw	r30, r8
    7a44:	a0 85       	ldd	r26, Z+8	; 0x08
    7a46:	b1 85       	ldd	r27, Z+9	; 0x09
    7a48:	ca 16       	cp	r12, r26
    7a4a:	db 06       	cpc	r13, r27
    7a4c:	0c f0       	brlt	.+2      	; 0x7a50 <_ZN15Adafruit_SPITFT8fillRectEiiiij+0x4e>
    7a4e:	57 c0       	rjmp	.+174    	; 0x7afe <_ZN15Adafruit_SPITFT8fillRectEiiiij+0xfc>
    7a50:	17 ff       	sbrs	r17, 7
    7a52:	07 c0       	rjmp	.+14     	; 0x7a62 <_ZN15Adafruit_SPITFT8fillRectEiiiij+0x60>
    7a54:	c8 01       	movw	r24, r16
    7a56:	01 96       	adiw	r24, 0x01	; 1
    7a58:	a8 0e       	add	r10, r24
    7a5a:	b9 1e       	adc	r11, r25
    7a5c:	11 95       	neg	r17
    7a5e:	01 95       	neg	r16
    7a60:	11 09       	sbc	r17, r1
    7a62:	f4 01       	movw	r30, r8
    7a64:	82 85       	ldd	r24, Z+10	; 0x0a
    7a66:	93 85       	ldd	r25, Z+11	; 0x0b
    7a68:	a8 16       	cp	r10, r24
    7a6a:	b9 06       	cpc	r11, r25
    7a6c:	0c f0       	brlt	.+2      	; 0x7a70 <_ZN15Adafruit_SPITFT8fillRectEiiiij+0x6e>
    7a6e:	47 c0       	rjmp	.+142    	; 0x7afe <_ZN15Adafruit_SPITFT8fillRectEiiiij+0xfc>
    7a70:	f6 01       	movw	r30, r12
    7a72:	ec 0f       	add	r30, r28
    7a74:	fd 1f       	adc	r31, r29
    7a76:	af 01       	movw	r20, r30
    7a78:	41 50       	subi	r20, 0x01	; 1
    7a7a:	51 09       	sbc	r21, r1
    7a7c:	57 fd       	sbrc	r21, 7
    7a7e:	3f c0       	rjmp	.+126    	; 0x7afe <_ZN15Adafruit_SPITFT8fillRectEiiiij+0xfc>
    7a80:	b5 01       	movw	r22, r10
    7a82:	60 0f       	add	r22, r16
    7a84:	71 1f       	adc	r23, r17
    7a86:	9b 01       	movw	r18, r22
    7a88:	21 50       	subi	r18, 0x01	; 1
    7a8a:	31 09       	sbc	r19, r1
    7a8c:	37 fd       	sbrc	r19, 7
    7a8e:	37 c0       	rjmp	.+110    	; 0x7afe <_ZN15Adafruit_SPITFT8fillRectEiiiij+0xfc>
    7a90:	d7 fe       	sbrs	r13, 7
    7a92:	03 c0       	rjmp	.+6      	; 0x7a9a <_ZN15Adafruit_SPITFT8fillRectEiiiij+0x98>
    7a94:	ef 01       	movw	r28, r30
    7a96:	c1 2c       	mov	r12, r1
    7a98:	d1 2c       	mov	r13, r1
    7a9a:	b7 fe       	sbrs	r11, 7
    7a9c:	03 c0       	rjmp	.+6      	; 0x7aa4 <_ZN15Adafruit_SPITFT8fillRectEiiiij+0xa2>
    7a9e:	8b 01       	movw	r16, r22
    7aa0:	a1 2c       	mov	r10, r1
    7aa2:	b1 2c       	mov	r11, r1
    7aa4:	4a 17       	cp	r20, r26
    7aa6:	5b 07       	cpc	r21, r27
    7aa8:	1c f0       	brlt	.+6      	; 0x7ab0 <_ZN15Adafruit_SPITFT8fillRectEiiiij+0xae>
    7aaa:	ed 01       	movw	r28, r26
    7aac:	cc 19       	sub	r28, r12
    7aae:	dd 09       	sbc	r29, r13
    7ab0:	28 17       	cp	r18, r24
    7ab2:	39 07       	cpc	r19, r25
    7ab4:	1c f0       	brlt	.+6      	; 0x7abc <_ZN15Adafruit_SPITFT8fillRectEiiiij+0xba>
    7ab6:	8c 01       	movw	r16, r24
    7ab8:	0a 19       	sub	r16, r10
    7aba:	1b 09       	sbc	r17, r11
    7abc:	d4 01       	movw	r26, r8
    7abe:	ed 91       	ld	r30, X+
    7ac0:	fc 91       	ld	r31, X
    7ac2:	02 84       	ldd	r0, Z+10	; 0x0a
    7ac4:	f3 85       	ldd	r31, Z+11	; 0x0b
    7ac6:	e0 2d       	mov	r30, r0
    7ac8:	c4 01       	movw	r24, r8
    7aca:	19 95       	eicall
    7acc:	9e 01       	movw	r18, r28
    7ace:	a5 01       	movw	r20, r10
    7ad0:	b6 01       	movw	r22, r12
    7ad2:	c4 01       	movw	r24, r8
    7ad4:	0d de       	rcall	.-998    	; 0x76f0 <_ZN15Adafruit_SPITFT23writeFillRectPreclippedEiiiij>
    7ad6:	d4 01       	movw	r26, r8
    7ad8:	ed 91       	ld	r30, X+
    7ada:	fc 91       	ld	r31, X
    7adc:	06 88       	ldd	r0, Z+22	; 0x16
    7ade:	f7 89       	ldd	r31, Z+23	; 0x17
    7ae0:	e0 2d       	mov	r30, r0
    7ae2:	c4 01       	movw	r24, r8
    7ae4:	df 91       	pop	r29
    7ae6:	cf 91       	pop	r28
    7ae8:	1f 91       	pop	r17
    7aea:	0f 91       	pop	r16
    7aec:	ff 90       	pop	r15
    7aee:	ef 90       	pop	r14
    7af0:	df 90       	pop	r13
    7af2:	cf 90       	pop	r12
    7af4:	bf 90       	pop	r11
    7af6:	af 90       	pop	r10
    7af8:	9f 90       	pop	r9
    7afa:	8f 90       	pop	r8
    7afc:	19 94       	eijmp
    7afe:	df 91       	pop	r29
    7b00:	cf 91       	pop	r28
    7b02:	1f 91       	pop	r17
    7b04:	0f 91       	pop	r16
    7b06:	ff 90       	pop	r15
    7b08:	ef 90       	pop	r14
    7b0a:	df 90       	pop	r13
    7b0c:	cf 90       	pop	r12
    7b0e:	bf 90       	pop	r11
    7b10:	af 90       	pop	r10
    7b12:	9f 90       	pop	r9
    7b14:	8f 90       	pop	r8
    7b16:	08 95       	ret

00007b18 <_ZN15Adafruit_SPITFT13writeFillRectEiiiij>:
    7b18:	8f 92       	push	r8
    7b1a:	9f 92       	push	r9
    7b1c:	af 92       	push	r10
    7b1e:	bf 92       	push	r11
    7b20:	cf 92       	push	r12
    7b22:	df 92       	push	r13
    7b24:	ef 92       	push	r14
    7b26:	ff 92       	push	r15
    7b28:	0f 93       	push	r16
    7b2a:	1f 93       	push	r17
    7b2c:	cf 93       	push	r28
    7b2e:	df 93       	push	r29
    7b30:	47 01       	movw	r8, r14
    7b32:	21 15       	cp	r18, r1
    7b34:	31 05       	cpc	r19, r1
    7b36:	09 f4       	brne	.+2      	; 0x7b3a <_ZN15Adafruit_SPITFT13writeFillRectEiiiij+0x22>
    7b38:	4c c0       	rjmp	.+152    	; 0x7bd2 <_ZN15Adafruit_SPITFT13writeFillRectEiiiij+0xba>
    7b3a:	01 15       	cp	r16, r1
    7b3c:	11 05       	cpc	r17, r1
    7b3e:	09 f4       	brne	.+2      	; 0x7b42 <_ZN15Adafruit_SPITFT13writeFillRectEiiiij+0x2a>
    7b40:	48 c0       	rjmp	.+144    	; 0x7bd2 <_ZN15Adafruit_SPITFT13writeFillRectEiiiij+0xba>
    7b42:	37 ff       	sbrs	r19, 7
    7b44:	07 c0       	rjmp	.+14     	; 0x7b54 <_ZN15Adafruit_SPITFT13writeFillRectEiiiij+0x3c>
    7b46:	f9 01       	movw	r30, r18
    7b48:	31 96       	adiw	r30, 0x01	; 1
    7b4a:	6e 0f       	add	r22, r30
    7b4c:	7f 1f       	adc	r23, r31
    7b4e:	31 95       	neg	r19
    7b50:	21 95       	neg	r18
    7b52:	31 09       	sbc	r19, r1
    7b54:	dc 01       	movw	r26, r24
    7b56:	18 96       	adiw	r26, 0x08	; 8
    7b58:	ad 90       	ld	r10, X+
    7b5a:	bc 90       	ld	r11, X
    7b5c:	19 97       	sbiw	r26, 0x09	; 9
    7b5e:	6a 15       	cp	r22, r10
    7b60:	7b 05       	cpc	r23, r11
    7b62:	bc f5       	brge	.+110    	; 0x7bd2 <_ZN15Adafruit_SPITFT13writeFillRectEiiiij+0xba>
    7b64:	17 ff       	sbrs	r17, 7
    7b66:	07 c0       	rjmp	.+14     	; 0x7b76 <_ZN15Adafruit_SPITFT13writeFillRectEiiiij+0x5e>
    7b68:	f8 01       	movw	r30, r16
    7b6a:	31 96       	adiw	r30, 0x01	; 1
    7b6c:	4e 0f       	add	r20, r30
    7b6e:	5f 1f       	adc	r21, r31
    7b70:	11 95       	neg	r17
    7b72:	01 95       	neg	r16
    7b74:	11 09       	sbc	r17, r1
    7b76:	dc 01       	movw	r26, r24
    7b78:	1a 96       	adiw	r26, 0x0a	; 10
    7b7a:	ed 91       	ld	r30, X+
    7b7c:	fc 91       	ld	r31, X
    7b7e:	1b 97       	sbiw	r26, 0x0b	; 11
    7b80:	4e 17       	cp	r20, r30
    7b82:	5f 07       	cpc	r21, r31
    7b84:	34 f5       	brge	.+76     	; 0x7bd2 <_ZN15Adafruit_SPITFT13writeFillRectEiiiij+0xba>
    7b86:	6b 01       	movw	r12, r22
    7b88:	c2 0e       	add	r12, r18
    7b8a:	d3 1e       	adc	r13, r19
    7b8c:	e6 01       	movw	r28, r12
    7b8e:	21 97       	sbiw	r28, 0x01	; 1
    7b90:	d7 fd       	sbrc	r29, 7
    7b92:	1f c0       	rjmp	.+62     	; 0x7bd2 <_ZN15Adafruit_SPITFT13writeFillRectEiiiij+0xba>
    7b94:	7a 01       	movw	r14, r20
    7b96:	e0 0e       	add	r14, r16
    7b98:	f1 1e       	adc	r15, r17
    7b9a:	d7 01       	movw	r26, r14
    7b9c:	11 97       	sbiw	r26, 0x01	; 1
    7b9e:	b7 fd       	sbrc	r27, 7
    7ba0:	18 c0       	rjmp	.+48     	; 0x7bd2 <_ZN15Adafruit_SPITFT13writeFillRectEiiiij+0xba>
    7ba2:	77 ff       	sbrs	r23, 7
    7ba4:	03 c0       	rjmp	.+6      	; 0x7bac <_ZN15Adafruit_SPITFT13writeFillRectEiiiij+0x94>
    7ba6:	96 01       	movw	r18, r12
    7ba8:	60 e0       	ldi	r22, 0x00	; 0
    7baa:	70 e0       	ldi	r23, 0x00	; 0
    7bac:	57 ff       	sbrs	r21, 7
    7bae:	03 c0       	rjmp	.+6      	; 0x7bb6 <_ZN15Adafruit_SPITFT13writeFillRectEiiiij+0x9e>
    7bb0:	87 01       	movw	r16, r14
    7bb2:	40 e0       	ldi	r20, 0x00	; 0
    7bb4:	50 e0       	ldi	r21, 0x00	; 0
    7bb6:	ca 15       	cp	r28, r10
    7bb8:	db 05       	cpc	r29, r11
    7bba:	1c f0       	brlt	.+6      	; 0x7bc2 <_ZN15Adafruit_SPITFT13writeFillRectEiiiij+0xaa>
    7bbc:	95 01       	movw	r18, r10
    7bbe:	26 1b       	sub	r18, r22
    7bc0:	37 0b       	sbc	r19, r23
    7bc2:	ae 17       	cp	r26, r30
    7bc4:	bf 07       	cpc	r27, r31
    7bc6:	1c f0       	brlt	.+6      	; 0x7bce <_ZN15Adafruit_SPITFT13writeFillRectEiiiij+0xb6>
    7bc8:	8f 01       	movw	r16, r30
    7bca:	04 1b       	sub	r16, r20
    7bcc:	15 0b       	sbc	r17, r21
    7bce:	74 01       	movw	r14, r8
    7bd0:	8f dd       	rcall	.-1250   	; 0x76f0 <_ZN15Adafruit_SPITFT23writeFillRectPreclippedEiiiij>
    7bd2:	df 91       	pop	r29
    7bd4:	cf 91       	pop	r28
    7bd6:	1f 91       	pop	r17
    7bd8:	0f 91       	pop	r16
    7bda:	ff 90       	pop	r15
    7bdc:	ef 90       	pop	r14
    7bde:	df 90       	pop	r13
    7be0:	cf 90       	pop	r12
    7be2:	bf 90       	pop	r11
    7be4:	af 90       	pop	r10
    7be6:	9f 90       	pop	r9
    7be8:	8f 90       	pop	r8
    7bea:	08 95       	ret

00007bec <twi_init>:
    7bec:	10 92 9f 12 	sts	0x129F, r1	; 0x80129f <twi_state>
    7bf0:	81 e0       	ldi	r24, 0x01	; 1
    7bf2:	80 93 9d 12 	sts	0x129D, r24	; 0x80129d <twi_sendStop>
    7bf6:	10 92 9c 12 	sts	0x129C, r1	; 0x80129c <twi_inRepStart>
    7bfa:	61 e0       	ldi	r22, 0x01	; 1
    7bfc:	84 e1       	ldi	r24, 0x14	; 20
    7bfe:	0e 94 70 1a 	call	0x34e0	; 0x34e0 <digitalWrite>
    7c02:	61 e0       	ldi	r22, 0x01	; 1
    7c04:	85 e1       	ldi	r24, 0x15	; 21
    7c06:	0e 94 70 1a 	call	0x34e0	; 0x34e0 <digitalWrite>
    7c0a:	e9 eb       	ldi	r30, 0xB9	; 185
    7c0c:	f0 e0       	ldi	r31, 0x00	; 0
    7c0e:	80 81       	ld	r24, Z
    7c10:	8e 7f       	andi	r24, 0xFE	; 254
    7c12:	80 83       	st	Z, r24
    7c14:	80 81       	ld	r24, Z
    7c16:	8d 7f       	andi	r24, 0xFD	; 253
    7c18:	80 83       	st	Z, r24
    7c1a:	88 e4       	ldi	r24, 0x48	; 72
    7c1c:	80 93 b8 00 	sts	0x00B8, r24	; 0x8000b8 <__TEXT_REGION_LENGTH__+0x7000b8>
    7c20:	85 e4       	ldi	r24, 0x45	; 69
    7c22:	80 93 bc 00 	sts	0x00BC, r24	; 0x8000bc <__TEXT_REGION_LENGTH__+0x7000bc>
    7c26:	08 95       	ret

00007c28 <twi_readFrom>:
    7c28:	41 32       	cpi	r20, 0x21	; 33
    7c2a:	08 f0       	brcs	.+2      	; 0x7c2e <twi_readFrom+0x6>
    7c2c:	43 c0       	rjmp	.+134    	; 0x7cb4 <twi_readFrom+0x8c>
    7c2e:	90 91 9f 12 	lds	r25, 0x129F	; 0x80129f <twi_state>
    7c32:	91 11       	cpse	r25, r1
    7c34:	fc cf       	rjmp	.-8      	; 0x7c2e <twi_readFrom+0x6>
    7c36:	91 e0       	ldi	r25, 0x01	; 1
    7c38:	90 93 9f 12 	sts	0x129F, r25	; 0x80129f <twi_state>
    7c3c:	20 93 9d 12 	sts	0x129D, r18	; 0x80129d <twi_sendStop>
    7c40:	2f ef       	ldi	r18, 0xFF	; 255
    7c42:	20 93 32 12 	sts	0x1232, r18	; 0x801232 <twi_error>
    7c46:	10 92 77 12 	sts	0x1277, r1	; 0x801277 <twi_masterBufferIndex>
    7c4a:	24 0f       	add	r18, r20
    7c4c:	20 93 76 12 	sts	0x1276, r18	; 0x801276 <twi_masterBufferLength>
    7c50:	90 93 9e 12 	sts	0x129E, r25	; 0x80129e <twi_slarw>
    7c54:	90 91 9e 12 	lds	r25, 0x129E	; 0x80129e <twi_slarw>
    7c58:	88 0f       	add	r24, r24
    7c5a:	89 2b       	or	r24, r25
    7c5c:	80 93 9e 12 	sts	0x129E, r24	; 0x80129e <twi_slarw>
    7c60:	80 91 9c 12 	lds	r24, 0x129C	; 0x80129c <twi_inRepStart>
    7c64:	81 30       	cpi	r24, 0x01	; 1
    7c66:	61 f4       	brne	.+24     	; 0x7c80 <twi_readFrom+0x58>
    7c68:	10 92 9c 12 	sts	0x129C, r1	; 0x80129c <twi_inRepStart>
    7c6c:	80 91 9e 12 	lds	r24, 0x129E	; 0x80129e <twi_slarw>
    7c70:	80 93 bb 00 	sts	0x00BB, r24	; 0x8000bb <__TEXT_REGION_LENGTH__+0x7000bb>
    7c74:	80 91 bc 00 	lds	r24, 0x00BC	; 0x8000bc <__TEXT_REGION_LENGTH__+0x7000bc>
    7c78:	83 fd       	sbrc	r24, 3
    7c7a:	f8 cf       	rjmp	.-16     	; 0x7c6c <twi_readFrom+0x44>
    7c7c:	85 ec       	ldi	r24, 0xC5	; 197
    7c7e:	01 c0       	rjmp	.+2      	; 0x7c82 <twi_readFrom+0x5a>
    7c80:	85 ee       	ldi	r24, 0xE5	; 229
    7c82:	80 93 bc 00 	sts	0x00BC, r24	; 0x8000bc <__TEXT_REGION_LENGTH__+0x7000bc>
    7c86:	80 91 9f 12 	lds	r24, 0x129F	; 0x80129f <twi_state>
    7c8a:	81 30       	cpi	r24, 0x01	; 1
    7c8c:	e1 f3       	breq	.-8      	; 0x7c86 <twi_readFrom+0x5e>
    7c8e:	80 91 77 12 	lds	r24, 0x1277	; 0x801277 <twi_masterBufferIndex>
    7c92:	84 17       	cp	r24, r20
    7c94:	10 f4       	brcc	.+4      	; 0x7c9a <twi_readFrom+0x72>
    7c96:	40 91 77 12 	lds	r20, 0x1277	; 0x801277 <twi_masterBufferIndex>
    7c9a:	a8 e7       	ldi	r26, 0x78	; 120
    7c9c:	b2 e1       	ldi	r27, 0x12	; 18
    7c9e:	96 2f       	mov	r25, r22
    7ca0:	fb 01       	movw	r30, r22
    7ca2:	8e 2f       	mov	r24, r30
    7ca4:	89 1b       	sub	r24, r25
    7ca6:	84 17       	cp	r24, r20
    7ca8:	18 f4       	brcc	.+6      	; 0x7cb0 <twi_readFrom+0x88>
    7caa:	8d 91       	ld	r24, X+
    7cac:	81 93       	st	Z+, r24
    7cae:	f9 cf       	rjmp	.-14     	; 0x7ca2 <twi_readFrom+0x7a>
    7cb0:	84 2f       	mov	r24, r20
    7cb2:	08 95       	ret
    7cb4:	80 e0       	ldi	r24, 0x00	; 0
    7cb6:	08 95       	ret

00007cb8 <twi_writeTo>:
    7cb8:	0f 93       	push	r16
    7cba:	41 32       	cpi	r20, 0x21	; 33
    7cbc:	08 f0       	brcs	.+2      	; 0x7cc0 <twi_writeTo+0x8>
    7cbe:	4a c0       	rjmp	.+148    	; 0x7d54 <twi_writeTo+0x9c>
    7cc0:	90 91 9f 12 	lds	r25, 0x129F	; 0x80129f <twi_state>
    7cc4:	91 11       	cpse	r25, r1
    7cc6:	fc cf       	rjmp	.-8      	; 0x7cc0 <twi_writeTo+0x8>
    7cc8:	32 e0       	ldi	r19, 0x02	; 2
    7cca:	30 93 9f 12 	sts	0x129F, r19	; 0x80129f <twi_state>
    7cce:	00 93 9d 12 	sts	0x129D, r16	; 0x80129d <twi_sendStop>
    7cd2:	3f ef       	ldi	r19, 0xFF	; 255
    7cd4:	30 93 32 12 	sts	0x1232, r19	; 0x801232 <twi_error>
    7cd8:	10 92 77 12 	sts	0x1277, r1	; 0x801277 <twi_masterBufferIndex>
    7cdc:	40 93 76 12 	sts	0x1276, r20	; 0x801276 <twi_masterBufferLength>
    7ce0:	56 2f       	mov	r21, r22
    7ce2:	a8 e7       	ldi	r26, 0x78	; 120
    7ce4:	b2 e1       	ldi	r27, 0x12	; 18
    7ce6:	fb 01       	movw	r30, r22
    7ce8:	3e 2f       	mov	r19, r30
    7cea:	35 1b       	sub	r19, r21
    7cec:	34 17       	cp	r19, r20
    7cee:	18 f4       	brcc	.+6      	; 0x7cf6 <twi_writeTo+0x3e>
    7cf0:	31 91       	ld	r19, Z+
    7cf2:	3d 93       	st	X+, r19
    7cf4:	f9 cf       	rjmp	.-14     	; 0x7ce8 <twi_writeTo+0x30>
    7cf6:	10 92 9e 12 	sts	0x129E, r1	; 0x80129e <twi_slarw>
    7cfa:	30 91 9e 12 	lds	r19, 0x129E	; 0x80129e <twi_slarw>
    7cfe:	88 0f       	add	r24, r24
    7d00:	83 2b       	or	r24, r19
    7d02:	80 93 9e 12 	sts	0x129E, r24	; 0x80129e <twi_slarw>
    7d06:	80 91 9c 12 	lds	r24, 0x129C	; 0x80129c <twi_inRepStart>
    7d0a:	81 30       	cpi	r24, 0x01	; 1
    7d0c:	61 f4       	brne	.+24     	; 0x7d26 <twi_writeTo+0x6e>
    7d0e:	10 92 9c 12 	sts	0x129C, r1	; 0x80129c <twi_inRepStart>
    7d12:	80 91 9e 12 	lds	r24, 0x129E	; 0x80129e <twi_slarw>
    7d16:	80 93 bb 00 	sts	0x00BB, r24	; 0x8000bb <__TEXT_REGION_LENGTH__+0x7000bb>
    7d1a:	80 91 bc 00 	lds	r24, 0x00BC	; 0x8000bc <__TEXT_REGION_LENGTH__+0x7000bc>
    7d1e:	83 fd       	sbrc	r24, 3
    7d20:	f8 cf       	rjmp	.-16     	; 0x7d12 <twi_writeTo+0x5a>
    7d22:	85 ec       	ldi	r24, 0xC5	; 197
    7d24:	01 c0       	rjmp	.+2      	; 0x7d28 <twi_writeTo+0x70>
    7d26:	85 ee       	ldi	r24, 0xE5	; 229
    7d28:	80 93 bc 00 	sts	0x00BC, r24	; 0x8000bc <__TEXT_REGION_LENGTH__+0x7000bc>
    7d2c:	22 23       	and	r18, r18
    7d2e:	21 f0       	breq	.+8      	; 0x7d38 <twi_writeTo+0x80>
    7d30:	80 91 9f 12 	lds	r24, 0x129F	; 0x80129f <twi_state>
    7d34:	82 30       	cpi	r24, 0x02	; 2
    7d36:	d1 f3       	breq	.-12     	; 0x7d2c <twi_writeTo+0x74>
    7d38:	80 91 32 12 	lds	r24, 0x1232	; 0x801232 <twi_error>
    7d3c:	8f 3f       	cpi	r24, 0xFF	; 255
    7d3e:	79 f0       	breq	.+30     	; 0x7d5e <twi_writeTo+0xa6>
    7d40:	80 91 32 12 	lds	r24, 0x1232	; 0x801232 <twi_error>
    7d44:	80 32       	cpi	r24, 0x20	; 32
    7d46:	41 f0       	breq	.+16     	; 0x7d58 <twi_writeTo+0xa0>
    7d48:	80 91 32 12 	lds	r24, 0x1232	; 0x801232 <twi_error>
    7d4c:	80 33       	cpi	r24, 0x30	; 48
    7d4e:	31 f0       	breq	.+12     	; 0x7d5c <twi_writeTo+0xa4>
    7d50:	94 e0       	ldi	r25, 0x04	; 4
    7d52:	05 c0       	rjmp	.+10     	; 0x7d5e <twi_writeTo+0xa6>
    7d54:	91 e0       	ldi	r25, 0x01	; 1
    7d56:	03 c0       	rjmp	.+6      	; 0x7d5e <twi_writeTo+0xa6>
    7d58:	92 e0       	ldi	r25, 0x02	; 2
    7d5a:	01 c0       	rjmp	.+2      	; 0x7d5e <twi_writeTo+0xa6>
    7d5c:	93 e0       	ldi	r25, 0x03	; 3
    7d5e:	89 2f       	mov	r24, r25
    7d60:	0f 91       	pop	r16
    7d62:	08 95       	ret

00007d64 <twi_transmit>:
    7d64:	40 91 54 12 	lds	r20, 0x1254	; 0x801254 <twi_txBufferLength>
    7d68:	26 2f       	mov	r18, r22
    7d6a:	30 e0       	ldi	r19, 0x00	; 0
    7d6c:	24 0f       	add	r18, r20
    7d6e:	31 1d       	adc	r19, r1
    7d70:	21 32       	cpi	r18, 0x21	; 33
    7d72:	31 05       	cpc	r19, r1
    7d74:	dc f4       	brge	.+54     	; 0x7dac <twi_transmit+0x48>
    7d76:	20 91 9f 12 	lds	r18, 0x129F	; 0x80129f <twi_state>
    7d7a:	24 30       	cpi	r18, 0x04	; 4
    7d7c:	c9 f4       	brne	.+50     	; 0x7db0 <twi_transmit+0x4c>
    7d7e:	fc 01       	movw	r30, r24
    7d80:	80 e0       	ldi	r24, 0x00	; 0
    7d82:	90 e0       	ldi	r25, 0x00	; 0
    7d84:	86 17       	cp	r24, r22
    7d86:	58 f4       	brcc	.+22     	; 0x7d9e <twi_transmit+0x3a>
    7d88:	30 91 54 12 	lds	r19, 0x1254	; 0x801254 <twi_txBufferLength>
    7d8c:	21 91       	ld	r18, Z+
    7d8e:	dc 01       	movw	r26, r24
    7d90:	aa 5a       	subi	r26, 0xAA	; 170
    7d92:	bd 4e       	sbci	r27, 0xED	; 237
    7d94:	a3 0f       	add	r26, r19
    7d96:	b1 1d       	adc	r27, r1
    7d98:	2c 93       	st	X, r18
    7d9a:	01 96       	adiw	r24, 0x01	; 1
    7d9c:	f3 cf       	rjmp	.-26     	; 0x7d84 <twi_transmit+0x20>
    7d9e:	80 91 54 12 	lds	r24, 0x1254	; 0x801254 <twi_txBufferLength>
    7da2:	68 0f       	add	r22, r24
    7da4:	60 93 54 12 	sts	0x1254, r22	; 0x801254 <twi_txBufferLength>
    7da8:	80 e0       	ldi	r24, 0x00	; 0
    7daa:	08 95       	ret
    7dac:	81 e0       	ldi	r24, 0x01	; 1
    7dae:	08 95       	ret
    7db0:	82 e0       	ldi	r24, 0x02	; 2
    7db2:	08 95       	ret

00007db4 <twi_attachSlaveRxEvent>:
    7db4:	90 93 99 12 	sts	0x1299, r25	; 0x801299 <twi_onSlaveReceive+0x1>
    7db8:	80 93 98 12 	sts	0x1298, r24	; 0x801298 <twi_onSlaveReceive>
    7dbc:	08 95       	ret

00007dbe <twi_attachSlaveTxEvent>:
    7dbe:	90 93 9b 12 	sts	0x129B, r25	; 0x80129b <twi_onSlaveTransmit+0x1>
    7dc2:	80 93 9a 12 	sts	0x129A, r24	; 0x80129a <twi_onSlaveTransmit>
    7dc6:	08 95       	ret

00007dc8 <twi_stop>:
    7dc8:	85 ed       	ldi	r24, 0xD5	; 213
    7dca:	80 93 bc 00 	sts	0x00BC, r24	; 0x8000bc <__TEXT_REGION_LENGTH__+0x7000bc>
    7dce:	80 91 bc 00 	lds	r24, 0x00BC	; 0x8000bc <__TEXT_REGION_LENGTH__+0x7000bc>
    7dd2:	84 fd       	sbrc	r24, 4
    7dd4:	fc cf       	rjmp	.-8      	; 0x7dce <twi_stop+0x6>
    7dd6:	10 92 9f 12 	sts	0x129F, r1	; 0x80129f <twi_state>
    7dda:	08 95       	ret

00007ddc <twi_releaseBus>:
    7ddc:	85 ec       	ldi	r24, 0xC5	; 197
    7dde:	80 93 bc 00 	sts	0x00BC, r24	; 0x8000bc <__TEXT_REGION_LENGTH__+0x7000bc>
    7de2:	10 92 9f 12 	sts	0x129F, r1	; 0x80129f <twi_state>
    7de6:	08 95       	ret

00007de8 <__vector_39>:
    7de8:	1f 92       	push	r1
    7dea:	0f 92       	push	r0
    7dec:	0f b6       	in	r0, 0x3f	; 63
    7dee:	0f 92       	push	r0
    7df0:	11 24       	eor	r1, r1
    7df2:	0b b6       	in	r0, 0x3b	; 59
    7df4:	0f 92       	push	r0
    7df6:	2f 93       	push	r18
    7df8:	3f 93       	push	r19
    7dfa:	4f 93       	push	r20
    7dfc:	5f 93       	push	r21
    7dfe:	6f 93       	push	r22
    7e00:	7f 93       	push	r23
    7e02:	8f 93       	push	r24
    7e04:	9f 93       	push	r25
    7e06:	af 93       	push	r26
    7e08:	bf 93       	push	r27
    7e0a:	ef 93       	push	r30
    7e0c:	ff 93       	push	r31
    7e0e:	80 91 b9 00 	lds	r24, 0x00B9	; 0x8000b9 <__TEXT_REGION_LENGTH__+0x7000b9>
    7e12:	88 7f       	andi	r24, 0xF8	; 248
    7e14:	80 36       	cpi	r24, 0x60	; 96
    7e16:	09 f4       	brne	.+2      	; 0x7e1a <__vector_39+0x32>
    7e18:	9d c0       	rjmp	.+314    	; 0x7f54 <__vector_39+0x16c>
    7e1a:	70 f5       	brcc	.+92     	; 0x7e78 <__vector_39+0x90>
    7e1c:	88 32       	cpi	r24, 0x28	; 40
    7e1e:	09 f4       	brne	.+2      	; 0x7e22 <__vector_39+0x3a>
    7e20:	5c c0       	rjmp	.+184    	; 0x7eda <__vector_39+0xf2>
    7e22:	90 f4       	brcc	.+36     	; 0x7e48 <__vector_39+0x60>
    7e24:	80 31       	cpi	r24, 0x10	; 16
    7e26:	09 f4       	brne	.+2      	; 0x7e2a <__vector_39+0x42>
    7e28:	55 c0       	rjmp	.+170    	; 0x7ed4 <__vector_39+0xec>
    7e2a:	38 f4       	brcc	.+14     	; 0x7e3a <__vector_39+0x52>
    7e2c:	88 23       	and	r24, r24
    7e2e:	09 f4       	brne	.+2      	; 0x7e32 <__vector_39+0x4a>
    7e30:	f3 c0       	rjmp	.+486    	; 0x8018 <__vector_39+0x230>
    7e32:	88 30       	cpi	r24, 0x08	; 8
    7e34:	09 f4       	brne	.+2      	; 0x7e38 <__vector_39+0x50>
    7e36:	4e c0       	rjmp	.+156    	; 0x7ed4 <__vector_39+0xec>
    7e38:	f2 c0       	rjmp	.+484    	; 0x801e <__vector_39+0x236>
    7e3a:	88 31       	cpi	r24, 0x18	; 24
    7e3c:	09 f4       	brne	.+2      	; 0x7e40 <__vector_39+0x58>
    7e3e:	4d c0       	rjmp	.+154    	; 0x7eda <__vector_39+0xf2>
    7e40:	80 32       	cpi	r24, 0x20	; 32
    7e42:	09 f4       	brne	.+2      	; 0x7e46 <__vector_39+0x5e>
    7e44:	5e c0       	rjmp	.+188    	; 0x7f02 <__vector_39+0x11a>
    7e46:	eb c0       	rjmp	.+470    	; 0x801e <__vector_39+0x236>
    7e48:	80 34       	cpi	r24, 0x40	; 64
    7e4a:	09 f4       	brne	.+2      	; 0x7e4e <__vector_39+0x66>
    7e4c:	69 c0       	rjmp	.+210    	; 0x7f20 <__vector_39+0x138>
    7e4e:	50 f4       	brcc	.+20     	; 0x7e64 <__vector_39+0x7c>
    7e50:	80 33       	cpi	r24, 0x30	; 48
    7e52:	09 f4       	brne	.+2      	; 0x7e56 <__vector_39+0x6e>
    7e54:	56 c0       	rjmp	.+172    	; 0x7f02 <__vector_39+0x11a>
    7e56:	88 33       	cpi	r24, 0x38	; 56
    7e58:	09 f0       	breq	.+2      	; 0x7e5c <__vector_39+0x74>
    7e5a:	e1 c0       	rjmp	.+450    	; 0x801e <__vector_39+0x236>
    7e5c:	80 93 32 12 	sts	0x1232, r24	; 0x801232 <twi_error>
    7e60:	bd df       	rcall	.-134    	; 0x7ddc <twi_releaseBus>
    7e62:	dd c0       	rjmp	.+442    	; 0x801e <__vector_39+0x236>
    7e64:	80 35       	cpi	r24, 0x50	; 80
    7e66:	09 f4       	brne	.+2      	; 0x7e6a <__vector_39+0x82>
    7e68:	4f c0       	rjmp	.+158    	; 0x7f08 <__vector_39+0x120>
    7e6a:	88 35       	cpi	r24, 0x58	; 88
    7e6c:	09 f4       	brne	.+2      	; 0x7e70 <__vector_39+0x88>
    7e6e:	5d c0       	rjmp	.+186    	; 0x7f2a <__vector_39+0x142>
    7e70:	88 34       	cpi	r24, 0x48	; 72
    7e72:	09 f0       	breq	.+2      	; 0x7e76 <__vector_39+0x8e>
    7e74:	d4 c0       	rjmp	.+424    	; 0x801e <__vector_39+0x236>
    7e76:	d2 c0       	rjmp	.+420    	; 0x801c <__vector_39+0x234>
    7e78:	88 39       	cpi	r24, 0x98	; 152
    7e7a:	09 f4       	brne	.+2      	; 0x7e7e <__vector_39+0x96>
    7e7c:	c3 c0       	rjmp	.+390    	; 0x8004 <__vector_39+0x21c>
    7e7e:	a8 f4       	brcc	.+42     	; 0x7eaa <__vector_39+0xc2>
    7e80:	88 37       	cpi	r24, 0x78	; 120
    7e82:	09 f4       	brne	.+2      	; 0x7e86 <__vector_39+0x9e>
    7e84:	67 c0       	rjmp	.+206    	; 0x7f54 <__vector_39+0x16c>
    7e86:	38 f4       	brcc	.+14     	; 0x7e96 <__vector_39+0xae>
    7e88:	88 36       	cpi	r24, 0x68	; 104
    7e8a:	09 f4       	brne	.+2      	; 0x7e8e <__vector_39+0xa6>
    7e8c:	63 c0       	rjmp	.+198    	; 0x7f54 <__vector_39+0x16c>
    7e8e:	80 37       	cpi	r24, 0x70	; 112
    7e90:	09 f4       	brne	.+2      	; 0x7e94 <__vector_39+0xac>
    7e92:	60 c0       	rjmp	.+192    	; 0x7f54 <__vector_39+0x16c>
    7e94:	c4 c0       	rjmp	.+392    	; 0x801e <__vector_39+0x236>
    7e96:	88 38       	cpi	r24, 0x88	; 136
    7e98:	09 f4       	brne	.+2      	; 0x7e9c <__vector_39+0xb4>
    7e9a:	b4 c0       	rjmp	.+360    	; 0x8004 <__vector_39+0x21c>
    7e9c:	80 39       	cpi	r24, 0x90	; 144
    7e9e:	09 f4       	brne	.+2      	; 0x7ea2 <__vector_39+0xba>
    7ea0:	5f c0       	rjmp	.+190    	; 0x7f60 <__vector_39+0x178>
    7ea2:	80 38       	cpi	r24, 0x80	; 128
    7ea4:	09 f0       	breq	.+2      	; 0x7ea8 <__vector_39+0xc0>
    7ea6:	bb c0       	rjmp	.+374    	; 0x801e <__vector_39+0x236>
    7ea8:	5b c0       	rjmp	.+182    	; 0x7f60 <__vector_39+0x178>
    7eaa:	80 3b       	cpi	r24, 0xB0	; 176
    7eac:	09 f4       	brne	.+2      	; 0x7eb0 <__vector_39+0xc8>
    7eae:	82 c0       	rjmp	.+260    	; 0x7fb4 <__vector_39+0x1cc>
    7eb0:	38 f4       	brcc	.+14     	; 0x7ec0 <__vector_39+0xd8>
    7eb2:	80 3a       	cpi	r24, 0xA0	; 160
    7eb4:	09 f4       	brne	.+2      	; 0x7eb8 <__vector_39+0xd0>
    7eb6:	66 c0       	rjmp	.+204    	; 0x7f84 <__vector_39+0x19c>
    7eb8:	88 3a       	cpi	r24, 0xA8	; 168
    7eba:	09 f4       	brne	.+2      	; 0x7ebe <__vector_39+0xd6>
    7ebc:	7b c0       	rjmp	.+246    	; 0x7fb4 <__vector_39+0x1cc>
    7ebe:	af c0       	rjmp	.+350    	; 0x801e <__vector_39+0x236>
    7ec0:	80 3c       	cpi	r24, 0xC0	; 192
    7ec2:	09 f4       	brne	.+2      	; 0x7ec6 <__vector_39+0xde>
    7ec4:	a3 c0       	rjmp	.+326    	; 0x800c <__vector_39+0x224>
    7ec6:	88 3c       	cpi	r24, 0xC8	; 200
    7ec8:	09 f4       	brne	.+2      	; 0x7ecc <__vector_39+0xe4>
    7eca:	a0 c0       	rjmp	.+320    	; 0x800c <__vector_39+0x224>
    7ecc:	88 3b       	cpi	r24, 0xB8	; 184
    7ece:	09 f4       	brne	.+2      	; 0x7ed2 <__vector_39+0xea>
    7ed0:	86 c0       	rjmp	.+268    	; 0x7fde <__vector_39+0x1f6>
    7ed2:	a5 c0       	rjmp	.+330    	; 0x801e <__vector_39+0x236>
    7ed4:	80 91 9e 12 	lds	r24, 0x129E	; 0x80129e <twi_slarw>
    7ed8:	10 c0       	rjmp	.+32     	; 0x7efa <__vector_39+0x112>
    7eda:	90 91 77 12 	lds	r25, 0x1277	; 0x801277 <twi_masterBufferIndex>
    7ede:	80 91 76 12 	lds	r24, 0x1276	; 0x801276 <twi_masterBufferLength>
    7ee2:	98 17       	cp	r25, r24
    7ee4:	70 f5       	brcc	.+92     	; 0x7f42 <__vector_39+0x15a>
    7ee6:	e0 91 77 12 	lds	r30, 0x1277	; 0x801277 <twi_masterBufferIndex>
    7eea:	81 e0       	ldi	r24, 0x01	; 1
    7eec:	8e 0f       	add	r24, r30
    7eee:	80 93 77 12 	sts	0x1277, r24	; 0x801277 <twi_masterBufferIndex>
    7ef2:	f0 e0       	ldi	r31, 0x00	; 0
    7ef4:	e8 58       	subi	r30, 0x88	; 136
    7ef6:	fd 4e       	sbci	r31, 0xED	; 237
    7ef8:	80 81       	ld	r24, Z
    7efa:	80 93 bb 00 	sts	0x00BB, r24	; 0x8000bb <__TEXT_REGION_LENGTH__+0x7000bb>
    7efe:	85 ec       	ldi	r24, 0xC5	; 197
    7f00:	82 c0       	rjmp	.+260    	; 0x8006 <__vector_39+0x21e>
    7f02:	80 93 32 12 	sts	0x1232, r24	; 0x801232 <twi_error>
    7f06:	8a c0       	rjmp	.+276    	; 0x801c <__vector_39+0x234>
    7f08:	e0 91 77 12 	lds	r30, 0x1277	; 0x801277 <twi_masterBufferIndex>
    7f0c:	81 e0       	ldi	r24, 0x01	; 1
    7f0e:	8e 0f       	add	r24, r30
    7f10:	80 93 77 12 	sts	0x1277, r24	; 0x801277 <twi_masterBufferIndex>
    7f14:	80 91 bb 00 	lds	r24, 0x00BB	; 0x8000bb <__TEXT_REGION_LENGTH__+0x7000bb>
    7f18:	f0 e0       	ldi	r31, 0x00	; 0
    7f1a:	e8 58       	subi	r30, 0x88	; 136
    7f1c:	fd 4e       	sbci	r31, 0xED	; 237
    7f1e:	80 83       	st	Z, r24
    7f20:	90 91 77 12 	lds	r25, 0x1277	; 0x801277 <twi_masterBufferIndex>
    7f24:	80 91 76 12 	lds	r24, 0x1276	; 0x801276 <twi_masterBufferLength>
    7f28:	6a c0       	rjmp	.+212    	; 0x7ffe <__vector_39+0x216>
    7f2a:	e0 91 77 12 	lds	r30, 0x1277	; 0x801277 <twi_masterBufferIndex>
    7f2e:	81 e0       	ldi	r24, 0x01	; 1
    7f30:	8e 0f       	add	r24, r30
    7f32:	80 93 77 12 	sts	0x1277, r24	; 0x801277 <twi_masterBufferIndex>
    7f36:	80 91 bb 00 	lds	r24, 0x00BB	; 0x8000bb <__TEXT_REGION_LENGTH__+0x7000bb>
    7f3a:	f0 e0       	ldi	r31, 0x00	; 0
    7f3c:	e8 58       	subi	r30, 0x88	; 136
    7f3e:	fd 4e       	sbci	r31, 0xED	; 237
    7f40:	80 83       	st	Z, r24
    7f42:	80 91 9d 12 	lds	r24, 0x129D	; 0x80129d <twi_sendStop>
    7f46:	81 11       	cpse	r24, r1
    7f48:	69 c0       	rjmp	.+210    	; 0x801c <__vector_39+0x234>
    7f4a:	81 e0       	ldi	r24, 0x01	; 1
    7f4c:	80 93 9c 12 	sts	0x129C, r24	; 0x80129c <twi_inRepStart>
    7f50:	84 ea       	ldi	r24, 0xA4	; 164
    7f52:	5d c0       	rjmp	.+186    	; 0x800e <__vector_39+0x226>
    7f54:	83 e0       	ldi	r24, 0x03	; 3
    7f56:	80 93 9f 12 	sts	0x129F, r24	; 0x80129f <twi_state>
    7f5a:	10 92 33 12 	sts	0x1233, r1	; 0x801233 <twi_rxBufferIndex>
    7f5e:	cf cf       	rjmp	.-98     	; 0x7efe <__vector_39+0x116>
    7f60:	80 91 33 12 	lds	r24, 0x1233	; 0x801233 <twi_rxBufferIndex>
    7f64:	80 32       	cpi	r24, 0x20	; 32
    7f66:	08 f0       	brcs	.+2      	; 0x7f6a <__vector_39+0x182>
    7f68:	4d c0       	rjmp	.+154    	; 0x8004 <__vector_39+0x21c>
    7f6a:	e0 91 33 12 	lds	r30, 0x1233	; 0x801233 <twi_rxBufferIndex>
    7f6e:	81 e0       	ldi	r24, 0x01	; 1
    7f70:	8e 0f       	add	r24, r30
    7f72:	80 93 33 12 	sts	0x1233, r24	; 0x801233 <twi_rxBufferIndex>
    7f76:	80 91 bb 00 	lds	r24, 0x00BB	; 0x8000bb <__TEXT_REGION_LENGTH__+0x7000bb>
    7f7a:	f0 e0       	ldi	r31, 0x00	; 0
    7f7c:	ec 5c       	subi	r30, 0xCC	; 204
    7f7e:	fd 4e       	sbci	r31, 0xED	; 237
    7f80:	80 83       	st	Z, r24
    7f82:	bd cf       	rjmp	.-134    	; 0x7efe <__vector_39+0x116>
    7f84:	2b df       	rcall	.-426    	; 0x7ddc <twi_releaseBus>
    7f86:	80 91 33 12 	lds	r24, 0x1233	; 0x801233 <twi_rxBufferIndex>
    7f8a:	80 32       	cpi	r24, 0x20	; 32
    7f8c:	30 f4       	brcc	.+12     	; 0x7f9a <__vector_39+0x1b2>
    7f8e:	e0 91 33 12 	lds	r30, 0x1233	; 0x801233 <twi_rxBufferIndex>
    7f92:	f0 e0       	ldi	r31, 0x00	; 0
    7f94:	ec 5c       	subi	r30, 0xCC	; 204
    7f96:	fd 4e       	sbci	r31, 0xED	; 237
    7f98:	10 82       	st	Z, r1
    7f9a:	60 91 33 12 	lds	r22, 0x1233	; 0x801233 <twi_rxBufferIndex>
    7f9e:	70 e0       	ldi	r23, 0x00	; 0
    7fa0:	e0 91 98 12 	lds	r30, 0x1298	; 0x801298 <twi_onSlaveReceive>
    7fa4:	f0 91 99 12 	lds	r31, 0x1299	; 0x801299 <twi_onSlaveReceive+0x1>
    7fa8:	84 e3       	ldi	r24, 0x34	; 52
    7faa:	92 e1       	ldi	r25, 0x12	; 18
    7fac:	19 95       	eicall
    7fae:	10 92 33 12 	sts	0x1233, r1	; 0x801233 <twi_rxBufferIndex>
    7fb2:	35 c0       	rjmp	.+106    	; 0x801e <__vector_39+0x236>
    7fb4:	84 e0       	ldi	r24, 0x04	; 4
    7fb6:	80 93 9f 12 	sts	0x129F, r24	; 0x80129f <twi_state>
    7fba:	10 92 55 12 	sts	0x1255, r1	; 0x801255 <twi_txBufferIndex>
    7fbe:	10 92 54 12 	sts	0x1254, r1	; 0x801254 <twi_txBufferLength>
    7fc2:	e0 91 9a 12 	lds	r30, 0x129A	; 0x80129a <twi_onSlaveTransmit>
    7fc6:	f0 91 9b 12 	lds	r31, 0x129B	; 0x80129b <twi_onSlaveTransmit+0x1>
    7fca:	19 95       	eicall
    7fcc:	80 91 54 12 	lds	r24, 0x1254	; 0x801254 <twi_txBufferLength>
    7fd0:	81 11       	cpse	r24, r1
    7fd2:	05 c0       	rjmp	.+10     	; 0x7fde <__vector_39+0x1f6>
    7fd4:	81 e0       	ldi	r24, 0x01	; 1
    7fd6:	80 93 54 12 	sts	0x1254, r24	; 0x801254 <twi_txBufferLength>
    7fda:	10 92 56 12 	sts	0x1256, r1	; 0x801256 <twi_txBuffer>
    7fde:	e0 91 55 12 	lds	r30, 0x1255	; 0x801255 <twi_txBufferIndex>
    7fe2:	81 e0       	ldi	r24, 0x01	; 1
    7fe4:	8e 0f       	add	r24, r30
    7fe6:	80 93 55 12 	sts	0x1255, r24	; 0x801255 <twi_txBufferIndex>
    7fea:	f0 e0       	ldi	r31, 0x00	; 0
    7fec:	ea 5a       	subi	r30, 0xAA	; 170
    7fee:	fd 4e       	sbci	r31, 0xED	; 237
    7ff0:	80 81       	ld	r24, Z
    7ff2:	80 93 bb 00 	sts	0x00BB, r24	; 0x8000bb <__TEXT_REGION_LENGTH__+0x7000bb>
    7ff6:	90 91 55 12 	lds	r25, 0x1255	; 0x801255 <twi_txBufferIndex>
    7ffa:	80 91 54 12 	lds	r24, 0x1254	; 0x801254 <twi_txBufferLength>
    7ffe:	98 17       	cp	r25, r24
    8000:	08 f4       	brcc	.+2      	; 0x8004 <__vector_39+0x21c>
    8002:	7d cf       	rjmp	.-262    	; 0x7efe <__vector_39+0x116>
    8004:	85 e8       	ldi	r24, 0x85	; 133
    8006:	80 93 bc 00 	sts	0x00BC, r24	; 0x8000bc <__TEXT_REGION_LENGTH__+0x7000bc>
    800a:	09 c0       	rjmp	.+18     	; 0x801e <__vector_39+0x236>
    800c:	85 ec       	ldi	r24, 0xC5	; 197
    800e:	80 93 bc 00 	sts	0x00BC, r24	; 0x8000bc <__TEXT_REGION_LENGTH__+0x7000bc>
    8012:	10 92 9f 12 	sts	0x129F, r1	; 0x80129f <twi_state>
    8016:	03 c0       	rjmp	.+6      	; 0x801e <__vector_39+0x236>
    8018:	10 92 32 12 	sts	0x1232, r1	; 0x801232 <twi_error>
    801c:	d5 de       	rcall	.-598    	; 0x7dc8 <twi_stop>
    801e:	ff 91       	pop	r31
    8020:	ef 91       	pop	r30
    8022:	bf 91       	pop	r27
    8024:	af 91       	pop	r26
    8026:	9f 91       	pop	r25
    8028:	8f 91       	pop	r24
    802a:	7f 91       	pop	r23
    802c:	6f 91       	pop	r22
    802e:	5f 91       	pop	r21
    8030:	4f 91       	pop	r20
    8032:	3f 91       	pop	r19
    8034:	2f 91       	pop	r18
    8036:	0f 90       	pop	r0
    8038:	0b be       	out	0x3b, r0	; 59
    803a:	0f 90       	pop	r0
    803c:	0f be       	out	0x3f, r0	; 63
    803e:	0f 90       	pop	r0
    8040:	1f 90       	pop	r1
    8042:	18 95       	reti

00008044 <__unordsf2>:
    8044:	0e 94 49 11 	call	0x2292	; 0x2292 <__fp_cmp>
    8048:	88 0b       	sbc	r24, r24
    804a:	99 0b       	sbc	r25, r25
    804c:	08 95       	ret

0000804e <__mulsi3>:
    804e:	db 01       	movw	r26, r22
    8050:	8f 93       	push	r24
    8052:	9f 93       	push	r25
    8054:	8b d0       	rcall	.+278    	; 0x816c <__muluhisi3>
    8056:	bf 91       	pop	r27
    8058:	af 91       	pop	r26
    805a:	a2 9f       	mul	r26, r18
    805c:	80 0d       	add	r24, r0
    805e:	91 1d       	adc	r25, r1
    8060:	a3 9f       	mul	r26, r19
    8062:	90 0d       	add	r25, r0
    8064:	b2 9f       	mul	r27, r18
    8066:	90 0d       	add	r25, r0
    8068:	11 24       	eor	r1, r1
    806a:	08 95       	ret

0000806c <__udivmodqi4>:
    806c:	99 1b       	sub	r25, r25
    806e:	79 e0       	ldi	r23, 0x09	; 9
    8070:	04 c0       	rjmp	.+8      	; 0x807a <__udivmodqi4_ep>

00008072 <__udivmodqi4_loop>:
    8072:	99 1f       	adc	r25, r25
    8074:	96 17       	cp	r25, r22
    8076:	08 f0       	brcs	.+2      	; 0x807a <__udivmodqi4_ep>
    8078:	96 1b       	sub	r25, r22

0000807a <__udivmodqi4_ep>:
    807a:	88 1f       	adc	r24, r24
    807c:	7a 95       	dec	r23
    807e:	c9 f7       	brne	.-14     	; 0x8072 <__udivmodqi4_loop>
    8080:	80 95       	com	r24
    8082:	08 95       	ret

00008084 <__divmodhi4>:
    8084:	97 fb       	bst	r25, 7
    8086:	07 2e       	mov	r0, r23
    8088:	16 f4       	brtc	.+4      	; 0x808e <__divmodhi4+0xa>
    808a:	00 94       	com	r0
    808c:	06 d0       	rcall	.+12     	; 0x809a <__divmodhi4_neg1>
    808e:	77 fd       	sbrc	r23, 7
    8090:	08 d0       	rcall	.+16     	; 0x80a2 <__divmodhi4_neg2>
    8092:	76 d0       	rcall	.+236    	; 0x8180 <__udivmodhi4>
    8094:	07 fc       	sbrc	r0, 7
    8096:	05 d0       	rcall	.+10     	; 0x80a2 <__divmodhi4_neg2>
    8098:	3e f4       	brtc	.+14     	; 0x80a8 <__divmodhi4_exit>

0000809a <__divmodhi4_neg1>:
    809a:	90 95       	com	r25
    809c:	81 95       	neg	r24
    809e:	9f 4f       	sbci	r25, 0xFF	; 255
    80a0:	08 95       	ret

000080a2 <__divmodhi4_neg2>:
    80a2:	70 95       	com	r23
    80a4:	61 95       	neg	r22
    80a6:	7f 4f       	sbci	r23, 0xFF	; 255

000080a8 <__divmodhi4_exit>:
    80a8:	08 95       	ret

000080aa <__udivmodsi4>:
    80aa:	a1 e2       	ldi	r26, 0x21	; 33
    80ac:	1a 2e       	mov	r1, r26
    80ae:	aa 1b       	sub	r26, r26
    80b0:	bb 1b       	sub	r27, r27
    80b2:	fd 01       	movw	r30, r26
    80b4:	0d c0       	rjmp	.+26     	; 0x80d0 <__udivmodsi4_ep>

000080b6 <__udivmodsi4_loop>:
    80b6:	aa 1f       	adc	r26, r26
    80b8:	bb 1f       	adc	r27, r27
    80ba:	ee 1f       	adc	r30, r30
    80bc:	ff 1f       	adc	r31, r31
    80be:	a2 17       	cp	r26, r18
    80c0:	b3 07       	cpc	r27, r19
    80c2:	e4 07       	cpc	r30, r20
    80c4:	f5 07       	cpc	r31, r21
    80c6:	20 f0       	brcs	.+8      	; 0x80d0 <__udivmodsi4_ep>
    80c8:	a2 1b       	sub	r26, r18
    80ca:	b3 0b       	sbc	r27, r19
    80cc:	e4 0b       	sbc	r30, r20
    80ce:	f5 0b       	sbc	r31, r21

000080d0 <__udivmodsi4_ep>:
    80d0:	66 1f       	adc	r22, r22
    80d2:	77 1f       	adc	r23, r23
    80d4:	88 1f       	adc	r24, r24
    80d6:	99 1f       	adc	r25, r25
    80d8:	1a 94       	dec	r1
    80da:	69 f7       	brne	.-38     	; 0x80b6 <__udivmodsi4_loop>
    80dc:	60 95       	com	r22
    80de:	70 95       	com	r23
    80e0:	80 95       	com	r24
    80e2:	90 95       	com	r25
    80e4:	9b 01       	movw	r18, r22
    80e6:	ac 01       	movw	r20, r24
    80e8:	bd 01       	movw	r22, r26
    80ea:	cf 01       	movw	r24, r30
    80ec:	08 95       	ret

000080ee <__divmodsi4>:
    80ee:	05 2e       	mov	r0, r21
    80f0:	97 fb       	bst	r25, 7
    80f2:	16 f4       	brtc	.+4      	; 0x80f8 <__divmodsi4+0xa>
    80f4:	00 94       	com	r0
    80f6:	0f d0       	rcall	.+30     	; 0x8116 <__negsi2>
    80f8:	57 fd       	sbrc	r21, 7
    80fa:	05 d0       	rcall	.+10     	; 0x8106 <__divmodsi4_neg2>
    80fc:	d6 df       	rcall	.-84     	; 0x80aa <__udivmodsi4>
    80fe:	07 fc       	sbrc	r0, 7
    8100:	02 d0       	rcall	.+4      	; 0x8106 <__divmodsi4_neg2>
    8102:	46 f4       	brtc	.+16     	; 0x8114 <__divmodsi4_exit>
    8104:	08 c0       	rjmp	.+16     	; 0x8116 <__negsi2>

00008106 <__divmodsi4_neg2>:
    8106:	50 95       	com	r21
    8108:	40 95       	com	r20
    810a:	30 95       	com	r19
    810c:	21 95       	neg	r18
    810e:	3f 4f       	sbci	r19, 0xFF	; 255
    8110:	4f 4f       	sbci	r20, 0xFF	; 255
    8112:	5f 4f       	sbci	r21, 0xFF	; 255

00008114 <__divmodsi4_exit>:
    8114:	08 95       	ret

00008116 <__negsi2>:
    8116:	90 95       	com	r25
    8118:	80 95       	com	r24
    811a:	70 95       	com	r23
    811c:	61 95       	neg	r22
    811e:	7f 4f       	sbci	r23, 0xFF	; 255
    8120:	8f 4f       	sbci	r24, 0xFF	; 255
    8122:	9f 4f       	sbci	r25, 0xFF	; 255
    8124:	08 95       	ret

00008126 <__tablejump2__>:
    8126:	ee 0f       	add	r30, r30
    8128:	ff 1f       	adc	r31, r31
    812a:	88 1f       	adc	r24, r24
    812c:	8b bf       	out	0x3b, r24	; 59
    812e:	07 90       	elpm	r0, Z+
    8130:	f6 91       	elpm	r31, Z
    8132:	e0 2d       	mov	r30, r0
    8134:	19 94       	eijmp

00008136 <__mulhisi3>:
    8136:	05 d0       	rcall	.+10     	; 0x8142 <__umulhisi3>
    8138:	33 23       	and	r19, r19
    813a:	12 f4       	brpl	.+4      	; 0x8140 <__mulhisi3+0xa>
    813c:	8a 1b       	sub	r24, r26
    813e:	9b 0b       	sbc	r25, r27
    8140:	10 c0       	rjmp	.+32     	; 0x8162 <__usmulhisi3_tail>

00008142 <__umulhisi3>:
    8142:	a2 9f       	mul	r26, r18
    8144:	b0 01       	movw	r22, r0
    8146:	b3 9f       	mul	r27, r19
    8148:	c0 01       	movw	r24, r0
    814a:	a3 9f       	mul	r26, r19
    814c:	70 0d       	add	r23, r0
    814e:	81 1d       	adc	r24, r1
    8150:	11 24       	eor	r1, r1
    8152:	91 1d       	adc	r25, r1
    8154:	b2 9f       	mul	r27, r18
    8156:	70 0d       	add	r23, r0
    8158:	81 1d       	adc	r24, r1
    815a:	11 24       	eor	r1, r1
    815c:	91 1d       	adc	r25, r1
    815e:	08 95       	ret

00008160 <__usmulhisi3>:
    8160:	f0 df       	rcall	.-32     	; 0x8142 <__umulhisi3>

00008162 <__usmulhisi3_tail>:
    8162:	b7 ff       	sbrs	r27, 7
    8164:	08 95       	ret
    8166:	82 1b       	sub	r24, r18
    8168:	93 0b       	sbc	r25, r19
    816a:	08 95       	ret

0000816c <__muluhisi3>:
    816c:	ea df       	rcall	.-44     	; 0x8142 <__umulhisi3>
    816e:	a5 9f       	mul	r26, r21
    8170:	90 0d       	add	r25, r0
    8172:	b4 9f       	mul	r27, r20
    8174:	90 0d       	add	r25, r0
    8176:	a4 9f       	mul	r26, r20
    8178:	80 0d       	add	r24, r0
    817a:	91 1d       	adc	r25, r1
    817c:	11 24       	eor	r1, r1
    817e:	08 95       	ret

00008180 <__udivmodhi4>:
    8180:	aa 1b       	sub	r26, r26
    8182:	bb 1b       	sub	r27, r27
    8184:	51 e1       	ldi	r21, 0x11	; 17
    8186:	07 c0       	rjmp	.+14     	; 0x8196 <__udivmodhi4_ep>

00008188 <__udivmodhi4_loop>:
    8188:	aa 1f       	adc	r26, r26
    818a:	bb 1f       	adc	r27, r27
    818c:	a6 17       	cp	r26, r22
    818e:	b7 07       	cpc	r27, r23
    8190:	10 f0       	brcs	.+4      	; 0x8196 <__udivmodhi4_ep>
    8192:	a6 1b       	sub	r26, r22
    8194:	b7 0b       	sbc	r27, r23

00008196 <__udivmodhi4_ep>:
    8196:	88 1f       	adc	r24, r24
    8198:	99 1f       	adc	r25, r25
    819a:	5a 95       	dec	r21
    819c:	a9 f7       	brne	.-22     	; 0x8188 <__udivmodhi4_loop>
    819e:	80 95       	com	r24
    81a0:	90 95       	com	r25
    81a2:	bc 01       	movw	r22, r24
    81a4:	cd 01       	movw	r24, r26
    81a6:	08 95       	ret

000081a8 <malloc>:
    81a8:	0f 93       	push	r16
    81aa:	1f 93       	push	r17
    81ac:	cf 93       	push	r28
    81ae:	df 93       	push	r29
    81b0:	82 30       	cpi	r24, 0x02	; 2
    81b2:	91 05       	cpc	r25, r1
    81b4:	10 f4       	brcc	.+4      	; 0x81ba <malloc+0x12>
    81b6:	82 e0       	ldi	r24, 0x02	; 2
    81b8:	90 e0       	ldi	r25, 0x00	; 0
    81ba:	e0 91 a2 12 	lds	r30, 0x12A2	; 0x8012a2 <__flp>
    81be:	f0 91 a3 12 	lds	r31, 0x12A3	; 0x8012a3 <__flp+0x1>
    81c2:	20 e0       	ldi	r18, 0x00	; 0
    81c4:	30 e0       	ldi	r19, 0x00	; 0
    81c6:	a0 e0       	ldi	r26, 0x00	; 0
    81c8:	b0 e0       	ldi	r27, 0x00	; 0
    81ca:	30 97       	sbiw	r30, 0x00	; 0
    81cc:	19 f1       	breq	.+70     	; 0x8214 <malloc+0x6c>
    81ce:	40 81       	ld	r20, Z
    81d0:	51 81       	ldd	r21, Z+1	; 0x01
    81d2:	02 81       	ldd	r16, Z+2	; 0x02
    81d4:	13 81       	ldd	r17, Z+3	; 0x03
    81d6:	48 17       	cp	r20, r24
    81d8:	59 07       	cpc	r21, r25
    81da:	c8 f0       	brcs	.+50     	; 0x820e <malloc+0x66>
    81dc:	84 17       	cp	r24, r20
    81de:	95 07       	cpc	r25, r21
    81e0:	69 f4       	brne	.+26     	; 0x81fc <malloc+0x54>
    81e2:	10 97       	sbiw	r26, 0x00	; 0
    81e4:	31 f0       	breq	.+12     	; 0x81f2 <malloc+0x4a>
    81e6:	12 96       	adiw	r26, 0x02	; 2
    81e8:	0c 93       	st	X, r16
    81ea:	12 97       	sbiw	r26, 0x02	; 2
    81ec:	13 96       	adiw	r26, 0x03	; 3
    81ee:	1c 93       	st	X, r17
    81f0:	27 c0       	rjmp	.+78     	; 0x8240 <malloc+0x98>
    81f2:	00 93 a2 12 	sts	0x12A2, r16	; 0x8012a2 <__flp>
    81f6:	10 93 a3 12 	sts	0x12A3, r17	; 0x8012a3 <__flp+0x1>
    81fa:	22 c0       	rjmp	.+68     	; 0x8240 <malloc+0x98>
    81fc:	21 15       	cp	r18, r1
    81fe:	31 05       	cpc	r19, r1
    8200:	19 f0       	breq	.+6      	; 0x8208 <malloc+0x60>
    8202:	42 17       	cp	r20, r18
    8204:	53 07       	cpc	r21, r19
    8206:	18 f4       	brcc	.+6      	; 0x820e <malloc+0x66>
    8208:	9a 01       	movw	r18, r20
    820a:	bd 01       	movw	r22, r26
    820c:	ef 01       	movw	r28, r30
    820e:	df 01       	movw	r26, r30
    8210:	f8 01       	movw	r30, r16
    8212:	db cf       	rjmp	.-74     	; 0x81ca <malloc+0x22>
    8214:	21 15       	cp	r18, r1
    8216:	31 05       	cpc	r19, r1
    8218:	f9 f0       	breq	.+62     	; 0x8258 <malloc+0xb0>
    821a:	28 1b       	sub	r18, r24
    821c:	39 0b       	sbc	r19, r25
    821e:	24 30       	cpi	r18, 0x04	; 4
    8220:	31 05       	cpc	r19, r1
    8222:	80 f4       	brcc	.+32     	; 0x8244 <malloc+0x9c>
    8224:	8a 81       	ldd	r24, Y+2	; 0x02
    8226:	9b 81       	ldd	r25, Y+3	; 0x03
    8228:	61 15       	cp	r22, r1
    822a:	71 05       	cpc	r23, r1
    822c:	21 f0       	breq	.+8      	; 0x8236 <malloc+0x8e>
    822e:	fb 01       	movw	r30, r22
    8230:	93 83       	std	Z+3, r25	; 0x03
    8232:	82 83       	std	Z+2, r24	; 0x02
    8234:	04 c0       	rjmp	.+8      	; 0x823e <malloc+0x96>
    8236:	90 93 a3 12 	sts	0x12A3, r25	; 0x8012a3 <__flp+0x1>
    823a:	80 93 a2 12 	sts	0x12A2, r24	; 0x8012a2 <__flp>
    823e:	fe 01       	movw	r30, r28
    8240:	32 96       	adiw	r30, 0x02	; 2
    8242:	44 c0       	rjmp	.+136    	; 0x82cc <malloc+0x124>
    8244:	fe 01       	movw	r30, r28
    8246:	e2 0f       	add	r30, r18
    8248:	f3 1f       	adc	r31, r19
    824a:	81 93       	st	Z+, r24
    824c:	91 93       	st	Z+, r25
    824e:	22 50       	subi	r18, 0x02	; 2
    8250:	31 09       	sbc	r19, r1
    8252:	39 83       	std	Y+1, r19	; 0x01
    8254:	28 83       	st	Y, r18
    8256:	3a c0       	rjmp	.+116    	; 0x82cc <malloc+0x124>
    8258:	20 91 a0 12 	lds	r18, 0x12A0	; 0x8012a0 <__brkval>
    825c:	30 91 a1 12 	lds	r19, 0x12A1	; 0x8012a1 <__brkval+0x1>
    8260:	23 2b       	or	r18, r19
    8262:	41 f4       	brne	.+16     	; 0x8274 <malloc+0xcc>
    8264:	20 91 02 02 	lds	r18, 0x0202	; 0x800202 <__malloc_heap_start>
    8268:	30 91 03 02 	lds	r19, 0x0203	; 0x800203 <__malloc_heap_start+0x1>
    826c:	30 93 a1 12 	sts	0x12A1, r19	; 0x8012a1 <__brkval+0x1>
    8270:	20 93 a0 12 	sts	0x12A0, r18	; 0x8012a0 <__brkval>
    8274:	20 91 00 02 	lds	r18, 0x0200	; 0x800200 <__DATA_REGION_ORIGIN__>
    8278:	30 91 01 02 	lds	r19, 0x0201	; 0x800201 <__DATA_REGION_ORIGIN__+0x1>
    827c:	21 15       	cp	r18, r1
    827e:	31 05       	cpc	r19, r1
    8280:	41 f4       	brne	.+16     	; 0x8292 <malloc+0xea>
    8282:	2d b7       	in	r18, 0x3d	; 61
    8284:	3e b7       	in	r19, 0x3e	; 62
    8286:	40 91 04 02 	lds	r20, 0x0204	; 0x800204 <__malloc_margin>
    828a:	50 91 05 02 	lds	r21, 0x0205	; 0x800205 <__malloc_margin+0x1>
    828e:	24 1b       	sub	r18, r20
    8290:	35 0b       	sbc	r19, r21
    8292:	e0 91 a0 12 	lds	r30, 0x12A0	; 0x8012a0 <__brkval>
    8296:	f0 91 a1 12 	lds	r31, 0x12A1	; 0x8012a1 <__brkval+0x1>
    829a:	e2 17       	cp	r30, r18
    829c:	f3 07       	cpc	r31, r19
    829e:	a0 f4       	brcc	.+40     	; 0x82c8 <malloc+0x120>
    82a0:	2e 1b       	sub	r18, r30
    82a2:	3f 0b       	sbc	r19, r31
    82a4:	28 17       	cp	r18, r24
    82a6:	39 07       	cpc	r19, r25
    82a8:	78 f0       	brcs	.+30     	; 0x82c8 <malloc+0x120>
    82aa:	ac 01       	movw	r20, r24
    82ac:	4e 5f       	subi	r20, 0xFE	; 254
    82ae:	5f 4f       	sbci	r21, 0xFF	; 255
    82b0:	24 17       	cp	r18, r20
    82b2:	35 07       	cpc	r19, r21
    82b4:	48 f0       	brcs	.+18     	; 0x82c8 <malloc+0x120>
    82b6:	4e 0f       	add	r20, r30
    82b8:	5f 1f       	adc	r21, r31
    82ba:	50 93 a1 12 	sts	0x12A1, r21	; 0x8012a1 <__brkval+0x1>
    82be:	40 93 a0 12 	sts	0x12A0, r20	; 0x8012a0 <__brkval>
    82c2:	81 93       	st	Z+, r24
    82c4:	91 93       	st	Z+, r25
    82c6:	02 c0       	rjmp	.+4      	; 0x82cc <malloc+0x124>
    82c8:	e0 e0       	ldi	r30, 0x00	; 0
    82ca:	f0 e0       	ldi	r31, 0x00	; 0
    82cc:	cf 01       	movw	r24, r30
    82ce:	df 91       	pop	r29
    82d0:	cf 91       	pop	r28
    82d2:	1f 91       	pop	r17
    82d4:	0f 91       	pop	r16
    82d6:	08 95       	ret

000082d8 <free>:
    82d8:	cf 93       	push	r28
    82da:	df 93       	push	r29
    82dc:	00 97       	sbiw	r24, 0x00	; 0
    82de:	09 f4       	brne	.+2      	; 0x82e2 <free+0xa>
    82e0:	81 c0       	rjmp	.+258    	; 0x83e4 <free+0x10c>
    82e2:	fc 01       	movw	r30, r24
    82e4:	32 97       	sbiw	r30, 0x02	; 2
    82e6:	13 82       	std	Z+3, r1	; 0x03
    82e8:	12 82       	std	Z+2, r1	; 0x02
    82ea:	a0 91 a2 12 	lds	r26, 0x12A2	; 0x8012a2 <__flp>
    82ee:	b0 91 a3 12 	lds	r27, 0x12A3	; 0x8012a3 <__flp+0x1>
    82f2:	10 97       	sbiw	r26, 0x00	; 0
    82f4:	81 f4       	brne	.+32     	; 0x8316 <free+0x3e>
    82f6:	20 81       	ld	r18, Z
    82f8:	31 81       	ldd	r19, Z+1	; 0x01
    82fa:	82 0f       	add	r24, r18
    82fc:	93 1f       	adc	r25, r19
    82fe:	20 91 a0 12 	lds	r18, 0x12A0	; 0x8012a0 <__brkval>
    8302:	30 91 a1 12 	lds	r19, 0x12A1	; 0x8012a1 <__brkval+0x1>
    8306:	28 17       	cp	r18, r24
    8308:	39 07       	cpc	r19, r25
    830a:	51 f5       	brne	.+84     	; 0x8360 <free+0x88>
    830c:	f0 93 a1 12 	sts	0x12A1, r31	; 0x8012a1 <__brkval+0x1>
    8310:	e0 93 a0 12 	sts	0x12A0, r30	; 0x8012a0 <__brkval>
    8314:	67 c0       	rjmp	.+206    	; 0x83e4 <free+0x10c>
    8316:	ed 01       	movw	r28, r26
    8318:	20 e0       	ldi	r18, 0x00	; 0
    831a:	30 e0       	ldi	r19, 0x00	; 0
    831c:	ce 17       	cp	r28, r30
    831e:	df 07       	cpc	r29, r31
    8320:	40 f4       	brcc	.+16     	; 0x8332 <free+0x5a>
    8322:	4a 81       	ldd	r20, Y+2	; 0x02
    8324:	5b 81       	ldd	r21, Y+3	; 0x03
    8326:	9e 01       	movw	r18, r28
    8328:	41 15       	cp	r20, r1
    832a:	51 05       	cpc	r21, r1
    832c:	f1 f0       	breq	.+60     	; 0x836a <free+0x92>
    832e:	ea 01       	movw	r28, r20
    8330:	f5 cf       	rjmp	.-22     	; 0x831c <free+0x44>
    8332:	d3 83       	std	Z+3, r29	; 0x03
    8334:	c2 83       	std	Z+2, r28	; 0x02
    8336:	40 81       	ld	r20, Z
    8338:	51 81       	ldd	r21, Z+1	; 0x01
    833a:	84 0f       	add	r24, r20
    833c:	95 1f       	adc	r25, r21
    833e:	c8 17       	cp	r28, r24
    8340:	d9 07       	cpc	r29, r25
    8342:	59 f4       	brne	.+22     	; 0x835a <free+0x82>
    8344:	88 81       	ld	r24, Y
    8346:	99 81       	ldd	r25, Y+1	; 0x01
    8348:	84 0f       	add	r24, r20
    834a:	95 1f       	adc	r25, r21
    834c:	02 96       	adiw	r24, 0x02	; 2
    834e:	91 83       	std	Z+1, r25	; 0x01
    8350:	80 83       	st	Z, r24
    8352:	8a 81       	ldd	r24, Y+2	; 0x02
    8354:	9b 81       	ldd	r25, Y+3	; 0x03
    8356:	93 83       	std	Z+3, r25	; 0x03
    8358:	82 83       	std	Z+2, r24	; 0x02
    835a:	21 15       	cp	r18, r1
    835c:	31 05       	cpc	r19, r1
    835e:	29 f4       	brne	.+10     	; 0x836a <free+0x92>
    8360:	f0 93 a3 12 	sts	0x12A3, r31	; 0x8012a3 <__flp+0x1>
    8364:	e0 93 a2 12 	sts	0x12A2, r30	; 0x8012a2 <__flp>
    8368:	3d c0       	rjmp	.+122    	; 0x83e4 <free+0x10c>
    836a:	e9 01       	movw	r28, r18
    836c:	fb 83       	std	Y+3, r31	; 0x03
    836e:	ea 83       	std	Y+2, r30	; 0x02
    8370:	49 91       	ld	r20, Y+
    8372:	59 91       	ld	r21, Y+
    8374:	c4 0f       	add	r28, r20
    8376:	d5 1f       	adc	r29, r21
    8378:	ec 17       	cp	r30, r28
    837a:	fd 07       	cpc	r31, r29
    837c:	61 f4       	brne	.+24     	; 0x8396 <free+0xbe>
    837e:	80 81       	ld	r24, Z
    8380:	91 81       	ldd	r25, Z+1	; 0x01
    8382:	84 0f       	add	r24, r20
    8384:	95 1f       	adc	r25, r21
    8386:	02 96       	adiw	r24, 0x02	; 2
    8388:	e9 01       	movw	r28, r18
    838a:	99 83       	std	Y+1, r25	; 0x01
    838c:	88 83       	st	Y, r24
    838e:	82 81       	ldd	r24, Z+2	; 0x02
    8390:	93 81       	ldd	r25, Z+3	; 0x03
    8392:	9b 83       	std	Y+3, r25	; 0x03
    8394:	8a 83       	std	Y+2, r24	; 0x02
    8396:	e0 e0       	ldi	r30, 0x00	; 0
    8398:	f0 e0       	ldi	r31, 0x00	; 0
    839a:	12 96       	adiw	r26, 0x02	; 2
    839c:	8d 91       	ld	r24, X+
    839e:	9c 91       	ld	r25, X
    83a0:	13 97       	sbiw	r26, 0x03	; 3
    83a2:	00 97       	sbiw	r24, 0x00	; 0
    83a4:	19 f0       	breq	.+6      	; 0x83ac <free+0xd4>
    83a6:	fd 01       	movw	r30, r26
    83a8:	dc 01       	movw	r26, r24
    83aa:	f7 cf       	rjmp	.-18     	; 0x839a <free+0xc2>
    83ac:	8d 91       	ld	r24, X+
    83ae:	9c 91       	ld	r25, X
    83b0:	11 97       	sbiw	r26, 0x01	; 1
    83b2:	9d 01       	movw	r18, r26
    83b4:	2e 5f       	subi	r18, 0xFE	; 254
    83b6:	3f 4f       	sbci	r19, 0xFF	; 255
    83b8:	82 0f       	add	r24, r18
    83ba:	93 1f       	adc	r25, r19
    83bc:	20 91 a0 12 	lds	r18, 0x12A0	; 0x8012a0 <__brkval>
    83c0:	30 91 a1 12 	lds	r19, 0x12A1	; 0x8012a1 <__brkval+0x1>
    83c4:	28 17       	cp	r18, r24
    83c6:	39 07       	cpc	r19, r25
    83c8:	69 f4       	brne	.+26     	; 0x83e4 <free+0x10c>
    83ca:	30 97       	sbiw	r30, 0x00	; 0
    83cc:	29 f4       	brne	.+10     	; 0x83d8 <free+0x100>
    83ce:	10 92 a3 12 	sts	0x12A3, r1	; 0x8012a3 <__flp+0x1>
    83d2:	10 92 a2 12 	sts	0x12A2, r1	; 0x8012a2 <__flp>
    83d6:	02 c0       	rjmp	.+4      	; 0x83dc <free+0x104>
    83d8:	13 82       	std	Z+3, r1	; 0x03
    83da:	12 82       	std	Z+2, r1	; 0x02
    83dc:	b0 93 a1 12 	sts	0x12A1, r27	; 0x8012a1 <__brkval+0x1>
    83e0:	a0 93 a0 12 	sts	0x12A0, r26	; 0x8012a0 <__brkval>
    83e4:	df 91       	pop	r29
    83e6:	cf 91       	pop	r28
    83e8:	08 95       	ret

000083ea <realloc>:
    83ea:	6f 92       	push	r6
    83ec:	7f 92       	push	r7
    83ee:	8f 92       	push	r8
    83f0:	9f 92       	push	r9
    83f2:	af 92       	push	r10
    83f4:	bf 92       	push	r11
    83f6:	cf 92       	push	r12
    83f8:	df 92       	push	r13
    83fa:	ef 92       	push	r14
    83fc:	ff 92       	push	r15
    83fe:	0f 93       	push	r16
    8400:	1f 93       	push	r17
    8402:	cf 93       	push	r28
    8404:	df 93       	push	r29
    8406:	00 97       	sbiw	r24, 0x00	; 0
    8408:	81 f4       	brne	.+32     	; 0x842a <realloc+0x40>
    840a:	cb 01       	movw	r24, r22
    840c:	df 91       	pop	r29
    840e:	cf 91       	pop	r28
    8410:	1f 91       	pop	r17
    8412:	0f 91       	pop	r16
    8414:	ff 90       	pop	r15
    8416:	ef 90       	pop	r14
    8418:	df 90       	pop	r13
    841a:	cf 90       	pop	r12
    841c:	bf 90       	pop	r11
    841e:	af 90       	pop	r10
    8420:	9f 90       	pop	r9
    8422:	8f 90       	pop	r8
    8424:	7f 90       	pop	r7
    8426:	6f 90       	pop	r6
    8428:	bf ce       	rjmp	.-642    	; 0x81a8 <malloc>
    842a:	fc 01       	movw	r30, r24
    842c:	e6 0f       	add	r30, r22
    842e:	f7 1f       	adc	r31, r23
    8430:	9c 01       	movw	r18, r24
    8432:	22 50       	subi	r18, 0x02	; 2
    8434:	31 09       	sbc	r19, r1
    8436:	e2 17       	cp	r30, r18
    8438:	f3 07       	cpc	r31, r19
    843a:	08 f4       	brcc	.+2      	; 0x843e <realloc+0x54>
    843c:	a5 c0       	rjmp	.+330    	; 0x8588 <realloc+0x19e>
    843e:	ec 01       	movw	r28, r24
    8440:	d9 01       	movw	r26, r18
    8442:	0d 91       	ld	r16, X+
    8444:	1c 91       	ld	r17, X
    8446:	11 97       	sbiw	r26, 0x01	; 1
    8448:	06 17       	cp	r16, r22
    844a:	17 07       	cpc	r17, r23
    844c:	a8 f0       	brcs	.+42     	; 0x8478 <realloc+0x8e>
    844e:	05 30       	cpi	r16, 0x05	; 5
    8450:	11 05       	cpc	r17, r1
    8452:	08 f4       	brcc	.+2      	; 0x8456 <realloc+0x6c>
    8454:	97 c0       	rjmp	.+302    	; 0x8584 <realloc+0x19a>
    8456:	c8 01       	movw	r24, r16
    8458:	04 97       	sbiw	r24, 0x04	; 4
    845a:	86 17       	cp	r24, r22
    845c:	97 07       	cpc	r25, r23
    845e:	08 f4       	brcc	.+2      	; 0x8462 <realloc+0x78>
    8460:	91 c0       	rjmp	.+290    	; 0x8584 <realloc+0x19a>
    8462:	02 50       	subi	r16, 0x02	; 2
    8464:	11 09       	sbc	r17, r1
    8466:	06 1b       	sub	r16, r22
    8468:	17 0b       	sbc	r17, r23
    846a:	01 93       	st	Z+, r16
    846c:	11 93       	st	Z+, r17
    846e:	6d 93       	st	X+, r22
    8470:	7c 93       	st	X, r23
    8472:	cf 01       	movw	r24, r30
    8474:	31 df       	rcall	.-414    	; 0x82d8 <free>
    8476:	86 c0       	rjmp	.+268    	; 0x8584 <realloc+0x19a>
    8478:	5b 01       	movw	r10, r22
    847a:	a0 1a       	sub	r10, r16
    847c:	b1 0a       	sbc	r11, r17
    847e:	4c 01       	movw	r8, r24
    8480:	80 0e       	add	r8, r16
    8482:	91 1e       	adc	r9, r17
    8484:	a0 91 a2 12 	lds	r26, 0x12A2	; 0x8012a2 <__flp>
    8488:	b0 91 a3 12 	lds	r27, 0x12A3	; 0x8012a3 <__flp+0x1>
    848c:	61 2c       	mov	r6, r1
    848e:	71 2c       	mov	r7, r1
    8490:	e1 2c       	mov	r14, r1
    8492:	f1 2c       	mov	r15, r1
    8494:	10 97       	sbiw	r26, 0x00	; 0
    8496:	09 f4       	brne	.+2      	; 0x849a <realloc+0xb0>
    8498:	46 c0       	rjmp	.+140    	; 0x8526 <realloc+0x13c>
    849a:	8d 91       	ld	r24, X+
    849c:	9c 91       	ld	r25, X
    849e:	11 97       	sbiw	r26, 0x01	; 1
    84a0:	a8 15       	cp	r26, r8
    84a2:	b9 05       	cpc	r27, r9
    84a4:	b1 f5       	brne	.+108    	; 0x8512 <realloc+0x128>
    84a6:	6c 01       	movw	r12, r24
    84a8:	42 e0       	ldi	r20, 0x02	; 2
    84aa:	c4 0e       	add	r12, r20
    84ac:	d1 1c       	adc	r13, r1
    84ae:	ca 14       	cp	r12, r10
    84b0:	db 04       	cpc	r13, r11
    84b2:	78 f1       	brcs	.+94     	; 0x8512 <realloc+0x128>
    84b4:	4c 01       	movw	r8, r24
    84b6:	8a 18       	sub	r8, r10
    84b8:	9b 08       	sbc	r9, r11
    84ba:	64 01       	movw	r12, r8
    84bc:	42 e0       	ldi	r20, 0x02	; 2
    84be:	c4 0e       	add	r12, r20
    84c0:	d1 1c       	adc	r13, r1
    84c2:	12 96       	adiw	r26, 0x02	; 2
    84c4:	bc 90       	ld	r11, X
    84c6:	12 97       	sbiw	r26, 0x02	; 2
    84c8:	13 96       	adiw	r26, 0x03	; 3
    84ca:	ac 91       	ld	r26, X
    84cc:	b5 e0       	ldi	r27, 0x05	; 5
    84ce:	cb 16       	cp	r12, r27
    84d0:	d1 04       	cpc	r13, r1
    84d2:	40 f0       	brcs	.+16     	; 0x84e4 <realloc+0xfa>
    84d4:	b2 82       	std	Z+2, r11	; 0x02
    84d6:	a3 83       	std	Z+3, r26	; 0x03
    84d8:	91 82       	std	Z+1, r9	; 0x01
    84da:	80 82       	st	Z, r8
    84dc:	d9 01       	movw	r26, r18
    84de:	6d 93       	st	X+, r22
    84e0:	7c 93       	st	X, r23
    84e2:	09 c0       	rjmp	.+18     	; 0x84f6 <realloc+0x10c>
    84e4:	0e 5f       	subi	r16, 0xFE	; 254
    84e6:	1f 4f       	sbci	r17, 0xFF	; 255
    84e8:	80 0f       	add	r24, r16
    84ea:	91 1f       	adc	r25, r17
    84ec:	f9 01       	movw	r30, r18
    84ee:	91 83       	std	Z+1, r25	; 0x01
    84f0:	80 83       	st	Z, r24
    84f2:	eb 2d       	mov	r30, r11
    84f4:	fa 2f       	mov	r31, r26
    84f6:	e1 14       	cp	r14, r1
    84f8:	f1 04       	cpc	r15, r1
    84fa:	31 f0       	breq	.+12     	; 0x8508 <realloc+0x11e>
    84fc:	d7 01       	movw	r26, r14
    84fe:	13 96       	adiw	r26, 0x03	; 3
    8500:	fc 93       	st	X, r31
    8502:	ee 93       	st	-X, r30
    8504:	12 97       	sbiw	r26, 0x02	; 2
    8506:	3e c0       	rjmp	.+124    	; 0x8584 <realloc+0x19a>
    8508:	f0 93 a3 12 	sts	0x12A3, r31	; 0x8012a3 <__flp+0x1>
    850c:	e0 93 a2 12 	sts	0x12A2, r30	; 0x8012a2 <__flp>
    8510:	39 c0       	rjmp	.+114    	; 0x8584 <realloc+0x19a>
    8512:	68 16       	cp	r6, r24
    8514:	79 06       	cpc	r7, r25
    8516:	08 f4       	brcc	.+2      	; 0x851a <realloc+0x130>
    8518:	3c 01       	movw	r6, r24
    851a:	7d 01       	movw	r14, r26
    851c:	12 96       	adiw	r26, 0x02	; 2
    851e:	0d 90       	ld	r0, X+
    8520:	bc 91       	ld	r27, X
    8522:	a0 2d       	mov	r26, r0
    8524:	b7 cf       	rjmp	.-146    	; 0x8494 <realloc+0xaa>
    8526:	80 91 a0 12 	lds	r24, 0x12A0	; 0x8012a0 <__brkval>
    852a:	90 91 a1 12 	lds	r25, 0x12A1	; 0x8012a1 <__brkval+0x1>
    852e:	88 16       	cp	r8, r24
    8530:	99 06       	cpc	r9, r25
    8532:	e1 f4       	brne	.+56     	; 0x856c <realloc+0x182>
    8534:	66 16       	cp	r6, r22
    8536:	77 06       	cpc	r7, r23
    8538:	c8 f4       	brcc	.+50     	; 0x856c <realloc+0x182>
    853a:	80 91 00 02 	lds	r24, 0x0200	; 0x800200 <__DATA_REGION_ORIGIN__>
    853e:	90 91 01 02 	lds	r25, 0x0201	; 0x800201 <__DATA_REGION_ORIGIN__+0x1>
    8542:	00 97       	sbiw	r24, 0x00	; 0
    8544:	41 f4       	brne	.+16     	; 0x8556 <realloc+0x16c>
    8546:	8d b7       	in	r24, 0x3d	; 61
    8548:	9e b7       	in	r25, 0x3e	; 62
    854a:	40 91 04 02 	lds	r20, 0x0204	; 0x800204 <__malloc_margin>
    854e:	50 91 05 02 	lds	r21, 0x0205	; 0x800205 <__malloc_margin+0x1>
    8552:	84 1b       	sub	r24, r20
    8554:	95 0b       	sbc	r25, r21
    8556:	e8 17       	cp	r30, r24
    8558:	f9 07       	cpc	r31, r25
    855a:	b0 f4       	brcc	.+44     	; 0x8588 <realloc+0x19e>
    855c:	f0 93 a1 12 	sts	0x12A1, r31	; 0x8012a1 <__brkval+0x1>
    8560:	e0 93 a0 12 	sts	0x12A0, r30	; 0x8012a0 <__brkval>
    8564:	f9 01       	movw	r30, r18
    8566:	71 83       	std	Z+1, r23	; 0x01
    8568:	60 83       	st	Z, r22
    856a:	0c c0       	rjmp	.+24     	; 0x8584 <realloc+0x19a>
    856c:	cb 01       	movw	r24, r22
    856e:	1c de       	rcall	.-968    	; 0x81a8 <malloc>
    8570:	7c 01       	movw	r14, r24
    8572:	00 97       	sbiw	r24, 0x00	; 0
    8574:	49 f0       	breq	.+18     	; 0x8588 <realloc+0x19e>
    8576:	a8 01       	movw	r20, r16
    8578:	be 01       	movw	r22, r28
    857a:	9d d0       	rcall	.+314    	; 0x86b6 <memcpy>
    857c:	ce 01       	movw	r24, r28
    857e:	ac de       	rcall	.-680    	; 0x82d8 <free>
    8580:	c7 01       	movw	r24, r14
    8582:	04 c0       	rjmp	.+8      	; 0x858c <realloc+0x1a2>
    8584:	ce 01       	movw	r24, r28
    8586:	02 c0       	rjmp	.+4      	; 0x858c <realloc+0x1a2>
    8588:	80 e0       	ldi	r24, 0x00	; 0
    858a:	90 e0       	ldi	r25, 0x00	; 0
    858c:	df 91       	pop	r29
    858e:	cf 91       	pop	r28
    8590:	1f 91       	pop	r17
    8592:	0f 91       	pop	r16
    8594:	ff 90       	pop	r15
    8596:	ef 90       	pop	r14
    8598:	df 90       	pop	r13
    859a:	cf 90       	pop	r12
    859c:	bf 90       	pop	r11
    859e:	af 90       	pop	r10
    85a0:	9f 90       	pop	r9
    85a2:	8f 90       	pop	r8
    85a4:	7f 90       	pop	r7
    85a6:	6f 90       	pop	r6
    85a8:	08 95       	ret

000085aa <abort>:
    85aa:	81 e0       	ldi	r24, 0x01	; 1
    85ac:	90 e0       	ldi	r25, 0x00	; 0
    85ae:	f8 94       	cli
    85b0:	b8 c5       	rjmp	.+2928   	; 0x9122 <_exit>

000085b2 <atof>:
    85b2:	66 27       	eor	r22, r22
    85b4:	77 27       	eor	r23, r23
    85b6:	e1 c3       	rjmp	.+1986   	; 0x8d7a <strtod>

000085b8 <atoi>:
    85b8:	fc 01       	movw	r30, r24
    85ba:	88 27       	eor	r24, r24
    85bc:	99 27       	eor	r25, r25
    85be:	e8 94       	clt
    85c0:	21 91       	ld	r18, Z+
    85c2:	20 32       	cpi	r18, 0x20	; 32
    85c4:	e9 f3       	breq	.-6      	; 0x85c0 <atoi+0x8>
    85c6:	29 30       	cpi	r18, 0x09	; 9
    85c8:	10 f0       	brcs	.+4      	; 0x85ce <atoi+0x16>
    85ca:	2e 30       	cpi	r18, 0x0E	; 14
    85cc:	c8 f3       	brcs	.-14     	; 0x85c0 <atoi+0x8>
    85ce:	2b 32       	cpi	r18, 0x2B	; 43
    85d0:	39 f0       	breq	.+14     	; 0x85e0 <atoi+0x28>
    85d2:	2d 32       	cpi	r18, 0x2D	; 45
    85d4:	31 f4       	brne	.+12     	; 0x85e2 <atoi+0x2a>
    85d6:	68 94       	set
    85d8:	03 c0       	rjmp	.+6      	; 0x85e0 <atoi+0x28>
    85da:	dd d0       	rcall	.+442    	; 0x8796 <__mulhi_const_10>
    85dc:	82 0f       	add	r24, r18
    85de:	91 1d       	adc	r25, r1
    85e0:	21 91       	ld	r18, Z+
    85e2:	20 53       	subi	r18, 0x30	; 48
    85e4:	2a 30       	cpi	r18, 0x0A	; 10
    85e6:	c8 f3       	brcs	.-14     	; 0x85da <atoi+0x22>
    85e8:	1e f4       	brtc	.+6      	; 0x85f0 <atoi+0x38>
    85ea:	90 95       	com	r25
    85ec:	81 95       	neg	r24
    85ee:	9f 4f       	sbci	r25, 0xFF	; 255
    85f0:	08 95       	ret

000085f2 <atol>:
    85f2:	1f 93       	push	r17
    85f4:	fc 01       	movw	r30, r24
    85f6:	99 27       	eor	r25, r25
    85f8:	88 27       	eor	r24, r24
    85fa:	bc 01       	movw	r22, r24
    85fc:	e8 94       	clt
    85fe:	11 91       	ld	r17, Z+
    8600:	10 32       	cpi	r17, 0x20	; 32
    8602:	e9 f3       	breq	.-6      	; 0x85fe <atol+0xc>
    8604:	19 30       	cpi	r17, 0x09	; 9
    8606:	10 f0       	brcs	.+4      	; 0x860c <atol+0x1a>
    8608:	1e 30       	cpi	r17, 0x0E	; 14
    860a:	c8 f3       	brcs	.-14     	; 0x85fe <atol+0xc>
    860c:	1b 32       	cpi	r17, 0x2B	; 43
    860e:	49 f0       	breq	.+18     	; 0x8622 <atol+0x30>
    8610:	1d 32       	cpi	r17, 0x2D	; 45
    8612:	41 f4       	brne	.+16     	; 0x8624 <atol+0x32>
    8614:	68 94       	set
    8616:	05 c0       	rjmp	.+10     	; 0x8622 <atol+0x30>
    8618:	a9 d0       	rcall	.+338    	; 0x876c <__mulsi_const_10>
    861a:	61 0f       	add	r22, r17
    861c:	71 1d       	adc	r23, r1
    861e:	81 1d       	adc	r24, r1
    8620:	91 1d       	adc	r25, r1
    8622:	11 91       	ld	r17, Z+
    8624:	10 53       	subi	r17, 0x30	; 48
    8626:	1a 30       	cpi	r17, 0x0A	; 10
    8628:	b8 f3       	brcs	.-18     	; 0x8618 <atol+0x26>
    862a:	3e f4       	brtc	.+14     	; 0x863a <atol+0x48>
    862c:	90 95       	com	r25
    862e:	80 95       	com	r24
    8630:	70 95       	com	r23
    8632:	61 95       	neg	r22
    8634:	7f 4f       	sbci	r23, 0xFF	; 255
    8636:	8f 4f       	sbci	r24, 0xFF	; 255
    8638:	9f 4f       	sbci	r25, 0xFF	; 255
    863a:	1f 91       	pop	r17
    863c:	08 95       	ret

0000863e <isgraph>:
    863e:	80 32       	cpi	r24, 0x20	; 32
    8640:	09 f0       	breq	.+2      	; 0x8644 <isprint+0x2>

00008642 <isprint>:
    8642:	91 11       	cpse	r25, r1
    8644:	f1 c4       	rjmp	.+2530   	; 0x9028 <__ctype_isfalse>
    8646:	80 52       	subi	r24, 0x20	; 32
    8648:	8f 55       	subi	r24, 0x5F	; 95
    864a:	e0 f7       	brcc	.-8      	; 0x8644 <isprint+0x2>
    864c:	08 95       	ret

0000864e <isspace>:
    864e:	91 11       	cpse	r25, r1
    8650:	eb c4       	rjmp	.+2518   	; 0x9028 <__ctype_isfalse>
    8652:	80 32       	cpi	r24, 0x20	; 32
    8654:	19 f0       	breq	.+6      	; 0x865c <isspace+0xe>
    8656:	89 50       	subi	r24, 0x09	; 9
    8658:	85 50       	subi	r24, 0x05	; 5
    865a:	d0 f7       	brcc	.-12     	; 0x8650 <isspace+0x2>
    865c:	08 95       	ret

0000865e <strcmp_P>:
    865e:	fb 01       	movw	r30, r22
    8660:	dc 01       	movw	r26, r24
    8662:	8d 91       	ld	r24, X+
    8664:	05 90       	lpm	r0, Z+
    8666:	80 19       	sub	r24, r0
    8668:	01 10       	cpse	r0, r1
    866a:	d9 f3       	breq	.-10     	; 0x8662 <strcmp_P+0x4>
    866c:	99 0b       	sbc	r25, r25
    866e:	08 95       	ret

00008670 <__strlen_P>:
    8670:	fc 01       	movw	r30, r24
    8672:	05 90       	lpm	r0, Z+
    8674:	00 20       	and	r0, r0
    8676:	e9 f7       	brne	.-6      	; 0x8672 <__strlen_P+0x2>
    8678:	80 95       	com	r24
    867a:	90 95       	com	r25
    867c:	8e 0f       	add	r24, r30
    867e:	9f 1f       	adc	r25, r31
    8680:	08 95       	ret

00008682 <strstr_P>:
    8682:	fb 01       	movw	r30, r22
    8684:	55 91       	lpm	r21, Z+
    8686:	55 23       	and	r21, r21
    8688:	a9 f0       	breq	.+42     	; 0x86b4 <strstr_P+0x32>
    868a:	bf 01       	movw	r22, r30
    868c:	dc 01       	movw	r26, r24
    868e:	4d 91       	ld	r20, X+
    8690:	45 17       	cp	r20, r21
    8692:	41 11       	cpse	r20, r1
    8694:	e1 f7       	brne	.-8      	; 0x868e <strstr_P+0xc>
    8696:	59 f4       	brne	.+22     	; 0x86ae <strstr_P+0x2c>
    8698:	cd 01       	movw	r24, r26
    869a:	05 90       	lpm	r0, Z+
    869c:	00 20       	and	r0, r0
    869e:	49 f0       	breq	.+18     	; 0x86b2 <strstr_P+0x30>
    86a0:	4d 91       	ld	r20, X+
    86a2:	40 15       	cp	r20, r0
    86a4:	41 11       	cpse	r20, r1
    86a6:	c9 f3       	breq	.-14     	; 0x869a <strstr_P+0x18>
    86a8:	fb 01       	movw	r30, r22
    86aa:	41 11       	cpse	r20, r1
    86ac:	ef cf       	rjmp	.-34     	; 0x868c <strstr_P+0xa>
    86ae:	81 e0       	ldi	r24, 0x01	; 1
    86b0:	90 e0       	ldi	r25, 0x00	; 0
    86b2:	01 97       	sbiw	r24, 0x01	; 1
    86b4:	08 95       	ret

000086b6 <memcpy>:
    86b6:	fb 01       	movw	r30, r22
    86b8:	dc 01       	movw	r26, r24
    86ba:	02 c0       	rjmp	.+4      	; 0x86c0 <memcpy+0xa>
    86bc:	01 90       	ld	r0, Z+
    86be:	0d 92       	st	X+, r0
    86c0:	41 50       	subi	r20, 0x01	; 1
    86c2:	50 40       	sbci	r21, 0x00	; 0
    86c4:	d8 f7       	brcc	.-10     	; 0x86bc <memcpy+0x6>
    86c6:	08 95       	ret

000086c8 <strchr>:
    86c8:	fc 01       	movw	r30, r24
    86ca:	81 91       	ld	r24, Z+
    86cc:	86 17       	cp	r24, r22
    86ce:	21 f0       	breq	.+8      	; 0x86d8 <strchr+0x10>
    86d0:	88 23       	and	r24, r24
    86d2:	d9 f7       	brne	.-10     	; 0x86ca <strchr+0x2>
    86d4:	99 27       	eor	r25, r25
    86d6:	08 95       	ret
    86d8:	31 97       	sbiw	r30, 0x01	; 1
    86da:	cf 01       	movw	r24, r30
    86dc:	08 95       	ret

000086de <strcmp>:
    86de:	fb 01       	movw	r30, r22
    86e0:	dc 01       	movw	r26, r24
    86e2:	8d 91       	ld	r24, X+
    86e4:	01 90       	ld	r0, Z+
    86e6:	80 19       	sub	r24, r0
    86e8:	01 10       	cpse	r0, r1
    86ea:	d9 f3       	breq	.-10     	; 0x86e2 <strcmp+0x4>
    86ec:	99 0b       	sbc	r25, r25
    86ee:	08 95       	ret

000086f0 <strcpy>:
    86f0:	fb 01       	movw	r30, r22
    86f2:	dc 01       	movw	r26, r24
    86f4:	01 90       	ld	r0, Z+
    86f6:	0d 92       	st	X+, r0
    86f8:	00 20       	and	r0, r0
    86fa:	e1 f7       	brne	.-8      	; 0x86f4 <strcpy+0x4>
    86fc:	08 95       	ret

000086fe <strncmp>:
    86fe:	fb 01       	movw	r30, r22
    8700:	dc 01       	movw	r26, r24
    8702:	41 50       	subi	r20, 0x01	; 1
    8704:	50 40       	sbci	r21, 0x00	; 0
    8706:	30 f0       	brcs	.+12     	; 0x8714 <strncmp+0x16>
    8708:	8d 91       	ld	r24, X+
    870a:	01 90       	ld	r0, Z+
    870c:	80 19       	sub	r24, r0
    870e:	19 f4       	brne	.+6      	; 0x8716 <strncmp+0x18>
    8710:	00 20       	and	r0, r0
    8712:	b9 f7       	brne	.-18     	; 0x8702 <strncmp+0x4>
    8714:	88 1b       	sub	r24, r24
    8716:	99 0b       	sbc	r25, r25
    8718:	08 95       	ret

0000871a <strncpy>:
    871a:	fb 01       	movw	r30, r22
    871c:	dc 01       	movw	r26, r24
    871e:	41 50       	subi	r20, 0x01	; 1
    8720:	50 40       	sbci	r21, 0x00	; 0
    8722:	48 f0       	brcs	.+18     	; 0x8736 <strncpy+0x1c>
    8724:	01 90       	ld	r0, Z+
    8726:	0d 92       	st	X+, r0
    8728:	00 20       	and	r0, r0
    872a:	c9 f7       	brne	.-14     	; 0x871e <strncpy+0x4>
    872c:	01 c0       	rjmp	.+2      	; 0x8730 <strncpy+0x16>
    872e:	1d 92       	st	X+, r1
    8730:	41 50       	subi	r20, 0x01	; 1
    8732:	50 40       	sbci	r21, 0x00	; 0
    8734:	e0 f7       	brcc	.-8      	; 0x872e <strncpy+0x14>
    8736:	08 95       	ret

00008738 <strstr>:
    8738:	fb 01       	movw	r30, r22
    873a:	51 91       	ld	r21, Z+
    873c:	55 23       	and	r21, r21
    873e:	a9 f0       	breq	.+42     	; 0x876a <strstr+0x32>
    8740:	bf 01       	movw	r22, r30
    8742:	dc 01       	movw	r26, r24
    8744:	4d 91       	ld	r20, X+
    8746:	45 17       	cp	r20, r21
    8748:	41 11       	cpse	r20, r1
    874a:	e1 f7       	brne	.-8      	; 0x8744 <strstr+0xc>
    874c:	59 f4       	brne	.+22     	; 0x8764 <strstr+0x2c>
    874e:	cd 01       	movw	r24, r26
    8750:	01 90       	ld	r0, Z+
    8752:	00 20       	and	r0, r0
    8754:	49 f0       	breq	.+18     	; 0x8768 <strstr+0x30>
    8756:	4d 91       	ld	r20, X+
    8758:	40 15       	cp	r20, r0
    875a:	41 11       	cpse	r20, r1
    875c:	c9 f3       	breq	.-14     	; 0x8750 <strstr+0x18>
    875e:	fb 01       	movw	r30, r22
    8760:	41 11       	cpse	r20, r1
    8762:	ef cf       	rjmp	.-34     	; 0x8742 <strstr+0xa>
    8764:	81 e0       	ldi	r24, 0x01	; 1
    8766:	90 e0       	ldi	r25, 0x00	; 0
    8768:	01 97       	sbiw	r24, 0x01	; 1
    876a:	08 95       	ret

0000876c <__mulsi_const_10>:
    876c:	59 2f       	mov	r21, r25
    876e:	48 2f       	mov	r20, r24
    8770:	37 2f       	mov	r19, r23
    8772:	26 2f       	mov	r18, r22
    8774:	66 0f       	add	r22, r22
    8776:	77 1f       	adc	r23, r23
    8778:	88 1f       	adc	r24, r24
    877a:	99 1f       	adc	r25, r25
    877c:	66 0f       	add	r22, r22
    877e:	77 1f       	adc	r23, r23
    8780:	88 1f       	adc	r24, r24
    8782:	99 1f       	adc	r25, r25
    8784:	62 0f       	add	r22, r18
    8786:	73 1f       	adc	r23, r19
    8788:	84 1f       	adc	r24, r20
    878a:	95 1f       	adc	r25, r21
    878c:	66 0f       	add	r22, r22
    878e:	77 1f       	adc	r23, r23
    8790:	88 1f       	adc	r24, r24
    8792:	99 1f       	adc	r25, r25
    8794:	08 95       	ret

00008796 <__mulhi_const_10>:
    8796:	7a e0       	ldi	r23, 0x0A	; 10
    8798:	97 9f       	mul	r25, r23
    879a:	90 2d       	mov	r25, r0
    879c:	87 9f       	mul	r24, r23
    879e:	80 2d       	mov	r24, r0
    87a0:	91 0d       	add	r25, r1
    87a2:	11 24       	eor	r1, r1
    87a4:	08 95       	ret

000087a6 <sscanf>:
    87a6:	cf 93       	push	r28
    87a8:	df 93       	push	r29
    87aa:	cd b7       	in	r28, 0x3d	; 61
    87ac:	de b7       	in	r29, 0x3e	; 62
    87ae:	2e 97       	sbiw	r28, 0x0e	; 14
    87b0:	0f b6       	in	r0, 0x3f	; 63
    87b2:	f8 94       	cli
    87b4:	de bf       	out	0x3e, r29	; 62
    87b6:	0f be       	out	0x3f, r0	; 63
    87b8:	cd bf       	out	0x3d, r28	; 61
    87ba:	85 e0       	ldi	r24, 0x05	; 5
    87bc:	8c 83       	std	Y+4, r24	; 0x04
    87be:	8c 89       	ldd	r24, Y+20	; 0x14
    87c0:	9d 89       	ldd	r25, Y+21	; 0x15
    87c2:	9a 83       	std	Y+2, r25	; 0x02
    87c4:	89 83       	std	Y+1, r24	; 0x01
    87c6:	ae 01       	movw	r20, r28
    87c8:	48 5e       	subi	r20, 0xE8	; 232
    87ca:	5f 4f       	sbci	r21, 0xFF	; 255
    87cc:	6e 89       	ldd	r22, Y+22	; 0x16
    87ce:	7f 89       	ldd	r23, Y+23	; 0x17
    87d0:	ce 01       	movw	r24, r28
    87d2:	01 96       	adiw	r24, 0x01	; 1
    87d4:	bb d1       	rcall	.+886    	; 0x8b4c <vfscanf>
    87d6:	2e 96       	adiw	r28, 0x0e	; 14
    87d8:	0f b6       	in	r0, 0x3f	; 63
    87da:	f8 94       	cli
    87dc:	de bf       	out	0x3e, r29	; 62
    87de:	0f be       	out	0x3f, r0	; 63
    87e0:	cd bf       	out	0x3d, r28	; 61
    87e2:	df 91       	pop	r29
    87e4:	cf 91       	pop	r28
    87e6:	08 95       	ret

000087e8 <putval>:
    87e8:	20 fd       	sbrc	r18, 0
    87ea:	09 c0       	rjmp	.+18     	; 0x87fe <putval+0x16>
    87ec:	fc 01       	movw	r30, r24
    87ee:	23 fd       	sbrc	r18, 3
    87f0:	05 c0       	rjmp	.+10     	; 0x87fc <putval+0x14>
    87f2:	22 ff       	sbrs	r18, 2
    87f4:	02 c0       	rjmp	.+4      	; 0x87fa <putval+0x12>
    87f6:	73 83       	std	Z+3, r23	; 0x03
    87f8:	62 83       	std	Z+2, r22	; 0x02
    87fa:	51 83       	std	Z+1, r21	; 0x01
    87fc:	40 83       	st	Z, r20
    87fe:	08 95       	ret

00008800 <mulacc>:
    8800:	44 fd       	sbrc	r20, 4
    8802:	17 c0       	rjmp	.+46     	; 0x8832 <mulacc+0x32>
    8804:	46 fd       	sbrc	r20, 6
    8806:	17 c0       	rjmp	.+46     	; 0x8836 <mulacc+0x36>
    8808:	ab 01       	movw	r20, r22
    880a:	bc 01       	movw	r22, r24
    880c:	da 01       	movw	r26, r20
    880e:	fb 01       	movw	r30, r22
    8810:	aa 0f       	add	r26, r26
    8812:	bb 1f       	adc	r27, r27
    8814:	ee 1f       	adc	r30, r30
    8816:	ff 1f       	adc	r31, r31
    8818:	10 94       	com	r1
    881a:	d1 f7       	brne	.-12     	; 0x8810 <mulacc+0x10>
    881c:	4a 0f       	add	r20, r26
    881e:	5b 1f       	adc	r21, r27
    8820:	6e 1f       	adc	r22, r30
    8822:	7f 1f       	adc	r23, r31
    8824:	cb 01       	movw	r24, r22
    8826:	ba 01       	movw	r22, r20
    8828:	66 0f       	add	r22, r22
    882a:	77 1f       	adc	r23, r23
    882c:	88 1f       	adc	r24, r24
    882e:	99 1f       	adc	r25, r25
    8830:	09 c0       	rjmp	.+18     	; 0x8844 <mulacc+0x44>
    8832:	33 e0       	ldi	r19, 0x03	; 3
    8834:	01 c0       	rjmp	.+2      	; 0x8838 <mulacc+0x38>
    8836:	34 e0       	ldi	r19, 0x04	; 4
    8838:	66 0f       	add	r22, r22
    883a:	77 1f       	adc	r23, r23
    883c:	88 1f       	adc	r24, r24
    883e:	99 1f       	adc	r25, r25
    8840:	31 50       	subi	r19, 0x01	; 1
    8842:	d1 f7       	brne	.-12     	; 0x8838 <mulacc+0x38>
    8844:	62 0f       	add	r22, r18
    8846:	71 1d       	adc	r23, r1
    8848:	81 1d       	adc	r24, r1
    884a:	91 1d       	adc	r25, r1
    884c:	08 95       	ret

0000884e <skip_spaces>:
    884e:	0f 93       	push	r16
    8850:	1f 93       	push	r17
    8852:	cf 93       	push	r28
    8854:	df 93       	push	r29
    8856:	8c 01       	movw	r16, r24
    8858:	c8 01       	movw	r24, r16
    885a:	0c d4       	rcall	.+2072   	; 0x9074 <fgetc>
    885c:	ec 01       	movw	r28, r24
    885e:	97 fd       	sbrc	r25, 7
    8860:	06 c0       	rjmp	.+12     	; 0x886e <skip_spaces+0x20>
    8862:	f5 de       	rcall	.-534    	; 0x864e <isspace>
    8864:	89 2b       	or	r24, r25
    8866:	c1 f7       	brne	.-16     	; 0x8858 <skip_spaces+0xa>
    8868:	b8 01       	movw	r22, r16
    886a:	ce 01       	movw	r24, r28
    886c:	41 d4       	rcall	.+2178   	; 0x90f0 <ungetc>
    886e:	ce 01       	movw	r24, r28
    8870:	df 91       	pop	r29
    8872:	cf 91       	pop	r28
    8874:	1f 91       	pop	r17
    8876:	0f 91       	pop	r16
    8878:	08 95       	ret

0000887a <conv_int>:
    887a:	8f 92       	push	r8
    887c:	9f 92       	push	r9
    887e:	af 92       	push	r10
    8880:	bf 92       	push	r11
    8882:	ef 92       	push	r14
    8884:	ff 92       	push	r15
    8886:	0f 93       	push	r16
    8888:	1f 93       	push	r17
    888a:	cf 93       	push	r28
    888c:	df 93       	push	r29
    888e:	8c 01       	movw	r16, r24
    8890:	d6 2f       	mov	r29, r22
    8892:	7a 01       	movw	r14, r20
    8894:	b2 2e       	mov	r11, r18
    8896:	ee d3       	rcall	.+2012   	; 0x9074 <fgetc>
    8898:	9c 01       	movw	r18, r24
    889a:	33 27       	eor	r19, r19
    889c:	2b 32       	cpi	r18, 0x2B	; 43
    889e:	31 05       	cpc	r19, r1
    88a0:	31 f0       	breq	.+12     	; 0x88ae <conv_int+0x34>
    88a2:	2d 32       	cpi	r18, 0x2D	; 45
    88a4:	31 05       	cpc	r19, r1
    88a6:	59 f4       	brne	.+22     	; 0x88be <conv_int+0x44>
    88a8:	8b 2d       	mov	r24, r11
    88aa:	80 68       	ori	r24, 0x80	; 128
    88ac:	b8 2e       	mov	r11, r24
    88ae:	d1 50       	subi	r29, 0x01	; 1
    88b0:	11 f4       	brne	.+4      	; 0x88b6 <conv_int+0x3c>
    88b2:	80 e0       	ldi	r24, 0x00	; 0
    88b4:	61 c0       	rjmp	.+194    	; 0x8978 <conv_int+0xfe>
    88b6:	c8 01       	movw	r24, r16
    88b8:	dd d3       	rcall	.+1978   	; 0x9074 <fgetc>
    88ba:	97 fd       	sbrc	r25, 7
    88bc:	fa cf       	rjmp	.-12     	; 0x88b2 <conv_int+0x38>
    88be:	cb 2d       	mov	r28, r11
    88c0:	cd 7f       	andi	r28, 0xFD	; 253
    88c2:	2b 2d       	mov	r18, r11
    88c4:	20 73       	andi	r18, 0x30	; 48
    88c6:	f9 f4       	brne	.+62     	; 0x8906 <conv_int+0x8c>
    88c8:	80 33       	cpi	r24, 0x30	; 48
    88ca:	e9 f4       	brne	.+58     	; 0x8906 <conv_int+0x8c>
    88cc:	aa 24       	eor	r10, r10
    88ce:	aa 94       	dec	r10
    88d0:	ad 0e       	add	r10, r29
    88d2:	09 f4       	brne	.+2      	; 0x88d6 <conv_int+0x5c>
    88d4:	3e c0       	rjmp	.+124    	; 0x8952 <conv_int+0xd8>
    88d6:	c8 01       	movw	r24, r16
    88d8:	cd d3       	rcall	.+1946   	; 0x9074 <fgetc>
    88da:	97 fd       	sbrc	r25, 7
    88dc:	3a c0       	rjmp	.+116    	; 0x8952 <conv_int+0xd8>
    88de:	9c 01       	movw	r18, r24
    88e0:	2f 7d       	andi	r18, 0xDF	; 223
    88e2:	33 27       	eor	r19, r19
    88e4:	28 35       	cpi	r18, 0x58	; 88
    88e6:	31 05       	cpc	r19, r1
    88e8:	41 f4       	brne	.+16     	; 0x88fa <conv_int+0x80>
    88ea:	c2 64       	ori	r28, 0x42	; 66
    88ec:	d2 50       	subi	r29, 0x02	; 2
    88ee:	89 f1       	breq	.+98     	; 0x8952 <conv_int+0xd8>
    88f0:	c8 01       	movw	r24, r16
    88f2:	c0 d3       	rcall	.+1920   	; 0x9074 <fgetc>
    88f4:	97 ff       	sbrs	r25, 7
    88f6:	07 c0       	rjmp	.+14     	; 0x8906 <conv_int+0x8c>
    88f8:	2c c0       	rjmp	.+88     	; 0x8952 <conv_int+0xd8>
    88fa:	b6 fe       	sbrs	r11, 6
    88fc:	02 c0       	rjmp	.+4      	; 0x8902 <conv_int+0x88>
    88fe:	c2 60       	ori	r28, 0x02	; 2
    8900:	01 c0       	rjmp	.+2      	; 0x8904 <conv_int+0x8a>
    8902:	c2 61       	ori	r28, 0x12	; 18
    8904:	da 2d       	mov	r29, r10
    8906:	81 2c       	mov	r8, r1
    8908:	91 2c       	mov	r9, r1
    890a:	54 01       	movw	r10, r8
    890c:	20 ed       	ldi	r18, 0xD0	; 208
    890e:	28 0f       	add	r18, r24
    8910:	28 30       	cpi	r18, 0x08	; 8
    8912:	78 f0       	brcs	.+30     	; 0x8932 <conv_int+0xb8>
    8914:	c4 ff       	sbrs	r28, 4
    8916:	03 c0       	rjmp	.+6      	; 0x891e <conv_int+0xa4>
    8918:	b8 01       	movw	r22, r16
    891a:	ea d3       	rcall	.+2004   	; 0x90f0 <ungetc>
    891c:	17 c0       	rjmp	.+46     	; 0x894c <conv_int+0xd2>
    891e:	2a 30       	cpi	r18, 0x0A	; 10
    8920:	40 f0       	brcs	.+16     	; 0x8932 <conv_int+0xb8>
    8922:	c6 ff       	sbrs	r28, 6
    8924:	f9 cf       	rjmp	.-14     	; 0x8918 <conv_int+0x9e>
    8926:	2f 7d       	andi	r18, 0xDF	; 223
    8928:	3f ee       	ldi	r19, 0xEF	; 239
    892a:	32 0f       	add	r19, r18
    892c:	36 30       	cpi	r19, 0x06	; 6
    892e:	a0 f7       	brcc	.-24     	; 0x8918 <conv_int+0x9e>
    8930:	27 50       	subi	r18, 0x07	; 7
    8932:	4c 2f       	mov	r20, r28
    8934:	c5 01       	movw	r24, r10
    8936:	b4 01       	movw	r22, r8
    8938:	63 df       	rcall	.-314    	; 0x8800 <mulacc>
    893a:	4b 01       	movw	r8, r22
    893c:	5c 01       	movw	r10, r24
    893e:	c2 60       	ori	r28, 0x02	; 2
    8940:	d1 50       	subi	r29, 0x01	; 1
    8942:	51 f0       	breq	.+20     	; 0x8958 <conv_int+0xde>
    8944:	c8 01       	movw	r24, r16
    8946:	96 d3       	rcall	.+1836   	; 0x9074 <fgetc>
    8948:	97 ff       	sbrs	r25, 7
    894a:	e0 cf       	rjmp	.-64     	; 0x890c <conv_int+0x92>
    894c:	c1 fd       	sbrc	r28, 1
    894e:	04 c0       	rjmp	.+8      	; 0x8958 <conv_int+0xde>
    8950:	b0 cf       	rjmp	.-160    	; 0x88b2 <conv_int+0x38>
    8952:	81 2c       	mov	r8, r1
    8954:	91 2c       	mov	r9, r1
    8956:	54 01       	movw	r10, r8
    8958:	c7 ff       	sbrs	r28, 7
    895a:	08 c0       	rjmp	.+16     	; 0x896c <conv_int+0xf2>
    895c:	b0 94       	com	r11
    895e:	a0 94       	com	r10
    8960:	90 94       	com	r9
    8962:	80 94       	com	r8
    8964:	81 1c       	adc	r8, r1
    8966:	91 1c       	adc	r9, r1
    8968:	a1 1c       	adc	r10, r1
    896a:	b1 1c       	adc	r11, r1
    896c:	2c 2f       	mov	r18, r28
    896e:	b5 01       	movw	r22, r10
    8970:	a4 01       	movw	r20, r8
    8972:	c7 01       	movw	r24, r14
    8974:	39 df       	rcall	.-398    	; 0x87e8 <putval>
    8976:	81 e0       	ldi	r24, 0x01	; 1
    8978:	df 91       	pop	r29
    897a:	cf 91       	pop	r28
    897c:	1f 91       	pop	r17
    897e:	0f 91       	pop	r16
    8980:	ff 90       	pop	r15
    8982:	ef 90       	pop	r14
    8984:	bf 90       	pop	r11
    8986:	af 90       	pop	r10
    8988:	9f 90       	pop	r9
    898a:	8f 90       	pop	r8
    898c:	08 95       	ret

0000898e <conv_brk>:
    898e:	5f 92       	push	r5
    8990:	6f 92       	push	r6
    8992:	7f 92       	push	r7
    8994:	8f 92       	push	r8
    8996:	9f 92       	push	r9
    8998:	af 92       	push	r10
    899a:	bf 92       	push	r11
    899c:	cf 92       	push	r12
    899e:	df 92       	push	r13
    89a0:	ef 92       	push	r14
    89a2:	ff 92       	push	r15
    89a4:	0f 93       	push	r16
    89a6:	1f 93       	push	r17
    89a8:	cf 93       	push	r28
    89aa:	df 93       	push	r29
    89ac:	cd b7       	in	r28, 0x3d	; 61
    89ae:	de b7       	in	r29, 0x3e	; 62
    89b0:	a0 97       	sbiw	r28, 0x20	; 32
    89b2:	0f b6       	in	r0, 0x3f	; 63
    89b4:	f8 94       	cli
    89b6:	de bf       	out	0x3e, r29	; 62
    89b8:	0f be       	out	0x3f, r0	; 63
    89ba:	cd bf       	out	0x3d, r28	; 61
    89bc:	5c 01       	movw	r10, r24
    89be:	96 2e       	mov	r9, r22
    89c0:	7a 01       	movw	r14, r20
    89c2:	f9 01       	movw	r30, r18
    89c4:	8e 01       	movw	r16, r28
    89c6:	0f 5f       	subi	r16, 0xFF	; 255
    89c8:	1f 4f       	sbci	r17, 0xFF	; 255
    89ca:	68 01       	movw	r12, r16
    89cc:	80 e2       	ldi	r24, 0x20	; 32
    89ce:	d8 01       	movw	r26, r16
    89d0:	1d 92       	st	X+, r1
    89d2:	8a 95       	dec	r24
    89d4:	e9 f7       	brne	.-6      	; 0x89d0 <conv_brk+0x42>
    89d6:	d5 01       	movw	r26, r10
    89d8:	13 96       	adiw	r26, 0x03	; 3
    89da:	8c 90       	ld	r8, X
    89dc:	80 e0       	ldi	r24, 0x00	; 0
    89de:	90 e0       	ldi	r25, 0x00	; 0
    89e0:	61 2c       	mov	r6, r1
    89e2:	71 2c       	mov	r7, r1
    89e4:	30 e0       	ldi	r19, 0x00	; 0
    89e6:	61 e0       	ldi	r22, 0x01	; 1
    89e8:	70 e0       	ldi	r23, 0x00	; 0
    89ea:	83 fc       	sbrc	r8, 3
    89ec:	25 91       	lpm	r18, Z+
    89ee:	83 fe       	sbrs	r8, 3
    89f0:	21 91       	ld	r18, Z+
    89f2:	8f 01       	movw	r16, r30
    89f4:	52 2e       	mov	r5, r18
    89f6:	21 11       	cpse	r18, r1
    89f8:	03 c0       	rjmp	.+6      	; 0x8a00 <conv_brk+0x72>
    89fa:	80 e0       	ldi	r24, 0x00	; 0
    89fc:	90 e0       	ldi	r25, 0x00	; 0
    89fe:	90 c0       	rjmp	.+288    	; 0x8b20 <conv_brk+0x192>
    8a00:	2e 35       	cpi	r18, 0x5E	; 94
    8a02:	11 f4       	brne	.+4      	; 0x8a08 <conv_brk+0x7a>
    8a04:	00 97       	sbiw	r24, 0x00	; 0
    8a06:	51 f1       	breq	.+84     	; 0x8a5c <conv_brk+0xce>
    8a08:	43 2f       	mov	r20, r19
    8a0a:	50 e0       	ldi	r21, 0x00	; 0
    8a0c:	48 17       	cp	r20, r24
    8a0e:	59 07       	cpc	r21, r25
    8a10:	3c f4       	brge	.+14     	; 0x8a20 <conv_brk+0x92>
    8a12:	2d 35       	cpi	r18, 0x5D	; 93
    8a14:	59 f1       	breq	.+86     	; 0x8a6c <conv_brk+0xde>
    8a16:	2d 32       	cpi	r18, 0x2D	; 45
    8a18:	19 f4       	brne	.+6      	; 0x8a20 <conv_brk+0x92>
    8a1a:	77 20       	and	r7, r7
    8a1c:	09 f1       	breq	.+66     	; 0x8a60 <conv_brk+0xd2>
    8a1e:	03 c0       	rjmp	.+6      	; 0x8a26 <conv_brk+0x98>
    8a20:	77 20       	and	r7, r7
    8a22:	09 f4       	brne	.+2      	; 0x8a26 <conv_brk+0x98>
    8a24:	68 c0       	rjmp	.+208    	; 0x8af6 <conv_brk+0x168>
    8a26:	45 2d       	mov	r20, r5
    8a28:	46 95       	lsr	r20
    8a2a:	46 95       	lsr	r20
    8a2c:	46 95       	lsr	r20
    8a2e:	d6 01       	movw	r26, r12
    8a30:	a4 0f       	add	r26, r20
    8a32:	b1 1d       	adc	r27, r1
    8a34:	45 2d       	mov	r20, r5
    8a36:	47 70       	andi	r20, 0x07	; 7
    8a38:	8b 01       	movw	r16, r22
    8a3a:	02 c0       	rjmp	.+4      	; 0x8a40 <conv_brk+0xb2>
    8a3c:	00 0f       	add	r16, r16
    8a3e:	11 1f       	adc	r17, r17
    8a40:	4a 95       	dec	r20
    8a42:	e2 f7       	brpl	.-8      	; 0x8a3c <conv_brk+0xae>
    8a44:	a8 01       	movw	r20, r16
    8a46:	5c 91       	ld	r21, X
    8a48:	45 2b       	or	r20, r21
    8a4a:	4c 93       	st	X, r20
    8a4c:	65 14       	cp	r6, r5
    8a4e:	59 f0       	breq	.+22     	; 0x8a66 <conv_brk+0xd8>
    8a50:	56 14       	cp	r5, r6
    8a52:	10 f4       	brcc	.+4      	; 0x8a58 <conv_brk+0xca>
    8a54:	53 94       	inc	r5
    8a56:	e7 cf       	rjmp	.-50     	; 0x8a26 <conv_brk+0x98>
    8a58:	5a 94       	dec	r5
    8a5a:	e5 cf       	rjmp	.-54     	; 0x8a26 <conv_brk+0x98>
    8a5c:	31 e0       	ldi	r19, 0x01	; 1
    8a5e:	04 c0       	rjmp	.+8      	; 0x8a68 <conv_brk+0xda>
    8a60:	77 24       	eor	r7, r7
    8a62:	73 94       	inc	r7
    8a64:	01 c0       	rjmp	.+2      	; 0x8a68 <conv_brk+0xda>
    8a66:	71 2c       	mov	r7, r1
    8a68:	01 96       	adiw	r24, 0x01	; 1
    8a6a:	bf cf       	rjmp	.-130    	; 0x89ea <conv_brk+0x5c>
    8a6c:	77 20       	and	r7, r7
    8a6e:	19 f0       	breq	.+6      	; 0x8a76 <conv_brk+0xe8>
    8a70:	8e 81       	ldd	r24, Y+6	; 0x06
    8a72:	80 62       	ori	r24, 0x20	; 32
    8a74:	8e 83       	std	Y+6, r24	; 0x06
    8a76:	31 11       	cpse	r19, r1
    8a78:	03 c0       	rjmp	.+6      	; 0x8a80 <conv_brk+0xf2>
    8a7a:	88 24       	eor	r8, r8
    8a7c:	83 94       	inc	r8
    8a7e:	17 c0       	rjmp	.+46     	; 0x8aae <conv_brk+0x120>
    8a80:	f6 01       	movw	r30, r12
    8a82:	9e 01       	movw	r18, r28
    8a84:	2f 5d       	subi	r18, 0xDF	; 223
    8a86:	3f 4f       	sbci	r19, 0xFF	; 255
    8a88:	80 81       	ld	r24, Z
    8a8a:	80 95       	com	r24
    8a8c:	81 93       	st	Z+, r24
    8a8e:	2e 17       	cp	r18, r30
    8a90:	3f 07       	cpc	r19, r31
    8a92:	d1 f7       	brne	.-12     	; 0x8a88 <conv_brk+0xfa>
    8a94:	f2 cf       	rjmp	.-28     	; 0x8a7a <conv_brk+0xec>
    8a96:	e1 14       	cp	r14, r1
    8a98:	f1 04       	cpc	r15, r1
    8a9a:	29 f0       	breq	.+10     	; 0x8aa6 <conv_brk+0x118>
    8a9c:	d7 01       	movw	r26, r14
    8a9e:	8c 93       	st	X, r24
    8aa0:	f7 01       	movw	r30, r14
    8aa2:	31 96       	adiw	r30, 0x01	; 1
    8aa4:	7f 01       	movw	r14, r30
    8aa6:	9a 94       	dec	r9
    8aa8:	81 2c       	mov	r8, r1
    8aaa:	99 20       	and	r9, r9
    8aac:	e9 f0       	breq	.+58     	; 0x8ae8 <conv_brk+0x15a>
    8aae:	c5 01       	movw	r24, r10
    8ab0:	e1 d2       	rcall	.+1474   	; 0x9074 <fgetc>
    8ab2:	97 fd       	sbrc	r25, 7
    8ab4:	17 c0       	rjmp	.+46     	; 0x8ae4 <conv_brk+0x156>
    8ab6:	fc 01       	movw	r30, r24
    8ab8:	ff 27       	eor	r31, r31
    8aba:	23 e0       	ldi	r18, 0x03	; 3
    8abc:	f5 95       	asr	r31
    8abe:	e7 95       	ror	r30
    8ac0:	2a 95       	dec	r18
    8ac2:	e1 f7       	brne	.-8      	; 0x8abc <conv_brk+0x12e>
    8ac4:	ec 0d       	add	r30, r12
    8ac6:	fd 1d       	adc	r31, r13
    8ac8:	20 81       	ld	r18, Z
    8aca:	30 e0       	ldi	r19, 0x00	; 0
    8acc:	ac 01       	movw	r20, r24
    8ace:	47 70       	andi	r20, 0x07	; 7
    8ad0:	55 27       	eor	r21, r21
    8ad2:	02 c0       	rjmp	.+4      	; 0x8ad8 <conv_brk+0x14a>
    8ad4:	35 95       	asr	r19
    8ad6:	27 95       	ror	r18
    8ad8:	4a 95       	dec	r20
    8ada:	e2 f7       	brpl	.-8      	; 0x8ad4 <conv_brk+0x146>
    8adc:	20 fd       	sbrc	r18, 0
    8ade:	db cf       	rjmp	.-74     	; 0x8a96 <conv_brk+0x108>
    8ae0:	b5 01       	movw	r22, r10
    8ae2:	06 d3       	rcall	.+1548   	; 0x90f0 <ungetc>
    8ae4:	81 10       	cpse	r8, r1
    8ae6:	89 cf       	rjmp	.-238    	; 0x89fa <conv_brk+0x6c>
    8ae8:	e1 14       	cp	r14, r1
    8aea:	f1 04       	cpc	r15, r1
    8aec:	11 f0       	breq	.+4      	; 0x8af2 <conv_brk+0x164>
    8aee:	d7 01       	movw	r26, r14
    8af0:	1c 92       	st	X, r1
    8af2:	c8 01       	movw	r24, r16
    8af4:	15 c0       	rjmp	.+42     	; 0x8b20 <conv_brk+0x192>
    8af6:	42 2f       	mov	r20, r18
    8af8:	46 95       	lsr	r20
    8afa:	46 95       	lsr	r20
    8afc:	46 95       	lsr	r20
    8afe:	d6 01       	movw	r26, r12
    8b00:	a4 0f       	add	r26, r20
    8b02:	b1 1d       	adc	r27, r1
    8b04:	42 2f       	mov	r20, r18
    8b06:	47 70       	andi	r20, 0x07	; 7
    8b08:	8b 01       	movw	r16, r22
    8b0a:	02 c0       	rjmp	.+4      	; 0x8b10 <conv_brk+0x182>
    8b0c:	00 0f       	add	r16, r16
    8b0e:	11 1f       	adc	r17, r17
    8b10:	4a 95       	dec	r20
    8b12:	e2 f7       	brpl	.-8      	; 0x8b0c <conv_brk+0x17e>
    8b14:	a8 01       	movw	r20, r16
    8b16:	5c 91       	ld	r21, X
    8b18:	45 2b       	or	r20, r21
    8b1a:	4c 93       	st	X, r20
    8b1c:	62 2e       	mov	r6, r18
    8b1e:	a4 cf       	rjmp	.-184    	; 0x8a68 <conv_brk+0xda>
    8b20:	a0 96       	adiw	r28, 0x20	; 32
    8b22:	0f b6       	in	r0, 0x3f	; 63
    8b24:	f8 94       	cli
    8b26:	de bf       	out	0x3e, r29	; 62
    8b28:	0f be       	out	0x3f, r0	; 63
    8b2a:	cd bf       	out	0x3d, r28	; 61
    8b2c:	df 91       	pop	r29
    8b2e:	cf 91       	pop	r28
    8b30:	1f 91       	pop	r17
    8b32:	0f 91       	pop	r16
    8b34:	ff 90       	pop	r15
    8b36:	ef 90       	pop	r14
    8b38:	df 90       	pop	r13
    8b3a:	cf 90       	pop	r12
    8b3c:	bf 90       	pop	r11
    8b3e:	af 90       	pop	r10
    8b40:	9f 90       	pop	r9
    8b42:	8f 90       	pop	r8
    8b44:	7f 90       	pop	r7
    8b46:	6f 90       	pop	r6
    8b48:	5f 90       	pop	r5
    8b4a:	08 95       	ret

00008b4c <vfscanf>:
    8b4c:	5f 92       	push	r5
    8b4e:	6f 92       	push	r6
    8b50:	7f 92       	push	r7
    8b52:	8f 92       	push	r8
    8b54:	9f 92       	push	r9
    8b56:	af 92       	push	r10
    8b58:	bf 92       	push	r11
    8b5a:	cf 92       	push	r12
    8b5c:	df 92       	push	r13
    8b5e:	ef 92       	push	r14
    8b60:	ff 92       	push	r15
    8b62:	0f 93       	push	r16
    8b64:	1f 93       	push	r17
    8b66:	cf 93       	push	r28
    8b68:	df 93       	push	r29
    8b6a:	6c 01       	movw	r12, r24
    8b6c:	eb 01       	movw	r28, r22
    8b6e:	5a 01       	movw	r10, r20
    8b70:	fc 01       	movw	r30, r24
    8b72:	17 82       	std	Z+7, r1	; 0x07
    8b74:	16 82       	std	Z+6, r1	; 0x06
    8b76:	51 2c       	mov	r5, r1
    8b78:	f6 01       	movw	r30, r12
    8b7a:	e3 80       	ldd	r14, Z+3	; 0x03
    8b7c:	fe 01       	movw	r30, r28
    8b7e:	e3 fc       	sbrc	r14, 3
    8b80:	85 91       	lpm	r24, Z+
    8b82:	e3 fe       	sbrs	r14, 3
    8b84:	81 91       	ld	r24, Z+
    8b86:	18 2f       	mov	r17, r24
    8b88:	ef 01       	movw	r28, r30
    8b8a:	88 23       	and	r24, r24
    8b8c:	09 f4       	brne	.+2      	; 0x8b90 <vfscanf+0x44>
    8b8e:	e0 c0       	rjmp	.+448    	; 0x8d50 <vfscanf+0x204>
    8b90:	90 e0       	ldi	r25, 0x00	; 0
    8b92:	5d dd       	rcall	.-1350   	; 0x864e <isspace>
    8b94:	89 2b       	or	r24, r25
    8b96:	19 f0       	breq	.+6      	; 0x8b9e <vfscanf+0x52>
    8b98:	c6 01       	movw	r24, r12
    8b9a:	59 de       	rcall	.-846    	; 0x884e <skip_spaces>
    8b9c:	ed cf       	rjmp	.-38     	; 0x8b78 <vfscanf+0x2c>
    8b9e:	15 32       	cpi	r17, 0x25	; 37
    8ba0:	41 f4       	brne	.+16     	; 0x8bb2 <vfscanf+0x66>
    8ba2:	fe 01       	movw	r30, r28
    8ba4:	e3 fc       	sbrc	r14, 3
    8ba6:	15 91       	lpm	r17, Z+
    8ba8:	e3 fe       	sbrs	r14, 3
    8baa:	11 91       	ld	r17, Z+
    8bac:	ef 01       	movw	r28, r30
    8bae:	15 32       	cpi	r17, 0x25	; 37
    8bb0:	71 f4       	brne	.+28     	; 0x8bce <vfscanf+0x82>
    8bb2:	c6 01       	movw	r24, r12
    8bb4:	5f d2       	rcall	.+1214   	; 0x9074 <fgetc>
    8bb6:	97 fd       	sbrc	r25, 7
    8bb8:	c9 c0       	rjmp	.+402    	; 0x8d4c <vfscanf+0x200>
    8bba:	41 2f       	mov	r20, r17
    8bbc:	50 e0       	ldi	r21, 0x00	; 0
    8bbe:	9c 01       	movw	r18, r24
    8bc0:	33 27       	eor	r19, r19
    8bc2:	24 17       	cp	r18, r20
    8bc4:	35 07       	cpc	r19, r21
    8bc6:	c1 f2       	breq	.-80     	; 0x8b78 <vfscanf+0x2c>
    8bc8:	b6 01       	movw	r22, r12
    8bca:	92 d2       	rcall	.+1316   	; 0x90f0 <ungetc>
    8bcc:	c1 c0       	rjmp	.+386    	; 0x8d50 <vfscanf+0x204>
    8bce:	1a 32       	cpi	r17, 0x2A	; 42
    8bd0:	39 f4       	brne	.+14     	; 0x8be0 <vfscanf+0x94>
    8bd2:	e3 fc       	sbrc	r14, 3
    8bd4:	15 91       	lpm	r17, Z+
    8bd6:	e3 fe       	sbrs	r14, 3
    8bd8:	11 91       	ld	r17, Z+
    8bda:	ef 01       	movw	r28, r30
    8bdc:	01 e0       	ldi	r16, 0x01	; 1
    8bde:	01 c0       	rjmp	.+2      	; 0x8be2 <vfscanf+0x96>
    8be0:	00 e0       	ldi	r16, 0x00	; 0
    8be2:	f1 2c       	mov	r15, r1
    8be4:	20 ed       	ldi	r18, 0xD0	; 208
    8be6:	21 0f       	add	r18, r17
    8be8:	2a 30       	cpi	r18, 0x0A	; 10
    8bea:	78 f4       	brcc	.+30     	; 0x8c0a <vfscanf+0xbe>
    8bec:	02 60       	ori	r16, 0x02	; 2
    8bee:	6f 2d       	mov	r22, r15
    8bf0:	70 e0       	ldi	r23, 0x00	; 0
    8bf2:	80 e0       	ldi	r24, 0x00	; 0
    8bf4:	90 e0       	ldi	r25, 0x00	; 0
    8bf6:	40 e2       	ldi	r20, 0x20	; 32
    8bf8:	03 de       	rcall	.-1018   	; 0x8800 <mulacc>
    8bfa:	f6 2e       	mov	r15, r22
    8bfc:	fe 01       	movw	r30, r28
    8bfe:	e3 fc       	sbrc	r14, 3
    8c00:	15 91       	lpm	r17, Z+
    8c02:	e3 fe       	sbrs	r14, 3
    8c04:	11 91       	ld	r17, Z+
    8c06:	ef 01       	movw	r28, r30
    8c08:	ed cf       	rjmp	.-38     	; 0x8be4 <vfscanf+0x98>
    8c0a:	01 ff       	sbrs	r16, 1
    8c0c:	03 c0       	rjmp	.+6      	; 0x8c14 <vfscanf+0xc8>
    8c0e:	f1 10       	cpse	r15, r1
    8c10:	03 c0       	rjmp	.+6      	; 0x8c18 <vfscanf+0xcc>
    8c12:	9e c0       	rjmp	.+316    	; 0x8d50 <vfscanf+0x204>
    8c14:	ff 24       	eor	r15, r15
    8c16:	fa 94       	dec	r15
    8c18:	18 36       	cpi	r17, 0x68	; 104
    8c1a:	19 f0       	breq	.+6      	; 0x8c22 <vfscanf+0xd6>
    8c1c:	1c 36       	cpi	r17, 0x6C	; 108
    8c1e:	51 f0       	breq	.+20     	; 0x8c34 <vfscanf+0xe8>
    8c20:	10 c0       	rjmp	.+32     	; 0x8c42 <vfscanf+0xf6>
    8c22:	fe 01       	movw	r30, r28
    8c24:	e3 fc       	sbrc	r14, 3
    8c26:	15 91       	lpm	r17, Z+
    8c28:	e3 fe       	sbrs	r14, 3
    8c2a:	11 91       	ld	r17, Z+
    8c2c:	ef 01       	movw	r28, r30
    8c2e:	18 36       	cpi	r17, 0x68	; 104
    8c30:	41 f4       	brne	.+16     	; 0x8c42 <vfscanf+0xf6>
    8c32:	08 60       	ori	r16, 0x08	; 8
    8c34:	04 60       	ori	r16, 0x04	; 4
    8c36:	fe 01       	movw	r30, r28
    8c38:	e3 fc       	sbrc	r14, 3
    8c3a:	15 91       	lpm	r17, Z+
    8c3c:	e3 fe       	sbrs	r14, 3
    8c3e:	11 91       	ld	r17, Z+
    8c40:	ef 01       	movw	r28, r30
    8c42:	11 23       	and	r17, r17
    8c44:	09 f4       	brne	.+2      	; 0x8c48 <vfscanf+0xfc>
    8c46:	84 c0       	rjmp	.+264    	; 0x8d50 <vfscanf+0x204>
    8c48:	61 2f       	mov	r22, r17
    8c4a:	70 e0       	ldi	r23, 0x00	; 0
    8c4c:	8c e1       	ldi	r24, 0x1C	; 28
    8c4e:	91 e0       	ldi	r25, 0x01	; 1
    8c50:	ee d1       	rcall	.+988    	; 0x902e <strchr_P>
    8c52:	89 2b       	or	r24, r25
    8c54:	09 f4       	brne	.+2      	; 0x8c58 <vfscanf+0x10c>
    8c56:	7c c0       	rjmp	.+248    	; 0x8d50 <vfscanf+0x204>
    8c58:	00 fd       	sbrc	r16, 0
    8c5a:	07 c0       	rjmp	.+14     	; 0x8c6a <vfscanf+0x11e>
    8c5c:	f5 01       	movw	r30, r10
    8c5e:	80 80       	ld	r8, Z
    8c60:	91 80       	ldd	r9, Z+1	; 0x01
    8c62:	c5 01       	movw	r24, r10
    8c64:	02 96       	adiw	r24, 0x02	; 2
    8c66:	5c 01       	movw	r10, r24
    8c68:	02 c0       	rjmp	.+4      	; 0x8c6e <vfscanf+0x122>
    8c6a:	81 2c       	mov	r8, r1
    8c6c:	91 2c       	mov	r9, r1
    8c6e:	1e 36       	cpi	r17, 0x6E	; 110
    8c70:	49 f4       	brne	.+18     	; 0x8c84 <vfscanf+0x138>
    8c72:	f6 01       	movw	r30, r12
    8c74:	46 81       	ldd	r20, Z+6	; 0x06
    8c76:	57 81       	ldd	r21, Z+7	; 0x07
    8c78:	60 e0       	ldi	r22, 0x00	; 0
    8c7a:	70 e0       	ldi	r23, 0x00	; 0
    8c7c:	20 2f       	mov	r18, r16
    8c7e:	c4 01       	movw	r24, r8
    8c80:	b3 dd       	rcall	.-1178   	; 0x87e8 <putval>
    8c82:	7a cf       	rjmp	.-268    	; 0x8b78 <vfscanf+0x2c>
    8c84:	13 36       	cpi	r17, 0x63	; 99
    8c86:	a1 f4       	brne	.+40     	; 0x8cb0 <vfscanf+0x164>
    8c88:	01 fd       	sbrc	r16, 1
    8c8a:	02 c0       	rjmp	.+4      	; 0x8c90 <vfscanf+0x144>
    8c8c:	ff 24       	eor	r15, r15
    8c8e:	f3 94       	inc	r15
    8c90:	c6 01       	movw	r24, r12
    8c92:	f0 d1       	rcall	.+992    	; 0x9074 <fgetc>
    8c94:	97 fd       	sbrc	r25, 7
    8c96:	5a c0       	rjmp	.+180    	; 0x8d4c <vfscanf+0x200>
    8c98:	81 14       	cp	r8, r1
    8c9a:	91 04       	cpc	r9, r1
    8c9c:	29 f0       	breq	.+10     	; 0x8ca8 <vfscanf+0x15c>
    8c9e:	f4 01       	movw	r30, r8
    8ca0:	80 83       	st	Z, r24
    8ca2:	c4 01       	movw	r24, r8
    8ca4:	01 96       	adiw	r24, 0x01	; 1
    8ca6:	4c 01       	movw	r8, r24
    8ca8:	fa 94       	dec	r15
    8caa:	f1 10       	cpse	r15, r1
    8cac:	f1 cf       	rjmp	.-30     	; 0x8c90 <vfscanf+0x144>
    8cae:	4a c0       	rjmp	.+148    	; 0x8d44 <vfscanf+0x1f8>
    8cb0:	1b 35       	cpi	r17, 0x5B	; 91
    8cb2:	51 f4       	brne	.+20     	; 0x8cc8 <vfscanf+0x17c>
    8cb4:	9e 01       	movw	r18, r28
    8cb6:	a4 01       	movw	r20, r8
    8cb8:	6f 2d       	mov	r22, r15
    8cba:	c6 01       	movw	r24, r12
    8cbc:	68 de       	rcall	.-816    	; 0x898e <conv_brk>
    8cbe:	ec 01       	movw	r28, r24
    8cc0:	89 2b       	or	r24, r25
    8cc2:	09 f0       	breq	.+2      	; 0x8cc6 <vfscanf+0x17a>
    8cc4:	3f c0       	rjmp	.+126    	; 0x8d44 <vfscanf+0x1f8>
    8cc6:	39 c0       	rjmp	.+114    	; 0x8d3a <vfscanf+0x1ee>
    8cc8:	c6 01       	movw	r24, r12
    8cca:	c1 dd       	rcall	.-1150   	; 0x884e <skip_spaces>
    8ccc:	97 fd       	sbrc	r25, 7
    8cce:	3e c0       	rjmp	.+124    	; 0x8d4c <vfscanf+0x200>
    8cd0:	1f 36       	cpi	r17, 0x6F	; 111
    8cd2:	49 f1       	breq	.+82     	; 0x8d26 <vfscanf+0x1da>
    8cd4:	28 f4       	brcc	.+10     	; 0x8ce0 <vfscanf+0x194>
    8cd6:	14 36       	cpi	r17, 0x64	; 100
    8cd8:	21 f1       	breq	.+72     	; 0x8d22 <vfscanf+0x1d6>
    8cda:	19 36       	cpi	r17, 0x69	; 105
    8cdc:	39 f1       	breq	.+78     	; 0x8d2c <vfscanf+0x1e0>
    8cde:	25 c0       	rjmp	.+74     	; 0x8d2a <vfscanf+0x1de>
    8ce0:	13 37       	cpi	r17, 0x73	; 115
    8ce2:	71 f0       	breq	.+28     	; 0x8d00 <vfscanf+0x1b4>
    8ce4:	15 37       	cpi	r17, 0x75	; 117
    8ce6:	e9 f0       	breq	.+58     	; 0x8d22 <vfscanf+0x1d6>
    8ce8:	20 c0       	rjmp	.+64     	; 0x8d2a <vfscanf+0x1de>
    8cea:	81 14       	cp	r8, r1
    8cec:	91 04       	cpc	r9, r1
    8cee:	29 f0       	breq	.+10     	; 0x8cfa <vfscanf+0x1ae>
    8cf0:	f4 01       	movw	r30, r8
    8cf2:	60 82       	st	Z, r6
    8cf4:	c4 01       	movw	r24, r8
    8cf6:	01 96       	adiw	r24, 0x01	; 1
    8cf8:	4c 01       	movw	r8, r24
    8cfa:	fa 94       	dec	r15
    8cfc:	ff 20       	and	r15, r15
    8cfe:	59 f0       	breq	.+22     	; 0x8d16 <vfscanf+0x1ca>
    8d00:	c6 01       	movw	r24, r12
    8d02:	b8 d1       	rcall	.+880    	; 0x9074 <fgetc>
    8d04:	3c 01       	movw	r6, r24
    8d06:	97 fd       	sbrc	r25, 7
    8d08:	06 c0       	rjmp	.+12     	; 0x8d16 <vfscanf+0x1ca>
    8d0a:	a1 dc       	rcall	.-1726   	; 0x864e <isspace>
    8d0c:	89 2b       	or	r24, r25
    8d0e:	69 f3       	breq	.-38     	; 0x8cea <vfscanf+0x19e>
    8d10:	b6 01       	movw	r22, r12
    8d12:	c3 01       	movw	r24, r6
    8d14:	ed d1       	rcall	.+986    	; 0x90f0 <ungetc>
    8d16:	81 14       	cp	r8, r1
    8d18:	91 04       	cpc	r9, r1
    8d1a:	a1 f0       	breq	.+40     	; 0x8d44 <vfscanf+0x1f8>
    8d1c:	f4 01       	movw	r30, r8
    8d1e:	10 82       	st	Z, r1
    8d20:	11 c0       	rjmp	.+34     	; 0x8d44 <vfscanf+0x1f8>
    8d22:	00 62       	ori	r16, 0x20	; 32
    8d24:	03 c0       	rjmp	.+6      	; 0x8d2c <vfscanf+0x1e0>
    8d26:	00 61       	ori	r16, 0x10	; 16
    8d28:	01 c0       	rjmp	.+2      	; 0x8d2c <vfscanf+0x1e0>
    8d2a:	00 64       	ori	r16, 0x40	; 64
    8d2c:	20 2f       	mov	r18, r16
    8d2e:	a4 01       	movw	r20, r8
    8d30:	6f 2d       	mov	r22, r15
    8d32:	c6 01       	movw	r24, r12
    8d34:	a2 dd       	rcall	.-1212   	; 0x887a <conv_int>
    8d36:	81 11       	cpse	r24, r1
    8d38:	05 c0       	rjmp	.+10     	; 0x8d44 <vfscanf+0x1f8>
    8d3a:	f6 01       	movw	r30, r12
    8d3c:	83 81       	ldd	r24, Z+3	; 0x03
    8d3e:	80 73       	andi	r24, 0x30	; 48
    8d40:	29 f4       	brne	.+10     	; 0x8d4c <vfscanf+0x200>
    8d42:	06 c0       	rjmp	.+12     	; 0x8d50 <vfscanf+0x204>
    8d44:	00 fd       	sbrc	r16, 0
    8d46:	18 cf       	rjmp	.-464    	; 0x8b78 <vfscanf+0x2c>
    8d48:	53 94       	inc	r5
    8d4a:	16 cf       	rjmp	.-468    	; 0x8b78 <vfscanf+0x2c>
    8d4c:	55 20       	and	r5, r5
    8d4e:	19 f0       	breq	.+6      	; 0x8d56 <vfscanf+0x20a>
    8d50:	85 2d       	mov	r24, r5
    8d52:	90 e0       	ldi	r25, 0x00	; 0
    8d54:	02 c0       	rjmp	.+4      	; 0x8d5a <vfscanf+0x20e>
    8d56:	8f ef       	ldi	r24, 0xFF	; 255
    8d58:	9f ef       	ldi	r25, 0xFF	; 255
    8d5a:	df 91       	pop	r29
    8d5c:	cf 91       	pop	r28
    8d5e:	1f 91       	pop	r17
    8d60:	0f 91       	pop	r16
    8d62:	ff 90       	pop	r15
    8d64:	ef 90       	pop	r14
    8d66:	df 90       	pop	r13
    8d68:	cf 90       	pop	r12
    8d6a:	bf 90       	pop	r11
    8d6c:	af 90       	pop	r10
    8d6e:	9f 90       	pop	r9
    8d70:	8f 90       	pop	r8
    8d72:	7f 90       	pop	r7
    8d74:	6f 90       	pop	r6
    8d76:	5f 90       	pop	r5
    8d78:	08 95       	ret

00008d7a <strtod>:
    8d7a:	8f 92       	push	r8
    8d7c:	9f 92       	push	r9
    8d7e:	af 92       	push	r10
    8d80:	bf 92       	push	r11
    8d82:	cf 92       	push	r12
    8d84:	df 92       	push	r13
    8d86:	ef 92       	push	r14
    8d88:	ff 92       	push	r15
    8d8a:	0f 93       	push	r16
    8d8c:	1f 93       	push	r17
    8d8e:	cf 93       	push	r28
    8d90:	df 93       	push	r29
    8d92:	ec 01       	movw	r28, r24
    8d94:	6b 01       	movw	r12, r22
    8d96:	61 15       	cp	r22, r1
    8d98:	71 05       	cpc	r23, r1
    8d9a:	19 f0       	breq	.+6      	; 0x8da2 <strtod+0x28>
    8d9c:	fb 01       	movw	r30, r22
    8d9e:	91 83       	std	Z+1, r25	; 0x01
    8da0:	80 83       	st	Z, r24
    8da2:	7e 01       	movw	r14, r28
    8da4:	ff ef       	ldi	r31, 0xFF	; 255
    8da6:	ef 1a       	sub	r14, r31
    8da8:	ff 0a       	sbc	r15, r31
    8daa:	08 81       	ld	r16, Y
    8dac:	80 2f       	mov	r24, r16
    8dae:	90 e0       	ldi	r25, 0x00	; 0
    8db0:	4e dc       	rcall	.-1892   	; 0x864e <isspace>
    8db2:	89 2b       	or	r24, r25
    8db4:	11 f0       	breq	.+4      	; 0x8dba <strtod+0x40>
    8db6:	e7 01       	movw	r28, r14
    8db8:	f4 cf       	rjmp	.-24     	; 0x8da2 <strtod+0x28>
    8dba:	0d 32       	cpi	r16, 0x2D	; 45
    8dbc:	39 f4       	brne	.+14     	; 0x8dcc <strtod+0x52>
    8dbe:	7e 01       	movw	r14, r28
    8dc0:	82 e0       	ldi	r24, 0x02	; 2
    8dc2:	e8 0e       	add	r14, r24
    8dc4:	f1 1c       	adc	r15, r1
    8dc6:	09 81       	ldd	r16, Y+1	; 0x01
    8dc8:	11 e0       	ldi	r17, 0x01	; 1
    8dca:	08 c0       	rjmp	.+16     	; 0x8ddc <strtod+0x62>
    8dcc:	0b 32       	cpi	r16, 0x2B	; 43
    8dce:	29 f4       	brne	.+10     	; 0x8dda <strtod+0x60>
    8dd0:	7e 01       	movw	r14, r28
    8dd2:	92 e0       	ldi	r25, 0x02	; 2
    8dd4:	e9 0e       	add	r14, r25
    8dd6:	f1 1c       	adc	r15, r1
    8dd8:	09 81       	ldd	r16, Y+1	; 0x01
    8dda:	10 e0       	ldi	r17, 0x00	; 0
    8ddc:	e7 01       	movw	r28, r14
    8dde:	21 97       	sbiw	r28, 0x01	; 1
    8de0:	43 e0       	ldi	r20, 0x03	; 3
    8de2:	50 e0       	ldi	r21, 0x00	; 0
    8de4:	60 e3       	ldi	r22, 0x30	; 48
    8de6:	71 e0       	ldi	r23, 0x01	; 1
    8de8:	ce 01       	movw	r24, r28
    8dea:	2c d1       	rcall	.+600    	; 0x9044 <strncasecmp_P>
    8dec:	89 2b       	or	r24, r25
    8dee:	b9 f4       	brne	.+46     	; 0x8e1e <strtod+0xa4>
    8df0:	23 96       	adiw	r28, 0x03	; 3
    8df2:	45 e0       	ldi	r20, 0x05	; 5
    8df4:	50 e0       	ldi	r21, 0x00	; 0
    8df6:	6b e2       	ldi	r22, 0x2B	; 43
    8df8:	71 e0       	ldi	r23, 0x01	; 1
    8dfa:	ce 01       	movw	r24, r28
    8dfc:	23 d1       	rcall	.+582    	; 0x9044 <strncasecmp_P>
    8dfe:	89 2b       	or	r24, r25
    8e00:	09 f4       	brne	.+2      	; 0x8e04 <strtod+0x8a>
    8e02:	25 96       	adiw	r28, 0x05	; 5
    8e04:	c1 14       	cp	r12, r1
    8e06:	d1 04       	cpc	r13, r1
    8e08:	19 f0       	breq	.+6      	; 0x8e10 <strtod+0x96>
    8e0a:	f6 01       	movw	r30, r12
    8e0c:	d1 83       	std	Z+1, r29	; 0x01
    8e0e:	c0 83       	st	Z, r28
    8e10:	11 11       	cpse	r17, r1
    8e12:	f4 c0       	rjmp	.+488    	; 0x8ffc <strtod+0x282>
    8e14:	60 e0       	ldi	r22, 0x00	; 0
    8e16:	70 e0       	ldi	r23, 0x00	; 0
    8e18:	80 e8       	ldi	r24, 0x80	; 128
    8e1a:	9f e7       	ldi	r25, 0x7F	; 127
    8e1c:	f8 c0       	rjmp	.+496    	; 0x900e <strtod+0x294>
    8e1e:	43 e0       	ldi	r20, 0x03	; 3
    8e20:	50 e0       	ldi	r21, 0x00	; 0
    8e22:	68 e2       	ldi	r22, 0x28	; 40
    8e24:	71 e0       	ldi	r23, 0x01	; 1
    8e26:	ce 01       	movw	r24, r28
    8e28:	0d d1       	rcall	.+538    	; 0x9044 <strncasecmp_P>
    8e2a:	89 2b       	or	r24, r25
    8e2c:	59 f4       	brne	.+22     	; 0x8e44 <strtod+0xca>
    8e2e:	c1 14       	cp	r12, r1
    8e30:	d1 04       	cpc	r13, r1
    8e32:	09 f4       	brne	.+2      	; 0x8e36 <strtod+0xbc>
    8e34:	e8 c0       	rjmp	.+464    	; 0x9006 <strtod+0x28c>
    8e36:	f2 e0       	ldi	r31, 0x02	; 2
    8e38:	ef 0e       	add	r14, r31
    8e3a:	f1 1c       	adc	r15, r1
    8e3c:	f6 01       	movw	r30, r12
    8e3e:	f1 82       	std	Z+1, r15	; 0x01
    8e40:	e0 82       	st	Z, r14
    8e42:	e1 c0       	rjmp	.+450    	; 0x9006 <strtod+0x28c>
    8e44:	20 e0       	ldi	r18, 0x00	; 0
    8e46:	30 e0       	ldi	r19, 0x00	; 0
    8e48:	a9 01       	movw	r20, r18
    8e4a:	c0 e0       	ldi	r28, 0x00	; 0
    8e4c:	d0 e0       	ldi	r29, 0x00	; 0
    8e4e:	f7 01       	movw	r30, r14
    8e50:	60 ed       	ldi	r22, 0xD0	; 208
    8e52:	a6 2e       	mov	r10, r22
    8e54:	a0 0e       	add	r10, r16
    8e56:	89 e0       	ldi	r24, 0x09	; 9
    8e58:	8a 15       	cp	r24, r10
    8e5a:	28 f1       	brcs	.+74     	; 0x8ea6 <strtod+0x12c>
    8e5c:	91 2f       	mov	r25, r17
    8e5e:	92 60       	ori	r25, 0x02	; 2
    8e60:	b9 2e       	mov	r11, r25
    8e62:	81 2f       	mov	r24, r17
    8e64:	88 70       	andi	r24, 0x08	; 8
    8e66:	12 ff       	sbrs	r17, 2
    8e68:	04 c0       	rjmp	.+8      	; 0x8e72 <strtod+0xf8>
    8e6a:	81 11       	cpse	r24, r1
    8e6c:	23 c0       	rjmp	.+70     	; 0x8eb4 <strtod+0x13a>
    8e6e:	21 96       	adiw	r28, 0x01	; 1
    8e70:	21 c0       	rjmp	.+66     	; 0x8eb4 <strtod+0x13a>
    8e72:	81 11       	cpse	r24, r1
    8e74:	21 97       	sbiw	r28, 0x01	; 1
    8e76:	a5 e0       	ldi	r26, 0x05	; 5
    8e78:	b0 e0       	ldi	r27, 0x00	; 0
    8e7a:	78 d9       	rcall	.-3344   	; 0x816c <__muluhisi3>
    8e7c:	dc 01       	movw	r26, r24
    8e7e:	cb 01       	movw	r24, r22
    8e80:	88 0f       	add	r24, r24
    8e82:	99 1f       	adc	r25, r25
    8e84:	aa 1f       	adc	r26, r26
    8e86:	bb 1f       	adc	r27, r27
    8e88:	9c 01       	movw	r18, r24
    8e8a:	ad 01       	movw	r20, r26
    8e8c:	2a 0d       	add	r18, r10
    8e8e:	31 1d       	adc	r19, r1
    8e90:	41 1d       	adc	r20, r1
    8e92:	51 1d       	adc	r21, r1
    8e94:	28 39       	cpi	r18, 0x98	; 152
    8e96:	89 e9       	ldi	r24, 0x99	; 153
    8e98:	38 07       	cpc	r19, r24
    8e9a:	48 07       	cpc	r20, r24
    8e9c:	89 e1       	ldi	r24, 0x19	; 25
    8e9e:	58 07       	cpc	r21, r24
    8ea0:	48 f0       	brcs	.+18     	; 0x8eb4 <strtod+0x13a>
    8ea2:	16 60       	ori	r17, 0x06	; 6
    8ea4:	06 c0       	rjmp	.+12     	; 0x8eb2 <strtod+0x138>
    8ea6:	9e ef       	ldi	r25, 0xFE	; 254
    8ea8:	a9 12       	cpse	r10, r25
    8eaa:	0a c0       	rjmp	.+20     	; 0x8ec0 <strtod+0x146>
    8eac:	13 fd       	sbrc	r17, 3
    8eae:	40 c0       	rjmp	.+128    	; 0x8f30 <strtod+0x1b6>
    8eb0:	18 60       	ori	r17, 0x08	; 8
    8eb2:	b1 2e       	mov	r11, r17
    8eb4:	8f ef       	ldi	r24, 0xFF	; 255
    8eb6:	e8 1a       	sub	r14, r24
    8eb8:	f8 0a       	sbc	r15, r24
    8eba:	00 81       	ld	r16, Z
    8ebc:	1b 2d       	mov	r17, r11
    8ebe:	c7 cf       	rjmp	.-114    	; 0x8e4e <strtod+0xd4>
    8ec0:	80 2f       	mov	r24, r16
    8ec2:	8f 7d       	andi	r24, 0xDF	; 223
    8ec4:	85 34       	cpi	r24, 0x45	; 69
    8ec6:	a1 f5       	brne	.+104    	; 0x8f30 <strtod+0x1b6>
    8ec8:	80 81       	ld	r24, Z
    8eca:	8d 32       	cpi	r24, 0x2D	; 45
    8ecc:	11 f4       	brne	.+4      	; 0x8ed2 <strtod+0x158>
    8ece:	10 61       	ori	r17, 0x10	; 16
    8ed0:	06 c0       	rjmp	.+12     	; 0x8ede <strtod+0x164>
    8ed2:	8b 32       	cpi	r24, 0x2B	; 43
    8ed4:	21 f0       	breq	.+8      	; 0x8ede <strtod+0x164>
    8ed6:	31 96       	adiw	r30, 0x01	; 1
    8ed8:	61 e0       	ldi	r22, 0x01	; 1
    8eda:	70 e0       	ldi	r23, 0x00	; 0
    8edc:	04 c0       	rjmp	.+8      	; 0x8ee6 <strtod+0x16c>
    8ede:	81 81       	ldd	r24, Z+1	; 0x01
    8ee0:	32 96       	adiw	r30, 0x02	; 2
    8ee2:	62 e0       	ldi	r22, 0x02	; 2
    8ee4:	70 e0       	ldi	r23, 0x00	; 0
    8ee6:	80 53       	subi	r24, 0x30	; 48
    8ee8:	8a 30       	cpi	r24, 0x0A	; 10
    8eea:	18 f0       	brcs	.+6      	; 0x8ef2 <strtod+0x178>
    8eec:	e6 1b       	sub	r30, r22
    8eee:	f7 0b       	sbc	r31, r23
    8ef0:	1f c0       	rjmp	.+62     	; 0x8f30 <strtod+0x1b6>
    8ef2:	60 e0       	ldi	r22, 0x00	; 0
    8ef4:	70 e0       	ldi	r23, 0x00	; 0
    8ef6:	60 38       	cpi	r22, 0x80	; 128
    8ef8:	9c e0       	ldi	r25, 0x0C	; 12
    8efa:	79 07       	cpc	r23, r25
    8efc:	5c f4       	brge	.+22     	; 0x8f14 <strtod+0x19a>
    8efe:	db 01       	movw	r26, r22
    8f00:	aa 0f       	add	r26, r26
    8f02:	bb 1f       	adc	r27, r27
    8f04:	aa 0f       	add	r26, r26
    8f06:	bb 1f       	adc	r27, r27
    8f08:	6a 0f       	add	r22, r26
    8f0a:	7b 1f       	adc	r23, r27
    8f0c:	66 0f       	add	r22, r22
    8f0e:	77 1f       	adc	r23, r23
    8f10:	68 0f       	add	r22, r24
    8f12:	71 1d       	adc	r23, r1
    8f14:	31 96       	adiw	r30, 0x01	; 1
    8f16:	df 01       	movw	r26, r30
    8f18:	11 97       	sbiw	r26, 0x01	; 1
    8f1a:	8c 91       	ld	r24, X
    8f1c:	80 53       	subi	r24, 0x30	; 48
    8f1e:	8a 30       	cpi	r24, 0x0A	; 10
    8f20:	50 f3       	brcs	.-44     	; 0x8ef6 <strtod+0x17c>
    8f22:	14 ff       	sbrs	r17, 4
    8f24:	03 c0       	rjmp	.+6      	; 0x8f2c <strtod+0x1b2>
    8f26:	71 95       	neg	r23
    8f28:	61 95       	neg	r22
    8f2a:	71 09       	sbc	r23, r1
    8f2c:	c6 0f       	add	r28, r22
    8f2e:	d7 1f       	adc	r29, r23
    8f30:	11 ff       	sbrs	r17, 1
    8f32:	08 c0       	rjmp	.+16     	; 0x8f44 <strtod+0x1ca>
    8f34:	c1 14       	cp	r12, r1
    8f36:	d1 04       	cpc	r13, r1
    8f38:	29 f0       	breq	.+10     	; 0x8f44 <strtod+0x1ca>
    8f3a:	cf 01       	movw	r24, r30
    8f3c:	01 97       	sbiw	r24, 0x01	; 1
    8f3e:	f6 01       	movw	r30, r12
    8f40:	91 83       	std	Z+1, r25	; 0x01
    8f42:	80 83       	st	Z, r24
    8f44:	ca 01       	movw	r24, r20
    8f46:	b9 01       	movw	r22, r18
    8f48:	0e 94 0c 11 	call	0x2218	; 0x2218 <__floatunsisf>
    8f4c:	21 2f       	mov	r18, r17
    8f4e:	23 70       	andi	r18, 0x03	; 3
    8f50:	23 30       	cpi	r18, 0x03	; 3
    8f52:	19 f0       	breq	.+6      	; 0x8f5a <strtod+0x1e0>
    8f54:	4b 01       	movw	r8, r22
    8f56:	5c 01       	movw	r10, r24
    8f58:	06 c0       	rjmp	.+12     	; 0x8f66 <strtod+0x1ec>
    8f5a:	4b 01       	movw	r8, r22
    8f5c:	5c 01       	movw	r10, r24
    8f5e:	b7 fa       	bst	r11, 7
    8f60:	b0 94       	com	r11
    8f62:	b7 f8       	bld	r11, 7
    8f64:	b0 94       	com	r11
    8f66:	20 e0       	ldi	r18, 0x00	; 0
    8f68:	30 e0       	ldi	r19, 0x00	; 0
    8f6a:	a9 01       	movw	r20, r18
    8f6c:	c5 01       	movw	r24, r10
    8f6e:	b4 01       	movw	r22, r8
    8f70:	0e 94 6f 10 	call	0x20de	; 0x20de <__cmpsf2>
    8f74:	88 23       	and	r24, r24
    8f76:	09 f4       	brne	.+2      	; 0x8f7a <strtod+0x200>
    8f78:	3e c0       	rjmp	.+124    	; 0x8ff6 <strtod+0x27c>
    8f7a:	d7 ff       	sbrs	r29, 7
    8f7c:	06 c0       	rjmp	.+12     	; 0x8f8a <strtod+0x210>
    8f7e:	d1 95       	neg	r29
    8f80:	c1 95       	neg	r28
    8f82:	d1 09       	sbc	r29, r1
    8f84:	07 e4       	ldi	r16, 0x47	; 71
    8f86:	11 e0       	ldi	r17, 0x01	; 1
    8f88:	02 c0       	rjmp	.+4      	; 0x8f8e <strtod+0x214>
    8f8a:	0f e5       	ldi	r16, 0x5F	; 95
    8f8c:	11 e0       	ldi	r17, 0x01	; 1
    8f8e:	68 01       	movw	r12, r16
    8f90:	f8 e1       	ldi	r31, 0x18	; 24
    8f92:	cf 1a       	sub	r12, r31
    8f94:	d1 08       	sbc	r13, r1
    8f96:	90 e2       	ldi	r25, 0x20	; 32
    8f98:	e9 2e       	mov	r14, r25
    8f9a:	f1 2c       	mov	r15, r1
    8f9c:	ce 15       	cp	r28, r14
    8f9e:	df 05       	cpc	r29, r15
    8fa0:	74 f0       	brlt	.+28     	; 0x8fbe <strtod+0x244>
    8fa2:	f8 01       	movw	r30, r16
    8fa4:	25 91       	lpm	r18, Z+
    8fa6:	35 91       	lpm	r19, Z+
    8fa8:	45 91       	lpm	r20, Z+
    8faa:	54 91       	lpm	r21, Z
    8fac:	c5 01       	movw	r24, r10
    8fae:	b4 01       	movw	r22, r8
    8fb0:	0e 94 c2 11 	call	0x2384	; 0x2384 <__mulsf3>
    8fb4:	4b 01       	movw	r8, r22
    8fb6:	5c 01       	movw	r10, r24
    8fb8:	ce 19       	sub	r28, r14
    8fba:	df 09       	sbc	r29, r15
    8fbc:	ef cf       	rjmp	.-34     	; 0x8f9c <strtod+0x222>
    8fbe:	04 50       	subi	r16, 0x04	; 4
    8fc0:	11 09       	sbc	r17, r1
    8fc2:	f5 94       	asr	r15
    8fc4:	e7 94       	ror	r14
    8fc6:	0c 15       	cp	r16, r12
    8fc8:	1d 05       	cpc	r17, r13
    8fca:	41 f7       	brne	.-48     	; 0x8f9c <strtod+0x222>
    8fcc:	8a 2d       	mov	r24, r10
    8fce:	88 0f       	add	r24, r24
    8fd0:	8b 2d       	mov	r24, r11
    8fd2:	88 1f       	adc	r24, r24
    8fd4:	8f 3f       	cpi	r24, 0xFF	; 255
    8fd6:	49 f0       	breq	.+18     	; 0x8fea <strtod+0x270>
    8fd8:	20 e0       	ldi	r18, 0x00	; 0
    8fda:	30 e0       	ldi	r19, 0x00	; 0
    8fdc:	a9 01       	movw	r20, r18
    8fde:	c5 01       	movw	r24, r10
    8fe0:	b4 01       	movw	r22, r8
    8fe2:	0e 94 6f 10 	call	0x20de	; 0x20de <__cmpsf2>
    8fe6:	81 11       	cpse	r24, r1
    8fe8:	06 c0       	rjmp	.+12     	; 0x8ff6 <strtod+0x27c>
    8fea:	82 e2       	ldi	r24, 0x22	; 34
    8fec:	90 e0       	ldi	r25, 0x00	; 0
    8fee:	90 93 a5 12 	sts	0x12A5, r25	; 0x8012a5 <errno+0x1>
    8ff2:	80 93 a4 12 	sts	0x12A4, r24	; 0x8012a4 <errno>
    8ff6:	c5 01       	movw	r24, r10
    8ff8:	b4 01       	movw	r22, r8
    8ffa:	09 c0       	rjmp	.+18     	; 0x900e <strtod+0x294>
    8ffc:	60 e0       	ldi	r22, 0x00	; 0
    8ffe:	70 e0       	ldi	r23, 0x00	; 0
    9000:	80 e8       	ldi	r24, 0x80	; 128
    9002:	9f ef       	ldi	r25, 0xFF	; 255
    9004:	04 c0       	rjmp	.+8      	; 0x900e <strtod+0x294>
    9006:	60 e0       	ldi	r22, 0x00	; 0
    9008:	70 e0       	ldi	r23, 0x00	; 0
    900a:	80 ec       	ldi	r24, 0xC0	; 192
    900c:	9f e7       	ldi	r25, 0x7F	; 127
    900e:	df 91       	pop	r29
    9010:	cf 91       	pop	r28
    9012:	1f 91       	pop	r17
    9014:	0f 91       	pop	r16
    9016:	ff 90       	pop	r15
    9018:	ef 90       	pop	r14
    901a:	df 90       	pop	r13
    901c:	cf 90       	pop	r12
    901e:	bf 90       	pop	r11
    9020:	af 90       	pop	r10
    9022:	9f 90       	pop	r9
    9024:	8f 90       	pop	r8
    9026:	08 95       	ret

00009028 <__ctype_isfalse>:
    9028:	99 27       	eor	r25, r25
    902a:	88 27       	eor	r24, r24

0000902c <__ctype_istrue>:
    902c:	08 95       	ret

0000902e <strchr_P>:
    902e:	fc 01       	movw	r30, r24
    9030:	05 90       	lpm	r0, Z+
    9032:	06 16       	cp	r0, r22
    9034:	21 f0       	breq	.+8      	; 0x903e <strchr_P+0x10>
    9036:	00 20       	and	r0, r0
    9038:	d9 f7       	brne	.-10     	; 0x9030 <strchr_P+0x2>
    903a:	c0 01       	movw	r24, r0
    903c:	08 95       	ret
    903e:	31 97       	sbiw	r30, 0x01	; 1
    9040:	cf 01       	movw	r24, r30
    9042:	08 95       	ret

00009044 <strncasecmp_P>:
    9044:	fb 01       	movw	r30, r22
    9046:	dc 01       	movw	r26, r24
    9048:	41 50       	subi	r20, 0x01	; 1
    904a:	50 40       	sbci	r21, 0x00	; 0
    904c:	88 f0       	brcs	.+34     	; 0x9070 <strncasecmp_P+0x2c>
    904e:	8d 91       	ld	r24, X+
    9050:	81 34       	cpi	r24, 0x41	; 65
    9052:	1c f0       	brlt	.+6      	; 0x905a <strncasecmp_P+0x16>
    9054:	8b 35       	cpi	r24, 0x5B	; 91
    9056:	0c f4       	brge	.+2      	; 0x905a <strncasecmp_P+0x16>
    9058:	80 5e       	subi	r24, 0xE0	; 224
    905a:	65 91       	lpm	r22, Z+
    905c:	61 34       	cpi	r22, 0x41	; 65
    905e:	1c f0       	brlt	.+6      	; 0x9066 <strncasecmp_P+0x22>
    9060:	6b 35       	cpi	r22, 0x5B	; 91
    9062:	0c f4       	brge	.+2      	; 0x9066 <strncasecmp_P+0x22>
    9064:	60 5e       	subi	r22, 0xE0	; 224
    9066:	86 1b       	sub	r24, r22
    9068:	61 11       	cpse	r22, r1
    906a:	71 f3       	breq	.-36     	; 0x9048 <strncasecmp_P+0x4>
    906c:	99 0b       	sbc	r25, r25
    906e:	08 95       	ret
    9070:	88 1b       	sub	r24, r24
    9072:	fc cf       	rjmp	.-8      	; 0x906c <strncasecmp_P+0x28>

00009074 <fgetc>:
    9074:	cf 93       	push	r28
    9076:	df 93       	push	r29
    9078:	ec 01       	movw	r28, r24
    907a:	2b 81       	ldd	r18, Y+3	; 0x03
    907c:	20 ff       	sbrs	r18, 0
    907e:	33 c0       	rjmp	.+102    	; 0x90e6 <fgetc+0x72>
    9080:	26 ff       	sbrs	r18, 6
    9082:	0a c0       	rjmp	.+20     	; 0x9098 <fgetc+0x24>
    9084:	2f 7b       	andi	r18, 0xBF	; 191
    9086:	2b 83       	std	Y+3, r18	; 0x03
    9088:	8e 81       	ldd	r24, Y+6	; 0x06
    908a:	9f 81       	ldd	r25, Y+7	; 0x07
    908c:	01 96       	adiw	r24, 0x01	; 1
    908e:	9f 83       	std	Y+7, r25	; 0x07
    9090:	8e 83       	std	Y+6, r24	; 0x06
    9092:	8a 81       	ldd	r24, Y+2	; 0x02
    9094:	90 e0       	ldi	r25, 0x00	; 0
    9096:	29 c0       	rjmp	.+82     	; 0x90ea <fgetc+0x76>
    9098:	22 ff       	sbrs	r18, 2
    909a:	0f c0       	rjmp	.+30     	; 0x90ba <fgetc+0x46>
    909c:	e8 81       	ld	r30, Y
    909e:	f9 81       	ldd	r31, Y+1	; 0x01
    90a0:	80 81       	ld	r24, Z
    90a2:	08 2e       	mov	r0, r24
    90a4:	00 0c       	add	r0, r0
    90a6:	99 0b       	sbc	r25, r25
    90a8:	00 97       	sbiw	r24, 0x00	; 0
    90aa:	19 f4       	brne	.+6      	; 0x90b2 <fgetc+0x3e>
    90ac:	20 62       	ori	r18, 0x20	; 32
    90ae:	2b 83       	std	Y+3, r18	; 0x03
    90b0:	1a c0       	rjmp	.+52     	; 0x90e6 <fgetc+0x72>
    90b2:	31 96       	adiw	r30, 0x01	; 1
    90b4:	f9 83       	std	Y+1, r31	; 0x01
    90b6:	e8 83       	st	Y, r30
    90b8:	0e c0       	rjmp	.+28     	; 0x90d6 <fgetc+0x62>
    90ba:	ea 85       	ldd	r30, Y+10	; 0x0a
    90bc:	fb 85       	ldd	r31, Y+11	; 0x0b
    90be:	19 95       	eicall
    90c0:	97 ff       	sbrs	r25, 7
    90c2:	09 c0       	rjmp	.+18     	; 0x90d6 <fgetc+0x62>
    90c4:	2b 81       	ldd	r18, Y+3	; 0x03
    90c6:	01 96       	adiw	r24, 0x01	; 1
    90c8:	11 f0       	breq	.+4      	; 0x90ce <fgetc+0x5a>
    90ca:	80 e2       	ldi	r24, 0x20	; 32
    90cc:	01 c0       	rjmp	.+2      	; 0x90d0 <fgetc+0x5c>
    90ce:	80 e1       	ldi	r24, 0x10	; 16
    90d0:	82 2b       	or	r24, r18
    90d2:	8b 83       	std	Y+3, r24	; 0x03
    90d4:	08 c0       	rjmp	.+16     	; 0x90e6 <fgetc+0x72>
    90d6:	2e 81       	ldd	r18, Y+6	; 0x06
    90d8:	3f 81       	ldd	r19, Y+7	; 0x07
    90da:	2f 5f       	subi	r18, 0xFF	; 255
    90dc:	3f 4f       	sbci	r19, 0xFF	; 255
    90de:	3f 83       	std	Y+7, r19	; 0x07
    90e0:	2e 83       	std	Y+6, r18	; 0x06
    90e2:	99 27       	eor	r25, r25
    90e4:	02 c0       	rjmp	.+4      	; 0x90ea <fgetc+0x76>
    90e6:	8f ef       	ldi	r24, 0xFF	; 255
    90e8:	9f ef       	ldi	r25, 0xFF	; 255
    90ea:	df 91       	pop	r29
    90ec:	cf 91       	pop	r28
    90ee:	08 95       	ret

000090f0 <ungetc>:
    90f0:	fb 01       	movw	r30, r22
    90f2:	23 81       	ldd	r18, Z+3	; 0x03
    90f4:	20 ff       	sbrs	r18, 0
    90f6:	12 c0       	rjmp	.+36     	; 0x911c <ungetc+0x2c>
    90f8:	26 fd       	sbrc	r18, 6
    90fa:	10 c0       	rjmp	.+32     	; 0x911c <ungetc+0x2c>
    90fc:	8f 3f       	cpi	r24, 0xFF	; 255
    90fe:	3f ef       	ldi	r19, 0xFF	; 255
    9100:	93 07       	cpc	r25, r19
    9102:	61 f0       	breq	.+24     	; 0x911c <ungetc+0x2c>
    9104:	82 83       	std	Z+2, r24	; 0x02
    9106:	2f 7d       	andi	r18, 0xDF	; 223
    9108:	20 64       	ori	r18, 0x40	; 64
    910a:	23 83       	std	Z+3, r18	; 0x03
    910c:	26 81       	ldd	r18, Z+6	; 0x06
    910e:	37 81       	ldd	r19, Z+7	; 0x07
    9110:	21 50       	subi	r18, 0x01	; 1
    9112:	31 09       	sbc	r19, r1
    9114:	37 83       	std	Z+7, r19	; 0x07
    9116:	26 83       	std	Z+6, r18	; 0x06
    9118:	99 27       	eor	r25, r25
    911a:	08 95       	ret
    911c:	8f ef       	ldi	r24, 0xFF	; 255
    911e:	9f ef       	ldi	r25, 0xFF	; 255
    9120:	08 95       	ret

00009122 <_exit>:
    9122:	f8 94       	cli

00009124 <__stop_program>:
    9124:	ff cf       	rjmp	.-2      	; 0x9124 <__stop_program>
