
Occupancy_sketch.elf:     file format elf32-avr

Sections:
Idx Name          Size      VMA       LMA       File off  Algn
  0 .data         000002b0  00800200  00005bda  00005c6e  2**0
                  CONTENTS, ALLOC, LOAD, DATA
  1 .text         00005bda  00000000  00000000  00000094  2**1
                  CONTENTS, ALLOC, LOAD, READONLY, CODE
  2 .bss          000008ea  008004b0  008004b0  00005f1e  2**0
                  ALLOC
  3 .comment      00000030  00000000  00000000  00005f1e  2**0
                  CONTENTS, READONLY
  4 .note.gnu.avr.deviceinfo 00000040  00000000  00000000  00005f50  2**2
                  CONTENTS, READONLY
  5 .debug_aranges 00001618  00000000  00000000  00005f90  2**0
                  CONTENTS, READONLY, DEBUGGING
  6 .debug_info   0003b5fa  00000000  00000000  000075a8  2**0
                  CONTENTS, READONLY, DEBUGGING
  7 .debug_abbrev 00007ec0  00000000  00000000  00042ba2  2**0
                  CONTENTS, READONLY, DEBUGGING
  8 .debug_line   0000e2d4  00000000  00000000  0004aa62  2**0
                  CONTENTS, READONLY, DEBUGGING
  9 .debug_frame  000060d4  00000000  00000000  00058d38  2**2
                  CONTENTS, READONLY, DEBUGGING
 10 .debug_str    00009677  00000000  00000000  0005ee0c  2**0
                  CONTENTS, READONLY, DEBUGGING
 11 .debug_loc    00027677  00000000  00000000  00068483  2**0
                  CONTENTS, READONLY, DEBUGGING
 12 .debug_ranges 000019a0  00000000  00000000  0008fafa  2**0
                  CONTENTS, READONLY, DEBUGGING

Disassembly of section .text:

00000000 <__vectors>:
       0:	b5 c3       	rjmp	.+1898   	; 0x76c <__ctors_end>
       2:	00 00       	nop
       4:	0c 94 24 1b 	jmp	0x3648	; 0x3648 <__vector_1>
       8:	0c 94 4f 1b 	jmp	0x369e	; 0x369e <__vector_2>
       c:	0c 94 7a 1b 	jmp	0x36f4	; 0x36f4 <__vector_3>
      10:	0c 94 a5 1b 	jmp	0x374a	; 0x374a <__vector_4>
      14:	0c 94 d0 1b 	jmp	0x37a0	; 0x37a0 <__vector_5>
      18:	0c 94 fb 1b 	jmp	0x37f6	; 0x37f6 <__vector_6>
      1c:	0c 94 26 1c 	jmp	0x384c	; 0x384c <__vector_7>
      20:	0c 94 51 1c 	jmp	0x38a2	; 0x38a2 <__vector_8>
      24:	0c 94 9c 18 	jmp	0x3138	; 0x3138 <__vector_10>
      28:	0c 94 9c 18 	jmp	0x3138	; 0x3138 <__vector_10>
      2c:	0c 94 9c 18 	jmp	0x3138	; 0x3138 <__vector_10>
      30:	ce c3       	rjmp	.+1948   	; 0x7ce <__bad_interrupt>
      32:	00 00       	nop
      34:	cc c3       	rjmp	.+1944   	; 0x7ce <__bad_interrupt>
      36:	00 00       	nop
      38:	ca c3       	rjmp	.+1940   	; 0x7ce <__bad_interrupt>
      3a:	00 00       	nop
      3c:	c8 c3       	rjmp	.+1936   	; 0x7ce <__bad_interrupt>
      3e:	00 00       	nop
      40:	c6 c3       	rjmp	.+1932   	; 0x7ce <__bad_interrupt>
      42:	00 00       	nop
      44:	c4 c3       	rjmp	.+1928   	; 0x7ce <__bad_interrupt>
      46:	00 00       	nop
      48:	c2 c3       	rjmp	.+1924   	; 0x7ce <__bad_interrupt>
      4a:	00 00       	nop
      4c:	c0 c3       	rjmp	.+1920   	; 0x7ce <__bad_interrupt>
      4e:	00 00       	nop
      50:	be c3       	rjmp	.+1916   	; 0x7ce <__bad_interrupt>
      52:	00 00       	nop
      54:	bc c3       	rjmp	.+1912   	; 0x7ce <__bad_interrupt>
      56:	00 00       	nop
      58:	ba c3       	rjmp	.+1908   	; 0x7ce <__bad_interrupt>
      5a:	00 00       	nop
      5c:	0c 94 b1 10 	jmp	0x2162	; 0x2162 <__vector_23>
      60:	b6 c3       	rjmp	.+1900   	; 0x7ce <__bad_interrupt>
      62:	00 00       	nop
      64:	0c 94 52 0d 	jmp	0x1aa4	; 0x1aa4 <__vector_25>
      68:	0c 94 88 0d 	jmp	0x1b10	; 0x1b10 <__vector_26>
      6c:	b0 c3       	rjmp	.+1888   	; 0x7ce <__bad_interrupt>
      6e:	00 00       	nop
      70:	ae c3       	rjmp	.+1884   	; 0x7ce <__bad_interrupt>
      72:	00 00       	nop
      74:	ac c3       	rjmp	.+1880   	; 0x7ce <__bad_interrupt>
      76:	00 00       	nop
      78:	aa c3       	rjmp	.+1876   	; 0x7ce <__bad_interrupt>
      7a:	00 00       	nop
      7c:	a8 c3       	rjmp	.+1872   	; 0x7ce <__bad_interrupt>
      7e:	00 00       	nop
      80:	a6 c3       	rjmp	.+1868   	; 0x7ce <__bad_interrupt>
      82:	00 00       	nop
      84:	a4 c3       	rjmp	.+1864   	; 0x7ce <__bad_interrupt>
      86:	00 00       	nop
      88:	a2 c3       	rjmp	.+1860   	; 0x7ce <__bad_interrupt>
      8a:	00 00       	nop
      8c:	a0 c3       	rjmp	.+1856   	; 0x7ce <__bad_interrupt>
      8e:	00 00       	nop
      90:	0c 94 e7 0d 	jmp	0x1bce	; 0x1bce <__vector_36>
      94:	0c 94 1d 0e 	jmp	0x1c3a	; 0x1c3a <__vector_37>
      98:	9a c3       	rjmp	.+1844   	; 0x7ce <__bad_interrupt>
      9a:	00 00       	nop
      9c:	0c 94 01 2a 	jmp	0x5402	; 0x5402 <__vector_39>
      a0:	96 c3       	rjmp	.+1836   	; 0x7ce <__bad_interrupt>
      a2:	00 00       	nop
      a4:	94 c3       	rjmp	.+1832   	; 0x7ce <__bad_interrupt>
      a6:	00 00       	nop
      a8:	92 c3       	rjmp	.+1828   	; 0x7ce <__bad_interrupt>
      aa:	00 00       	nop
      ac:	90 c3       	rjmp	.+1824   	; 0x7ce <__bad_interrupt>
      ae:	00 00       	nop
      b0:	8e c3       	rjmp	.+1820   	; 0x7ce <__bad_interrupt>
      b2:	00 00       	nop
      b4:	8c c3       	rjmp	.+1816   	; 0x7ce <__bad_interrupt>
      b6:	00 00       	nop
      b8:	8a c3       	rjmp	.+1812   	; 0x7ce <__bad_interrupt>
      ba:	00 00       	nop
      bc:	88 c3       	rjmp	.+1808   	; 0x7ce <__bad_interrupt>
      be:	00 00       	nop
      c0:	86 c3       	rjmp	.+1804   	; 0x7ce <__bad_interrupt>
      c2:	00 00       	nop
      c4:	84 c3       	rjmp	.+1800   	; 0x7ce <__bad_interrupt>
      c6:	00 00       	nop
      c8:	82 c3       	rjmp	.+1796   	; 0x7ce <__bad_interrupt>
      ca:	00 00       	nop
      cc:	0c 94 7c 0e 	jmp	0x1cf8	; 0x1cf8 <__vector_51>
      d0:	0c 94 b2 0e 	jmp	0x1d64	; 0x1d64 <__vector_52>
      d4:	7c c3       	rjmp	.+1784   	; 0x7ce <__bad_interrupt>
      d6:	00 00       	nop
      d8:	7a c3       	rjmp	.+1780   	; 0x7ce <__bad_interrupt>
      da:	00 00       	nop
      dc:	78 c3       	rjmp	.+1776   	; 0x7ce <__bad_interrupt>
      de:	00 00       	nop
      e0:	76 c3       	rjmp	.+1772   	; 0x7ce <__bad_interrupt>
      e2:	00 00       	nop
      e4:	16 07       	cpc	r17, r22
      e6:	85 07       	cpc	r24, r21
      e8:	c8 07       	cpc	r28, r24
      ea:	a8 08       	sbc	r10, r8
      ec:	a8 08       	sbc	r10, r8
      ee:	e6 07       	cpc	r30, r22
      f0:	1c 08       	sbc	r1, r12
      f2:	48 08       	sbc	r4, r8
      f4:	69 08       	sbc	r6, r9
      f6:	92 08       	sbc	r9, r2
      f8:	13 12       	cpse	r1, r19
      fa:	16 12       	cpse	r1, r22
      fc:	05 12       	cpse	r0, r21
      fe:	09 12       	cpse	r0, r25
     100:	0f 12       	cpse	r0, r31
     102:	4d 12       	cpse	r4, r29
     104:	1a 12       	cpse	r1, r26
     106:	1e 12       	cpse	r1, r30
     108:	24 12       	cpse	r2, r20
     10a:	28 12       	cpse	r2, r24
     10c:	2c 12       	cpse	r2, r28
     10e:	32 12       	cpse	r3, r18
     110:	36 12       	cpse	r3, r22
     112:	3a 12       	cpse	r3, r26
     114:	4d 12       	cpse	r4, r29
     116:	40 12       	cpse	r4, r16
     118:	44 12       	cpse	r4, r20
     11a:	48 12       	cpse	r4, r24

0000011c <__trampolines_end>:
     11c:	48 65       	ori	r20, 0x58	; 88
     11e:	6c 6c       	ori	r22, 0xCC	; 204
     120:	6f 20       	and	r6, r15
     122:	57 6f       	ori	r21, 0xF7	; 247
     124:	72 6c       	ori	r23, 0xC2	; 194
     126:	64 21       	and	r22, r4
	...

00000129 <digital_pin_to_timer_PGM>:
     129:	00 00 0a 0b 02 09 0c 0d 0e 08 07 03 04 01 00 00     ................
	...
     155:	12 11 10 00 00 00 00 00 00 00 00 00 00 00 00 00     ................
	...

0000016f <digital_pin_to_bit_mask_PGM>:
     16f:	01 02 10 20 20 08 08 10 20 40 10 20 40 80 02 01     ...  ... @. @...
     17f:	02 01 08 04 02 01 01 02 04 08 10 20 40 80 80 40     ........... @..@
     18f:	20 10 08 04 02 01 80 04 02 01 80 40 20 10 08 04      ..........@ ...
     19f:	02 01 08 04 02 01 01 02 04 08 10 20 40 80 01 02     ........... @...
     1af:	04 08 10 20 40 80                                   ... @.

000001b5 <digital_pin_to_port_PGM>:
     1b5:	05 05 05 05 07 05 08 08 08 08 02 02 02 02 0a 0a     ................
     1c5:	08 08 04 04 04 04 01 01 01 01 01 01 01 01 03 03     ................
     1d5:	03 03 03 03 03 03 04 07 07 07 0c 0c 0c 0c 0c 0c     ................
     1e5:	0c 0c 02 02 02 02 06 06 06 06 06 06 06 06 0b 0b     ................
     1f5:	0b 0b 0b 0b 0b 0b                                   ......

000001fb <port_to_input_PGM>:
     1fb:	00 00 20 00 23 00 26 00 29 00 2c 00 2f 00 32 00     .. .#.&.).,./.2.
     20b:	00 01 00 00 03 01 06 01 09 01                       ..........

00000215 <port_to_output_PGM>:
     215:	00 00 22 00 25 00 28 00 2b 00 2e 00 31 00 34 00     ..".%.(.+...1.4.
     225:	02 01 00 00 05 01 08 01 0b 01                       ..........

0000022f <port_to_mode_PGM>:
     22f:	00 00 21 00 24 00 27 00 2a 00 2d 00 30 00 33 00     ..!.$.'.*.-.0.3.
     23f:	01 01 00 00 04 01 07 01 0a 01                       ..........

00000249 <_ZZN13Adafruit_FONAC4EaE3__c_1>:
     249:	4f 4b 00                                            OK.

0000024c <_ZZN13Adafruit_FONAC4EaE3__c_0>:
     24c:	46 4f 4e 41 00                                      FONA.

00000251 <_ZZN13Adafruit_FONAC4EaE3__c>:
     251:	46 4f 4e 41 6e 65 74 00                             FONAnet.

00000259 <_ZL4font>:
     259:	00 00 00 00 00 3e 5b 4f 5b 3e 3e 6b 4f 6b 3e 1c     .....>[O[>>kOk>.
     269:	3e 7c 3e 1c 18 3c 7e 3c 18 1c 57 7d 57 1c 1c 5e     >|>..<~<..W}W..^
     279:	7f 5e 1c 00 18 3c 18 00 ff e7 c3 e7 ff 00 18 24     .^...<.........$
     289:	18 00 ff e7 db e7 ff 30 48 3a 06 0e 26 29 79 29     .......0H:..&)y)
     299:	26 40 7f 05 05 07 40 7f 05 25 3f 5a 3c e7 3c 5a     &@....@..%?Z<.<Z
     2a9:	7f 3e 1c 1c 08 08 1c 1c 3e 7f 14 22 7f 22 14 5f     .>......>.."."._
     2b9:	5f 00 5f 5f 06 09 7f 01 7f 00 66 89 95 6a 60 60     _.__......f..j``
     2c9:	60 60 60 94 a2 ff a2 94 08 04 7e 04 08 10 20 7e     ```.......~... ~
     2d9:	20 10 08 08 2a 1c 08 08 1c 2a 08 08 1e 10 10 10      ...*....*......
     2e9:	10 0c 1e 0c 1e 0c 30 38 3e 38 30 06 0e 3e 0e 06     ......08>80..>..
     2f9:	00 00 00 00 00 00 00 5f 00 00 00 07 00 07 00 14     ......._........
     309:	7f 14 7f 14 24 2a 7f 2a 12 23 13 08 64 62 36 49     ....$*.*.#..db6I
     319:	56 20 50 00 08 07 03 00 00 1c 22 41 00 00 41 22     V P......."A..A"
     329:	1c 00 2a 1c 7f 1c 2a 08 08 3e 08 08 00 80 70 30     ..*...*..>....p0
     339:	00 08 08 08 08 08 00 00 60 60 00 20 10 08 04 02     ........``. ....
     349:	3e 51 49 45 3e 00 42 7f 40 00 72 49 49 49 46 21     >QIE>.B.@.rIIIF!
     359:	41 49 4d 33 18 14 12 7f 10 27 45 45 45 39 3c 4a     AIM3.....'EEE9<J
     369:	49 49 31 41 21 11 09 07 36 49 49 49 36 46 49 49     II1A!...6III6FII
     379:	29 1e 00 00 14 00 00 00 40 34 00 00 00 08 14 22     ).......@4....."
     389:	41 14 14 14 14 14 00 41 22 14 08 02 01 59 09 06     A......A"....Y..
     399:	3e 41 5d 59 4e 7c 12 11 12 7c 7f 49 49 49 36 3e     >A]YN|...|.III6>
     3a9:	41 41 41 22 7f 41 41 41 3e 7f 49 49 49 41 7f 09     AAA".AAA>.IIIA..
     3b9:	09 09 01 3e 41 41 51 73 7f 08 08 08 7f 00 41 7f     ...>AAQs......A.
     3c9:	41 00 20 40 41 3f 01 7f 08 14 22 41 7f 40 40 40     A. @A?...."A.@@@
     3d9:	40 7f 02 1c 02 7f 7f 04 08 10 7f 3e 41 41 41 3e     @..........>AAA>
     3e9:	7f 09 09 09 06 3e 41 51 21 5e 7f 09 19 29 46 26     .....>AQ!^...)F&
     3f9:	49 49 49 32 03 01 7f 01 03 3f 40 40 40 3f 1f 20     III2.....?@@@?. 
     409:	40 20 1f 3f 40 38 40 3f 63 14 08 14 63 03 04 78     @ .?@8@?c...c..x
     419:	04 03 61 59 49 4d 43 00 7f 41 41 41 02 04 08 10     ..aYIMC..AAA....
     429:	20 00 41 41 41 7f 04 02 01 02 04 40 40 40 40 40      .AAA......@@@@@
     439:	00 03 07 08 00 20 54 54 78 40 7f 28 44 44 38 38     ..... TTx@.(DD88
     449:	44 44 44 28 38 44 44 28 7f 38 54 54 54 18 00 08     DDD(8DD(.8TTT...
     459:	7e 09 02 18 a4 a4 9c 78 7f 08 04 04 78 00 44 7d     ~......x....x.D}
     469:	40 00 20 40 40 3d 00 7f 10 28 44 00 00 41 7f 40     @. @@=...(D..A.@
     479:	00 7c 04 78 04 78 7c 08 04 04 78 38 44 44 44 38     .|.x.x|...x8DDD8
     489:	fc 18 24 24 18 18 24 24 18 fc 7c 08 04 04 08 48     ..$$..$$..|....H
     499:	54 54 54 24 04 04 3f 44 24 3c 40 40 20 7c 1c 20     TTT$..?D$<@@ |. 
     4a9:	40 20 1c 3c 40 30 40 3c 44 28 10 28 44 4c 90 90     @ .<@0@<D(.(DL..
     4b9:	90 7c 44 64 54 4c 44 00 08 36 41 00 00 00 77 00     .|DdTLD..6A...w.
     4c9:	00 00 41 36 08 00 02 01 02 04 02 3c 26 23 26 3c     ..A6.......<&#&<
     4d9:	1e a1 a1 61 12 3a 40 40 20 7a 38 54 54 55 59 21     ...a.:@@ z8TTUY!
     4e9:	55 55 79 41 22 54 54 78 42 21 55 54 78 40 20 54     UUyA"TTxB!UTx@ T
     4f9:	55 79 40 0c 1e 52 72 12 39 55 55 55 59 39 54 54     Uy@..Rr.9UUUY9TT
     509:	54 59 39 55 54 54 58 00 00 45 7c 41 00 02 45 7d     TY9UTTX..E|A..E}
     519:	42 00 01 45 7c 40 7d 12 11 12 7d f0 28 25 28 f0     B..E|@}...}.(%(.
     529:	7c 54 55 45 00 20 54 54 7c 54 7c 0a 09 7f 49 32     |TUE. TT|T|...I2
     539:	49 49 49 32 3a 44 44 44 3a 32 4a 48 48 30 3a 41     III2:DDD:2JHH0:A
     549:	41 21 7a 3a 42 40 20 78 00 9d a0 a0 7d 3d 42 42     A!z:B@ x....}=BB
     559:	42 3d 3d 40 40 40 3d 3c 24 ff 24 24 48 7e 49 43     B==@@@=<$.$$H~IC
     569:	66 2b 2f fc 2f 2b ff 09 29 f6 20 c0 88 7e 09 03     f+/./+..). ..~..
     579:	20 54 54 79 41 00 00 44 7d 41 30 48 48 4a 32 38      TTyA..D}A0HHJ28
     589:	40 40 22 7a 00 7a 0a 0a 72 7d 0d 19 31 7d 26 29     @@"z.z..r}..1}&)
     599:	29 2f 28 26 29 29 29 26 30 48 4d 40 20 38 08 08     )/(&)))&0HM@ 8..
     5a9:	08 08 08 08 08 08 38 2f 10 c8 ac ba 2f 10 28 34     ......8/..../.(4
     5b9:	fa 00 00 7b 00 00 08 14 2a 14 22 22 14 2a 14 08     ...{....*."".*..
     5c9:	55 00 55 00 55 aa 55 aa 55 aa ff 55 ff 55 ff 00     U.U.U.U.U..U.U..
     5d9:	00 00 ff 00 10 10 10 ff 00 14 14 14 ff 00 10 10     ................
     5e9:	ff 00 ff 10 10 f0 10 f0 14 14 14 fc 00 14 14 f7     ................
     5f9:	00 ff 00 00 ff 00 ff 14 14 f4 04 fc 14 14 17 10     ................
     609:	1f 10 10 1f 10 1f 14 14 14 1f 00 10 10 10 f0 00     ................
     619:	00 00 00 1f 10 10 10 10 1f 10 10 10 10 f0 10 00     ................
     629:	00 00 ff 10 10 10 10 10 10 10 10 10 ff 10 00 00     ................
     639:	00 ff 14 00 00 ff 00 ff 00 00 1f 10 17 00 00 fc     ................
     649:	04 f4 14 14 17 10 17 14 14 f4 04 f4 00 00 ff 00     ................
     659:	f7 14 14 14 14 14 14 14 f7 00 f7 14 14 14 17 14     ................
     669:	10 10 1f 10 1f 14 14 14 f4 14 10 10 f0 10 f0 00     ................
     679:	00 1f 10 1f 00 00 00 1f 14 00 00 00 fc 14 00 00     ................
     689:	f0 10 f0 10 10 ff 10 ff 14 14 14 ff 14 10 10 10     ................
     699:	1f 00 00 00 00 f0 10 ff ff ff ff ff f0 f0 f0 f0     ................
     6a9:	f0 ff ff ff 00 00 00 00 00 ff ff 0f 0f 0f 0f 0f     ................
     6b9:	38 44 44 38 44 fc 4a 4a 4a 34 7e 02 02 06 06 02     8DD8D.JJJ4~.....
     6c9:	7e 02 7e 02 63 55 49 41 63 38 44 44 3c 04 40 7e     ~.~.cUIAc8DD<.@~
     6d9:	20 1e 20 06 02 7e 02 02 99 a5 e7 a5 99 1c 2a 49      . ..~........*I
     6e9:	2a 1c 4c 72 01 72 4c 30 4a 4d 4d 30 30 48 78 48     *.Lr.rL0JMM00HxH
     6f9:	30 bc 62 5a 46 3d 3e 49 49 49 00 7e 01 01 01 7e     0.bZF=>III.~...~
     709:	2a 2a 2a 2a 2a 44 44 5f 44 44 40 51 4a 44 40 40     *****DD_DD@QJD@@
     719:	44 4a 51 40 00 00 ff 01 03 e0 80 ff 00 00 08 08     DJQ@............
     729:	6b 6b 08 36 12 36 24 36 06 0f 09 0f 06 00 00 18     kk.6.6$6........
     739:	18 00 00 00 10 10 00 30 40 ff 01 01 00 1f 01 01     .......0@.......
     749:	1e 00 19 1d 17 12 00 3c 3c 3c 3c 00 00 00 00 00     .......<<<<.....
	...

0000075a <__ctors_start>:
     75a:	59 05       	cpc	r21, r9
     75c:	67 05       	cpc	r22, r7
     75e:	46 06       	cpc	r4, r22
     760:	44 09       	sbc	r20, r4
     762:	59 09       	sbc	r21, r9
     764:	ba 0d       	add	r27, r10
     766:	4f 0e       	add	r4, r31
     768:	e4 0e       	add	r14, r20
     76a:	af 1a       	sub	r10, r31

0000076c <__ctors_end>:
     76c:	11 24       	eor	r1, r1
     76e:	1f be       	out	0x3f, r1	; 63
     770:	cf ef       	ldi	r28, 0xFF	; 255
     772:	d1 e2       	ldi	r29, 0x21	; 33
     774:	de bf       	out	0x3e, r29	; 62
     776:	cd bf       	out	0x3d, r28	; 61
     778:	00 e0       	ldi	r16, 0x00	; 0
     77a:	0c bf       	out	0x3c, r16	; 60

0000077c <__do_copy_data>:
     77c:	14 e0       	ldi	r17, 0x04	; 4
     77e:	a0 e0       	ldi	r26, 0x00	; 0
     780:	b2 e0       	ldi	r27, 0x02	; 2
     782:	ea ed       	ldi	r30, 0xDA	; 218
     784:	fb e5       	ldi	r31, 0x5B	; 91
     786:	00 e0       	ldi	r16, 0x00	; 0
     788:	0b bf       	out	0x3b, r16	; 59
     78a:	02 c0       	rjmp	.+4      	; 0x790 <__do_copy_data+0x14>
     78c:	07 90       	elpm	r0, Z+
     78e:	0d 92       	st	X+, r0
     790:	a0 3b       	cpi	r26, 0xB0	; 176
     792:	b1 07       	cpc	r27, r17
     794:	d9 f7       	brne	.-10     	; 0x78c <__do_copy_data+0x10>

00000796 <__do_clear_bss>:
     796:	2d e0       	ldi	r18, 0x0D	; 13
     798:	a0 eb       	ldi	r26, 0xB0	; 176
     79a:	b4 e0       	ldi	r27, 0x04	; 4
     79c:	01 c0       	rjmp	.+2      	; 0x7a0 <.do_clear_bss_start>

0000079e <.do_clear_bss_loop>:
     79e:	1d 92       	st	X+, r1

000007a0 <.do_clear_bss_start>:
     7a0:	aa 39       	cpi	r26, 0x9A	; 154
     7a2:	b2 07       	cpc	r27, r18
     7a4:	e1 f7       	brne	.-8      	; 0x79e <.do_clear_bss_loop>

000007a6 <__do_global_ctors>:
     7a6:	13 e0       	ldi	r17, 0x03	; 3
     7a8:	c6 eb       	ldi	r28, 0xB6	; 182
     7aa:	d3 e0       	ldi	r29, 0x03	; 3
     7ac:	00 e0       	ldi	r16, 0x00	; 0
     7ae:	06 c0       	rjmp	.+12     	; 0x7bc <__do_global_ctors+0x16>
     7b0:	21 97       	sbiw	r28, 0x01	; 1
     7b2:	01 09       	sbc	r16, r1
     7b4:	80 2f       	mov	r24, r16
     7b6:	fe 01       	movw	r30, r28
     7b8:	0e 94 64 2b 	call	0x56c8	; 0x56c8 <__tablejump2__>
     7bc:	cd 3a       	cpi	r28, 0xAD	; 173
     7be:	d1 07       	cpc	r29, r17
     7c0:	80 e0       	ldi	r24, 0x00	; 0
     7c2:	08 07       	cpc	r16, r24
     7c4:	a9 f7       	brne	.-22     	; 0x7b0 <__do_global_ctors+0xa>
     7c6:	0e 94 12 0f 	call	0x1e24	; 0x1e24 <main>
     7ca:	0c 94 eb 2d 	jmp	0x5bd6	; 0x5bd6 <_exit>

000007ce <__bad_interrupt>:
     7ce:	18 cc       	rjmp	.-2000   	; 0x0 <__vectors>

000007d0 <_ZN7TwoWire5writeEi>:
     7d0:	dc 01       	movw	r26, r24
     7d2:	ed 91       	ld	r30, X+
     7d4:	fc 91       	ld	r31, X
     7d6:	01 90       	ld	r0, Z+
     7d8:	f0 81       	ld	r31, Z
     7da:	e0 2d       	mov	r30, r0
     7dc:	19 94       	eijmp

000007de <_Z16processAccelDatav>:
     7de:	cf 93       	push	r28
     7e0:	df 93       	push	r29
     7e2:	c0 eb       	ldi	r28, 0xB0	; 176
     7e4:	d4 e0       	ldi	r29, 0x04	; 4
     7e6:	60 91 dc 04 	lds	r22, 0x04DC	; 0x8004dc <accelX>
     7ea:	70 91 dd 04 	lds	r23, 0x04DD	; 0x8004dd <accelX+0x1>
     7ee:	80 91 de 04 	lds	r24, 0x04DE	; 0x8004de <accelX+0x2>
     7f2:	90 91 df 04 	lds	r25, 0x04DF	; 0x8004df <accelX+0x3>
     7f6:	d3 d6       	rcall	.+3494   	; 0x159e <__floatsisf>
     7f8:	20 e0       	ldi	r18, 0x00	; 0
     7fa:	30 e0       	ldi	r19, 0x00	; 0
     7fc:	40 e0       	ldi	r20, 0x00	; 0
     7fe:	5a e3       	ldi	r21, 0x3A	; 58
     800:	82 d7       	rcall	.+3844   	; 0x1706 <__mulsf3>
     802:	68 83       	st	Y, r22
     804:	79 83       	std	Y+1, r23	; 0x01
     806:	8a 83       	std	Y+2, r24	; 0x02
     808:	9b 83       	std	Y+3, r25	; 0x03
     80a:	60 91 d8 04 	lds	r22, 0x04D8	; 0x8004d8 <accelY>
     80e:	70 91 d9 04 	lds	r23, 0x04D9	; 0x8004d9 <accelY+0x1>
     812:	80 91 da 04 	lds	r24, 0x04DA	; 0x8004da <accelY+0x2>
     816:	90 91 db 04 	lds	r25, 0x04DB	; 0x8004db <accelY+0x3>
     81a:	c1 d6       	rcall	.+3458   	; 0x159e <__floatsisf>
     81c:	20 e0       	ldi	r18, 0x00	; 0
     81e:	30 e0       	ldi	r19, 0x00	; 0
     820:	40 e0       	ldi	r20, 0x00	; 0
     822:	5a e3       	ldi	r21, 0x3A	; 58
     824:	70 d7       	rcall	.+3808   	; 0x1706 <__mulsf3>
     826:	6c 83       	std	Y+4, r22	; 0x04
     828:	7d 83       	std	Y+5, r23	; 0x05
     82a:	8e 83       	std	Y+6, r24	; 0x06
     82c:	9f 83       	std	Y+7, r25	; 0x07
     82e:	60 91 d4 04 	lds	r22, 0x04D4	; 0x8004d4 <accelZ>
     832:	70 91 d5 04 	lds	r23, 0x04D5	; 0x8004d5 <accelZ+0x1>
     836:	80 91 d6 04 	lds	r24, 0x04D6	; 0x8004d6 <accelZ+0x2>
     83a:	90 91 d7 04 	lds	r25, 0x04D7	; 0x8004d7 <accelZ+0x3>
     83e:	af d6       	rcall	.+3422   	; 0x159e <__floatsisf>
     840:	20 e0       	ldi	r18, 0x00	; 0
     842:	30 e0       	ldi	r19, 0x00	; 0
     844:	40 e0       	ldi	r20, 0x00	; 0
     846:	5a e3       	ldi	r21, 0x3A	; 58
     848:	5e d7       	rcall	.+3772   	; 0x1706 <__mulsf3>
     84a:	68 87       	std	Y+8, r22	; 0x08
     84c:	79 87       	std	Y+9, r23	; 0x09
     84e:	8a 87       	std	Y+10, r24	; 0x0a
     850:	9b 87       	std	Y+11, r25	; 0x0b
     852:	df 91       	pop	r29
     854:	cf 91       	pop	r28
     856:	08 95       	ret

00000858 <_Z15processGyroDatav>:
     858:	cf 93       	push	r28
     85a:	df 93       	push	r29
     85c:	c0 eb       	ldi	r28, 0xB0	; 176
     85e:	d4 e0       	ldi	r29, 0x04	; 4
     860:	60 91 d0 04 	lds	r22, 0x04D0	; 0x8004d0 <gyroX>
     864:	70 91 d1 04 	lds	r23, 0x04D1	; 0x8004d1 <gyroX+0x1>
     868:	80 91 d2 04 	lds	r24, 0x04D2	; 0x8004d2 <gyroX+0x2>
     86c:	90 91 d3 04 	lds	r25, 0x04D3	; 0x8004d3 <gyroX+0x3>
     870:	96 d6       	rcall	.+3372   	; 0x159e <__floatsisf>
     872:	20 e0       	ldi	r18, 0x00	; 0
     874:	30 e0       	ldi	r19, 0x00	; 0
     876:	44 e2       	ldi	r20, 0x24	; 36
     878:	53 e4       	ldi	r21, 0x43	; 67
     87a:	f6 d5       	rcall	.+3052   	; 0x1468 <__divsf3>
     87c:	6c 87       	std	Y+12, r22	; 0x0c
     87e:	7d 87       	std	Y+13, r23	; 0x0d
     880:	8e 87       	std	Y+14, r24	; 0x0e
     882:	9f 87       	std	Y+15, r25	; 0x0f
     884:	60 91 cc 04 	lds	r22, 0x04CC	; 0x8004cc <gyroY>
     888:	70 91 cd 04 	lds	r23, 0x04CD	; 0x8004cd <gyroY+0x1>
     88c:	80 91 ce 04 	lds	r24, 0x04CE	; 0x8004ce <gyroY+0x2>
     890:	90 91 cf 04 	lds	r25, 0x04CF	; 0x8004cf <gyroY+0x3>
     894:	84 d6       	rcall	.+3336   	; 0x159e <__floatsisf>
     896:	20 e0       	ldi	r18, 0x00	; 0
     898:	30 e0       	ldi	r19, 0x00	; 0
     89a:	44 e2       	ldi	r20, 0x24	; 36
     89c:	53 e4       	ldi	r21, 0x43	; 67
     89e:	e4 d5       	rcall	.+3016   	; 0x1468 <__divsf3>
     8a0:	68 8b       	std	Y+16, r22	; 0x10
     8a2:	79 8b       	std	Y+17, r23	; 0x11
     8a4:	8a 8b       	std	Y+18, r24	; 0x12
     8a6:	9b 8b       	std	Y+19, r25	; 0x13
     8a8:	60 91 c8 04 	lds	r22, 0x04C8	; 0x8004c8 <gyroZ>
     8ac:	70 91 c9 04 	lds	r23, 0x04C9	; 0x8004c9 <gyroZ+0x1>
     8b0:	80 91 ca 04 	lds	r24, 0x04CA	; 0x8004ca <gyroZ+0x2>
     8b4:	90 91 cb 04 	lds	r25, 0x04CB	; 0x8004cb <gyroZ+0x3>
     8b8:	72 d6       	rcall	.+3300   	; 0x159e <__floatsisf>
     8ba:	20 e0       	ldi	r18, 0x00	; 0
     8bc:	30 e0       	ldi	r19, 0x00	; 0
     8be:	44 e2       	ldi	r20, 0x24	; 36
     8c0:	53 e4       	ldi	r21, 0x43	; 67
     8c2:	d2 d5       	rcall	.+2980   	; 0x1468 <__divsf3>
     8c4:	6c 8b       	std	Y+20, r22	; 0x14
     8c6:	7d 8b       	std	Y+21, r23	; 0x15
     8c8:	8e 8b       	std	Y+22, r24	; 0x16
     8ca:	9f 8b       	std	Y+23, r25	; 0x17
     8cc:	df 91       	pop	r29
     8ce:	cf 91       	pop	r28
     8d0:	08 95       	ret

000008d2 <_Z20recordAccelRegistersv>:
     8d2:	cf 93       	push	r28
     8d4:	68 e6       	ldi	r22, 0x68	; 104
     8d6:	70 e0       	ldi	r23, 0x00	; 0
     8d8:	82 ed       	ldi	r24, 0xD2	; 210
     8da:	9c e0       	ldi	r25, 0x0C	; 12
     8dc:	0e 94 34 1a 	call	0x3468	; 0x3468 <_ZN7TwoWire17beginTransmissionEi>
     8e0:	6b e3       	ldi	r22, 0x3B	; 59
     8e2:	70 e0       	ldi	r23, 0x00	; 0
     8e4:	82 ed       	ldi	r24, 0xD2	; 210
     8e6:	9c e0       	ldi	r25, 0x0C	; 12
     8e8:	73 df       	rcall	.-282    	; 0x7d0 <_ZN7TwoWire5writeEi>
     8ea:	82 ed       	ldi	r24, 0xD2	; 210
     8ec:	9c e0       	ldi	r25, 0x0C	; 12
     8ee:	0e 94 ad 1a 	call	0x355a	; 0x355a <_ZN7TwoWire15endTransmissionEv>
     8f2:	46 e0       	ldi	r20, 0x06	; 6
     8f4:	50 e0       	ldi	r21, 0x00	; 0
     8f6:	68 e6       	ldi	r22, 0x68	; 104
     8f8:	70 e0       	ldi	r23, 0x00	; 0
     8fa:	82 ed       	ldi	r24, 0xD2	; 210
     8fc:	9c e0       	ldi	r25, 0x0C	; 12
     8fe:	0e 94 ab 1a 	call	0x3556	; 0x3556 <_ZN7TwoWire11requestFromEii>
     902:	82 ed       	ldi	r24, 0xD2	; 210
     904:	9c e0       	ldi	r25, 0x0C	; 12
     906:	0e 94 4a 19 	call	0x3294	; 0x3294 <_ZN7TwoWire9availableEv>
     90a:	06 97       	sbiw	r24, 0x06	; 6
     90c:	d4 f3       	brlt	.-12     	; 0x902 <_Z20recordAccelRegistersv+0x30>
     90e:	82 ed       	ldi	r24, 0xD2	; 210
     910:	9c e0       	ldi	r25, 0x0C	; 12
     912:	0e 94 52 19 	call	0x32a4	; 0x32a4 <_ZN7TwoWire4readEv>
     916:	c8 2f       	mov	r28, r24
     918:	82 ed       	ldi	r24, 0xD2	; 210
     91a:	9c e0       	ldi	r25, 0x0C	; 12
     91c:	0e 94 52 19 	call	0x32a4	; 0x32a4 <_ZN7TwoWire4readEv>
     920:	20 e0       	ldi	r18, 0x00	; 0
     922:	30 e0       	ldi	r19, 0x00	; 0
     924:	3c 2f       	mov	r19, r28
     926:	82 2b       	or	r24, r18
     928:	93 2b       	or	r25, r19
     92a:	09 2e       	mov	r0, r25
     92c:	00 0c       	add	r0, r0
     92e:	aa 0b       	sbc	r26, r26
     930:	bb 0b       	sbc	r27, r27
     932:	80 93 dc 04 	sts	0x04DC, r24	; 0x8004dc <accelX>
     936:	90 93 dd 04 	sts	0x04DD, r25	; 0x8004dd <accelX+0x1>
     93a:	a0 93 de 04 	sts	0x04DE, r26	; 0x8004de <accelX+0x2>
     93e:	b0 93 df 04 	sts	0x04DF, r27	; 0x8004df <accelX+0x3>
     942:	82 ed       	ldi	r24, 0xD2	; 210
     944:	9c e0       	ldi	r25, 0x0C	; 12
     946:	0e 94 52 19 	call	0x32a4	; 0x32a4 <_ZN7TwoWire4readEv>
     94a:	c8 2f       	mov	r28, r24
     94c:	82 ed       	ldi	r24, 0xD2	; 210
     94e:	9c e0       	ldi	r25, 0x0C	; 12
     950:	0e 94 52 19 	call	0x32a4	; 0x32a4 <_ZN7TwoWire4readEv>
     954:	20 e0       	ldi	r18, 0x00	; 0
     956:	30 e0       	ldi	r19, 0x00	; 0
     958:	3c 2f       	mov	r19, r28
     95a:	82 2b       	or	r24, r18
     95c:	93 2b       	or	r25, r19
     95e:	09 2e       	mov	r0, r25
     960:	00 0c       	add	r0, r0
     962:	aa 0b       	sbc	r26, r26
     964:	bb 0b       	sbc	r27, r27
     966:	80 93 d8 04 	sts	0x04D8, r24	; 0x8004d8 <accelY>
     96a:	90 93 d9 04 	sts	0x04D9, r25	; 0x8004d9 <accelY+0x1>
     96e:	a0 93 da 04 	sts	0x04DA, r26	; 0x8004da <accelY+0x2>
     972:	b0 93 db 04 	sts	0x04DB, r27	; 0x8004db <accelY+0x3>
     976:	82 ed       	ldi	r24, 0xD2	; 210
     978:	9c e0       	ldi	r25, 0x0C	; 12
     97a:	0e 94 52 19 	call	0x32a4	; 0x32a4 <_ZN7TwoWire4readEv>
     97e:	c8 2f       	mov	r28, r24
     980:	82 ed       	ldi	r24, 0xD2	; 210
     982:	9c e0       	ldi	r25, 0x0C	; 12
     984:	0e 94 52 19 	call	0x32a4	; 0x32a4 <_ZN7TwoWire4readEv>
     988:	20 e0       	ldi	r18, 0x00	; 0
     98a:	30 e0       	ldi	r19, 0x00	; 0
     98c:	3c 2f       	mov	r19, r28
     98e:	82 2b       	or	r24, r18
     990:	93 2b       	or	r25, r19
     992:	09 2e       	mov	r0, r25
     994:	00 0c       	add	r0, r0
     996:	aa 0b       	sbc	r26, r26
     998:	bb 0b       	sbc	r27, r27
     99a:	80 93 d4 04 	sts	0x04D4, r24	; 0x8004d4 <accelZ>
     99e:	90 93 d5 04 	sts	0x04D5, r25	; 0x8004d5 <accelZ+0x1>
     9a2:	a0 93 d6 04 	sts	0x04D6, r26	; 0x8004d6 <accelZ+0x2>
     9a6:	b0 93 d7 04 	sts	0x04D7, r27	; 0x8004d7 <accelZ+0x3>
     9aa:	cf 91       	pop	r28
     9ac:	18 cf       	rjmp	.-464    	; 0x7de <_Z16processAccelDatav>

000009ae <_Z19recordGyroRegistersv>:
     9ae:	cf 93       	push	r28
     9b0:	68 e6       	ldi	r22, 0x68	; 104
     9b2:	70 e0       	ldi	r23, 0x00	; 0
     9b4:	82 ed       	ldi	r24, 0xD2	; 210
     9b6:	9c e0       	ldi	r25, 0x0C	; 12
     9b8:	0e 94 34 1a 	call	0x3468	; 0x3468 <_ZN7TwoWire17beginTransmissionEi>
     9bc:	63 e4       	ldi	r22, 0x43	; 67
     9be:	70 e0       	ldi	r23, 0x00	; 0
     9c0:	82 ed       	ldi	r24, 0xD2	; 210
     9c2:	9c e0       	ldi	r25, 0x0C	; 12
     9c4:	05 df       	rcall	.-502    	; 0x7d0 <_ZN7TwoWire5writeEi>
     9c6:	82 ed       	ldi	r24, 0xD2	; 210
     9c8:	9c e0       	ldi	r25, 0x0C	; 12
     9ca:	0e 94 ad 1a 	call	0x355a	; 0x355a <_ZN7TwoWire15endTransmissionEv>
     9ce:	46 e0       	ldi	r20, 0x06	; 6
     9d0:	50 e0       	ldi	r21, 0x00	; 0
     9d2:	68 e6       	ldi	r22, 0x68	; 104
     9d4:	70 e0       	ldi	r23, 0x00	; 0
     9d6:	82 ed       	ldi	r24, 0xD2	; 210
     9d8:	9c e0       	ldi	r25, 0x0C	; 12
     9da:	0e 94 ab 1a 	call	0x3556	; 0x3556 <_ZN7TwoWire11requestFromEii>
     9de:	82 ed       	ldi	r24, 0xD2	; 210
     9e0:	9c e0       	ldi	r25, 0x0C	; 12
     9e2:	0e 94 4a 19 	call	0x3294	; 0x3294 <_ZN7TwoWire9availableEv>
     9e6:	06 97       	sbiw	r24, 0x06	; 6
     9e8:	d4 f3       	brlt	.-12     	; 0x9de <_Z19recordGyroRegistersv+0x30>
     9ea:	82 ed       	ldi	r24, 0xD2	; 210
     9ec:	9c e0       	ldi	r25, 0x0C	; 12
     9ee:	0e 94 52 19 	call	0x32a4	; 0x32a4 <_ZN7TwoWire4readEv>
     9f2:	c8 2f       	mov	r28, r24
     9f4:	82 ed       	ldi	r24, 0xD2	; 210
     9f6:	9c e0       	ldi	r25, 0x0C	; 12
     9f8:	0e 94 52 19 	call	0x32a4	; 0x32a4 <_ZN7TwoWire4readEv>
     9fc:	20 e0       	ldi	r18, 0x00	; 0
     9fe:	30 e0       	ldi	r19, 0x00	; 0
     a00:	3c 2f       	mov	r19, r28
     a02:	82 2b       	or	r24, r18
     a04:	93 2b       	or	r25, r19
     a06:	09 2e       	mov	r0, r25
     a08:	00 0c       	add	r0, r0
     a0a:	aa 0b       	sbc	r26, r26
     a0c:	bb 0b       	sbc	r27, r27
     a0e:	80 93 d0 04 	sts	0x04D0, r24	; 0x8004d0 <gyroX>
     a12:	90 93 d1 04 	sts	0x04D1, r25	; 0x8004d1 <gyroX+0x1>
     a16:	a0 93 d2 04 	sts	0x04D2, r26	; 0x8004d2 <gyroX+0x2>
     a1a:	b0 93 d3 04 	sts	0x04D3, r27	; 0x8004d3 <gyroX+0x3>
     a1e:	82 ed       	ldi	r24, 0xD2	; 210
     a20:	9c e0       	ldi	r25, 0x0C	; 12
     a22:	0e 94 52 19 	call	0x32a4	; 0x32a4 <_ZN7TwoWire4readEv>
     a26:	c8 2f       	mov	r28, r24
     a28:	82 ed       	ldi	r24, 0xD2	; 210
     a2a:	9c e0       	ldi	r25, 0x0C	; 12
     a2c:	0e 94 52 19 	call	0x32a4	; 0x32a4 <_ZN7TwoWire4readEv>
     a30:	20 e0       	ldi	r18, 0x00	; 0
     a32:	30 e0       	ldi	r19, 0x00	; 0
     a34:	3c 2f       	mov	r19, r28
     a36:	82 2b       	or	r24, r18
     a38:	93 2b       	or	r25, r19
     a3a:	09 2e       	mov	r0, r25
     a3c:	00 0c       	add	r0, r0
     a3e:	aa 0b       	sbc	r26, r26
     a40:	bb 0b       	sbc	r27, r27
     a42:	80 93 cc 04 	sts	0x04CC, r24	; 0x8004cc <gyroY>
     a46:	90 93 cd 04 	sts	0x04CD, r25	; 0x8004cd <gyroY+0x1>
     a4a:	a0 93 ce 04 	sts	0x04CE, r26	; 0x8004ce <gyroY+0x2>
     a4e:	b0 93 cf 04 	sts	0x04CF, r27	; 0x8004cf <gyroY+0x3>
     a52:	82 ed       	ldi	r24, 0xD2	; 210
     a54:	9c e0       	ldi	r25, 0x0C	; 12
     a56:	0e 94 52 19 	call	0x32a4	; 0x32a4 <_ZN7TwoWire4readEv>
     a5a:	c8 2f       	mov	r28, r24
     a5c:	82 ed       	ldi	r24, 0xD2	; 210
     a5e:	9c e0       	ldi	r25, 0x0C	; 12
     a60:	0e 94 52 19 	call	0x32a4	; 0x32a4 <_ZN7TwoWire4readEv>
     a64:	20 e0       	ldi	r18, 0x00	; 0
     a66:	30 e0       	ldi	r19, 0x00	; 0
     a68:	3c 2f       	mov	r19, r28
     a6a:	82 2b       	or	r24, r18
     a6c:	93 2b       	or	r25, r19
     a6e:	09 2e       	mov	r0, r25
     a70:	00 0c       	add	r0, r0
     a72:	aa 0b       	sbc	r26, r26
     a74:	bb 0b       	sbc	r27, r27
     a76:	80 93 c8 04 	sts	0x04C8, r24	; 0x8004c8 <gyroZ>
     a7a:	90 93 c9 04 	sts	0x04C9, r25	; 0x8004c9 <gyroZ+0x1>
     a7e:	a0 93 ca 04 	sts	0x04CA, r26	; 0x8004ca <gyroZ+0x2>
     a82:	b0 93 cb 04 	sts	0x04CB, r27	; 0x8004cb <gyroZ+0x3>
     a86:	cf 91       	pop	r28
     a88:	e7 ce       	rjmp	.-562    	; 0x858 <_Z15processGyroDatav>

00000a8a <_Z12Get_MPU_Datav>:
     a8a:	cf 93       	push	r28
     a8c:	df 93       	push	r29
     a8e:	ec 01       	movw	r28, r24
     a90:	20 df       	rcall	.-448    	; 0x8d2 <_Z20recordAccelRegistersv>
     a92:	8d df       	rcall	.-230    	; 0x9ae <_Z19recordGyroRegistersv>
     a94:	88 e1       	ldi	r24, 0x18	; 24
     a96:	e0 eb       	ldi	r30, 0xB0	; 176
     a98:	f4 e0       	ldi	r31, 0x04	; 4
     a9a:	de 01       	movw	r26, r28
     a9c:	01 90       	ld	r0, Z+
     a9e:	0d 92       	st	X+, r0
     aa0:	8a 95       	dec	r24
     aa2:	e1 f7       	brne	.-8      	; 0xa9c <_Z12Get_MPU_Datav+0x12>
     aa4:	ce 01       	movw	r24, r28
     aa6:	df 91       	pop	r29
     aa8:	cf 91       	pop	r28
     aaa:	08 95       	ret

00000aac <_ZN5Print17availableForWriteEv>:
     aac:	80 e0       	ldi	r24, 0x00	; 0
     aae:	90 e0       	ldi	r25, 0x00	; 0
     ab0:	08 95       	ret

00000ab2 <_GLOBAL__sub_I_fonaSerial>:
     ab2:	66 e1       	ldi	r22, 0x16	; 22
     ab4:	80 ee       	ldi	r24, 0xE0	; 224
     ab6:	94 e0       	ldi	r25, 0x04	; 4
     ab8:	0e 94 ee 1a 	call	0x35dc	; 0x35dc <_ZN13Adafruit_FONAC1Ea>
     abc:	e0 ee       	ldi	r30, 0xE0	; 224
     abe:	f4 e0       	ldi	r31, 0x04	; 4
     ac0:	82 e3       	ldi	r24, 0x32	; 50
     ac2:	92 e0       	ldi	r25, 0x02	; 2
     ac4:	91 83       	std	Z+1, r25	; 0x01
     ac6:	80 83       	st	Z, r24
     ac8:	84 e0       	ldi	r24, 0x04	; 4
     aca:	85 87       	std	Z+13, r24	; 0x0d
     acc:	08 95       	ret

00000ace <_GLOBAL__sub_I_GPS>:
     ace:	63 e2       	ldi	r22, 0x23	; 35
     ad0:	7b e0       	ldi	r23, 0x0B	; 11
     ad2:	8a ef       	ldi	r24, 0xFA	; 250
     ad4:	95 e0       	ldi	r25, 0x05	; 5
     ad6:	0c 94 15 16 	jmp	0x2c2a	; 0x2c2a <_ZN12Adafruit_GPSC1EP14HardwareSerial>

00000ada <_Z15Occupant_detectv>:
bool Occupant_flag = false; //This flag is used both in occupant detect and in the main loop
occupancy_data current;
occupancy_data previous;

bool Occupant_detect(){
	if (!Testing_mode){
     ada:	80 91 06 02 	lds	r24, 0x0206	; 0x800206 <Testing_mode>
     ade:	81 11       	cpse	r24, r1
     ae0:	40 c0       	rjmp	.+128    	; 0xb62 <_Z15Occupant_detectv+0x88>
		current.Distance = hcsr04.distanceInMillimeters();
     ae2:	83 e7       	ldi	r24, 0x73	; 115
     ae4:	98 e0       	ldi	r25, 0x08	; 8
     ae6:	0e 94 6b 18 	call	0x30d6	; 0x30d6 <_ZN6HCSR0421distanceInMillimetersEv>
     aea:	90 93 4a 08 	sts	0x084A, r25	; 0x80084a <current+0x1>
     aee:	80 93 49 08 	sts	0x0849, r24	; 0x800849 <current>
		current.PIR = digitalRead(PIR_read_pin);
     af2:	8f e1       	ldi	r24, 0x1F	; 31
     af4:	0e 94 b8 12 	call	0x2570	; 0x2570 <digitalRead>
     af8:	21 e0       	ldi	r18, 0x01	; 1
     afa:	89 2b       	or	r24, r25
     afc:	09 f4       	brne	.+2      	; 0xb00 <_Z15Occupant_detectv+0x26>
     afe:	20 e0       	ldi	r18, 0x00	; 0
     b00:	20 93 4d 08 	sts	0x084D, r18	; 0x80084d <current+0x4>
		current.Seat_load = 1; // hard coded for positive reading, to be backed by logic when module is designed
     b04:	81 e0       	ldi	r24, 0x01	; 1
     b06:	80 93 4e 08 	sts	0x084E, r24	; 0x80084e <current+0x5>
		Thermal_parsed = Thermal_read();
     b0a:	4c d3       	rcall	.+1688   	; 0x11a4 <_Z12Thermal_readv>
     b0c:	20 93 6d 08 	sts	0x086D, r18	; 0x80086d <Thermal_parsed>
     b10:	30 93 6e 08 	sts	0x086E, r19	; 0x80086e <Thermal_parsed+0x1>
     b14:	40 93 6f 08 	sts	0x086F, r20	; 0x80086f <Thermal_parsed+0x2>
     b18:	50 93 70 08 	sts	0x0870, r21	; 0x800870 <Thermal_parsed+0x3>
     b1c:	60 93 71 08 	sts	0x0871, r22	; 0x800871 <Thermal_parsed+0x4>
     b20:	70 93 72 08 	sts	0x0872, r23	; 0x800872 <Thermal_parsed+0x5>
		current.IR = Thermal_parsed.detected;
     b24:	81 e0       	ldi	r24, 0x01	; 1
     b26:	20 91 71 08 	lds	r18, 0x0871	; 0x800871 <Thermal_parsed+0x4>
     b2a:	30 91 72 08 	lds	r19, 0x0872	; 0x800872 <Thermal_parsed+0x5>
     b2e:	23 2b       	or	r18, r19
     b30:	09 f4       	brne	.+2      	; 0xb34 <_Z15Occupant_detectv+0x5a>
     b32:	80 e0       	ldi	r24, 0x00	; 0
     b34:	80 93 4f 08 	sts	0x084F, r24	; 0x80084f <current+0x6>
	}
	
	bool Object;
	bool IR;
	
	current.Object_size = Seat_Distance - current.Distance;
     b38:	20 91 07 02 	lds	r18, 0x0207	; 0x800207 <Seat_Distance>
     b3c:	30 91 08 02 	lds	r19, 0x0208	; 0x800208 <Seat_Distance+0x1>
     b40:	80 91 49 08 	lds	r24, 0x0849	; 0x800849 <current>
     b44:	90 91 4a 08 	lds	r25, 0x084A	; 0x80084a <current+0x1>
     b48:	28 1b       	sub	r18, r24
     b4a:	39 0b       	sbc	r19, r25
     b4c:	30 93 4c 08 	sts	0x084C, r19	; 0x80084c <current+0x3>
     b50:	20 93 4b 08 	sts	0x084B, r18	; 0x80084b <current+0x2>
	
	if (!Occupant_flag){
     b54:	90 91 50 08 	lds	r25, 0x0850	; 0x800850 <Occupant_flag>
     b58:	80 91 51 08 	lds	r24, 0x0851	; 0x800851 <State>
     b5c:	91 11       	cpse	r25, r1
     b5e:	13 c0       	rjmp	.+38     	; 0xb86 <_Z15Occupant_detectv+0xac>
     b60:	08 c0       	rjmp	.+16     	; 0xb72 <_Z15Occupant_detectv+0x98>
		current.PIR = digitalRead(PIR_read_pin);
		current.Seat_load = 1; // hard coded for positive reading, to be backed by logic when module is designed
		Thermal_parsed = Thermal_read();
		current.IR = Thermal_parsed.detected;
		} else {
		Serial.println("Occupant_detection");
     b62:	60 e4       	ldi	r22, 0x40	; 64
     b64:	72 e0       	ldi	r23, 0x02	; 2
     b66:	89 ee       	ldi	r24, 0xE9	; 233
     b68:	99 e0       	ldi	r25, 0x09	; 9
     b6a:	0e 94 b9 0f 	call	0x1f72	; 0x1f72 <_ZN5Print7printlnEPKc>
		return 0;
     b6e:	80 e0       	ldi	r24, 0x00	; 0
     b70:	08 95       	ret
	bool IR;
	
	current.Object_size = Seat_Distance - current.Distance;
	
	if (!Occupant_flag){
		switch (State) //Need to add in CO states
     b72:	82 30       	cpi	r24, 0x02	; 2
     b74:	69 f1       	breq	.+90     	; 0xbd0 <_Z15Occupant_detectv+0xf6>
     b76:	18 f4       	brcc	.+6      	; 0xb7e <_Z15Occupant_detectv+0xa4>
     b78:	88 23       	and	r24, r24
     b7a:	51 f1       	breq	.+84     	; 0xbd0 <_Z15Occupant_detectv+0xf6>
     b7c:	28 c0       	rjmp	.+80     	; 0xbce <_Z15Occupant_detectv+0xf4>
     b7e:	85 50       	subi	r24, 0x05	; 5
     b80:	85 30       	cpi	r24, 0x05	; 5
     b82:	30 f1       	brcs	.+76     	; 0xbd0 <_Z15Occupant_detectv+0xf6>
     b84:	24 c0       	rjmp	.+72     	; 0xbce <_Z15Occupant_detectv+0xf4>
			
			default:
			break;
		}
	} else if (Occupant_flag){ //if an occupant was detected before, we check if the occupant has left
		switch (State) //Need to add in CO states
     b86:	85 30       	cpi	r24, 0x05	; 5
     b88:	49 f0       	breq	.+18     	; 0xb9c <_Z15Occupant_detectv+0xc2>
     b8a:	28 f4       	brcc	.+10     	; 0xb96 <_Z15Occupant_detectv+0xbc>
     b8c:	88 23       	and	r24, r24
     b8e:	31 f0       	breq	.+12     	; 0xb9c <_Z15Occupant_detectv+0xc2>
     b90:	82 30       	cpi	r24, 0x02	; 2
     b92:	e9 f4       	brne	.+58     	; 0xbce <_Z15Occupant_detectv+0xf4>
     b94:	03 c0       	rjmp	.+6      	; 0xb9c <_Z15Occupant_detectv+0xc2>
     b96:	8a 30       	cpi	r24, 0x0A	; 10
     b98:	78 f0       	brcs	.+30     	; 0xbb8 <_Z15Occupant_detectv+0xde>
     b9a:	19 c0       	rjmp	.+50     	; 0xbce <_Z15Occupant_detectv+0xf4>
			case Running: //Under 80 deg F`
			case Stopped:
			case TH0:
			//PIR will likely turn up negative on a second read if the occupant has kept still, so we do not check if the occupant has left using PIR. PIR only used to transition from no occupant to occupant.
			//if occupant no longer appears on ping sensor, update memory
			if(previous.Object_size > Occupant_thickness){
     b9c:	80 91 44 08 	lds	r24, 0x0844	; 0x800844 <previous+0x2>
     ba0:	90 91 45 08 	lds	r25, 0x0845	; 0x800845 <previous+0x3>
     ba4:	8b 3a       	cpi	r24, 0xAB	; 171
     ba6:	91 05       	cpc	r25, r1
     ba8:	3c f0       	brlt	.+14     	; 0xbb8 <_Z15Occupant_detectv+0xde>
				if(current.Object_size < Occupant_thickness){
     baa:	2a 3a       	cpi	r18, 0xAA	; 170
     bac:	31 05       	cpc	r19, r1
     bae:	24 f4       	brge	.+8      	; 0xbb8 <_Z15Occupant_detectv+0xde>
					Object = false; //since the flag can be set by either object sensor, the change in state of either object sensor can unset the flag
					previous.Object_size = current.Object_size;
     bb0:	30 93 45 08 	sts	0x0845, r19	; 0x800845 <previous+0x3>
     bb4:	20 93 44 08 	sts	0x0844, r18	; 0x800844 <previous+0x2>
					Object = false;
					previous.Seat_load = current.Seat_load;
				}
			}
			if (!Object){
				Occupant_flag = false;
     bb8:	10 92 50 08 	sts	0x0850, r1	; 0x800850 <Occupant_flag>
				previous = current;
     bbc:	87 e0       	ldi	r24, 0x07	; 7
     bbe:	e9 e4       	ldi	r30, 0x49	; 73
     bc0:	f8 e0       	ldi	r31, 0x08	; 8
     bc2:	a2 e4       	ldi	r26, 0x42	; 66
     bc4:	b8 e0       	ldi	r27, 0x08	; 8
     bc6:	01 90       	ld	r0, Z+
     bc8:	0d 92       	st	X+, r0
     bca:	8a 95       	dec	r24
     bcc:	e1 f7       	brne	.-8      	; 0xbc6 <_Z15Occupant_detectv+0xec>
			
			default:
			break;
		}
	}
}
     bce:	08 95       	ret
			}
			if ((current.PIR)||(Thermal_parsed.detected)){
				IR = true;
			}
			if (Object && IR){
				return 1;
     bd0:	81 e0       	ldi	r24, 0x01	; 1
			
			default:
			break;
		}
	}
}
     bd2:	08 95       	ret

00000bd4 <setup>:
	// put your setup code here, to run once:

	//Serial.begin(9600);
	//Serial.println(F("AMG88xx thermal camera!"));

	pinMode(PIR_read_pin, INPUT);
     bd4:	60 e0       	ldi	r22, 0x00	; 0
     bd6:	8f e1       	ldi	r24, 0x1F	; 31
     bd8:	0e 94 4e 12 	call	0x249c	; 0x249c <pinMode>
	pinMode(PIR_enable_pin, OUTPUT);
     bdc:	61 e0       	ldi	r22, 0x01	; 1
     bde:	82 e2       	ldi	r24, 0x22	; 34
     be0:	0e 94 4e 12 	call	0x249c	; 0x249c <pinMode>
	pinMode(Ping_enable_pin, OUTPUT);
     be4:	61 e0       	ldi	r22, 0x01	; 1
     be6:	87 e2       	ldi	r24, 0x27	; 39
     be8:	0e 94 4e 12 	call	0x249c	; 0x249c <pinMode>
	pinMode(Alarm_Lights_pin, OUTPUT);
     bec:	61 e0       	ldi	r22, 0x01	; 1
     bee:	89 e2       	ldi	r24, 0x29	; 41
     bf0:	0e 94 4e 12 	call	0x249c	; 0x249c <pinMode>
	pinMode(Car_unlock_pin, OUTPUT);
     bf4:	61 e0       	ldi	r22, 0x01	; 1
     bf6:	8b e2       	ldi	r24, 0x2B	; 43
     bf8:	0e 94 4e 12 	call	0x249c	; 0x249c <pinMode>
	pinMode(Car_door_open_pin, OUTPUT);
     bfc:	61 e0       	ldi	r22, 0x01	; 1
     bfe:	8d e2       	ldi	r24, 0x2D	; 45
     c00:	0e 94 4e 12 	call	0x249c	; 0x249c <pinMode>
	pinMode(GPS_enable_pin, OUTPUT);
     c04:	61 e0       	ldi	r22, 0x01	; 1
     c06:	85 e2       	ldi	r24, 0x25	; 37
     c08:	0e 94 4e 12 	call	0x249c	; 0x249c <pinMode>
	
	digitalWrite(Ping_enable_pin, LOW);
     c0c:	60 e0       	ldi	r22, 0x00	; 0
     c0e:	87 e2       	ldi	r24, 0x27	; 39
     c10:	0e 94 8a 12 	call	0x2514	; 0x2514 <digitalWrite>
	digitalWrite(PIR_enable_pin, LOW);
     c14:	60 e0       	ldi	r22, 0x00	; 0
     c16:	82 e2       	ldi	r24, 0x22	; 34
     c18:	0e 94 8a 12 	call	0x2514	; 0x2514 <digitalWrite>
	digitalWrite(Alarm_Lights_pin, LOW);
     c1c:	60 e0       	ldi	r22, 0x00	; 0
     c1e:	89 e2       	ldi	r24, 0x29	; 41
     c20:	0e 94 8a 12 	call	0x2514	; 0x2514 <digitalWrite>
	digitalWrite(Car_unlock_pin, LOW);
     c24:	60 e0       	ldi	r22, 0x00	; 0
     c26:	8b e2       	ldi	r24, 0x2B	; 43
     c28:	0e 94 8a 12 	call	0x2514	; 0x2514 <digitalWrite>
	digitalWrite(Car_door_open_pin, LOW);
     c2c:	60 e0       	ldi	r22, 0x00	; 0
     c2e:	8d e2       	ldi	r24, 0x2D	; 45
     c30:	0e 94 8a 12 	call	0x2514	; 0x2514 <digitalWrite>
	digitalWrite(GPS_enable_pin, LOW);
     c34:	60 e0       	ldi	r22, 0x00	; 0
     c36:	85 e2       	ldi	r24, 0x25	; 37
     c38:	0e 94 8a 12 	call	0x2514	; 0x2514 <digitalWrite>
  public:
    inline HardwareSerial(
      volatile uint8_t *ubrrh, volatile uint8_t *ubrrl,
      volatile uint8_t *ucsra, volatile uint8_t *ucsrb,
      volatile uint8_t *ucsrc, volatile uint8_t *udr);
    void begin(unsigned long baud) { begin(baud, SERIAL_8N1); }
     c3c:	26 e0       	ldi	r18, 0x06	; 6
     c3e:	40 e8       	ldi	r20, 0x80	; 128
     c40:	55 e2       	ldi	r21, 0x25	; 37
     c42:	60 e0       	ldi	r22, 0x00	; 0
     c44:	70 e0       	ldi	r23, 0x00	; 0
     c46:	89 ee       	ldi	r24, 0xE9	; 233
     c48:	99 e0       	ldi	r25, 0x09	; 9
     c4a:	c6 d6       	rcall	.+3468   	; 0x19d8 <_ZN14HardwareSerial5beginEmh>
	
	Serial.begin(9600);
	Serial.println(F("Hello World!"));
     c4c:	6c e1       	ldi	r22, 0x1C	; 28
     c4e:	71 e0       	ldi	r23, 0x01	; 1
     c50:	89 ee       	ldi	r24, 0xE9	; 233
     c52:	99 e0       	ldi	r25, 0x09	; 9
     c54:	0e 94 99 0f 	call	0x1f32	; 0x1f32 <_ZN5Print7printlnEPK19__FlashStringHelper>

	Thermal_setup();
     c58:	8c c2       	rjmp	.+1304   	; 0x1172 <_Z13Thermal_setupv>

00000c5a <_Z16Ping_calibrationv>:
float Felt_temp;


unsigned long Time_stop_start; // time variables are reserved exclusively for reading the onboard clock. This clock overflows approximately ever 50 days.

int Ping_calibration(){
     c5a:	0f 93       	push	r16
     c5c:	1f 93       	push	r17
     c5e:	cf 93       	push	r28
     c60:	df 93       	push	r29
     c62:	ca e0       	ldi	r28, 0x0A	; 10
     c64:	d0 e0       	ldi	r29, 0x00	; 0
	int Sample_size = 10;
	int Reading;
	
	for (int i = 0; i < Sample_size ; i++)
	{
		Reading += hcsr04.distanceInMillimeters();
     c66:	83 e7       	ldi	r24, 0x73	; 115
     c68:	98 e0       	ldi	r25, 0x08	; 8
     c6a:	0e 94 6b 18 	call	0x30d6	; 0x30d6 <_ZN6HCSR0421distanceInMillimetersEv>
     c6e:	08 0f       	add	r16, r24
     c70:	19 1f       	adc	r17, r25
     c72:	21 97       	sbiw	r28, 0x01	; 1

int Ping_calibration(){
	int Sample_size = 10;
	int Reading;
	
	for (int i = 0; i < Sample_size ; i++)
     c74:	c1 f7       	brne	.-16     	; 0xc66 <_Z16Ping_calibrationv+0xc>
		Reading += hcsr04.distanceInMillimeters();
	}
	
	Reading = Reading/Sample_size;
	
	return Reading;
     c76:	c8 01       	movw	r24, r16
     c78:	6a e0       	ldi	r22, 0x0A	; 10
     c7a:	70 e0       	ldi	r23, 0x00	; 0
     c7c:	0e 94 2f 2b 	call	0x565e	; 0x565e <__divmodhi4>
     c80:	cb 01       	movw	r24, r22
	
};
     c82:	df 91       	pop	r29
     c84:	cf 91       	pop	r28
     c86:	1f 91       	pop	r17
     c88:	0f 91       	pop	r16
     c8a:	08 95       	ret

00000c8c <_GLOBAL__sub_I_hcsr04>:

	/*
	sleep here for 1 minute
	*/

     c8c:	0f 93       	push	r16
     c8e:	1f 93       	push	r17
#define Car_unlock_pin 43
#define Car_door_open_pin 45
#define GPS_enable_pin 37
#define WiFi_enable_pin 1

HCSR04 hcsr04(TRIG_PIN, ECHO_PIN, 20, 4000); //setup ping sensor
     c90:	00 ea       	ldi	r16, 0xA0	; 160
     c92:	1f e0       	ldi	r17, 0x0F	; 15
     c94:	24 e1       	ldi	r18, 0x14	; 20
     c96:	30 e0       	ldi	r19, 0x00	; 0
     c98:	4b e1       	ldi	r20, 0x1B	; 27
     c9a:	50 e0       	ldi	r21, 0x00	; 0
     c9c:	6d e1       	ldi	r22, 0x1D	; 29
     c9e:	70 e0       	ldi	r23, 0x00	; 0
     ca0:	83 e7       	ldi	r24, 0x73	; 115
     ca2:	98 e0       	ldi	r25, 0x08	; 8
     ca4:	0e 94 10 18 	call	0x3020	; 0x3020 <_ZN6HCSR04C1Eiiii>

	/*
	sleep here for 1 minute
	*/

     ca8:	1f 91       	pop	r17
     caa:	0f 91       	pop	r16
     cac:	08 95       	ret

00000cae <loop>:
	
	return Reading;
	
};

void loop() { //main loop here
     cae:	cf 92       	push	r12
     cb0:	df 92       	push	r13
     cb2:	ef 92       	push	r14
     cb4:	ff 92       	push	r15
     cb6:	0f 93       	push	r16
     cb8:	1f 93       	push	r17
     cba:	cf 93       	push	r28
     cbc:	df 93       	push	r29
     cbe:	cd b7       	in	r28, 0x3d	; 61
     cc0:	de b7       	in	r29, 0x3e	; 62
     cc2:	6e 97       	sbiw	r28, 0x1e	; 30
     cc4:	0f b6       	in	r0, 0x3f	; 63
     cc6:	f8 94       	cli
     cc8:	de bf       	out	0x3e, r29	; 62
     cca:	0f be       	out	0x3f, r0	; 63
     ccc:	cd bf       	out	0x3d, r28	; 61
	
	//guardian statement for not running car
	if (State != Running){
     cce:	80 91 51 08 	lds	r24, 0x0851	; 0x800851 <State>
     cd2:	88 23       	and	r24, r24
     cd4:	09 f4       	brne	.+2      	; 0xcd8 <loop+0x2a>
     cd6:	95 c0       	rjmp	.+298    	; 0xe02 <loop+0x154>
		
		//check temperature
		Felt_temp = Get_Felt_Temperature();
     cd8:	eb d2       	rcall	.+1494   	; 0x12b0 <_Z20Get_Felt_Temperaturev>
     cda:	60 93 3e 08 	sts	0x083E, r22	; 0x80083e <Felt_temp>
     cde:	70 93 3f 08 	sts	0x083F, r23	; 0x80083f <Felt_temp+0x1>
     ce2:	80 93 40 08 	sts	0x0840, r24	; 0x800840 <Felt_temp+0x2>
     ce6:	90 93 41 08 	sts	0x0841, r25	; 0x800841 <Felt_temp+0x3>
		
		if (Testing_mode){
     cea:	80 91 06 02 	lds	r24, 0x0206	; 0x800206 <Testing_mode>
     cee:	88 23       	and	r24, r24
     cf0:	49 f1       	breq	.+82     	; 0xd44 <loop+0x96>
			Serial.println("input felt temperature");
     cf2:	63 e5       	ldi	r22, 0x53	; 83
     cf4:	72 e0       	ldi	r23, 0x02	; 2
     cf6:	89 ee       	ldi	r24, 0xE9	; 233
     cf8:	99 e0       	ldi	r25, 0x09	; 9
     cfa:	0e 94 b9 0f 	call	0x1f72	; 0x1f72 <_ZN5Print7printlnEPKc>
			while(!Serial.available());
     cfe:	89 ee       	ldi	r24, 0xE9	; 233
     d00:	99 e0       	ldi	r25, 0x09	; 9
     d02:	64 d5       	rcall	.+2760   	; 0x17cc <_ZN14HardwareSerial9availableEv>
     d04:	89 2b       	or	r24, r25
     d06:	d9 f3       	breq	.-10     	; 0xcfe <loop+0x50>
			String Testing_input = Serial.readString();
     d08:	69 ee       	ldi	r22, 0xE9	; 233
     d0a:	79 e0       	ldi	r23, 0x09	; 9
     d0c:	ce 01       	movw	r24, r28
     d0e:	01 96       	adiw	r24, 0x01	; 1
     d10:	0e 94 9a 10 	call	0x2134	; 0x2134 <_ZN6Stream10readStringEv>
			Serial.println(Testing_input);
     d14:	be 01       	movw	r22, r28
     d16:	6f 5f       	subi	r22, 0xFF	; 255
     d18:	7f 4f       	sbci	r23, 0xFF	; 255
     d1a:	89 ee       	ldi	r24, 0xE9	; 233
     d1c:	99 e0       	ldi	r25, 0x09	; 9
     d1e:	0e 94 a9 0f 	call	0x1f52	; 0x1f52 <_ZN5Print7printlnERK6String>
			Felt_temp = Testing_input.toInt();
     d22:	ce 01       	movw	r24, r28
     d24:	01 96       	adiw	r24, 0x01	; 1
     d26:	0e 94 a2 13 	call	0x2744	; 0x2744 <_ZNK6String5toIntEv>
     d2a:	39 d4       	rcall	.+2162   	; 0x159e <__floatsisf>
     d2c:	60 93 3e 08 	sts	0x083E, r22	; 0x80083e <Felt_temp>
     d30:	70 93 3f 08 	sts	0x083F, r23	; 0x80083f <Felt_temp+0x1>
     d34:	80 93 40 08 	sts	0x0840, r24	; 0x800840 <Felt_temp+0x2>
     d38:	90 93 41 08 	sts	0x0841, r25	; 0x800841 <Felt_temp+0x3>
		Felt_temp = Get_Felt_Temperature();
		
		if (Testing_mode){
			Serial.println("input felt temperature");
			while(!Serial.available());
			String Testing_input = Serial.readString();
     d3c:	ce 01       	movw	r24, r28
     d3e:	01 96       	adiw	r24, 0x01	; 1
     d40:	0e 94 e0 12 	call	0x25c0	; 0x25c0 <_ZN6StringD1Ev>
			Serial.println(Testing_input);
			Felt_temp = Testing_input.toInt();
		}
		
		if (!Testing_mode){
     d44:	80 91 06 02 	lds	r24, 0x0206	; 0x800206 <Testing_mode>
     d48:	81 11       	cpse	r24, r1
			MPU_read = Get_MPU_Data();
     d4a:	0d c0       	rjmp	.+26     	; 0xd66 <loop+0xb8>
     d4c:	ce 01       	movw	r24, r28
     d4e:	07 96       	adiw	r24, 0x07	; 7
     d50:	9c de       	rcall	.-712    	; 0xa8a <_Z12Get_MPU_Datav>
     d52:	88 e1       	ldi	r24, 0x18	; 24
     d54:	fe 01       	movw	r30, r28
     d56:	37 96       	adiw	r30, 0x07	; 7
     d58:	a5 e5       	ldi	r26, 0x55	; 85
     d5a:	b8 e0       	ldi	r27, 0x08	; 8
     d5c:	01 90       	ld	r0, Z+
     d5e:	0d 92       	st	X+, r0
     d60:	8a 95       	dec	r24
     d62:	e1 f7       	brne	.-8      	; 0xd5c <loop+0xae>
     d64:	2c c0       	rjmp	.+88     	; 0xdbe <loop+0x110>
			} else {
			Serial.println("Car not running accel check");
     d66:	6a e6       	ldi	r22, 0x6A	; 106
     d68:	72 e0       	ldi	r23, 0x02	; 2
     d6a:	89 ee       	ldi	r24, 0xE9	; 233
     d6c:	99 e0       	ldi	r25, 0x09	; 9
     d6e:	0e 94 b9 0f 	call	0x1f72	; 0x1f72 <_ZN5Print7printlnEPKc>
			Serial.println("Input MPU force; 1 or 2g");
     d72:	66 e8       	ldi	r22, 0x86	; 134
     d74:	72 e0       	ldi	r23, 0x02	; 2
     d76:	89 ee       	ldi	r24, 0xE9	; 233
     d78:	99 e0       	ldi	r25, 0x09	; 9
     d7a:	0e 94 b9 0f 	call	0x1f72	; 0x1f72 <_ZN5Print7printlnEPKc>
			while(!Serial.available()); //block program while waiting for serial input
     d7e:	89 ee       	ldi	r24, 0xE9	; 233
     d80:	99 e0       	ldi	r25, 0x09	; 9
     d82:	24 d5       	rcall	.+2632   	; 0x17cc <_ZN14HardwareSerial9availableEv>
     d84:	89 2b       	or	r24, r25
			int Testing_input = Serial.read();
     d86:	d9 f3       	breq	.-10     	; 0xd7e <loop+0xd0>
     d88:	89 ee       	ldi	r24, 0xE9	; 233
     d8a:	99 e0       	ldi	r25, 0x09	; 9
     d8c:	39 d5       	rcall	.+2674   	; 0x1800 <_ZN14HardwareSerial4readEv>
     d8e:	8c 01       	movw	r16, r24
			Serial.println(Testing_input);
     d90:	4a e0       	ldi	r20, 0x0A	; 10
     d92:	50 e0       	ldi	r21, 0x00	; 0
     d94:	bc 01       	movw	r22, r24
     d96:	89 ee       	ldi	r24, 0xE9	; 233
     d98:	99 e0       	ldi	r25, 0x09	; 9
     d9a:	0e 94 5c 10 	call	0x20b8	; 0x20b8 <_ZN5Print7printlnEii>
			MPU_read.gForceX = Testing_input - 48;
     d9e:	b8 01       	movw	r22, r16
     da0:	60 53       	subi	r22, 0x30	; 48
     da2:	71 09       	sbc	r23, r1
     da4:	07 2e       	mov	r0, r23
     da6:	00 0c       	add	r0, r0
     da8:	88 0b       	sbc	r24, r24
     daa:	99 0b       	sbc	r25, r25
     dac:	f8 d3       	rcall	.+2032   	; 0x159e <__floatsisf>
     dae:	60 93 55 08 	sts	0x0855, r22	; 0x800855 <MPU_read>
     db2:	70 93 56 08 	sts	0x0856, r23	; 0x800856 <MPU_read+0x1>
     db6:	80 93 57 08 	sts	0x0857, r24	; 0x800857 <MPU_read+0x2>
     dba:	90 93 58 08 	sts	0x0858, r25	; 0x800858 <MPU_read+0x3>
		}
		if ((MPU_read.gForceX + MPU_read.gForceY + MPU_read.gForceZ) >= 1.1){ //car is running if g forces read from all three axis is above 1.1G
     dbe:	20 91 59 08 	lds	r18, 0x0859	; 0x800859 <MPU_read+0x4>
     dc2:	30 91 5a 08 	lds	r19, 0x085A	; 0x80085a <MPU_read+0x5>
     dc6:	40 91 5b 08 	lds	r20, 0x085B	; 0x80085b <MPU_read+0x6>
     dca:	50 91 5c 08 	lds	r21, 0x085C	; 0x80085c <MPU_read+0x7>
     dce:	60 91 55 08 	lds	r22, 0x0855	; 0x800855 <MPU_read>
     dd2:	70 91 56 08 	lds	r23, 0x0856	; 0x800856 <MPU_read+0x1>
     dd6:	80 91 57 08 	lds	r24, 0x0857	; 0x800857 <MPU_read+0x2>
     dda:	90 91 58 08 	lds	r25, 0x0858	; 0x800858 <MPU_read+0x3>
     dde:	dc d2       	rcall	.+1464   	; 0x1398 <__addsf3>
     de0:	20 91 5d 08 	lds	r18, 0x085D	; 0x80085d <MPU_read+0x8>
     de4:	30 91 5e 08 	lds	r19, 0x085E	; 0x80085e <MPU_read+0x9>
     de8:	40 91 5f 08 	lds	r20, 0x085F	; 0x80085f <MPU_read+0xa>
     dec:	50 91 60 08 	lds	r21, 0x0860	; 0x800860 <MPU_read+0xb>
     df0:	d3 d2       	rcall	.+1446   	; 0x1398 <__addsf3>
     df2:	2d ec       	ldi	r18, 0xCD	; 205
     df4:	3c ec       	ldi	r19, 0xCC	; 204
     df6:	4c e8       	ldi	r20, 0x8C	; 140
     df8:	5f e3       	ldi	r21, 0x3F	; 63
     dfa:	81 d4       	rcall	.+2306   	; 0x16fe <__gesf2>
     dfc:	87 ff       	sbrs	r24, 7
			State = Running;
     dfe:	10 92 51 08 	sts	0x0851, r1	; 0x800851 <State>
		}
	}
	if (User_dismiss){ //user dismissal flag, resets the next time the car is said to be in use
     e02:	80 91 54 08 	lds	r24, 0x0854	; 0x800854 <User_dismiss>
     e06:	88 23       	and	r24, r24
     e08:	19 f0       	breq	.+6      	; 0xe10 <loop+0x162>
		State = TH0;
     e0a:	85 e0       	ldi	r24, 0x05	; 5
     e0c:	80 93 51 08 	sts	0x0851, r24	; 0x800851 <State>
	}
	

	switch (State)
     e10:	80 91 51 08 	lds	r24, 0x0851	; 0x800851 <State>
     e14:	90 e0       	ldi	r25, 0x00	; 0
     e16:	8a 30       	cpi	r24, 0x0A	; 10
     e18:	91 05       	cpc	r25, r1
     e1a:	08 f0       	brcs	.+2      	; 0xe1e <loop+0x170>
     e1c:	99 c1       	rjmp	.+818    	; 0x1150 <loop+0x4a2>
     e1e:	fc 01       	movw	r30, r24
     e20:	88 27       	eor	r24, r24
     e22:	ee 58       	subi	r30, 0x8E	; 142
     e24:	ff 4f       	sbci	r31, 0xFF	; 255
     e26:	8f 4f       	sbci	r24, 0xFF	; 255
     e28:	0c 94 64 2b 	jmp	0x56c8	; 0x56c8 <__tablejump2__>
	{
		case Running:
		
		//reset user dismissal flag when car is in use
		User_dismiss = false;
     e2c:	10 92 54 08 	sts	0x0854, r1	; 0x800854 <User_dismiss>
		
		//guardian statement: car stopped
		if (!Testing_mode){
     e30:	80 91 06 02 	lds	r24, 0x0206	; 0x800206 <Testing_mode>
     e34:	81 11       	cpse	r24, r1
			MPU_read = Get_MPU_Data();
     e36:	0d c0       	rjmp	.+26     	; 0xe52 <loop+0x1a4>
     e38:	ce 01       	movw	r24, r28
     e3a:	07 96       	adiw	r24, 0x07	; 7
     e3c:	26 de       	rcall	.-948    	; 0xa8a <_Z12Get_MPU_Datav>
     e3e:	88 e1       	ldi	r24, 0x18	; 24
     e40:	fe 01       	movw	r30, r28
     e42:	37 96       	adiw	r30, 0x07	; 7
     e44:	a5 e5       	ldi	r26, 0x55	; 85
     e46:	b8 e0       	ldi	r27, 0x08	; 8
     e48:	01 90       	ld	r0, Z+
     e4a:	0d 92       	st	X+, r0
     e4c:	8a 95       	dec	r24
     e4e:	e1 f7       	brne	.-8      	; 0xe48 <loop+0x19a>
     e50:	2c c0       	rjmp	.+88     	; 0xeaa <loop+0x1fc>
			//Occupant_flag = Occupant_detect(); 
			} else {
			Serial.println("Car Running");
     e52:	6f e9       	ldi	r22, 0x9F	; 159
     e54:	72 e0       	ldi	r23, 0x02	; 2
     e56:	89 ee       	ldi	r24, 0xE9	; 233
     e58:	99 e0       	ldi	r25, 0x09	; 9
     e5a:	0e 94 b9 0f 	call	0x1f72	; 0x1f72 <_ZN5Print7printlnEPKc>
			Serial.println("Input MPU force; 1 or 2g");
     e5e:	66 e8       	ldi	r22, 0x86	; 134
     e60:	72 e0       	ldi	r23, 0x02	; 2
     e62:	89 ee       	ldi	r24, 0xE9	; 233
     e64:	99 e0       	ldi	r25, 0x09	; 9
			while(!Serial.available()); //block program while waiting for serial input
     e66:	0e 94 b9 0f 	call	0x1f72	; 0x1f72 <_ZN5Print7printlnEPKc>
     e6a:	89 ee       	ldi	r24, 0xE9	; 233
     e6c:	99 e0       	ldi	r25, 0x09	; 9
     e6e:	ae d4       	rcall	.+2396   	; 0x17cc <_ZN14HardwareSerial9availableEv>
     e70:	89 2b       	or	r24, r25
			int Testing_input = Serial.read();
     e72:	d9 f3       	breq	.-10     	; 0xe6a <loop+0x1bc>
     e74:	89 ee       	ldi	r24, 0xE9	; 233
     e76:	99 e0       	ldi	r25, 0x09	; 9
     e78:	c3 d4       	rcall	.+2438   	; 0x1800 <_ZN14HardwareSerial4readEv>
     e7a:	8c 01       	movw	r16, r24
			Serial.println(Testing_input);
     e7c:	4a e0       	ldi	r20, 0x0A	; 10
     e7e:	50 e0       	ldi	r21, 0x00	; 0
     e80:	bc 01       	movw	r22, r24
     e82:	89 ee       	ldi	r24, 0xE9	; 233
     e84:	99 e0       	ldi	r25, 0x09	; 9
     e86:	0e 94 5c 10 	call	0x20b8	; 0x20b8 <_ZN5Print7printlnEii>
			MPU_read.gForceX = Testing_input - 48;
     e8a:	b8 01       	movw	r22, r16
     e8c:	60 53       	subi	r22, 0x30	; 48
     e8e:	71 09       	sbc	r23, r1
     e90:	07 2e       	mov	r0, r23
     e92:	00 0c       	add	r0, r0
     e94:	88 0b       	sbc	r24, r24
     e96:	99 0b       	sbc	r25, r25
     e98:	82 d3       	rcall	.+1796   	; 0x159e <__floatsisf>
     e9a:	60 93 55 08 	sts	0x0855, r22	; 0x800855 <MPU_read>
     e9e:	70 93 56 08 	sts	0x0856, r23	; 0x800856 <MPU_read+0x1>
     ea2:	80 93 57 08 	sts	0x0857, r24	; 0x800857 <MPU_read+0x2>
     ea6:	90 93 58 08 	sts	0x0858, r25	; 0x800858 <MPU_read+0x3>
		}
		
		if ((MPU_read.gForceX + MPU_read.gForceY + MPU_read.gForceZ) <= 1.1){ //if total g forces read is less than 1.1 g, the car is stopped. Most often should come out to 1g, the force of gravity
     eaa:	20 91 59 08 	lds	r18, 0x0859	; 0x800859 <MPU_read+0x4>
     eae:	30 91 5a 08 	lds	r19, 0x085A	; 0x80085a <MPU_read+0x5>
     eb2:	40 91 5b 08 	lds	r20, 0x085B	; 0x80085b <MPU_read+0x6>
     eb6:	50 91 5c 08 	lds	r21, 0x085C	; 0x80085c <MPU_read+0x7>
     eba:	60 91 55 08 	lds	r22, 0x0855	; 0x800855 <MPU_read>
     ebe:	70 91 56 08 	lds	r23, 0x0856	; 0x800856 <MPU_read+0x1>
     ec2:	80 91 57 08 	lds	r24, 0x0857	; 0x800857 <MPU_read+0x2>
     ec6:	90 91 58 08 	lds	r25, 0x0858	; 0x800858 <MPU_read+0x3>
     eca:	66 d2       	rcall	.+1228   	; 0x1398 <__addsf3>
     ecc:	20 91 5d 08 	lds	r18, 0x085D	; 0x80085d <MPU_read+0x8>
     ed0:	30 91 5e 08 	lds	r19, 0x085E	; 0x80085e <MPU_read+0x9>
     ed4:	40 91 5f 08 	lds	r20, 0x085F	; 0x80085f <MPU_read+0xa>
     ed8:	50 91 60 08 	lds	r21, 0x0860	; 0x800860 <MPU_read+0xb>
     edc:	5d d2       	rcall	.+1210   	; 0x1398 <__addsf3>
     ede:	2d ec       	ldi	r18, 0xCD	; 205
     ee0:	3c ec       	ldi	r19, 0xCC	; 204
     ee2:	4c e8       	ldi	r20, 0x8C	; 140
     ee4:	5f e3       	ldi	r21, 0x3F	; 63
     ee6:	bc d2       	rcall	.+1400   	; 0x1460 <__cmpsf2>
     ee8:	18 16       	cp	r1, r24
     eea:	0c f4       	brge	.+2      	; 0xeee <loop+0x240>
     eec:	33 c1       	rjmp	.+614    	; 0x1154 <loop+0x4a6>
			State = Pause;
     eee:	81 e0       	ldi	r24, 0x01	; 1
     ef0:	80 93 51 08 	sts	0x0851, r24	; 0x800851 <State>
			Time_stop_start = millis(); //On transition to stop, record start timer so we only start systems if the accelerometer records 1G for more than 10 seconds.
     ef4:	0e 94 fb 10 	call	0x21f6	; 0x21f6 <millis>
     ef8:	60 93 3a 08 	sts	0x083A, r22	; 0x80083a <Time_stop_start>
     efc:	70 93 3b 08 	sts	0x083B, r23	; 0x80083b <Time_stop_start+0x1>
     f00:	80 93 3c 08 	sts	0x083C, r24	; 0x80083c <Time_stop_start+0x2>
     f04:	90 93 3d 08 	sts	0x083D, r25	; 0x80083d <Time_stop_start+0x3>
     f08:	25 c1       	rjmp	.+586    	; 0x1154 <loop+0x4a6>
		
		break; //this does not account for traffic lights and stop signs, need to figure out how to incorporate WiFi to check for the driver
		
		case Pause:
		
		if (abs(millis() - Time_stop_start) > 10000){ //if Accelerometer has been stopped for 10 seconds
     f0a:	0e 94 fb 10 	call	0x21f6	; 0x21f6 <millis>
     f0e:	6b 01       	movw	r12, r22
     f10:	7c 01       	movw	r14, r24
     f12:	80 91 3a 08 	lds	r24, 0x083A	; 0x80083a <Time_stop_start>
     f16:	90 91 3b 08 	lds	r25, 0x083B	; 0x80083b <Time_stop_start+0x1>
     f1a:	a0 91 3c 08 	lds	r26, 0x083C	; 0x80083c <Time_stop_start+0x2>
     f1e:	b0 91 3d 08 	lds	r27, 0x083D	; 0x80083d <Time_stop_start+0x3>
     f22:	c8 16       	cp	r12, r24
     f24:	d9 06       	cpc	r13, r25
     f26:	ea 06       	cpc	r14, r26
     f28:	fb 06       	cpc	r15, r27
     f2a:	b1 f0       	breq	.+44     	; 0xf58 <loop+0x2aa>
     f2c:	0e 94 fb 10 	call	0x21f6	; 0x21f6 <millis>
     f30:	00 91 3a 08 	lds	r16, 0x083A	; 0x80083a <Time_stop_start>
     f34:	10 91 3b 08 	lds	r17, 0x083B	; 0x80083b <Time_stop_start+0x1>
     f38:	20 91 3c 08 	lds	r18, 0x083C	; 0x80083c <Time_stop_start+0x2>
     f3c:	30 91 3d 08 	lds	r19, 0x083D	; 0x80083d <Time_stop_start+0x3>
     f40:	dc 01       	movw	r26, r24
     f42:	cb 01       	movw	r24, r22
     f44:	80 1b       	sub	r24, r16
     f46:	91 0b       	sbc	r25, r17
     f48:	a2 0b       	sbc	r26, r18
     f4a:	b3 0b       	sbc	r27, r19
     f4c:	81 31       	cpi	r24, 0x11	; 17
     f4e:	97 42       	sbci	r25, 0x27	; 39
     f50:	a1 05       	cpc	r26, r1
     f52:	b1 05       	cpc	r27, r1
     f54:	78 f4       	brcc	.+30     	; 0xf74 <loop+0x2c6>
     f56:	fe c0       	rjmp	.+508    	; 0x1154 <loop+0x4a6>
     f58:	0e 94 fb 10 	call	0x21f6	; 0x21f6 <millis>
     f5c:	c6 1a       	sub	r12, r22
     f5e:	d7 0a       	sbc	r13, r23
     f60:	e8 0a       	sbc	r14, r24
     f62:	f9 0a       	sbc	r15, r25
     f64:	81 e1       	ldi	r24, 0x11	; 17
     f66:	c8 16       	cp	r12, r24
     f68:	87 e2       	ldi	r24, 0x27	; 39
     f6a:	d8 06       	cpc	r13, r24
     f6c:	e1 04       	cpc	r14, r1
     f6e:	f1 04       	cpc	r15, r1
     f70:	08 f4       	brcc	.+2      	; 0xf74 <loop+0x2c6>
			
			//turn on GPS to get fix on location
			if (Occupant_detect()){
     f72:	f0 c0       	rjmp	.+480    	; 0x1154 <loop+0x4a6>
     f74:	b2 dd       	rcall	.-1180   	; 0xada <_Z15Occupant_detectv>
     f76:	88 23       	and	r24, r24
     f78:	21 f0       	breq	.+8      	; 0xf82 <loop+0x2d4>
				digitalWrite(GPS_enable_pin, HIGH);
     f7a:	61 e0       	ldi	r22, 0x01	; 1
     f7c:	85 e2       	ldi	r24, 0x25	; 37
     f7e:	0e 94 8a 12 	call	0x2514	; 0x2514 <digitalWrite>
				//enable 3G module
			}
			
			//check for driver
			
			State = Stopped;
     f82:	82 e0       	ldi	r24, 0x02	; 2
     f84:	80 93 51 08 	sts	0x0851, r24	; 0x800851 <State>
			
			Calibrate_enable = true; //enable calibration in TH0
     f88:	81 e0       	ldi	r24, 0x01	; 1
     f8a:	80 93 52 08 	sts	0x0852, r24	; 0x800852 <Calibrate_enable>
		
		break;
		
		case Stopped:
		
		if (Testing_mode){
     f8e:	51 c0       	rjmp	.+162    	; 0x1032 <loop+0x384>
     f90:	80 91 06 02 	lds	r24, 0x0206	; 0x800206 <Testing_mode>
     f94:	88 23       	and	r24, r24
			Serial.println("Car Stopped");
     f96:	29 f0       	breq	.+10     	; 0xfa2 <loop+0x2f4>
     f98:	6b ea       	ldi	r22, 0xAB	; 171
     f9a:	72 e0       	ldi	r23, 0x02	; 2
     f9c:	89 ee       	ldi	r24, 0xE9	; 233
     f9e:	99 e0       	ldi	r25, 0x09	; 9
			//Time_stop_start = 0;
		}
		
		if (Felt_temp >= 80){
     fa0:	e8 d7       	rcall	.+4048   	; 0x1f72 <_ZN5Print7printlnEPKc>
     fa2:	20 e0       	ldi	r18, 0x00	; 0
     fa4:	30 e0       	ldi	r19, 0x00	; 0
     fa6:	40 ea       	ldi	r20, 0xA0	; 160
     fa8:	52 e4       	ldi	r21, 0x42	; 66
     faa:	60 91 3e 08 	lds	r22, 0x083E	; 0x80083e <Felt_temp>
     fae:	70 91 3f 08 	lds	r23, 0x083F	; 0x80083f <Felt_temp+0x1>
     fb2:	80 91 40 08 	lds	r24, 0x0840	; 0x800840 <Felt_temp+0x2>
     fb6:	90 91 41 08 	lds	r25, 0x0841	; 0x800841 <Felt_temp+0x3>
     fba:	a1 d3       	rcall	.+1858   	; 0x16fe <__gesf2>
     fbc:	87 fd       	sbrc	r24, 7
				State = TH1;
     fbe:	02 c0       	rjmp	.+4      	; 0xfc4 <loop+0x316>
     fc0:	86 e0       	ldi	r24, 0x06	; 6
				} else {
				State = TH0;
     fc2:	01 c0       	rjmp	.+2      	; 0xfc6 <loop+0x318>
     fc4:	85 e0       	ldi	r24, 0x05	; 5
     fc6:	80 93 51 08 	sts	0x0851, r24	; 0x800851 <State>
		
		break;
		
		case TH0: //no threat to life
		
		if (Deescalation_dismiss)
     fca:	c4 c0       	rjmp	.+392    	; 0x1154 <loop+0x4a6>
     fcc:	80 91 53 08 	lds	r24, 0x0853	; 0x800853 <Deescalation_dismiss>
		{
			Deescalation_dismiss = false;
     fd0:	81 11       	cpse	r24, r1
     fd2:	10 92 53 08 	sts	0x0853, r1	; 0x800853 <Deescalation_dismiss>
		}
		
		if (Testing_mode){
     fd6:	80 91 06 02 	lds	r24, 0x0206	; 0x800206 <Testing_mode>
			Serial.println("TH0");
     fda:	88 23       	and	r24, r24
     fdc:	29 f0       	breq	.+10     	; 0xfe8 <loop+0x33a>
     fde:	67 eb       	ldi	r22, 0xB7	; 183
     fe0:	72 e0       	ldi	r23, 0x02	; 2
     fe2:	89 ee       	ldi	r24, 0xE9	; 233
     fe4:	99 e0       	ldi	r25, 0x09	; 9
		}
		//check occupancy
		//if (Occupant_detect()){
			//Occupant_flag = true;
			//} else 
			if (!Occupant_flag){
     fe6:	c5 d7       	rcall	.+3978   	; 0x1f72 <_ZN5Print7printlnEPKc>
     fe8:	80 91 50 08 	lds	r24, 0x0850	; 0x800850 <Occupant_flag>
     fec:	81 11       	cpse	r24, r1
			/*Calibrate Ping sensor*/
			Calibrate_enable = false; //run calibration only once
     fee:	0b c0       	rjmp	.+22     	; 0x1006 <loop+0x358>
     ff0:	10 92 52 08 	sts	0x0852, r1	; 0x800852 <Calibrate_enable>
			
			if(!Testing_mode)
     ff4:	80 91 06 02 	lds	r24, 0x0206	; 0x800206 <Testing_mode>
			Seat_Distance = Ping_calibration(); //the call to Ping_calibration when the sensor is not connected will crash the system because of its blocking nature
     ff8:	81 11       	cpse	r24, r1
     ffa:	05 c0       	rjmp	.+10     	; 0x1006 <loop+0x358>
     ffc:	2e de       	rcall	.-932    	; 0xc5a <_Z16Ping_calibrationv>
     ffe:	90 93 08 02 	sts	0x0208, r25	; 0x800208 <Seat_Distance+0x1>
    1002:	80 93 07 02 	sts	0x0207, r24	; 0x800207 <Seat_Distance>
		}
		
		if (Felt_temp >= 80 && !User_dismiss){
    1006:	20 e0       	ldi	r18, 0x00	; 0
    1008:	30 e0       	ldi	r19, 0x00	; 0
    100a:	40 ea       	ldi	r20, 0xA0	; 160
    100c:	52 e4       	ldi	r21, 0x42	; 66
    100e:	60 91 3e 08 	lds	r22, 0x083E	; 0x80083e <Felt_temp>
    1012:	70 91 3f 08 	lds	r23, 0x083F	; 0x80083f <Felt_temp+0x1>
    1016:	80 91 40 08 	lds	r24, 0x0840	; 0x800840 <Felt_temp+0x2>
    101a:	90 91 41 08 	lds	r25, 0x0841	; 0x800841 <Felt_temp+0x3>
    101e:	6f d3       	rcall	.+1758   	; 0x16fe <__gesf2>
    1020:	87 fd       	sbrc	r24, 7
    1022:	98 c0       	rjmp	.+304    	; 0x1154 <loop+0x4a6>
    1024:	80 91 54 08 	lds	r24, 0x0854	; 0x800854 <User_dismiss>
    1028:	81 11       	cpse	r24, r1
			State = TH1;
    102a:	94 c0       	rjmp	.+296    	; 0x1154 <loop+0x4a6>
    102c:	86 e0       	ldi	r24, 0x06	; 6
    102e:	80 93 51 08 	sts	0x0851, r24	; 0x800851 <State>
			Deescalation_dismiss = false;
    1032:	10 92 53 08 	sts	0x0853, r1	; 0x800853 <Deescalation_dismiss>
		
		break;
		
		case TH1:
		
		if (Testing_mode){
    1036:	8e c0       	rjmp	.+284    	; 0x1154 <loop+0x4a6>
    1038:	80 91 06 02 	lds	r24, 0x0206	; 0x800206 <Testing_mode>
			Serial.println("TH1");
    103c:	88 23       	and	r24, r24
    103e:	29 f0       	breq	.+10     	; 0x104a <loop+0x39c>
    1040:	6b eb       	ldi	r22, 0xBB	; 187
    1042:	72 e0       	ldi	r23, 0x02	; 2
    1044:	89 ee       	ldi	r24, 0xE9	; 233
    1046:	99 e0       	ldi	r25, 0x09	; 9
		}
		
		//send notification
		
		if (Felt_temp > 86){
    1048:	94 d7       	rcall	.+3880   	; 0x1f72 <_ZN5Print7printlnEPKc>
    104a:	c0 90 3e 08 	lds	r12, 0x083E	; 0x80083e <Felt_temp>
    104e:	d0 90 3f 08 	lds	r13, 0x083F	; 0x80083f <Felt_temp+0x1>
    1052:	e0 90 40 08 	lds	r14, 0x0840	; 0x800840 <Felt_temp+0x2>
    1056:	f0 90 41 08 	lds	r15, 0x0841	; 0x800841 <Felt_temp+0x3>
    105a:	20 e0       	ldi	r18, 0x00	; 0
    105c:	30 e0       	ldi	r19, 0x00	; 0
    105e:	4c ea       	ldi	r20, 0xAC	; 172
    1060:	52 e4       	ldi	r21, 0x42	; 66
    1062:	c7 01       	movw	r24, r14
    1064:	b6 01       	movw	r22, r12
    1066:	4b d3       	rcall	.+1686   	; 0x16fe <__gesf2>
    1068:	18 16       	cp	r1, r24
			State = TH2;
    106a:	14 f4       	brge	.+4      	; 0x1070 <loop+0x3c2>
    106c:	87 e0       	ldi	r24, 0x07	; 7
			Deescalation_dismiss = false;
			} else if (Felt_temp < 80){
    106e:	df cf       	rjmp	.-66     	; 0x102e <loop+0x380>
    1070:	20 e0       	ldi	r18, 0x00	; 0
    1072:	30 e0       	ldi	r19, 0x00	; 0
    1074:	40 ea       	ldi	r20, 0xA0	; 160
    1076:	52 e4       	ldi	r21, 0x42	; 66
    1078:	c7 01       	movw	r24, r14
    107a:	b6 01       	movw	r22, r12
    107c:	f1 d1       	rcall	.+994    	; 0x1460 <__cmpsf2>
    107e:	87 ff       	sbrs	r24, 7
			State = Stopped;
    1080:	69 c0       	rjmp	.+210    	; 0x1154 <loop+0x4a6>
    1082:	82 e0       	ldi	r24, 0x02	; 2
    1084:	80 93 51 08 	sts	0x0851, r24	; 0x800851 <State>
			Deescalation_dismiss = 1;
    1088:	81 e0       	ldi	r24, 0x01	; 1
    108a:	80 93 53 08 	sts	0x0853, r24	; 0x800853 <Deescalation_dismiss>
		}
		break;
		
		case TH2:
		
		if (Testing_mode){
    108e:	62 c0       	rjmp	.+196    	; 0x1154 <loop+0x4a6>
    1090:	80 91 06 02 	lds	r24, 0x0206	; 0x800206 <Testing_mode>
			Serial.println("TH2");
    1094:	88 23       	and	r24, r24
    1096:	29 f0       	breq	.+10     	; 0x10a2 <loop+0x3f4>
    1098:	6f eb       	ldi	r22, 0xBF	; 191
    109a:	72 e0       	ldi	r23, 0x02	; 2
    109c:	89 ee       	ldi	r24, 0xE9	; 233
    109e:	99 e0       	ldi	r25, 0x09	; 9
		}
		
		//lower windows, send notification to owners
		
		if (Felt_temp > 91){
    10a0:	68 d7       	rcall	.+3792   	; 0x1f72 <_ZN5Print7printlnEPKc>
    10a2:	c0 90 3e 08 	lds	r12, 0x083E	; 0x80083e <Felt_temp>
    10a6:	d0 90 3f 08 	lds	r13, 0x083F	; 0x80083f <Felt_temp+0x1>
    10aa:	e0 90 40 08 	lds	r14, 0x0840	; 0x800840 <Felt_temp+0x2>
    10ae:	f0 90 41 08 	lds	r15, 0x0841	; 0x800841 <Felt_temp+0x3>
    10b2:	20 e0       	ldi	r18, 0x00	; 0
    10b4:	30 e0       	ldi	r19, 0x00	; 0
    10b6:	46 eb       	ldi	r20, 0xB6	; 182
    10b8:	52 e4       	ldi	r21, 0x42	; 66
    10ba:	c7 01       	movw	r24, r14
    10bc:	b6 01       	movw	r22, r12
    10be:	1f d3       	rcall	.+1598   	; 0x16fe <__gesf2>
    10c0:	18 16       	cp	r1, r24
			State = TH3;
    10c2:	14 f4       	brge	.+4      	; 0x10c8 <loop+0x41a>
    10c4:	88 e0       	ldi	r24, 0x08	; 8
			Deescalation_dismiss = false;
		} else if (Felt_temp < 86)
    10c6:	b3 cf       	rjmp	.-154    	; 0x102e <loop+0x380>
    10c8:	20 e0       	ldi	r18, 0x00	; 0
    10ca:	30 e0       	ldi	r19, 0x00	; 0
    10cc:	4c ea       	ldi	r20, 0xAC	; 172
    10ce:	52 e4       	ldi	r21, 0x42	; 66
		}
		break;
		
		case TH3:
		
		if (Testing_mode){
    10d0:	d3 cf       	rjmp	.-90     	; 0x1078 <loop+0x3ca>
    10d2:	80 91 06 02 	lds	r24, 0x0206	; 0x800206 <Testing_mode>
    10d6:	88 23       	and	r24, r24
			Serial.println("TH3");
    10d8:	29 f0       	breq	.+10     	; 0x10e4 <loop+0x436>
    10da:	63 ec       	ldi	r22, 0xC3	; 195
    10dc:	72 e0       	ldi	r23, 0x02	; 2
    10de:	89 ee       	ldi	r24, 0xE9	; 233
    10e0:	99 e0       	ldi	r25, 0x09	; 9
		}
		
		//911 alert, lights and alarms, send notification to owners
		digitalWrite(Car_unlock_pin, HIGH);
    10e2:	47 d7       	rcall	.+3726   	; 0x1f72 <_ZN5Print7printlnEPKc>
    10e4:	61 e0       	ldi	r22, 0x01	; 1
    10e6:	8b e2       	ldi	r24, 0x2B	; 43
    10e8:	0e 94 8a 12 	call	0x2514	; 0x2514 <digitalWrite>
		digitalWrite(Alarm_Lights_pin, HIGH);
    10ec:	61 e0       	ldi	r22, 0x01	; 1
    10ee:	89 e2       	ldi	r24, 0x29	; 41
    10f0:	0e 94 8a 12 	call	0x2514	; 0x2514 <digitalWrite>
		
		if (Felt_temp > 105){
    10f4:	c0 90 3e 08 	lds	r12, 0x083E	; 0x80083e <Felt_temp>
    10f8:	d0 90 3f 08 	lds	r13, 0x083F	; 0x80083f <Felt_temp+0x1>
    10fc:	e0 90 40 08 	lds	r14, 0x0840	; 0x800840 <Felt_temp+0x2>
    1100:	f0 90 41 08 	lds	r15, 0x0841	; 0x800841 <Felt_temp+0x3>
    1104:	20 e0       	ldi	r18, 0x00	; 0
    1106:	30 e0       	ldi	r19, 0x00	; 0
    1108:	42 ed       	ldi	r20, 0xD2	; 210
    110a:	52 e4       	ldi	r21, 0x42	; 66
    110c:	c7 01       	movw	r24, r14
    110e:	b6 01       	movw	r22, r12
    1110:	f6 d2       	rcall	.+1516   	; 0x16fe <__gesf2>
    1112:	18 16       	cp	r1, r24
			State = TH4;
    1114:	14 f4       	brge	.+4      	; 0x111a <loop+0x46c>
    1116:	89 e0       	ldi	r24, 0x09	; 9
			Deescalation_dismiss = false;
		} else if (Felt_temp < 91)
    1118:	8a cf       	rjmp	.-236    	; 0x102e <loop+0x380>
    111a:	20 e0       	ldi	r18, 0x00	; 0
    111c:	30 e0       	ldi	r19, 0x00	; 0
    111e:	46 eb       	ldi	r20, 0xB6	; 182
    1120:	52 e4       	ldi	r21, 0x42	; 66
		}
		break;
		
		case TH4:
		
		if (Testing_mode){
    1122:	aa cf       	rjmp	.-172    	; 0x1078 <loop+0x3ca>
    1124:	80 91 06 02 	lds	r24, 0x0206	; 0x800206 <Testing_mode>
    1128:	88 23       	and	r24, r24
			Serial.println("TH4");
    112a:	29 f0       	breq	.+10     	; 0x1136 <loop+0x488>
    112c:	67 ec       	ldi	r22, 0xC7	; 199
    112e:	72 e0       	ldi	r23, 0x02	; 2
    1130:	89 ee       	ldi	r24, 0xE9	; 233
    1132:	99 e0       	ldi	r25, 0x09	; 9
    1134:	1e d7       	rcall	.+3644   	; 0x1f72 <_ZN5Print7printlnEPKc>
		}
		
		//open car door
		
		if (Felt_temp < 105){
    1136:	20 e0       	ldi	r18, 0x00	; 0
    1138:	30 e0       	ldi	r19, 0x00	; 0
    113a:	42 ed       	ldi	r20, 0xD2	; 210
    113c:	52 e4       	ldi	r21, 0x42	; 66
    113e:	60 91 3e 08 	lds	r22, 0x083E	; 0x80083e <Felt_temp>
    1142:	70 91 3f 08 	lds	r23, 0x083F	; 0x80083f <Felt_temp+0x1>
    1146:	80 91 40 08 	lds	r24, 0x0840	; 0x800840 <Felt_temp+0x2>
    114a:	90 91 41 08 	lds	r25, 0x0841	; 0x800841 <Felt_temp+0x3>
    114e:	96 cf       	rjmp	.-212    	; 0x107c <loop+0x3ce>
			Deescalation_dismiss = 1;
		}
		break;
		
		default:
		State = Running;
    1150:	10 92 51 08 	sts	0x0851, r1	; 0x800851 <State>

	/*
	sleep here for 1 minute
	*/

    1154:	6e 96       	adiw	r28, 0x1e	; 30
    1156:	0f b6       	in	r0, 0x3f	; 63
    1158:	f8 94       	cli
    115a:	de bf       	out	0x3e, r29	; 62
    115c:	0f be       	out	0x3f, r0	; 63
    115e:	cd bf       	out	0x3d, r28	; 61
    1160:	df 91       	pop	r29
    1162:	cf 91       	pop	r28
    1164:	1f 91       	pop	r17
    1166:	0f 91       	pop	r16
    1168:	ff 90       	pop	r15
    116a:	ef 90       	pop	r14
    116c:	df 90       	pop	r13
    116e:	cf 90       	pop	r12
    1170:	08 95       	ret

00001172 <_Z13Thermal_setupv>:
    1172:	69 e6       	ldi	r22, 0x69	; 105
    1174:	8b e7       	ldi	r24, 0x7B	; 123
    1176:	98 e0       	ldi	r25, 0x08	; 8
    1178:	0e 94 f0 13 	call	0x27e0	; 0x27e0 <_ZN16Adafruit_AMG88xx5beginEh>
    117c:	81 11       	cpse	r24, r1
    117e:	06 c0       	rjmp	.+12     	; 0x118c <_Z13Thermal_setupv+0x1a>
    1180:	6b ec       	ldi	r22, 0xCB	; 203
    1182:	72 e0       	ldi	r23, 0x02	; 2
    1184:	89 ee       	ldi	r24, 0xE9	; 233
    1186:	99 e0       	ldi	r25, 0x09	; 9
    1188:	f4 d6       	rcall	.+3560   	; 0x1f72 <_ZN5Print7printlnEPKc>
    118a:	ff cf       	rjmp	.-2      	; 0x118a <_Z13Thermal_setupv+0x18>
    118c:	60 e0       	ldi	r22, 0x00	; 0
    118e:	73 e0       	ldi	r23, 0x03	; 3
    1190:	89 ee       	ldi	r24, 0xE9	; 233
    1192:	99 e0       	ldi	r25, 0x09	; 9
    1194:	ee d6       	rcall	.+3548   	; 0x1f72 <_ZN5Print7printlnEPKc>
    1196:	64 e6       	ldi	r22, 0x64	; 100
    1198:	70 e0       	ldi	r23, 0x00	; 0
    119a:	80 e0       	ldi	r24, 0x00	; 0
    119c:	90 e0       	ldi	r25, 0x00	; 0
    119e:	0c 94 2c 11 	jmp	0x2258	; 0x2258 <delay>
    11a2:	08 95       	ret

000011a4 <_Z12Thermal_readv>:
    11a4:	8f 92       	push	r8
    11a6:	9f 92       	push	r9
    11a8:	af 92       	push	r10
    11aa:	bf 92       	push	r11
    11ac:	cf 92       	push	r12
    11ae:	df 92       	push	r13
    11b0:	ef 92       	push	r14
    11b2:	ff 92       	push	r15
    11b4:	0f 93       	push	r16
    11b6:	1f 93       	push	r17
    11b8:	cf 93       	push	r28
    11ba:	df 93       	push	r29
    11bc:	00 d0       	rcall	.+0      	; 0x11be <_Z12Thermal_readv+0x1a>
    11be:	00 d0       	rcall	.+0      	; 0x11c0 <_Z12Thermal_readv+0x1c>
    11c0:	cd b7       	in	r28, 0x3d	; 61
    11c2:	de b7       	in	r29, 0x3e	; 62
    11c4:	40 e4       	ldi	r20, 0x40	; 64
    11c6:	62 ed       	ldi	r22, 0xD2	; 210
    11c8:	78 e0       	ldi	r23, 0x08	; 8
    11ca:	8b e7       	ldi	r24, 0x7B	; 123
    11cc:	98 e0       	ldi	r25, 0x08	; 8
    11ce:	0e 94 67 14 	call	0x28ce	; 0x28ce <_ZN16Adafruit_AMG88xx10readPixelsEPfh>
    11d2:	82 ed       	ldi	r24, 0xD2	; 210
    11d4:	c8 2e       	mov	r12, r24
    11d6:	88 e0       	ldi	r24, 0x08	; 8
    11d8:	d8 2e       	mov	r13, r24
    11da:	00 e0       	ldi	r16, 0x00	; 0
    11dc:	10 e0       	ldi	r17, 0x00	; 0
    11de:	e1 2c       	mov	r14, r1
    11e0:	f1 2c       	mov	r15, r1
    11e2:	f6 01       	movw	r30, r12
    11e4:	81 90       	ld	r8, Z+
    11e6:	91 90       	ld	r9, Z+
    11e8:	a1 90       	ld	r10, Z+
    11ea:	b1 90       	ld	r11, Z+
    11ec:	6f 01       	movw	r12, r30
    11ee:	b8 01       	movw	r22, r16
    11f0:	01 2e       	mov	r0, r17
    11f2:	00 0c       	add	r0, r0
    11f4:	88 0b       	sbc	r24, r24
    11f6:	99 0b       	sbc	r25, r25
    11f8:	d2 d1       	rcall	.+932    	; 0x159e <__floatsisf>
    11fa:	9b 01       	movw	r18, r22
    11fc:	ac 01       	movw	r20, r24
    11fe:	c5 01       	movw	r24, r10
    1200:	b4 01       	movw	r22, r8
    1202:	7d d2       	rcall	.+1274   	; 0x16fe <__gesf2>
    1204:	18 16       	cp	r1, r24
    1206:	24 f4       	brge	.+8      	; 0x1210 <_Z12Thermal_readv+0x6c>
    1208:	c5 01       	movw	r24, r10
    120a:	b4 01       	movw	r22, r8
    120c:	95 d1       	rcall	.+810    	; 0x1538 <__fixsfsi>
    120e:	8b 01       	movw	r16, r22
    1210:	20 e0       	ldi	r18, 0x00	; 0
    1212:	30 e0       	ldi	r19, 0x00	; 0
    1214:	48 eb       	ldi	r20, 0xB8	; 184
    1216:	51 e4       	ldi	r21, 0x41	; 65
    1218:	c5 01       	movw	r24, r10
    121a:	b4 01       	movw	r22, r8
    121c:	70 d2       	rcall	.+1248   	; 0x16fe <__gesf2>
    121e:	87 fd       	sbrc	r24, 7
    1220:	03 c0       	rjmp	.+6      	; 0x1228 <_Z12Thermal_readv+0x84>
    1222:	ff ef       	ldi	r31, 0xFF	; 255
    1224:	ef 1a       	sub	r14, r31
    1226:	ff 0a       	sbc	r15, r31
    1228:	82 ed       	ldi	r24, 0xD2	; 210
    122a:	c8 16       	cp	r12, r24
    122c:	89 e0       	ldi	r24, 0x09	; 9
    122e:	d8 06       	cpc	r13, r24
    1230:	c1 f6       	brne	.-80     	; 0x11e2 <_Z12Thermal_readv+0x3e>
    1232:	08 31       	cpi	r16, 0x18	; 24
    1234:	11 05       	cpc	r17, r1
    1236:	44 f0       	brlt	.+16     	; 0x1248 <_Z12Thermal_readv+0xa4>
    1238:	61 e0       	ldi	r22, 0x01	; 1
    123a:	80 e0       	ldi	r24, 0x00	; 0
    123c:	95 e0       	ldi	r25, 0x05	; 5
    123e:	e9 16       	cp	r14, r25
    1240:	f1 04       	cpc	r15, r1
    1242:	24 f4       	brge	.+8      	; 0x124c <_Z12Thermal_readv+0xa8>
    1244:	60 e0       	ldi	r22, 0x00	; 0
    1246:	02 c0       	rjmp	.+4      	; 0x124c <_Z12Thermal_readv+0xa8>
    1248:	60 e0       	ldi	r22, 0x00	; 0
    124a:	80 e0       	ldi	r24, 0x00	; 0
    124c:	1a 83       	std	Y+2, r17	; 0x02
    124e:	09 83       	std	Y+1, r16	; 0x01
    1250:	fc 82       	std	Y+4, r15	; 0x04
    1252:	eb 82       	std	Y+3, r14	; 0x03
    1254:	20 2f       	mov	r18, r16
    1256:	3a 81       	ldd	r19, Y+2	; 0x02
    1258:	4e 2d       	mov	r20, r14
    125a:	5c 81       	ldd	r21, Y+4	; 0x04
    125c:	78 2f       	mov	r23, r24
    125e:	80 e0       	ldi	r24, 0x00	; 0
    1260:	90 e0       	ldi	r25, 0x00	; 0
    1262:	26 96       	adiw	r28, 0x06	; 6
    1264:	0f b6       	in	r0, 0x3f	; 63
    1266:	f8 94       	cli
    1268:	de bf       	out	0x3e, r29	; 62
    126a:	0f be       	out	0x3f, r0	; 63
    126c:	cd bf       	out	0x3d, r28	; 61
    126e:	df 91       	pop	r29
    1270:	cf 91       	pop	r28
    1272:	1f 91       	pop	r17
    1274:	0f 91       	pop	r16
    1276:	ff 90       	pop	r15
    1278:	ef 90       	pop	r14
    127a:	df 90       	pop	r13
    127c:	cf 90       	pop	r12
    127e:	bf 90       	pop	r11
    1280:	af 90       	pop	r10
    1282:	9f 90       	pop	r9
    1284:	8f 90       	pop	r8
    1286:	08 95       	ret

00001288 <_GLOBAL__sub_I_displayPixelWidth>:
    1288:	20 e3       	ldi	r18, 0x30	; 48
    128a:	41 e3       	ldi	r20, 0x31	; 49
    128c:	65 e3       	ldi	r22, 0x35	; 53
    128e:	8b e8       	ldi	r24, 0x8B	; 139
    1290:	98 e0       	ldi	r25, 0x08	; 8
    1292:	0c 94 33 17 	jmp	0x2e66	; 0x2e66 <_ZN15Adafruit_ST7735C1Eaaa>

00001296 <_ZN7HIH4030C1Ehf>:
    1296:	fc 01       	movw	r30, r24
    1298:	86 2f       	mov	r24, r22
    129a:	60 83       	st	Z, r22
    129c:	21 83       	std	Z+1, r18	; 0x01
    129e:	32 83       	std	Z+2, r19	; 0x02
    12a0:	43 83       	std	Z+3, r20	; 0x03
    12a2:	54 83       	std	Z+4, r21	; 0x04
    12a4:	60 e0       	ldi	r22, 0x00	; 0
    12a6:	0c 94 4e 12 	jmp	0x249c	; 0x249c <pinMode>

000012aa <_Z15Get_temperaturev>:
    12aa:	87 ed       	ldi	r24, 0xD7	; 215
    12ac:	99 e0       	ldi	r25, 0x09	; 9
    12ae:	68 c0       	rjmp	.+208    	; 0x1380 <_ZN5TMP368getTempFEv>

000012b0 <_Z20Get_Felt_Temperaturev>:
    12b0:	fc cf       	rjmp	.-8      	; 0x12aa <_Z15Get_temperaturev>

000012b2 <_GLOBAL__sub_I_myTMP36>:
    12b2:	20 e0       	ldi	r18, 0x00	; 0
    12b4:	30 e0       	ldi	r19, 0x00	; 0
    12b6:	40 ea       	ldi	r20, 0xA0	; 160
    12b8:	50 e4       	ldi	r21, 0x40	; 64
    12ba:	67 e3       	ldi	r22, 0x37	; 55
    12bc:	87 ed       	ldi	r24, 0xD7	; 215
    12be:	99 e0       	ldi	r25, 0x09	; 9
    12c0:	08 d0       	rcall	.+16     	; 0x12d2 <_ZN5TMP36C1Ehf>
    12c2:	20 e0       	ldi	r18, 0x00	; 0
    12c4:	30 e0       	ldi	r19, 0x00	; 0
    12c6:	40 ea       	ldi	r20, 0xA0	; 160
    12c8:	50 e4       	ldi	r21, 0x40	; 64
    12ca:	67 e3       	ldi	r22, 0x37	; 55
    12cc:	82 ed       	ldi	r24, 0xD2	; 210
    12ce:	99 e0       	ldi	r25, 0x09	; 9
    12d0:	e2 cf       	rjmp	.-60     	; 0x1296 <_ZN7HIH4030C1Ehf>

000012d2 <_ZN5TMP36C1Ehf>:
    12d2:	cf 92       	push	r12
    12d4:	df 92       	push	r13
    12d6:	ef 92       	push	r14
    12d8:	ff 92       	push	r15
    12da:	1f 93       	push	r17
    12dc:	cf 93       	push	r28
    12de:	df 93       	push	r29
    12e0:	ec 01       	movw	r28, r24
    12e2:	16 2f       	mov	r17, r22
    12e4:	69 01       	movw	r12, r18
    12e6:	7a 01       	movw	r14, r20
    12e8:	60 e0       	ldi	r22, 0x00	; 0
    12ea:	81 2f       	mov	r24, r17
    12ec:	0e 94 4e 12 	call	0x249c	; 0x249c <pinMode>
    12f0:	ca 82       	std	Y+2, r12	; 0x02
    12f2:	db 82       	std	Y+3, r13	; 0x03
    12f4:	ec 82       	std	Y+4, r14	; 0x04
    12f6:	fd 82       	std	Y+5, r15	; 0x05
    12f8:	18 83       	st	Y, r17
    12fa:	df 91       	pop	r29
    12fc:	cf 91       	pop	r28
    12fe:	1f 91       	pop	r17
    1300:	ff 90       	pop	r15
    1302:	ef 90       	pop	r14
    1304:	df 90       	pop	r13
    1306:	cf 90       	pop	r12
    1308:	08 95       	ret

0000130a <_ZN5TMP369getValuesEv>:
    130a:	cf 93       	push	r28
    130c:	df 93       	push	r29
    130e:	ec 01       	movw	r28, r24
    1310:	88 81       	ld	r24, Y
    1312:	0e 94 d3 11 	call	0x23a6	; 0x23a6 <analogRead>
    1316:	89 83       	std	Y+1, r24	; 0x01
    1318:	bc 01       	movw	r22, r24
    131a:	77 27       	eor	r23, r23
    131c:	07 2e       	mov	r0, r23
    131e:	00 0c       	add	r0, r0
    1320:	88 0b       	sbc	r24, r24
    1322:	99 0b       	sbc	r25, r25
    1324:	3c d1       	rcall	.+632    	; 0x159e <__floatsisf>
    1326:	20 e0       	ldi	r18, 0x00	; 0
    1328:	30 e0       	ldi	r19, 0x00	; 0
    132a:	40 e8       	ldi	r20, 0x80	; 128
    132c:	5a e3       	ldi	r21, 0x3A	; 58
    132e:	eb d1       	rcall	.+982    	; 0x1706 <__mulsf3>
    1330:	2a 81       	ldd	r18, Y+2	; 0x02
    1332:	3b 81       	ldd	r19, Y+3	; 0x03
    1334:	4c 81       	ldd	r20, Y+4	; 0x04
    1336:	5d 81       	ldd	r21, Y+5	; 0x05
    1338:	e6 d1       	rcall	.+972    	; 0x1706 <__mulsf3>
    133a:	6e 83       	std	Y+6, r22	; 0x06
    133c:	7f 83       	std	Y+7, r23	; 0x07
    133e:	88 87       	std	Y+8, r24	; 0x08
    1340:	99 87       	std	Y+9, r25	; 0x09
    1342:	20 e0       	ldi	r18, 0x00	; 0
    1344:	30 e0       	ldi	r19, 0x00	; 0
    1346:	40 e0       	ldi	r20, 0x00	; 0
    1348:	5f e3       	ldi	r21, 0x3F	; 63
    134a:	25 d0       	rcall	.+74     	; 0x1396 <__subsf3>
    134c:	20 e0       	ldi	r18, 0x00	; 0
    134e:	30 e0       	ldi	r19, 0x00	; 0
    1350:	48 ec       	ldi	r20, 0xC8	; 200
    1352:	52 e4       	ldi	r21, 0x42	; 66
    1354:	d8 d1       	rcall	.+944    	; 0x1706 <__mulsf3>
    1356:	6a 87       	std	Y+10, r22	; 0x0a
    1358:	7b 87       	std	Y+11, r23	; 0x0b
    135a:	8c 87       	std	Y+12, r24	; 0x0c
    135c:	9d 87       	std	Y+13, r25	; 0x0d
    135e:	26 e6       	ldi	r18, 0x66	; 102
    1360:	36 e6       	ldi	r19, 0x66	; 102
    1362:	46 ee       	ldi	r20, 0xE6	; 230
    1364:	5f e3       	ldi	r21, 0x3F	; 63
    1366:	cf d1       	rcall	.+926    	; 0x1706 <__mulsf3>
    1368:	20 e0       	ldi	r18, 0x00	; 0
    136a:	30 e0       	ldi	r19, 0x00	; 0
    136c:	40 e0       	ldi	r20, 0x00	; 0
    136e:	52 e4       	ldi	r21, 0x42	; 66
    1370:	13 d0       	rcall	.+38     	; 0x1398 <__addsf3>
    1372:	6e 87       	std	Y+14, r22	; 0x0e
    1374:	7f 87       	std	Y+15, r23	; 0x0f
    1376:	88 8b       	std	Y+16, r24	; 0x10
    1378:	99 8b       	std	Y+17, r25	; 0x11
    137a:	df 91       	pop	r29
    137c:	cf 91       	pop	r28
    137e:	08 95       	ret

00001380 <_ZN5TMP368getTempFEv>:
    1380:	cf 93       	push	r28
    1382:	df 93       	push	r29
    1384:	ec 01       	movw	r28, r24
    1386:	c1 df       	rcall	.-126    	; 0x130a <_ZN5TMP369getValuesEv>
    1388:	6e 85       	ldd	r22, Y+14	; 0x0e
    138a:	7f 85       	ldd	r23, Y+15	; 0x0f
    138c:	88 89       	ldd	r24, Y+16	; 0x10
    138e:	99 89       	ldd	r25, Y+17	; 0x11
    1390:	df 91       	pop	r29
    1392:	cf 91       	pop	r28
    1394:	08 95       	ret

00001396 <__subsf3>:
    1396:	50 58       	subi	r21, 0x80	; 128

00001398 <__addsf3>:
    1398:	bb 27       	eor	r27, r27
    139a:	aa 27       	eor	r26, r26
    139c:	0e d0       	rcall	.+28     	; 0x13ba <__addsf3x>
    139e:	75 c1       	rjmp	.+746    	; 0x168a <__fp_round>
    13a0:	66 d1       	rcall	.+716    	; 0x166e <__fp_pscA>
    13a2:	30 f0       	brcs	.+12     	; 0x13b0 <__addsf3+0x18>
    13a4:	6b d1       	rcall	.+726    	; 0x167c <__fp_pscB>
    13a6:	20 f0       	brcs	.+8      	; 0x13b0 <__addsf3+0x18>
    13a8:	31 f4       	brne	.+12     	; 0x13b6 <__addsf3+0x1e>
    13aa:	9f 3f       	cpi	r25, 0xFF	; 255
    13ac:	11 f4       	brne	.+4      	; 0x13b2 <__addsf3+0x1a>
    13ae:	1e f4       	brtc	.+6      	; 0x13b6 <__addsf3+0x1e>
    13b0:	5b c1       	rjmp	.+694    	; 0x1668 <__fp_nan>
    13b2:	0e f4       	brtc	.+2      	; 0x13b6 <__addsf3+0x1e>
    13b4:	e0 95       	com	r30
    13b6:	e7 fb       	bst	r30, 7
    13b8:	51 c1       	rjmp	.+674    	; 0x165c <__fp_inf>

000013ba <__addsf3x>:
    13ba:	e9 2f       	mov	r30, r25
    13bc:	77 d1       	rcall	.+750    	; 0x16ac <__fp_split3>
    13be:	80 f3       	brcs	.-32     	; 0x13a0 <__addsf3+0x8>
    13c0:	ba 17       	cp	r27, r26
    13c2:	62 07       	cpc	r22, r18
    13c4:	73 07       	cpc	r23, r19
    13c6:	84 07       	cpc	r24, r20
    13c8:	95 07       	cpc	r25, r21
    13ca:	18 f0       	brcs	.+6      	; 0x13d2 <__addsf3x+0x18>
    13cc:	71 f4       	brne	.+28     	; 0x13ea <__addsf3x+0x30>
    13ce:	9e f5       	brtc	.+102    	; 0x1436 <__addsf3x+0x7c>
    13d0:	8f c1       	rjmp	.+798    	; 0x16f0 <__fp_zero>
    13d2:	0e f4       	brtc	.+2      	; 0x13d6 <__addsf3x+0x1c>
    13d4:	e0 95       	com	r30
    13d6:	0b 2e       	mov	r0, r27
    13d8:	ba 2f       	mov	r27, r26
    13da:	a0 2d       	mov	r26, r0
    13dc:	0b 01       	movw	r0, r22
    13de:	b9 01       	movw	r22, r18
    13e0:	90 01       	movw	r18, r0
    13e2:	0c 01       	movw	r0, r24
    13e4:	ca 01       	movw	r24, r20
    13e6:	a0 01       	movw	r20, r0
    13e8:	11 24       	eor	r1, r1
    13ea:	ff 27       	eor	r31, r31
    13ec:	59 1b       	sub	r21, r25
    13ee:	99 f0       	breq	.+38     	; 0x1416 <__addsf3x+0x5c>
    13f0:	59 3f       	cpi	r21, 0xF9	; 249
    13f2:	50 f4       	brcc	.+20     	; 0x1408 <__addsf3x+0x4e>
    13f4:	50 3e       	cpi	r21, 0xE0	; 224
    13f6:	68 f1       	brcs	.+90     	; 0x1452 <__addsf3x+0x98>
    13f8:	1a 16       	cp	r1, r26
    13fa:	f0 40       	sbci	r31, 0x00	; 0
    13fc:	a2 2f       	mov	r26, r18
    13fe:	23 2f       	mov	r18, r19
    1400:	34 2f       	mov	r19, r20
    1402:	44 27       	eor	r20, r20
    1404:	58 5f       	subi	r21, 0xF8	; 248
    1406:	f3 cf       	rjmp	.-26     	; 0x13ee <__addsf3x+0x34>
    1408:	46 95       	lsr	r20
    140a:	37 95       	ror	r19
    140c:	27 95       	ror	r18
    140e:	a7 95       	ror	r26
    1410:	f0 40       	sbci	r31, 0x00	; 0
    1412:	53 95       	inc	r21
    1414:	c9 f7       	brne	.-14     	; 0x1408 <__addsf3x+0x4e>
    1416:	7e f4       	brtc	.+30     	; 0x1436 <__addsf3x+0x7c>
    1418:	1f 16       	cp	r1, r31
    141a:	ba 0b       	sbc	r27, r26
    141c:	62 0b       	sbc	r22, r18
    141e:	73 0b       	sbc	r23, r19
    1420:	84 0b       	sbc	r24, r20
    1422:	ba f0       	brmi	.+46     	; 0x1452 <__addsf3x+0x98>
    1424:	91 50       	subi	r25, 0x01	; 1
    1426:	a1 f0       	breq	.+40     	; 0x1450 <__addsf3x+0x96>
    1428:	ff 0f       	add	r31, r31
    142a:	bb 1f       	adc	r27, r27
    142c:	66 1f       	adc	r22, r22
    142e:	77 1f       	adc	r23, r23
    1430:	88 1f       	adc	r24, r24
    1432:	c2 f7       	brpl	.-16     	; 0x1424 <__addsf3x+0x6a>
    1434:	0e c0       	rjmp	.+28     	; 0x1452 <__addsf3x+0x98>
    1436:	ba 0f       	add	r27, r26
    1438:	62 1f       	adc	r22, r18
    143a:	73 1f       	adc	r23, r19
    143c:	84 1f       	adc	r24, r20
    143e:	48 f4       	brcc	.+18     	; 0x1452 <__addsf3x+0x98>
    1440:	87 95       	ror	r24
    1442:	77 95       	ror	r23
    1444:	67 95       	ror	r22
    1446:	b7 95       	ror	r27
    1448:	f7 95       	ror	r31
    144a:	9e 3f       	cpi	r25, 0xFE	; 254
    144c:	08 f0       	brcs	.+2      	; 0x1450 <__addsf3x+0x96>
    144e:	b3 cf       	rjmp	.-154    	; 0x13b6 <__addsf3+0x1e>
    1450:	93 95       	inc	r25
    1452:	88 0f       	add	r24, r24
    1454:	08 f0       	brcs	.+2      	; 0x1458 <__addsf3x+0x9e>
    1456:	99 27       	eor	r25, r25
    1458:	ee 0f       	add	r30, r30
    145a:	97 95       	ror	r25
    145c:	87 95       	ror	r24
    145e:	08 95       	ret

00001460 <__cmpsf2>:
    1460:	d9 d0       	rcall	.+434    	; 0x1614 <__fp_cmp>
    1462:	08 f4       	brcc	.+2      	; 0x1466 <__cmpsf2+0x6>
    1464:	81 e0       	ldi	r24, 0x01	; 1
    1466:	08 95       	ret

00001468 <__divsf3>:
    1468:	0c d0       	rcall	.+24     	; 0x1482 <__divsf3x>
    146a:	0f c1       	rjmp	.+542    	; 0x168a <__fp_round>
    146c:	07 d1       	rcall	.+526    	; 0x167c <__fp_pscB>
    146e:	40 f0       	brcs	.+16     	; 0x1480 <__divsf3+0x18>
    1470:	fe d0       	rcall	.+508    	; 0x166e <__fp_pscA>
    1472:	30 f0       	brcs	.+12     	; 0x1480 <__divsf3+0x18>
    1474:	21 f4       	brne	.+8      	; 0x147e <__divsf3+0x16>
    1476:	5f 3f       	cpi	r21, 0xFF	; 255
    1478:	19 f0       	breq	.+6      	; 0x1480 <__divsf3+0x18>
    147a:	f0 c0       	rjmp	.+480    	; 0x165c <__fp_inf>
    147c:	51 11       	cpse	r21, r1
    147e:	39 c1       	rjmp	.+626    	; 0x16f2 <__fp_szero>
    1480:	f3 c0       	rjmp	.+486    	; 0x1668 <__fp_nan>

00001482 <__divsf3x>:
    1482:	14 d1       	rcall	.+552    	; 0x16ac <__fp_split3>
    1484:	98 f3       	brcs	.-26     	; 0x146c <__divsf3+0x4>

00001486 <__divsf3_pse>:
    1486:	99 23       	and	r25, r25
    1488:	c9 f3       	breq	.-14     	; 0x147c <__divsf3+0x14>
    148a:	55 23       	and	r21, r21
    148c:	b1 f3       	breq	.-20     	; 0x147a <__divsf3+0x12>
    148e:	95 1b       	sub	r25, r21
    1490:	55 0b       	sbc	r21, r21
    1492:	bb 27       	eor	r27, r27
    1494:	aa 27       	eor	r26, r26
    1496:	62 17       	cp	r22, r18
    1498:	73 07       	cpc	r23, r19
    149a:	84 07       	cpc	r24, r20
    149c:	38 f0       	brcs	.+14     	; 0x14ac <__divsf3_pse+0x26>
    149e:	9f 5f       	subi	r25, 0xFF	; 255
    14a0:	5f 4f       	sbci	r21, 0xFF	; 255
    14a2:	22 0f       	add	r18, r18
    14a4:	33 1f       	adc	r19, r19
    14a6:	44 1f       	adc	r20, r20
    14a8:	aa 1f       	adc	r26, r26
    14aa:	a9 f3       	breq	.-22     	; 0x1496 <__divsf3_pse+0x10>
    14ac:	33 d0       	rcall	.+102    	; 0x1514 <__divsf3_pse+0x8e>
    14ae:	0e 2e       	mov	r0, r30
    14b0:	3a f0       	brmi	.+14     	; 0x14c0 <__divsf3_pse+0x3a>
    14b2:	e0 e8       	ldi	r30, 0x80	; 128
    14b4:	30 d0       	rcall	.+96     	; 0x1516 <__divsf3_pse+0x90>
    14b6:	91 50       	subi	r25, 0x01	; 1
    14b8:	50 40       	sbci	r21, 0x00	; 0
    14ba:	e6 95       	lsr	r30
    14bc:	00 1c       	adc	r0, r0
    14be:	ca f7       	brpl	.-14     	; 0x14b2 <__divsf3_pse+0x2c>
    14c0:	29 d0       	rcall	.+82     	; 0x1514 <__divsf3_pse+0x8e>
    14c2:	fe 2f       	mov	r31, r30
    14c4:	27 d0       	rcall	.+78     	; 0x1514 <__divsf3_pse+0x8e>
    14c6:	66 0f       	add	r22, r22
    14c8:	77 1f       	adc	r23, r23
    14ca:	88 1f       	adc	r24, r24
    14cc:	bb 1f       	adc	r27, r27
    14ce:	26 17       	cp	r18, r22
    14d0:	37 07       	cpc	r19, r23
    14d2:	48 07       	cpc	r20, r24
    14d4:	ab 07       	cpc	r26, r27
    14d6:	b0 e8       	ldi	r27, 0x80	; 128
    14d8:	09 f0       	breq	.+2      	; 0x14dc <__divsf3_pse+0x56>
    14da:	bb 0b       	sbc	r27, r27
    14dc:	80 2d       	mov	r24, r0
    14de:	bf 01       	movw	r22, r30
    14e0:	ff 27       	eor	r31, r31
    14e2:	93 58       	subi	r25, 0x83	; 131
    14e4:	5f 4f       	sbci	r21, 0xFF	; 255
    14e6:	2a f0       	brmi	.+10     	; 0x14f2 <__divsf3_pse+0x6c>
    14e8:	9e 3f       	cpi	r25, 0xFE	; 254
    14ea:	51 05       	cpc	r21, r1
    14ec:	68 f0       	brcs	.+26     	; 0x1508 <__divsf3_pse+0x82>
    14ee:	b6 c0       	rjmp	.+364    	; 0x165c <__fp_inf>
    14f0:	00 c1       	rjmp	.+512    	; 0x16f2 <__fp_szero>
    14f2:	5f 3f       	cpi	r21, 0xFF	; 255
    14f4:	ec f3       	brlt	.-6      	; 0x14f0 <__divsf3_pse+0x6a>
    14f6:	98 3e       	cpi	r25, 0xE8	; 232
    14f8:	dc f3       	brlt	.-10     	; 0x14f0 <__divsf3_pse+0x6a>
    14fa:	86 95       	lsr	r24
    14fc:	77 95       	ror	r23
    14fe:	67 95       	ror	r22
    1500:	b7 95       	ror	r27
    1502:	f7 95       	ror	r31
    1504:	9f 5f       	subi	r25, 0xFF	; 255
    1506:	c9 f7       	brne	.-14     	; 0x14fa <__divsf3_pse+0x74>
    1508:	88 0f       	add	r24, r24
    150a:	91 1d       	adc	r25, r1
    150c:	96 95       	lsr	r25
    150e:	87 95       	ror	r24
    1510:	97 f9       	bld	r25, 7
    1512:	08 95       	ret
    1514:	e1 e0       	ldi	r30, 0x01	; 1
    1516:	66 0f       	add	r22, r22
    1518:	77 1f       	adc	r23, r23
    151a:	88 1f       	adc	r24, r24
    151c:	bb 1f       	adc	r27, r27
    151e:	62 17       	cp	r22, r18
    1520:	73 07       	cpc	r23, r19
    1522:	84 07       	cpc	r24, r20
    1524:	ba 07       	cpc	r27, r26
    1526:	20 f0       	brcs	.+8      	; 0x1530 <__divsf3_pse+0xaa>
    1528:	62 1b       	sub	r22, r18
    152a:	73 0b       	sbc	r23, r19
    152c:	84 0b       	sbc	r24, r20
    152e:	ba 0b       	sbc	r27, r26
    1530:	ee 1f       	adc	r30, r30
    1532:	88 f7       	brcc	.-30     	; 0x1516 <__divsf3_pse+0x90>
    1534:	e0 95       	com	r30
    1536:	08 95       	ret

00001538 <__fixsfsi>:
    1538:	04 d0       	rcall	.+8      	; 0x1542 <__fixunssfsi>
    153a:	68 94       	set
    153c:	b1 11       	cpse	r27, r1
    153e:	d9 c0       	rjmp	.+434    	; 0x16f2 <__fp_szero>
    1540:	08 95       	ret

00001542 <__fixunssfsi>:
    1542:	bc d0       	rcall	.+376    	; 0x16bc <__fp_splitA>
    1544:	88 f0       	brcs	.+34     	; 0x1568 <__fixunssfsi+0x26>
    1546:	9f 57       	subi	r25, 0x7F	; 127
    1548:	90 f0       	brcs	.+36     	; 0x156e <__fixunssfsi+0x2c>
    154a:	b9 2f       	mov	r27, r25
    154c:	99 27       	eor	r25, r25
    154e:	b7 51       	subi	r27, 0x17	; 23
    1550:	a0 f0       	brcs	.+40     	; 0x157a <__fixunssfsi+0x38>
    1552:	d1 f0       	breq	.+52     	; 0x1588 <__fixunssfsi+0x46>
    1554:	66 0f       	add	r22, r22
    1556:	77 1f       	adc	r23, r23
    1558:	88 1f       	adc	r24, r24
    155a:	99 1f       	adc	r25, r25
    155c:	1a f0       	brmi	.+6      	; 0x1564 <__fixunssfsi+0x22>
    155e:	ba 95       	dec	r27
    1560:	c9 f7       	brne	.-14     	; 0x1554 <__fixunssfsi+0x12>
    1562:	12 c0       	rjmp	.+36     	; 0x1588 <__fixunssfsi+0x46>
    1564:	b1 30       	cpi	r27, 0x01	; 1
    1566:	81 f0       	breq	.+32     	; 0x1588 <__fixunssfsi+0x46>
    1568:	c3 d0       	rcall	.+390    	; 0x16f0 <__fp_zero>
    156a:	b1 e0       	ldi	r27, 0x01	; 1
    156c:	08 95       	ret
    156e:	c0 c0       	rjmp	.+384    	; 0x16f0 <__fp_zero>
    1570:	67 2f       	mov	r22, r23
    1572:	78 2f       	mov	r23, r24
    1574:	88 27       	eor	r24, r24
    1576:	b8 5f       	subi	r27, 0xF8	; 248
    1578:	39 f0       	breq	.+14     	; 0x1588 <__fixunssfsi+0x46>
    157a:	b9 3f       	cpi	r27, 0xF9	; 249
    157c:	cc f3       	brlt	.-14     	; 0x1570 <__fixunssfsi+0x2e>
    157e:	86 95       	lsr	r24
    1580:	77 95       	ror	r23
    1582:	67 95       	ror	r22
    1584:	b3 95       	inc	r27
    1586:	d9 f7       	brne	.-10     	; 0x157e <__fixunssfsi+0x3c>
    1588:	3e f4       	brtc	.+14     	; 0x1598 <__fixunssfsi+0x56>
    158a:	90 95       	com	r25
    158c:	80 95       	com	r24
    158e:	70 95       	com	r23
    1590:	61 95       	neg	r22
    1592:	7f 4f       	sbci	r23, 0xFF	; 255
    1594:	8f 4f       	sbci	r24, 0xFF	; 255
    1596:	9f 4f       	sbci	r25, 0xFF	; 255
    1598:	08 95       	ret

0000159a <__floatunsisf>:
    159a:	e8 94       	clt
    159c:	09 c0       	rjmp	.+18     	; 0x15b0 <__floatsisf+0x12>

0000159e <__floatsisf>:
    159e:	97 fb       	bst	r25, 7
    15a0:	3e f4       	brtc	.+14     	; 0x15b0 <__floatsisf+0x12>
    15a2:	90 95       	com	r25
    15a4:	80 95       	com	r24
    15a6:	70 95       	com	r23
    15a8:	61 95       	neg	r22
    15aa:	7f 4f       	sbci	r23, 0xFF	; 255
    15ac:	8f 4f       	sbci	r24, 0xFF	; 255
    15ae:	9f 4f       	sbci	r25, 0xFF	; 255
    15b0:	99 23       	and	r25, r25
    15b2:	a9 f0       	breq	.+42     	; 0x15de <__floatsisf+0x40>
    15b4:	f9 2f       	mov	r31, r25
    15b6:	96 e9       	ldi	r25, 0x96	; 150
    15b8:	bb 27       	eor	r27, r27
    15ba:	93 95       	inc	r25
    15bc:	f6 95       	lsr	r31
    15be:	87 95       	ror	r24
    15c0:	77 95       	ror	r23
    15c2:	67 95       	ror	r22
    15c4:	b7 95       	ror	r27
    15c6:	f1 11       	cpse	r31, r1
    15c8:	f8 cf       	rjmp	.-16     	; 0x15ba <__floatsisf+0x1c>
    15ca:	fa f4       	brpl	.+62     	; 0x160a <__floatsisf+0x6c>
    15cc:	bb 0f       	add	r27, r27
    15ce:	11 f4       	brne	.+4      	; 0x15d4 <__floatsisf+0x36>
    15d0:	60 ff       	sbrs	r22, 0
    15d2:	1b c0       	rjmp	.+54     	; 0x160a <__floatsisf+0x6c>
    15d4:	6f 5f       	subi	r22, 0xFF	; 255
    15d6:	7f 4f       	sbci	r23, 0xFF	; 255
    15d8:	8f 4f       	sbci	r24, 0xFF	; 255
    15da:	9f 4f       	sbci	r25, 0xFF	; 255
    15dc:	16 c0       	rjmp	.+44     	; 0x160a <__floatsisf+0x6c>
    15de:	88 23       	and	r24, r24
    15e0:	11 f0       	breq	.+4      	; 0x15e6 <__floatsisf+0x48>
    15e2:	96 e9       	ldi	r25, 0x96	; 150
    15e4:	11 c0       	rjmp	.+34     	; 0x1608 <__floatsisf+0x6a>
    15e6:	77 23       	and	r23, r23
    15e8:	21 f0       	breq	.+8      	; 0x15f2 <__floatsisf+0x54>
    15ea:	9e e8       	ldi	r25, 0x8E	; 142
    15ec:	87 2f       	mov	r24, r23
    15ee:	76 2f       	mov	r23, r22
    15f0:	05 c0       	rjmp	.+10     	; 0x15fc <__floatsisf+0x5e>
    15f2:	66 23       	and	r22, r22
    15f4:	71 f0       	breq	.+28     	; 0x1612 <__floatsisf+0x74>
    15f6:	96 e8       	ldi	r25, 0x86	; 134
    15f8:	86 2f       	mov	r24, r22
    15fa:	70 e0       	ldi	r23, 0x00	; 0
    15fc:	60 e0       	ldi	r22, 0x00	; 0
    15fe:	2a f0       	brmi	.+10     	; 0x160a <__floatsisf+0x6c>
    1600:	9a 95       	dec	r25
    1602:	66 0f       	add	r22, r22
    1604:	77 1f       	adc	r23, r23
    1606:	88 1f       	adc	r24, r24
    1608:	da f7       	brpl	.-10     	; 0x1600 <__floatsisf+0x62>
    160a:	88 0f       	add	r24, r24
    160c:	96 95       	lsr	r25
    160e:	87 95       	ror	r24
    1610:	97 f9       	bld	r25, 7
    1612:	08 95       	ret

00001614 <__fp_cmp>:
    1614:	99 0f       	add	r25, r25
    1616:	00 08       	sbc	r0, r0
    1618:	55 0f       	add	r21, r21
    161a:	aa 0b       	sbc	r26, r26
    161c:	e0 e8       	ldi	r30, 0x80	; 128
    161e:	fe ef       	ldi	r31, 0xFE	; 254
    1620:	16 16       	cp	r1, r22
    1622:	17 06       	cpc	r1, r23
    1624:	e8 07       	cpc	r30, r24
    1626:	f9 07       	cpc	r31, r25
    1628:	c0 f0       	brcs	.+48     	; 0x165a <__fp_cmp+0x46>
    162a:	12 16       	cp	r1, r18
    162c:	13 06       	cpc	r1, r19
    162e:	e4 07       	cpc	r30, r20
    1630:	f5 07       	cpc	r31, r21
    1632:	98 f0       	brcs	.+38     	; 0x165a <__fp_cmp+0x46>
    1634:	62 1b       	sub	r22, r18
    1636:	73 0b       	sbc	r23, r19
    1638:	84 0b       	sbc	r24, r20
    163a:	95 0b       	sbc	r25, r21
    163c:	39 f4       	brne	.+14     	; 0x164c <__fp_cmp+0x38>
    163e:	0a 26       	eor	r0, r26
    1640:	61 f0       	breq	.+24     	; 0x165a <__fp_cmp+0x46>
    1642:	23 2b       	or	r18, r19
    1644:	24 2b       	or	r18, r20
    1646:	25 2b       	or	r18, r21
    1648:	21 f4       	brne	.+8      	; 0x1652 <__fp_cmp+0x3e>
    164a:	08 95       	ret
    164c:	0a 26       	eor	r0, r26
    164e:	09 f4       	brne	.+2      	; 0x1652 <__fp_cmp+0x3e>
    1650:	a1 40       	sbci	r26, 0x01	; 1
    1652:	a6 95       	lsr	r26
    1654:	8f ef       	ldi	r24, 0xFF	; 255
    1656:	81 1d       	adc	r24, r1
    1658:	81 1d       	adc	r24, r1
    165a:	08 95       	ret

0000165c <__fp_inf>:
    165c:	97 f9       	bld	r25, 7
    165e:	9f 67       	ori	r25, 0x7F	; 127
    1660:	80 e8       	ldi	r24, 0x80	; 128
    1662:	70 e0       	ldi	r23, 0x00	; 0
    1664:	60 e0       	ldi	r22, 0x00	; 0
    1666:	08 95       	ret

00001668 <__fp_nan>:
    1668:	9f ef       	ldi	r25, 0xFF	; 255
    166a:	80 ec       	ldi	r24, 0xC0	; 192
    166c:	08 95       	ret

0000166e <__fp_pscA>:
    166e:	00 24       	eor	r0, r0
    1670:	0a 94       	dec	r0
    1672:	16 16       	cp	r1, r22
    1674:	17 06       	cpc	r1, r23
    1676:	18 06       	cpc	r1, r24
    1678:	09 06       	cpc	r0, r25
    167a:	08 95       	ret

0000167c <__fp_pscB>:
    167c:	00 24       	eor	r0, r0
    167e:	0a 94       	dec	r0
    1680:	12 16       	cp	r1, r18
    1682:	13 06       	cpc	r1, r19
    1684:	14 06       	cpc	r1, r20
    1686:	05 06       	cpc	r0, r21
    1688:	08 95       	ret

0000168a <__fp_round>:
    168a:	09 2e       	mov	r0, r25
    168c:	03 94       	inc	r0
    168e:	00 0c       	add	r0, r0
    1690:	11 f4       	brne	.+4      	; 0x1696 <__fp_round+0xc>
    1692:	88 23       	and	r24, r24
    1694:	52 f0       	brmi	.+20     	; 0x16aa <__fp_round+0x20>
    1696:	bb 0f       	add	r27, r27
    1698:	40 f4       	brcc	.+16     	; 0x16aa <__fp_round+0x20>
    169a:	bf 2b       	or	r27, r31
    169c:	11 f4       	brne	.+4      	; 0x16a2 <__fp_round+0x18>
    169e:	60 ff       	sbrs	r22, 0
    16a0:	04 c0       	rjmp	.+8      	; 0x16aa <__fp_round+0x20>
    16a2:	6f 5f       	subi	r22, 0xFF	; 255
    16a4:	7f 4f       	sbci	r23, 0xFF	; 255
    16a6:	8f 4f       	sbci	r24, 0xFF	; 255
    16a8:	9f 4f       	sbci	r25, 0xFF	; 255
    16aa:	08 95       	ret

000016ac <__fp_split3>:
    16ac:	57 fd       	sbrc	r21, 7
    16ae:	90 58       	subi	r25, 0x80	; 128
    16b0:	44 0f       	add	r20, r20
    16b2:	55 1f       	adc	r21, r21
    16b4:	59 f0       	breq	.+22     	; 0x16cc <__fp_splitA+0x10>
    16b6:	5f 3f       	cpi	r21, 0xFF	; 255
    16b8:	71 f0       	breq	.+28     	; 0x16d6 <__fp_splitA+0x1a>
    16ba:	47 95       	ror	r20

000016bc <__fp_splitA>:
    16bc:	88 0f       	add	r24, r24
    16be:	97 fb       	bst	r25, 7
    16c0:	99 1f       	adc	r25, r25
    16c2:	61 f0       	breq	.+24     	; 0x16dc <__fp_splitA+0x20>
    16c4:	9f 3f       	cpi	r25, 0xFF	; 255
    16c6:	79 f0       	breq	.+30     	; 0x16e6 <__fp_splitA+0x2a>
    16c8:	87 95       	ror	r24
    16ca:	08 95       	ret
    16cc:	12 16       	cp	r1, r18
    16ce:	13 06       	cpc	r1, r19
    16d0:	14 06       	cpc	r1, r20
    16d2:	55 1f       	adc	r21, r21
    16d4:	f2 cf       	rjmp	.-28     	; 0x16ba <__fp_split3+0xe>
    16d6:	46 95       	lsr	r20
    16d8:	f1 df       	rcall	.-30     	; 0x16bc <__fp_splitA>
    16da:	08 c0       	rjmp	.+16     	; 0x16ec <__fp_splitA+0x30>
    16dc:	16 16       	cp	r1, r22
    16de:	17 06       	cpc	r1, r23
    16e0:	18 06       	cpc	r1, r24
    16e2:	99 1f       	adc	r25, r25
    16e4:	f1 cf       	rjmp	.-30     	; 0x16c8 <__fp_splitA+0xc>
    16e6:	86 95       	lsr	r24
    16e8:	71 05       	cpc	r23, r1
    16ea:	61 05       	cpc	r22, r1
    16ec:	08 94       	sec
    16ee:	08 95       	ret

000016f0 <__fp_zero>:
    16f0:	e8 94       	clt

000016f2 <__fp_szero>:
    16f2:	bb 27       	eor	r27, r27
    16f4:	66 27       	eor	r22, r22
    16f6:	77 27       	eor	r23, r23
    16f8:	cb 01       	movw	r24, r22
    16fa:	97 f9       	bld	r25, 7
    16fc:	08 95       	ret

000016fe <__gesf2>:
    16fe:	8a df       	rcall	.-236    	; 0x1614 <__fp_cmp>
    1700:	08 f4       	brcc	.+2      	; 0x1704 <__gesf2+0x6>
    1702:	8f ef       	ldi	r24, 0xFF	; 255
    1704:	08 95       	ret

00001706 <__mulsf3>:
    1706:	0b d0       	rcall	.+22     	; 0x171e <__mulsf3x>
    1708:	c0 cf       	rjmp	.-128    	; 0x168a <__fp_round>
    170a:	b1 df       	rcall	.-158    	; 0x166e <__fp_pscA>
    170c:	28 f0       	brcs	.+10     	; 0x1718 <__mulsf3+0x12>
    170e:	b6 df       	rcall	.-148    	; 0x167c <__fp_pscB>
    1710:	18 f0       	brcs	.+6      	; 0x1718 <__mulsf3+0x12>
    1712:	95 23       	and	r25, r21
    1714:	09 f0       	breq	.+2      	; 0x1718 <__mulsf3+0x12>
    1716:	a2 cf       	rjmp	.-188    	; 0x165c <__fp_inf>
    1718:	a7 cf       	rjmp	.-178    	; 0x1668 <__fp_nan>
    171a:	11 24       	eor	r1, r1
    171c:	ea cf       	rjmp	.-44     	; 0x16f2 <__fp_szero>

0000171e <__mulsf3x>:
    171e:	c6 df       	rcall	.-116    	; 0x16ac <__fp_split3>
    1720:	a0 f3       	brcs	.-24     	; 0x170a <__mulsf3+0x4>

00001722 <__mulsf3_pse>:
    1722:	95 9f       	mul	r25, r21
    1724:	d1 f3       	breq	.-12     	; 0x171a <__mulsf3+0x14>
    1726:	95 0f       	add	r25, r21
    1728:	50 e0       	ldi	r21, 0x00	; 0
    172a:	55 1f       	adc	r21, r21
    172c:	62 9f       	mul	r22, r18
    172e:	f0 01       	movw	r30, r0
    1730:	72 9f       	mul	r23, r18
    1732:	bb 27       	eor	r27, r27
    1734:	f0 0d       	add	r31, r0
    1736:	b1 1d       	adc	r27, r1
    1738:	63 9f       	mul	r22, r19
    173a:	aa 27       	eor	r26, r26
    173c:	f0 0d       	add	r31, r0
    173e:	b1 1d       	adc	r27, r1
    1740:	aa 1f       	adc	r26, r26
    1742:	64 9f       	mul	r22, r20
    1744:	66 27       	eor	r22, r22
    1746:	b0 0d       	add	r27, r0
    1748:	a1 1d       	adc	r26, r1
    174a:	66 1f       	adc	r22, r22
    174c:	82 9f       	mul	r24, r18
    174e:	22 27       	eor	r18, r18
    1750:	b0 0d       	add	r27, r0
    1752:	a1 1d       	adc	r26, r1
    1754:	62 1f       	adc	r22, r18
    1756:	73 9f       	mul	r23, r19
    1758:	b0 0d       	add	r27, r0
    175a:	a1 1d       	adc	r26, r1
    175c:	62 1f       	adc	r22, r18
    175e:	83 9f       	mul	r24, r19
    1760:	a0 0d       	add	r26, r0
    1762:	61 1d       	adc	r22, r1
    1764:	22 1f       	adc	r18, r18
    1766:	74 9f       	mul	r23, r20
    1768:	33 27       	eor	r19, r19
    176a:	a0 0d       	add	r26, r0
    176c:	61 1d       	adc	r22, r1
    176e:	23 1f       	adc	r18, r19
    1770:	84 9f       	mul	r24, r20
    1772:	60 0d       	add	r22, r0
    1774:	21 1d       	adc	r18, r1
    1776:	82 2f       	mov	r24, r18
    1778:	76 2f       	mov	r23, r22
    177a:	6a 2f       	mov	r22, r26
    177c:	11 24       	eor	r1, r1
    177e:	9f 57       	subi	r25, 0x7F	; 127
    1780:	50 40       	sbci	r21, 0x00	; 0
    1782:	8a f0       	brmi	.+34     	; 0x17a6 <__mulsf3_pse+0x84>
    1784:	e1 f0       	breq	.+56     	; 0x17be <__mulsf3_pse+0x9c>
    1786:	88 23       	and	r24, r24
    1788:	4a f0       	brmi	.+18     	; 0x179c <__mulsf3_pse+0x7a>
    178a:	ee 0f       	add	r30, r30
    178c:	ff 1f       	adc	r31, r31
    178e:	bb 1f       	adc	r27, r27
    1790:	66 1f       	adc	r22, r22
    1792:	77 1f       	adc	r23, r23
    1794:	88 1f       	adc	r24, r24
    1796:	91 50       	subi	r25, 0x01	; 1
    1798:	50 40       	sbci	r21, 0x00	; 0
    179a:	a9 f7       	brne	.-22     	; 0x1786 <__mulsf3_pse+0x64>
    179c:	9e 3f       	cpi	r25, 0xFE	; 254
    179e:	51 05       	cpc	r21, r1
    17a0:	70 f0       	brcs	.+28     	; 0x17be <__mulsf3_pse+0x9c>
    17a2:	5c cf       	rjmp	.-328    	; 0x165c <__fp_inf>
    17a4:	a6 cf       	rjmp	.-180    	; 0x16f2 <__fp_szero>
    17a6:	5f 3f       	cpi	r21, 0xFF	; 255
    17a8:	ec f3       	brlt	.-6      	; 0x17a4 <__mulsf3_pse+0x82>
    17aa:	98 3e       	cpi	r25, 0xE8	; 232
    17ac:	dc f3       	brlt	.-10     	; 0x17a4 <__mulsf3_pse+0x82>
    17ae:	86 95       	lsr	r24
    17b0:	77 95       	ror	r23
    17b2:	67 95       	ror	r22
    17b4:	b7 95       	ror	r27
    17b6:	f7 95       	ror	r31
    17b8:	e7 95       	ror	r30
    17ba:	9f 5f       	subi	r25, 0xFF	; 255
    17bc:	c1 f7       	brne	.-16     	; 0x17ae <__mulsf3_pse+0x8c>
    17be:	fe 2b       	or	r31, r30
    17c0:	88 0f       	add	r24, r24
    17c2:	91 1d       	adc	r25, r1
    17c4:	96 95       	lsr	r25
    17c6:	87 95       	ror	r24
    17c8:	97 f9       	bld	r25, 7
    17ca:	08 95       	ret

000017cc <_ZN14HardwareSerial9availableEv>:
    17cc:	fc 01       	movw	r30, r24
    17ce:	91 8d       	ldd	r25, Z+25	; 0x19
    17d0:	22 8d       	ldd	r18, Z+26	; 0x1a
    17d2:	89 2f       	mov	r24, r25
    17d4:	90 e0       	ldi	r25, 0x00	; 0
    17d6:	80 5c       	subi	r24, 0xC0	; 192
    17d8:	9f 4f       	sbci	r25, 0xFF	; 255
    17da:	82 1b       	sub	r24, r18
    17dc:	91 09       	sbc	r25, r1
    17de:	8f 73       	andi	r24, 0x3F	; 63
    17e0:	99 27       	eor	r25, r25
    17e2:	08 95       	ret

000017e4 <_ZN14HardwareSerial4peekEv>:
    17e4:	fc 01       	movw	r30, r24
    17e6:	91 8d       	ldd	r25, Z+25	; 0x19
    17e8:	82 8d       	ldd	r24, Z+26	; 0x1a
    17ea:	98 17       	cp	r25, r24
    17ec:	31 f0       	breq	.+12     	; 0x17fa <_ZN14HardwareSerial4peekEv+0x16>
    17ee:	82 8d       	ldd	r24, Z+26	; 0x1a
    17f0:	e8 0f       	add	r30, r24
    17f2:	f1 1d       	adc	r31, r1
    17f4:	85 8d       	ldd	r24, Z+29	; 0x1d
    17f6:	90 e0       	ldi	r25, 0x00	; 0
    17f8:	08 95       	ret
    17fa:	8f ef       	ldi	r24, 0xFF	; 255
    17fc:	9f ef       	ldi	r25, 0xFF	; 255
    17fe:	08 95       	ret

00001800 <_ZN14HardwareSerial4readEv>:
    1800:	fc 01       	movw	r30, r24
    1802:	91 8d       	ldd	r25, Z+25	; 0x19
    1804:	82 8d       	ldd	r24, Z+26	; 0x1a
    1806:	98 17       	cp	r25, r24
    1808:	61 f0       	breq	.+24     	; 0x1822 <_ZN14HardwareSerial4readEv+0x22>
    180a:	82 8d       	ldd	r24, Z+26	; 0x1a
    180c:	df 01       	movw	r26, r30
    180e:	a8 0f       	add	r26, r24
    1810:	b1 1d       	adc	r27, r1
    1812:	5d 96       	adiw	r26, 0x1d	; 29
    1814:	8c 91       	ld	r24, X
    1816:	92 8d       	ldd	r25, Z+26	; 0x1a
    1818:	9f 5f       	subi	r25, 0xFF	; 255
    181a:	9f 73       	andi	r25, 0x3F	; 63
    181c:	92 8f       	std	Z+26, r25	; 0x1a
    181e:	90 e0       	ldi	r25, 0x00	; 0
    1820:	08 95       	ret
    1822:	8f ef       	ldi	r24, 0xFF	; 255
    1824:	9f ef       	ldi	r25, 0xFF	; 255
    1826:	08 95       	ret

00001828 <_ZN14HardwareSerial17availableForWriteEv>:
    1828:	fc 01       	movw	r30, r24
    182a:	53 8d       	ldd	r21, Z+27	; 0x1b
    182c:	44 8d       	ldd	r20, Z+28	; 0x1c
    182e:	25 2f       	mov	r18, r21
    1830:	30 e0       	ldi	r19, 0x00	; 0
    1832:	84 2f       	mov	r24, r20
    1834:	90 e0       	ldi	r25, 0x00	; 0
    1836:	82 1b       	sub	r24, r18
    1838:	93 0b       	sbc	r25, r19
    183a:	54 17       	cp	r21, r20
    183c:	10 f0       	brcs	.+4      	; 0x1842 <_ZN14HardwareSerial17availableForWriteEv+0x1a>
    183e:	cf 96       	adiw	r24, 0x3f	; 63
    1840:	08 95       	ret
    1842:	01 97       	sbiw	r24, 0x01	; 1
    1844:	08 95       	ret

00001846 <_Z14serialEventRunv>:
    1846:	81 eb       	ldi	r24, 0xB1	; 177
    1848:	9d e0       	ldi	r25, 0x0D	; 13
    184a:	89 2b       	or	r24, r25
    184c:	39 f0       	breq	.+14     	; 0x185c <_Z14serialEventRunv+0x16>
    184e:	80 e0       	ldi	r24, 0x00	; 0
    1850:	90 e0       	ldi	r25, 0x00	; 0
    1852:	89 2b       	or	r24, r25
    1854:	19 f0       	breq	.+6      	; 0x185c <_Z14serialEventRunv+0x16>
    1856:	85 d1       	rcall	.+778    	; 0x1b62 <_Z17Serial0_availablev>
    1858:	81 11       	cpse	r24, r1
    185a:	23 c0       	rjmp	.+70     	; 0x18a2 <_Z14serialEventRunv+0x5c>
    185c:	86 e4       	ldi	r24, 0x46	; 70
    185e:	9e e0       	ldi	r25, 0x0E	; 14
    1860:	89 2b       	or	r24, r25
    1862:	39 f0       	breq	.+14     	; 0x1872 <_Z14serialEventRunv+0x2c>
    1864:	80 e0       	ldi	r24, 0x00	; 0
    1866:	90 e0       	ldi	r25, 0x00	; 0
    1868:	89 2b       	or	r24, r25
    186a:	19 f0       	breq	.+6      	; 0x1872 <_Z14serialEventRunv+0x2c>
    186c:	0f d2       	rcall	.+1054   	; 0x1c8c <_Z17Serial1_availablev>
    186e:	81 11       	cpse	r24, r1
    1870:	1b c0       	rjmp	.+54     	; 0x18a8 <_Z14serialEventRunv+0x62>
    1872:	8b ed       	ldi	r24, 0xDB	; 219
    1874:	9e e0       	ldi	r25, 0x0E	; 14
    1876:	89 2b       	or	r24, r25
    1878:	39 f0       	breq	.+14     	; 0x1888 <_Z14serialEventRunv+0x42>
    187a:	80 e0       	ldi	r24, 0x00	; 0
    187c:	90 e0       	ldi	r25, 0x00	; 0
    187e:	89 2b       	or	r24, r25
    1880:	19 f0       	breq	.+6      	; 0x1888 <_Z14serialEventRunv+0x42>
    1882:	99 d2       	rcall	.+1330   	; 0x1db6 <_Z17Serial2_availablev>
    1884:	81 11       	cpse	r24, r1
    1886:	13 c0       	rjmp	.+38     	; 0x18ae <_Z14serialEventRunv+0x68>
    1888:	80 e0       	ldi	r24, 0x00	; 0
    188a:	90 e0       	ldi	r25, 0x00	; 0
    188c:	89 2b       	or	r24, r25
    188e:	a1 f0       	breq	.+40     	; 0x18b8 <_Z14serialEventRunv+0x72>
    1890:	80 e0       	ldi	r24, 0x00	; 0
    1892:	90 e0       	ldi	r25, 0x00	; 0
    1894:	89 2b       	or	r24, r25
    1896:	81 f0       	breq	.+32     	; 0x18b8 <_Z14serialEventRunv+0x72>
    1898:	0e 94 00 00 	call	0	; 0x0 <__vectors>
    189c:	81 11       	cpse	r24, r1
    189e:	0a c0       	rjmp	.+20     	; 0x18b4 <_Z14serialEventRunv+0x6e>
    18a0:	08 95       	ret
    18a2:	0e 94 00 00 	call	0	; 0x0 <__vectors>
    18a6:	da cf       	rjmp	.-76     	; 0x185c <_Z14serialEventRunv+0x16>
    18a8:	0e 94 00 00 	call	0	; 0x0 <__vectors>
    18ac:	e2 cf       	rjmp	.-60     	; 0x1872 <_Z14serialEventRunv+0x2c>
    18ae:	0e 94 00 00 	call	0	; 0x0 <__vectors>
    18b2:	ea cf       	rjmp	.-44     	; 0x1888 <_Z14serialEventRunv+0x42>
    18b4:	0c 94 00 00 	jmp	0	; 0x0 <__vectors>
    18b8:	08 95       	ret

000018ba <_ZN14HardwareSerial17_tx_udr_empty_irqEv>:
    18ba:	fc 01       	movw	r30, r24
    18bc:	84 8d       	ldd	r24, Z+28	; 0x1c
    18be:	df 01       	movw	r26, r30
    18c0:	a8 0f       	add	r26, r24
    18c2:	b1 1d       	adc	r27, r1
    18c4:	a3 5a       	subi	r26, 0xA3	; 163
    18c6:	bf 4f       	sbci	r27, 0xFF	; 255
    18c8:	2c 91       	ld	r18, X
    18ca:	84 8d       	ldd	r24, Z+28	; 0x1c
    18cc:	90 e0       	ldi	r25, 0x00	; 0
    18ce:	01 96       	adiw	r24, 0x01	; 1
    18d0:	8f 73       	andi	r24, 0x3F	; 63
    18d2:	99 27       	eor	r25, r25
    18d4:	84 8f       	std	Z+28, r24	; 0x1c
    18d6:	a6 89       	ldd	r26, Z+22	; 0x16
    18d8:	b7 89       	ldd	r27, Z+23	; 0x17
    18da:	2c 93       	st	X, r18
    18dc:	a0 89       	ldd	r26, Z+16	; 0x10
    18de:	b1 89       	ldd	r27, Z+17	; 0x11
    18e0:	8c 91       	ld	r24, X
    18e2:	83 70       	andi	r24, 0x03	; 3
    18e4:	80 64       	ori	r24, 0x40	; 64
    18e6:	8c 93       	st	X, r24
    18e8:	93 8d       	ldd	r25, Z+27	; 0x1b
    18ea:	84 8d       	ldd	r24, Z+28	; 0x1c
    18ec:	98 13       	cpse	r25, r24
    18ee:	06 c0       	rjmp	.+12     	; 0x18fc <_ZN14HardwareSerial17_tx_udr_empty_irqEv+0x42>
    18f0:	02 88       	ldd	r0, Z+18	; 0x12
    18f2:	f3 89       	ldd	r31, Z+19	; 0x13
    18f4:	e0 2d       	mov	r30, r0
    18f6:	80 81       	ld	r24, Z
    18f8:	8f 7d       	andi	r24, 0xDF	; 223
    18fa:	80 83       	st	Z, r24
    18fc:	08 95       	ret

000018fe <_ZN14HardwareSerial5writeEh>:
    18fe:	ef 92       	push	r14
    1900:	ff 92       	push	r15
    1902:	0f 93       	push	r16
    1904:	1f 93       	push	r17
    1906:	cf 93       	push	r28
    1908:	df 93       	push	r29
    190a:	ec 01       	movw	r28, r24
    190c:	81 e0       	ldi	r24, 0x01	; 1
    190e:	88 8f       	std	Y+24, r24	; 0x18
    1910:	9b 8d       	ldd	r25, Y+27	; 0x1b
    1912:	8c 8d       	ldd	r24, Y+28	; 0x1c
    1914:	98 13       	cpse	r25, r24
    1916:	05 c0       	rjmp	.+10     	; 0x1922 <_ZN14HardwareSerial5writeEh+0x24>
    1918:	e8 89       	ldd	r30, Y+16	; 0x10
    191a:	f9 89       	ldd	r31, Y+17	; 0x11
    191c:	80 81       	ld	r24, Z
    191e:	85 fd       	sbrc	r24, 5
    1920:	25 c0       	rjmp	.+74     	; 0x196c <_ZN14HardwareSerial5writeEh+0x6e>
    1922:	f6 2e       	mov	r15, r22
    1924:	0b 8d       	ldd	r16, Y+27	; 0x1b
    1926:	10 e0       	ldi	r17, 0x00	; 0
    1928:	0f 5f       	subi	r16, 0xFF	; 255
    192a:	1f 4f       	sbci	r17, 0xFF	; 255
    192c:	0f 73       	andi	r16, 0x3F	; 63
    192e:	11 27       	eor	r17, r17
    1930:	e0 2e       	mov	r14, r16
    1932:	8c 8d       	ldd	r24, Y+28	; 0x1c
    1934:	e8 12       	cpse	r14, r24
    1936:	0b c0       	rjmp	.+22     	; 0x194e <_ZN14HardwareSerial5writeEh+0x50>
    1938:	0f b6       	in	r0, 0x3f	; 63
    193a:	07 fc       	sbrc	r0, 7
    193c:	fa cf       	rjmp	.-12     	; 0x1932 <_ZN14HardwareSerial5writeEh+0x34>
    193e:	e8 89       	ldd	r30, Y+16	; 0x10
    1940:	f9 89       	ldd	r31, Y+17	; 0x11
    1942:	80 81       	ld	r24, Z
    1944:	85 ff       	sbrs	r24, 5
    1946:	f5 cf       	rjmp	.-22     	; 0x1932 <_ZN14HardwareSerial5writeEh+0x34>
    1948:	ce 01       	movw	r24, r28
    194a:	b7 df       	rcall	.-146    	; 0x18ba <_ZN14HardwareSerial17_tx_udr_empty_irqEv>
    194c:	f2 cf       	rjmp	.-28     	; 0x1932 <_ZN14HardwareSerial5writeEh+0x34>
    194e:	8b 8d       	ldd	r24, Y+27	; 0x1b
    1950:	fe 01       	movw	r30, r28
    1952:	e8 0f       	add	r30, r24
    1954:	f1 1d       	adc	r31, r1
    1956:	e3 5a       	subi	r30, 0xA3	; 163
    1958:	ff 4f       	sbci	r31, 0xFF	; 255
    195a:	f0 82       	st	Z, r15
    195c:	9f b7       	in	r25, 0x3f	; 63
    return 1;
}

static __inline__ uint8_t __iCliRetVal(void)
{
    cli();
    195e:	f8 94       	cli
    1960:	0b 8f       	std	Y+27, r16	; 0x1b
    1962:	ea 89       	ldd	r30, Y+18	; 0x12
    1964:	fb 89       	ldd	r31, Y+19	; 0x13
    1966:	80 81       	ld	r24, Z
    1968:	80 62       	ori	r24, 0x20	; 32
    196a:	0a c0       	rjmp	.+20     	; 0x1980 <_ZN14HardwareSerial5writeEh+0x82>
    196c:	9f b7       	in	r25, 0x3f	; 63
    196e:	f8 94       	cli
    1970:	ee 89       	ldd	r30, Y+22	; 0x16
    1972:	ff 89       	ldd	r31, Y+23	; 0x17
    1974:	60 83       	st	Z, r22
    1976:	e8 89       	ldd	r30, Y+16	; 0x10
    1978:	f9 89       	ldd	r31, Y+17	; 0x11
    197a:	80 81       	ld	r24, Z
    197c:	83 70       	andi	r24, 0x03	; 3
    197e:	80 64       	ori	r24, 0x40	; 64
    1980:	80 83       	st	Z, r24
    (void)__s;
}

static __inline__ void __iRestore(const  uint8_t *__s)
{
    SREG = *__s;
    1982:	9f bf       	out	0x3f, r25	; 63
    1984:	81 e0       	ldi	r24, 0x01	; 1
    1986:	90 e0       	ldi	r25, 0x00	; 0
    1988:	df 91       	pop	r29
    198a:	cf 91       	pop	r28
    198c:	1f 91       	pop	r17
    198e:	0f 91       	pop	r16
    1990:	ff 90       	pop	r15
    1992:	ef 90       	pop	r14
    1994:	08 95       	ret

00001996 <_ZN14HardwareSerial5flushEv>:
    1996:	cf 93       	push	r28
    1998:	df 93       	push	r29
    199a:	ec 01       	movw	r28, r24
    199c:	88 8d       	ldd	r24, Y+24	; 0x18
    199e:	88 23       	and	r24, r24
    19a0:	c1 f0       	breq	.+48     	; 0x19d2 <_ZN14HardwareSerial5flushEv+0x3c>
    19a2:	ea 89       	ldd	r30, Y+18	; 0x12
    19a4:	fb 89       	ldd	r31, Y+19	; 0x13
    19a6:	80 81       	ld	r24, Z
    19a8:	85 fd       	sbrc	r24, 5
    19aa:	05 c0       	rjmp	.+10     	; 0x19b6 <_ZN14HardwareSerial5flushEv+0x20>
    19ac:	a8 89       	ldd	r26, Y+16	; 0x10
    19ae:	b9 89       	ldd	r27, Y+17	; 0x11
    19b0:	8c 91       	ld	r24, X
    19b2:	86 fd       	sbrc	r24, 6
    19b4:	0e c0       	rjmp	.+28     	; 0x19d2 <_ZN14HardwareSerial5flushEv+0x3c>
    19b6:	0f b6       	in	r0, 0x3f	; 63
    19b8:	07 fc       	sbrc	r0, 7
    19ba:	f5 cf       	rjmp	.-22     	; 0x19a6 <_ZN14HardwareSerial5flushEv+0x10>
    19bc:	80 81       	ld	r24, Z
    19be:	85 ff       	sbrs	r24, 5
    19c0:	f2 cf       	rjmp	.-28     	; 0x19a6 <_ZN14HardwareSerial5flushEv+0x10>
    19c2:	a8 89       	ldd	r26, Y+16	; 0x10
    19c4:	b9 89       	ldd	r27, Y+17	; 0x11
    19c6:	8c 91       	ld	r24, X
    19c8:	85 ff       	sbrs	r24, 5
    19ca:	ed cf       	rjmp	.-38     	; 0x19a6 <_ZN14HardwareSerial5flushEv+0x10>
    19cc:	ce 01       	movw	r24, r28
    19ce:	75 df       	rcall	.-278    	; 0x18ba <_ZN14HardwareSerial17_tx_udr_empty_irqEv>
    19d0:	e8 cf       	rjmp	.-48     	; 0x19a2 <_ZN14HardwareSerial5flushEv+0xc>
    19d2:	df 91       	pop	r29
    19d4:	cf 91       	pop	r28
    19d6:	08 95       	ret

000019d8 <_ZN14HardwareSerial5beginEmh>:
    19d8:	cf 92       	push	r12
    19da:	df 92       	push	r13
    19dc:	ef 92       	push	r14
    19de:	ff 92       	push	r15
    19e0:	1f 93       	push	r17
    19e2:	cf 93       	push	r28
    19e4:	df 93       	push	r29
    19e6:	ec 01       	movw	r28, r24
    19e8:	6a 01       	movw	r12, r20
    19ea:	7b 01       	movw	r14, r22
    19ec:	12 2f       	mov	r17, r18
    19ee:	e8 89       	ldd	r30, Y+16	; 0x10
    19f0:	f9 89       	ldd	r31, Y+17	; 0x11
    19f2:	82 e0       	ldi	r24, 0x02	; 2
    19f4:	80 83       	st	Z, r24
    19f6:	41 15       	cp	r20, r1
    19f8:	51 4e       	sbci	r21, 0xE1	; 225
    19fa:	61 05       	cpc	r22, r1
    19fc:	71 05       	cpc	r23, r1
    19fe:	b1 f0       	breq	.+44     	; 0x1a2c <_ZN14HardwareSerial5beginEmh+0x54>
    1a00:	60 e0       	ldi	r22, 0x00	; 0
    1a02:	79 e0       	ldi	r23, 0x09	; 9
    1a04:	8d e3       	ldi	r24, 0x3D	; 61
    1a06:	90 e0       	ldi	r25, 0x00	; 0
    1a08:	a7 01       	movw	r20, r14
    1a0a:	96 01       	movw	r18, r12
    1a0c:	0e 94 42 2b 	call	0x5684	; 0x5684 <__udivmodsi4>
    1a10:	da 01       	movw	r26, r20
    1a12:	c9 01       	movw	r24, r18
    1a14:	01 97       	sbiw	r24, 0x01	; 1
    1a16:	a1 09       	sbc	r26, r1
    1a18:	b1 09       	sbc	r27, r1
    1a1a:	b6 95       	lsr	r27
    1a1c:	a7 95       	ror	r26
    1a1e:	97 95       	ror	r25
    1a20:	87 95       	ror	r24
    1a22:	9c 01       	movw	r18, r24
    1a24:	21 15       	cp	r18, r1
    1a26:	80 e1       	ldi	r24, 0x10	; 16
    1a28:	38 07       	cpc	r19, r24
    1a2a:	a8 f0       	brcs	.+42     	; 0x1a56 <_ZN14HardwareSerial5beginEmh+0x7e>
    1a2c:	e8 89       	ldd	r30, Y+16	; 0x10
    1a2e:	f9 89       	ldd	r31, Y+17	; 0x11
    1a30:	10 82       	st	Z, r1
    1a32:	60 e8       	ldi	r22, 0x80	; 128
    1a34:	74 e8       	ldi	r23, 0x84	; 132
    1a36:	8e e1       	ldi	r24, 0x1E	; 30
    1a38:	90 e0       	ldi	r25, 0x00	; 0
    1a3a:	a7 01       	movw	r20, r14
    1a3c:	96 01       	movw	r18, r12
    1a3e:	0e 94 42 2b 	call	0x5684	; 0x5684 <__udivmodsi4>
    1a42:	da 01       	movw	r26, r20
    1a44:	c9 01       	movw	r24, r18
    1a46:	01 97       	sbiw	r24, 0x01	; 1
    1a48:	a1 09       	sbc	r26, r1
    1a4a:	b1 09       	sbc	r27, r1
    1a4c:	b6 95       	lsr	r27
    1a4e:	a7 95       	ror	r26
    1a50:	97 95       	ror	r25
    1a52:	87 95       	ror	r24
    1a54:	9c 01       	movw	r18, r24
    1a56:	ec 85       	ldd	r30, Y+12	; 0x0c
    1a58:	fd 85       	ldd	r31, Y+13	; 0x0d
    1a5a:	30 83       	st	Z, r19
    1a5c:	ee 85       	ldd	r30, Y+14	; 0x0e
    1a5e:	ff 85       	ldd	r31, Y+15	; 0x0f
    1a60:	20 83       	st	Z, r18
    1a62:	18 8e       	std	Y+24, r1	; 0x18
    1a64:	ec 89       	ldd	r30, Y+20	; 0x14
    1a66:	fd 89       	ldd	r31, Y+21	; 0x15
    1a68:	10 83       	st	Z, r17
    1a6a:	ea 89       	ldd	r30, Y+18	; 0x12
    1a6c:	fb 89       	ldd	r31, Y+19	; 0x13
    1a6e:	80 81       	ld	r24, Z
    1a70:	80 61       	ori	r24, 0x10	; 16
    1a72:	80 83       	st	Z, r24
    1a74:	ea 89       	ldd	r30, Y+18	; 0x12
    1a76:	fb 89       	ldd	r31, Y+19	; 0x13
    1a78:	80 81       	ld	r24, Z
    1a7a:	88 60       	ori	r24, 0x08	; 8
    1a7c:	80 83       	st	Z, r24
    1a7e:	ea 89       	ldd	r30, Y+18	; 0x12
    1a80:	fb 89       	ldd	r31, Y+19	; 0x13
    1a82:	80 81       	ld	r24, Z
    1a84:	80 68       	ori	r24, 0x80	; 128
    1a86:	80 83       	st	Z, r24
    1a88:	ea 89       	ldd	r30, Y+18	; 0x12
    1a8a:	fb 89       	ldd	r31, Y+19	; 0x13
    1a8c:	80 81       	ld	r24, Z
    1a8e:	8f 7d       	andi	r24, 0xDF	; 223
    1a90:	80 83       	st	Z, r24
    1a92:	df 91       	pop	r29
    1a94:	cf 91       	pop	r28
    1a96:	1f 91       	pop	r17
    1a98:	ff 90       	pop	r15
    1a9a:	ef 90       	pop	r14
    1a9c:	df 90       	pop	r13
    1a9e:	cf 90       	pop	r12
    1aa0:	08 95       	ret

00001aa2 <_ZN5Print5flushEv>:
    1aa2:	08 95       	ret

00001aa4 <__vector_25>:
    1aa4:	1f 92       	push	r1
    1aa6:	0f 92       	push	r0
    1aa8:	0f b6       	in	r0, 0x3f	; 63
    1aaa:	0f 92       	push	r0
    1aac:	11 24       	eor	r1, r1
    1aae:	0b b6       	in	r0, 0x3b	; 59
    1ab0:	0f 92       	push	r0
    1ab2:	2f 93       	push	r18
    1ab4:	8f 93       	push	r24
    1ab6:	9f 93       	push	r25
    1ab8:	ef 93       	push	r30
    1aba:	ff 93       	push	r31
    1abc:	e0 91 f9 09 	lds	r30, 0x09F9	; 0x8009f9 <Serial+0x10>
    1ac0:	f0 91 fa 09 	lds	r31, 0x09FA	; 0x8009fa <Serial+0x11>
    1ac4:	80 81       	ld	r24, Z
    1ac6:	e0 91 ff 09 	lds	r30, 0x09FF	; 0x8009ff <Serial+0x16>
    1aca:	f0 91 00 0a 	lds	r31, 0x0A00	; 0x800a00 <Serial+0x17>
    1ace:	82 fd       	sbrc	r24, 2
    1ad0:	12 c0       	rjmp	.+36     	; 0x1af6 <__vector_25+0x52>
    1ad2:	90 81       	ld	r25, Z
    1ad4:	80 91 02 0a 	lds	r24, 0x0A02	; 0x800a02 <Serial+0x19>
    1ad8:	8f 5f       	subi	r24, 0xFF	; 255
    1ada:	8f 73       	andi	r24, 0x3F	; 63
    1adc:	20 91 03 0a 	lds	r18, 0x0A03	; 0x800a03 <Serial+0x1a>
    1ae0:	82 17       	cp	r24, r18
    1ae2:	51 f0       	breq	.+20     	; 0x1af8 <__vector_25+0x54>
    1ae4:	e0 91 02 0a 	lds	r30, 0x0A02	; 0x800a02 <Serial+0x19>
    1ae8:	f0 e0       	ldi	r31, 0x00	; 0
    1aea:	e7 51       	subi	r30, 0x17	; 23
    1aec:	f6 4f       	sbci	r31, 0xF6	; 246
    1aee:	95 8f       	std	Z+29, r25	; 0x1d
    1af0:	80 93 02 0a 	sts	0x0A02, r24	; 0x800a02 <Serial+0x19>
    1af4:	01 c0       	rjmp	.+2      	; 0x1af8 <__vector_25+0x54>
    1af6:	80 81       	ld	r24, Z
    1af8:	ff 91       	pop	r31
    1afa:	ef 91       	pop	r30
    1afc:	9f 91       	pop	r25
    1afe:	8f 91       	pop	r24
    1b00:	2f 91       	pop	r18
    1b02:	0f 90       	pop	r0
    1b04:	0b be       	out	0x3b, r0	; 59
    1b06:	0f 90       	pop	r0
    1b08:	0f be       	out	0x3f, r0	; 63
    1b0a:	0f 90       	pop	r0
    1b0c:	1f 90       	pop	r1
    1b0e:	18 95       	reti

00001b10 <__vector_26>:
    1b10:	1f 92       	push	r1
    1b12:	0f 92       	push	r0
    1b14:	0f b6       	in	r0, 0x3f	; 63
    1b16:	0f 92       	push	r0
    1b18:	11 24       	eor	r1, r1
    1b1a:	0b b6       	in	r0, 0x3b	; 59
    1b1c:	0f 92       	push	r0
    1b1e:	2f 93       	push	r18
    1b20:	3f 93       	push	r19
    1b22:	4f 93       	push	r20
    1b24:	5f 93       	push	r21
    1b26:	6f 93       	push	r22
    1b28:	7f 93       	push	r23
    1b2a:	8f 93       	push	r24
    1b2c:	9f 93       	push	r25
    1b2e:	af 93       	push	r26
    1b30:	bf 93       	push	r27
    1b32:	ef 93       	push	r30
    1b34:	ff 93       	push	r31
    1b36:	89 ee       	ldi	r24, 0xE9	; 233
    1b38:	99 e0       	ldi	r25, 0x09	; 9
    1b3a:	bf de       	rcall	.-642    	; 0x18ba <_ZN14HardwareSerial17_tx_udr_empty_irqEv>
    1b3c:	ff 91       	pop	r31
    1b3e:	ef 91       	pop	r30
    1b40:	bf 91       	pop	r27
    1b42:	af 91       	pop	r26
    1b44:	9f 91       	pop	r25
    1b46:	8f 91       	pop	r24
    1b48:	7f 91       	pop	r23
    1b4a:	6f 91       	pop	r22
    1b4c:	5f 91       	pop	r21
    1b4e:	4f 91       	pop	r20
    1b50:	3f 91       	pop	r19
    1b52:	2f 91       	pop	r18
    1b54:	0f 90       	pop	r0
    1b56:	0b be       	out	0x3b, r0	; 59
    1b58:	0f 90       	pop	r0
    1b5a:	0f be       	out	0x3f, r0	; 63
    1b5c:	0f 90       	pop	r0
    1b5e:	1f 90       	pop	r1
    1b60:	18 95       	reti

00001b62 <_Z17Serial0_availablev>:
    1b62:	89 ee       	ldi	r24, 0xE9	; 233
    1b64:	99 e0       	ldi	r25, 0x09	; 9
    1b66:	32 de       	rcall	.-924    	; 0x17cc <_ZN14HardwareSerial9availableEv>
    1b68:	21 e0       	ldi	r18, 0x01	; 1
    1b6a:	89 2b       	or	r24, r25
    1b6c:	09 f4       	brne	.+2      	; 0x1b70 <_Z17Serial0_availablev+0xe>
    1b6e:	20 e0       	ldi	r18, 0x00	; 0
    1b70:	82 2f       	mov	r24, r18
    1b72:	08 95       	ret

00001b74 <_GLOBAL__sub_I___vector_25>:
    1b74:	e9 ee       	ldi	r30, 0xE9	; 233
    1b76:	f9 e0       	ldi	r31, 0x09	; 9
    1b78:	13 82       	std	Z+3, r1	; 0x03
    1b7a:	12 82       	std	Z+2, r1	; 0x02
    1b7c:	88 ee       	ldi	r24, 0xE8	; 232
    1b7e:	93 e0       	ldi	r25, 0x03	; 3
    1b80:	a0 e0       	ldi	r26, 0x00	; 0
    1b82:	b0 e0       	ldi	r27, 0x00	; 0
    1b84:	84 83       	std	Z+4, r24	; 0x04
    1b86:	95 83       	std	Z+5, r25	; 0x05
    1b88:	a6 83       	std	Z+6, r26	; 0x06
    1b8a:	b7 83       	std	Z+7, r27	; 0x07
    1b8c:	8e e1       	ldi	r24, 0x1E	; 30
    1b8e:	93 e0       	ldi	r25, 0x03	; 3
    1b90:	91 83       	std	Z+1, r25	; 0x01
    1b92:	80 83       	st	Z, r24
    1b94:	85 ec       	ldi	r24, 0xC5	; 197
    1b96:	90 e0       	ldi	r25, 0x00	; 0
    1b98:	95 87       	std	Z+13, r25	; 0x0d
    1b9a:	84 87       	std	Z+12, r24	; 0x0c
    1b9c:	84 ec       	ldi	r24, 0xC4	; 196
    1b9e:	90 e0       	ldi	r25, 0x00	; 0
    1ba0:	97 87       	std	Z+15, r25	; 0x0f
    1ba2:	86 87       	std	Z+14, r24	; 0x0e
    1ba4:	80 ec       	ldi	r24, 0xC0	; 192
    1ba6:	90 e0       	ldi	r25, 0x00	; 0
    1ba8:	91 8b       	std	Z+17, r25	; 0x11
    1baa:	80 8b       	std	Z+16, r24	; 0x10
    1bac:	81 ec       	ldi	r24, 0xC1	; 193
    1bae:	90 e0       	ldi	r25, 0x00	; 0
    1bb0:	93 8b       	std	Z+19, r25	; 0x13
    1bb2:	82 8b       	std	Z+18, r24	; 0x12
    1bb4:	82 ec       	ldi	r24, 0xC2	; 194
    1bb6:	90 e0       	ldi	r25, 0x00	; 0
    1bb8:	95 8b       	std	Z+21, r25	; 0x15
    1bba:	84 8b       	std	Z+20, r24	; 0x14
    1bbc:	86 ec       	ldi	r24, 0xC6	; 198
    1bbe:	90 e0       	ldi	r25, 0x00	; 0
    1bc0:	97 8b       	std	Z+23, r25	; 0x17
    1bc2:	86 8b       	std	Z+22, r24	; 0x16
    1bc4:	11 8e       	std	Z+25, r1	; 0x19
    1bc6:	12 8e       	std	Z+26, r1	; 0x1a
    1bc8:	13 8e       	std	Z+27, r1	; 0x1b
    1bca:	14 8e       	std	Z+28, r1	; 0x1c
    1bcc:	08 95       	ret

00001bce <__vector_36>:
    1bce:	1f 92       	push	r1
    1bd0:	0f 92       	push	r0
    1bd2:	0f b6       	in	r0, 0x3f	; 63
    1bd4:	0f 92       	push	r0
    1bd6:	11 24       	eor	r1, r1
    1bd8:	0b b6       	in	r0, 0x3b	; 59
    1bda:	0f 92       	push	r0
    1bdc:	2f 93       	push	r18
    1bde:	8f 93       	push	r24
    1be0:	9f 93       	push	r25
    1be2:	ef 93       	push	r30
    1be4:	ff 93       	push	r31
    1be6:	e0 91 96 0a 	lds	r30, 0x0A96	; 0x800a96 <Serial1+0x10>
    1bea:	f0 91 97 0a 	lds	r31, 0x0A97	; 0x800a97 <Serial1+0x11>
    1bee:	80 81       	ld	r24, Z
    1bf0:	e0 91 9c 0a 	lds	r30, 0x0A9C	; 0x800a9c <Serial1+0x16>
    1bf4:	f0 91 9d 0a 	lds	r31, 0x0A9D	; 0x800a9d <Serial1+0x17>
    1bf8:	82 fd       	sbrc	r24, 2
    1bfa:	12 c0       	rjmp	.+36     	; 0x1c20 <__vector_36+0x52>
    1bfc:	90 81       	ld	r25, Z
    1bfe:	80 91 9f 0a 	lds	r24, 0x0A9F	; 0x800a9f <Serial1+0x19>
    1c02:	8f 5f       	subi	r24, 0xFF	; 255
    1c04:	8f 73       	andi	r24, 0x3F	; 63
    1c06:	20 91 a0 0a 	lds	r18, 0x0AA0	; 0x800aa0 <Serial1+0x1a>
    1c0a:	82 17       	cp	r24, r18
    1c0c:	51 f0       	breq	.+20     	; 0x1c22 <__vector_36+0x54>
    1c0e:	e0 91 9f 0a 	lds	r30, 0x0A9F	; 0x800a9f <Serial1+0x19>
    1c12:	f0 e0       	ldi	r31, 0x00	; 0
    1c14:	ea 57       	subi	r30, 0x7A	; 122
    1c16:	f5 4f       	sbci	r31, 0xF5	; 245
    1c18:	95 8f       	std	Z+29, r25	; 0x1d
    1c1a:	80 93 9f 0a 	sts	0x0A9F, r24	; 0x800a9f <Serial1+0x19>
    1c1e:	01 c0       	rjmp	.+2      	; 0x1c22 <__vector_36+0x54>
    1c20:	80 81       	ld	r24, Z
    1c22:	ff 91       	pop	r31
    1c24:	ef 91       	pop	r30
    1c26:	9f 91       	pop	r25
    1c28:	8f 91       	pop	r24
    1c2a:	2f 91       	pop	r18
    1c2c:	0f 90       	pop	r0
    1c2e:	0b be       	out	0x3b, r0	; 59
    1c30:	0f 90       	pop	r0
    1c32:	0f be       	out	0x3f, r0	; 63
    1c34:	0f 90       	pop	r0
    1c36:	1f 90       	pop	r1
    1c38:	18 95       	reti

00001c3a <__vector_37>:
    1c3a:	1f 92       	push	r1
    1c3c:	0f 92       	push	r0
    1c3e:	0f b6       	in	r0, 0x3f	; 63
    1c40:	0f 92       	push	r0
    1c42:	11 24       	eor	r1, r1
    1c44:	0b b6       	in	r0, 0x3b	; 59
    1c46:	0f 92       	push	r0
    1c48:	2f 93       	push	r18
    1c4a:	3f 93       	push	r19
    1c4c:	4f 93       	push	r20
    1c4e:	5f 93       	push	r21
    1c50:	6f 93       	push	r22
    1c52:	7f 93       	push	r23
    1c54:	8f 93       	push	r24
    1c56:	9f 93       	push	r25
    1c58:	af 93       	push	r26
    1c5a:	bf 93       	push	r27
    1c5c:	ef 93       	push	r30
    1c5e:	ff 93       	push	r31
    1c60:	86 e8       	ldi	r24, 0x86	; 134
    1c62:	9a e0       	ldi	r25, 0x0A	; 10
    1c64:	2a de       	rcall	.-940    	; 0x18ba <_ZN14HardwareSerial17_tx_udr_empty_irqEv>
    1c66:	ff 91       	pop	r31
    1c68:	ef 91       	pop	r30
    1c6a:	bf 91       	pop	r27
    1c6c:	af 91       	pop	r26
    1c6e:	9f 91       	pop	r25
    1c70:	8f 91       	pop	r24
    1c72:	7f 91       	pop	r23
    1c74:	6f 91       	pop	r22
    1c76:	5f 91       	pop	r21
    1c78:	4f 91       	pop	r20
    1c7a:	3f 91       	pop	r19
    1c7c:	2f 91       	pop	r18
    1c7e:	0f 90       	pop	r0
    1c80:	0b be       	out	0x3b, r0	; 59
    1c82:	0f 90       	pop	r0
    1c84:	0f be       	out	0x3f, r0	; 63
    1c86:	0f 90       	pop	r0
    1c88:	1f 90       	pop	r1
    1c8a:	18 95       	reti

00001c8c <_Z17Serial1_availablev>:
    1c8c:	86 e8       	ldi	r24, 0x86	; 134
    1c8e:	9a e0       	ldi	r25, 0x0A	; 10
    1c90:	9d dd       	rcall	.-1222   	; 0x17cc <_ZN14HardwareSerial9availableEv>
    1c92:	21 e0       	ldi	r18, 0x01	; 1
    1c94:	89 2b       	or	r24, r25
    1c96:	09 f4       	brne	.+2      	; 0x1c9a <_Z17Serial1_availablev+0xe>
    1c98:	20 e0       	ldi	r18, 0x00	; 0
    1c9a:	82 2f       	mov	r24, r18
    1c9c:	08 95       	ret

00001c9e <_GLOBAL__sub_I___vector_36>:
    1c9e:	e6 e8       	ldi	r30, 0x86	; 134
    1ca0:	fa e0       	ldi	r31, 0x0A	; 10
    1ca2:	13 82       	std	Z+3, r1	; 0x03
    1ca4:	12 82       	std	Z+2, r1	; 0x02
    1ca6:	88 ee       	ldi	r24, 0xE8	; 232
    1ca8:	93 e0       	ldi	r25, 0x03	; 3
    1caa:	a0 e0       	ldi	r26, 0x00	; 0
    1cac:	b0 e0       	ldi	r27, 0x00	; 0
    1cae:	84 83       	std	Z+4, r24	; 0x04
    1cb0:	95 83       	std	Z+5, r25	; 0x05
    1cb2:	a6 83       	std	Z+6, r26	; 0x06
    1cb4:	b7 83       	std	Z+7, r27	; 0x07
    1cb6:	8e e1       	ldi	r24, 0x1E	; 30
    1cb8:	93 e0       	ldi	r25, 0x03	; 3
    1cba:	91 83       	std	Z+1, r25	; 0x01
    1cbc:	80 83       	st	Z, r24
    1cbe:	8d ec       	ldi	r24, 0xCD	; 205
    1cc0:	90 e0       	ldi	r25, 0x00	; 0
    1cc2:	95 87       	std	Z+13, r25	; 0x0d
    1cc4:	84 87       	std	Z+12, r24	; 0x0c
    1cc6:	8c ec       	ldi	r24, 0xCC	; 204
    1cc8:	90 e0       	ldi	r25, 0x00	; 0
    1cca:	97 87       	std	Z+15, r25	; 0x0f
    1ccc:	86 87       	std	Z+14, r24	; 0x0e
    1cce:	88 ec       	ldi	r24, 0xC8	; 200
    1cd0:	90 e0       	ldi	r25, 0x00	; 0
    1cd2:	91 8b       	std	Z+17, r25	; 0x11
    1cd4:	80 8b       	std	Z+16, r24	; 0x10
    1cd6:	89 ec       	ldi	r24, 0xC9	; 201
    1cd8:	90 e0       	ldi	r25, 0x00	; 0
    1cda:	93 8b       	std	Z+19, r25	; 0x13
    1cdc:	82 8b       	std	Z+18, r24	; 0x12
    1cde:	8a ec       	ldi	r24, 0xCA	; 202
    1ce0:	90 e0       	ldi	r25, 0x00	; 0
    1ce2:	95 8b       	std	Z+21, r25	; 0x15
    1ce4:	84 8b       	std	Z+20, r24	; 0x14
    1ce6:	8e ec       	ldi	r24, 0xCE	; 206
    1ce8:	90 e0       	ldi	r25, 0x00	; 0
    1cea:	97 8b       	std	Z+23, r25	; 0x17
    1cec:	86 8b       	std	Z+22, r24	; 0x16
    1cee:	11 8e       	std	Z+25, r1	; 0x19
    1cf0:	12 8e       	std	Z+26, r1	; 0x1a
    1cf2:	13 8e       	std	Z+27, r1	; 0x1b
    1cf4:	14 8e       	std	Z+28, r1	; 0x1c
    1cf6:	08 95       	ret

00001cf8 <__vector_51>:
    1cf8:	1f 92       	push	r1
    1cfa:	0f 92       	push	r0
    1cfc:	0f b6       	in	r0, 0x3f	; 63
    1cfe:	0f 92       	push	r0
    1d00:	11 24       	eor	r1, r1
    1d02:	0b b6       	in	r0, 0x3b	; 59
    1d04:	0f 92       	push	r0
    1d06:	2f 93       	push	r18
    1d08:	8f 93       	push	r24
    1d0a:	9f 93       	push	r25
    1d0c:	ef 93       	push	r30
    1d0e:	ff 93       	push	r31
    1d10:	e0 91 33 0b 	lds	r30, 0x0B33	; 0x800b33 <Serial2+0x10>
    1d14:	f0 91 34 0b 	lds	r31, 0x0B34	; 0x800b34 <Serial2+0x11>
    1d18:	80 81       	ld	r24, Z
    1d1a:	e0 91 39 0b 	lds	r30, 0x0B39	; 0x800b39 <Serial2+0x16>
    1d1e:	f0 91 3a 0b 	lds	r31, 0x0B3A	; 0x800b3a <Serial2+0x17>
    1d22:	82 fd       	sbrc	r24, 2
    1d24:	12 c0       	rjmp	.+36     	; 0x1d4a <__vector_51+0x52>
    1d26:	90 81       	ld	r25, Z
    1d28:	80 91 3c 0b 	lds	r24, 0x0B3C	; 0x800b3c <Serial2+0x19>
    1d2c:	8f 5f       	subi	r24, 0xFF	; 255
    1d2e:	8f 73       	andi	r24, 0x3F	; 63
    1d30:	20 91 3d 0b 	lds	r18, 0x0B3D	; 0x800b3d <Serial2+0x1a>
    1d34:	82 17       	cp	r24, r18
    1d36:	51 f0       	breq	.+20     	; 0x1d4c <__vector_51+0x54>
    1d38:	e0 91 3c 0b 	lds	r30, 0x0B3C	; 0x800b3c <Serial2+0x19>
    1d3c:	f0 e0       	ldi	r31, 0x00	; 0
    1d3e:	ed 5d       	subi	r30, 0xDD	; 221
    1d40:	f4 4f       	sbci	r31, 0xF4	; 244
    1d42:	95 8f       	std	Z+29, r25	; 0x1d
    1d44:	80 93 3c 0b 	sts	0x0B3C, r24	; 0x800b3c <Serial2+0x19>
    1d48:	01 c0       	rjmp	.+2      	; 0x1d4c <__vector_51+0x54>
    1d4a:	80 81       	ld	r24, Z
    1d4c:	ff 91       	pop	r31
    1d4e:	ef 91       	pop	r30
    1d50:	9f 91       	pop	r25
    1d52:	8f 91       	pop	r24
    1d54:	2f 91       	pop	r18
    1d56:	0f 90       	pop	r0
    1d58:	0b be       	out	0x3b, r0	; 59
    1d5a:	0f 90       	pop	r0
    1d5c:	0f be       	out	0x3f, r0	; 63
    1d5e:	0f 90       	pop	r0
    1d60:	1f 90       	pop	r1
    1d62:	18 95       	reti

00001d64 <__vector_52>:
    1d64:	1f 92       	push	r1
    1d66:	0f 92       	push	r0
    1d68:	0f b6       	in	r0, 0x3f	; 63
    1d6a:	0f 92       	push	r0
    1d6c:	11 24       	eor	r1, r1
    1d6e:	0b b6       	in	r0, 0x3b	; 59
    1d70:	0f 92       	push	r0
    1d72:	2f 93       	push	r18
    1d74:	3f 93       	push	r19
    1d76:	4f 93       	push	r20
    1d78:	5f 93       	push	r21
    1d7a:	6f 93       	push	r22
    1d7c:	7f 93       	push	r23
    1d7e:	8f 93       	push	r24
    1d80:	9f 93       	push	r25
    1d82:	af 93       	push	r26
    1d84:	bf 93       	push	r27
    1d86:	ef 93       	push	r30
    1d88:	ff 93       	push	r31
    1d8a:	83 e2       	ldi	r24, 0x23	; 35
    1d8c:	9b e0       	ldi	r25, 0x0B	; 11
    1d8e:	95 dd       	rcall	.-1238   	; 0x18ba <_ZN14HardwareSerial17_tx_udr_empty_irqEv>
    1d90:	ff 91       	pop	r31
    1d92:	ef 91       	pop	r30
    1d94:	bf 91       	pop	r27
    1d96:	af 91       	pop	r26
    1d98:	9f 91       	pop	r25
    1d9a:	8f 91       	pop	r24
    1d9c:	7f 91       	pop	r23
    1d9e:	6f 91       	pop	r22
    1da0:	5f 91       	pop	r21
    1da2:	4f 91       	pop	r20
    1da4:	3f 91       	pop	r19
    1da6:	2f 91       	pop	r18
    1da8:	0f 90       	pop	r0
    1daa:	0b be       	out	0x3b, r0	; 59
    1dac:	0f 90       	pop	r0
    1dae:	0f be       	out	0x3f, r0	; 63
    1db0:	0f 90       	pop	r0
    1db2:	1f 90       	pop	r1
    1db4:	18 95       	reti

00001db6 <_Z17Serial2_availablev>:
    1db6:	83 e2       	ldi	r24, 0x23	; 35
    1db8:	9b e0       	ldi	r25, 0x0B	; 11
    1dba:	08 dd       	rcall	.-1520   	; 0x17cc <_ZN14HardwareSerial9availableEv>
    1dbc:	21 e0       	ldi	r18, 0x01	; 1
    1dbe:	89 2b       	or	r24, r25
    1dc0:	09 f4       	brne	.+2      	; 0x1dc4 <_Z17Serial2_availablev+0xe>
    1dc2:	20 e0       	ldi	r18, 0x00	; 0
    1dc4:	82 2f       	mov	r24, r18
    1dc6:	08 95       	ret

00001dc8 <_GLOBAL__sub_I___vector_51>:
    1dc8:	e3 e2       	ldi	r30, 0x23	; 35
    1dca:	fb e0       	ldi	r31, 0x0B	; 11
    1dcc:	13 82       	std	Z+3, r1	; 0x03
    1dce:	12 82       	std	Z+2, r1	; 0x02
    1dd0:	88 ee       	ldi	r24, 0xE8	; 232
    1dd2:	93 e0       	ldi	r25, 0x03	; 3
    1dd4:	a0 e0       	ldi	r26, 0x00	; 0
    1dd6:	b0 e0       	ldi	r27, 0x00	; 0
    1dd8:	84 83       	std	Z+4, r24	; 0x04
    1dda:	95 83       	std	Z+5, r25	; 0x05
    1ddc:	a6 83       	std	Z+6, r26	; 0x06
    1dde:	b7 83       	std	Z+7, r27	; 0x07
    1de0:	8e e1       	ldi	r24, 0x1E	; 30
    1de2:	93 e0       	ldi	r25, 0x03	; 3
    1de4:	91 83       	std	Z+1, r25	; 0x01
    1de6:	80 83       	st	Z, r24
    1de8:	85 ed       	ldi	r24, 0xD5	; 213
    1dea:	90 e0       	ldi	r25, 0x00	; 0
    1dec:	95 87       	std	Z+13, r25	; 0x0d
    1dee:	84 87       	std	Z+12, r24	; 0x0c
    1df0:	84 ed       	ldi	r24, 0xD4	; 212
    1df2:	90 e0       	ldi	r25, 0x00	; 0
    1df4:	97 87       	std	Z+15, r25	; 0x0f
    1df6:	86 87       	std	Z+14, r24	; 0x0e
    1df8:	80 ed       	ldi	r24, 0xD0	; 208
    1dfa:	90 e0       	ldi	r25, 0x00	; 0
    1dfc:	91 8b       	std	Z+17, r25	; 0x11
    1dfe:	80 8b       	std	Z+16, r24	; 0x10
    1e00:	81 ed       	ldi	r24, 0xD1	; 209
    1e02:	90 e0       	ldi	r25, 0x00	; 0
    1e04:	93 8b       	std	Z+19, r25	; 0x13
    1e06:	82 8b       	std	Z+18, r24	; 0x12
    1e08:	82 ed       	ldi	r24, 0xD2	; 210
    1e0a:	90 e0       	ldi	r25, 0x00	; 0
    1e0c:	95 8b       	std	Z+21, r25	; 0x15
    1e0e:	84 8b       	std	Z+20, r24	; 0x14
    1e10:	86 ed       	ldi	r24, 0xD6	; 214
    1e12:	90 e0       	ldi	r25, 0x00	; 0
    1e14:	97 8b       	std	Z+23, r25	; 0x17
    1e16:	86 8b       	std	Z+22, r24	; 0x16
    1e18:	11 8e       	std	Z+25, r1	; 0x19
    1e1a:	12 8e       	std	Z+26, r1	; 0x1a
    1e1c:	13 8e       	std	Z+27, r1	; 0x1b
    1e1e:	14 8e       	std	Z+28, r1	; 0x1c
    1e20:	08 95       	ret

00001e22 <initVariant>:
    1e22:	08 95       	ret

00001e24 <main>:
    1e24:	5e d2       	rcall	.+1212   	; 0x22e2 <init>
    1e26:	fd df       	rcall	.-6      	; 0x1e22 <initVariant>
    1e28:	0e 94 ea 05 	call	0xbd4	; 0xbd4 <setup>
    1e2c:	c3 e2       	ldi	r28, 0x23	; 35
    1e2e:	dc e0       	ldi	r29, 0x0C	; 12
    1e30:	0e 94 57 06 	call	0xcae	; 0xcae <loop>
    1e34:	20 97       	sbiw	r28, 0x00	; 0
    1e36:	e1 f3       	breq	.-8      	; 0x1e30 <main+0xc>
    1e38:	06 dd       	rcall	.-1524   	; 0x1846 <_Z14serialEventRunv>
    1e3a:	fa cf       	rjmp	.-12     	; 0x1e30 <main+0xc>

00001e3c <_ZN5Print5writeEPKhj>:
    1e3c:	cf 92       	push	r12
    1e3e:	df 92       	push	r13
    1e40:	ef 92       	push	r14
    1e42:	ff 92       	push	r15
    1e44:	0f 93       	push	r16
    1e46:	1f 93       	push	r17
    1e48:	cf 93       	push	r28
    1e4a:	df 93       	push	r29
    1e4c:	6c 01       	movw	r12, r24
    1e4e:	7a 01       	movw	r14, r20
    1e50:	8b 01       	movw	r16, r22
    1e52:	c0 e0       	ldi	r28, 0x00	; 0
    1e54:	d0 e0       	ldi	r29, 0x00	; 0
    1e56:	ce 15       	cp	r28, r14
    1e58:	df 05       	cpc	r29, r15
    1e5a:	81 f0       	breq	.+32     	; 0x1e7c <_ZN5Print5writeEPKhj+0x40>
    1e5c:	d8 01       	movw	r26, r16
    1e5e:	6d 91       	ld	r22, X+
    1e60:	8d 01       	movw	r16, r26
    1e62:	d6 01       	movw	r26, r12
    1e64:	ed 91       	ld	r30, X+
    1e66:	fc 91       	ld	r31, X
    1e68:	01 90       	ld	r0, Z+
    1e6a:	f0 81       	ld	r31, Z
    1e6c:	e0 2d       	mov	r30, r0
    1e6e:	c6 01       	movw	r24, r12
    1e70:	19 95       	eicall
    1e72:	89 2b       	or	r24, r25
    1e74:	11 f0       	breq	.+4      	; 0x1e7a <_ZN5Print5writeEPKhj+0x3e>
    1e76:	21 96       	adiw	r28, 0x01	; 1
    1e78:	ee cf       	rjmp	.-36     	; 0x1e56 <_ZN5Print5writeEPKhj+0x1a>
    1e7a:	7e 01       	movw	r14, r28
    1e7c:	c7 01       	movw	r24, r14
    1e7e:	df 91       	pop	r29
    1e80:	cf 91       	pop	r28
    1e82:	1f 91       	pop	r17
    1e84:	0f 91       	pop	r16
    1e86:	ff 90       	pop	r15
    1e88:	ef 90       	pop	r14
    1e8a:	df 90       	pop	r13
    1e8c:	cf 90       	pop	r12
    1e8e:	08 95       	ret

00001e90 <_ZN5Print5writeEPKc>:
    1e90:	61 15       	cp	r22, r1
    1e92:	71 05       	cpc	r23, r1
    1e94:	79 f0       	breq	.+30     	; 0x1eb4 <_ZN5Print5writeEPKc+0x24>
    1e96:	fb 01       	movw	r30, r22
    1e98:	01 90       	ld	r0, Z+
    1e9a:	00 20       	and	r0, r0
    1e9c:	e9 f7       	brne	.-6      	; 0x1e98 <_ZN5Print5writeEPKc+0x8>
    1e9e:	31 97       	sbiw	r30, 0x01	; 1
    1ea0:	af 01       	movw	r20, r30
    1ea2:	46 1b       	sub	r20, r22
    1ea4:	57 0b       	sbc	r21, r23
    1ea6:	dc 01       	movw	r26, r24
    1ea8:	ed 91       	ld	r30, X+
    1eaa:	fc 91       	ld	r31, X
    1eac:	02 80       	ldd	r0, Z+2	; 0x02
    1eae:	f3 81       	ldd	r31, Z+3	; 0x03
    1eb0:	e0 2d       	mov	r30, r0
    1eb2:	19 94       	eijmp
    1eb4:	80 e0       	ldi	r24, 0x00	; 0
    1eb6:	90 e0       	ldi	r25, 0x00	; 0
    1eb8:	08 95       	ret

00001eba <_ZN5Print5printEPK19__FlashStringHelper>:
    1eba:	ef 92       	push	r14
    1ebc:	ff 92       	push	r15
    1ebe:	0f 93       	push	r16
    1ec0:	1f 93       	push	r17
    1ec2:	cf 93       	push	r28
    1ec4:	df 93       	push	r29
    1ec6:	8c 01       	movw	r16, r24
    1ec8:	7b 01       	movw	r14, r22
    1eca:	c0 e0       	ldi	r28, 0x00	; 0
    1ecc:	d0 e0       	ldi	r29, 0x00	; 0
    1ece:	f7 01       	movw	r30, r14
    1ed0:	ec 0f       	add	r30, r28
    1ed2:	fd 1f       	adc	r31, r29
    1ed4:	64 91       	lpm	r22, Z
    1ed6:	66 23       	and	r22, r22
    1ed8:	61 f0       	breq	.+24     	; 0x1ef2 <_ZN5Print5printEPK19__FlashStringHelper+0x38>
    1eda:	d8 01       	movw	r26, r16
    1edc:	ed 91       	ld	r30, X+
    1ede:	fc 91       	ld	r31, X
    1ee0:	01 90       	ld	r0, Z+
    1ee2:	f0 81       	ld	r31, Z
    1ee4:	e0 2d       	mov	r30, r0
    1ee6:	c8 01       	movw	r24, r16
    1ee8:	19 95       	eicall
    1eea:	89 2b       	or	r24, r25
    1eec:	11 f0       	breq	.+4      	; 0x1ef2 <_ZN5Print5printEPK19__FlashStringHelper+0x38>
    1eee:	21 96       	adiw	r28, 0x01	; 1
    1ef0:	ee cf       	rjmp	.-36     	; 0x1ece <_ZN5Print5printEPK19__FlashStringHelper+0x14>
    1ef2:	ce 01       	movw	r24, r28
    1ef4:	df 91       	pop	r29
    1ef6:	cf 91       	pop	r28
    1ef8:	1f 91       	pop	r17
    1efa:	0f 91       	pop	r16
    1efc:	ff 90       	pop	r15
    1efe:	ef 90       	pop	r14
    1f00:	08 95       	ret

00001f02 <_ZN5Print5printERK6String>:
    1f02:	db 01       	movw	r26, r22
    1f04:	14 96       	adiw	r26, 0x04	; 4
    1f06:	4d 91       	ld	r20, X+
    1f08:	5c 91       	ld	r21, X
    1f0a:	15 97       	sbiw	r26, 0x05	; 5
    1f0c:	6d 91       	ld	r22, X+
    1f0e:	7c 91       	ld	r23, X
    1f10:	dc 01       	movw	r26, r24
    1f12:	ed 91       	ld	r30, X+
    1f14:	fc 91       	ld	r31, X
    1f16:	02 80       	ldd	r0, Z+2	; 0x02
    1f18:	f3 81       	ldd	r31, Z+3	; 0x03
    1f1a:	e0 2d       	mov	r30, r0
    1f1c:	19 94       	eijmp

00001f1e <_ZN5Print5printEc>:
    1f1e:	dc 01       	movw	r26, r24
    1f20:	ed 91       	ld	r30, X+
    1f22:	fc 91       	ld	r31, X
    1f24:	01 90       	ld	r0, Z+
    1f26:	f0 81       	ld	r31, Z
    1f28:	e0 2d       	mov	r30, r0
    1f2a:	19 94       	eijmp

00001f2c <_ZN5Print7printlnEv>:
    1f2c:	6c e2       	ldi	r22, 0x2C	; 44
    1f2e:	73 e0       	ldi	r23, 0x03	; 3
    1f30:	af cf       	rjmp	.-162    	; 0x1e90 <_ZN5Print5writeEPKc>

00001f32 <_ZN5Print7printlnEPK19__FlashStringHelper>:
    1f32:	0f 93       	push	r16
    1f34:	1f 93       	push	r17
    1f36:	cf 93       	push	r28
    1f38:	df 93       	push	r29
    1f3a:	ec 01       	movw	r28, r24
    1f3c:	be df       	rcall	.-132    	; 0x1eba <_ZN5Print5printEPK19__FlashStringHelper>
    1f3e:	8c 01       	movw	r16, r24
    1f40:	ce 01       	movw	r24, r28
    1f42:	f4 df       	rcall	.-24     	; 0x1f2c <_ZN5Print7printlnEv>
    1f44:	80 0f       	add	r24, r16
    1f46:	91 1f       	adc	r25, r17
    1f48:	df 91       	pop	r29
    1f4a:	cf 91       	pop	r28
    1f4c:	1f 91       	pop	r17
    1f4e:	0f 91       	pop	r16
    1f50:	08 95       	ret

00001f52 <_ZN5Print7printlnERK6String>:
    1f52:	0f 93       	push	r16
    1f54:	1f 93       	push	r17
    1f56:	cf 93       	push	r28
    1f58:	df 93       	push	r29
    1f5a:	ec 01       	movw	r28, r24
    1f5c:	d2 df       	rcall	.-92     	; 0x1f02 <_ZN5Print5printERK6String>
    1f5e:	8c 01       	movw	r16, r24
    1f60:	ce 01       	movw	r24, r28
    1f62:	e4 df       	rcall	.-56     	; 0x1f2c <_ZN5Print7printlnEv>
    1f64:	80 0f       	add	r24, r16
    1f66:	91 1f       	adc	r25, r17
    1f68:	df 91       	pop	r29
    1f6a:	cf 91       	pop	r28
    1f6c:	1f 91       	pop	r17
    1f6e:	0f 91       	pop	r16
    1f70:	08 95       	ret

00001f72 <_ZN5Print7printlnEPKc>:
    1f72:	0f 93       	push	r16
    1f74:	1f 93       	push	r17
    1f76:	cf 93       	push	r28
    1f78:	df 93       	push	r29
    1f7a:	ec 01       	movw	r28, r24
    1f7c:	89 df       	rcall	.-238    	; 0x1e90 <_ZN5Print5writeEPKc>
    1f7e:	8c 01       	movw	r16, r24
    1f80:	ce 01       	movw	r24, r28
    1f82:	d4 df       	rcall	.-88     	; 0x1f2c <_ZN5Print7printlnEv>
    1f84:	80 0f       	add	r24, r16
    1f86:	91 1f       	adc	r25, r17
    1f88:	df 91       	pop	r29
    1f8a:	cf 91       	pop	r28
    1f8c:	1f 91       	pop	r17
    1f8e:	0f 91       	pop	r16
    1f90:	08 95       	ret

00001f92 <_ZN5Print11printNumberEmh>:
    1f92:	8f 92       	push	r8
    1f94:	9f 92       	push	r9
    1f96:	af 92       	push	r10
    1f98:	bf 92       	push	r11
    1f9a:	ef 92       	push	r14
    1f9c:	ff 92       	push	r15
    1f9e:	0f 93       	push	r16
    1fa0:	1f 93       	push	r17
    1fa2:	cf 93       	push	r28
    1fa4:	df 93       	push	r29
    1fa6:	cd b7       	in	r28, 0x3d	; 61
    1fa8:	de b7       	in	r29, 0x3e	; 62
    1faa:	a1 97       	sbiw	r28, 0x21	; 33
    1fac:	0f b6       	in	r0, 0x3f	; 63
    1fae:	f8 94       	cli
    1fb0:	de bf       	out	0x3e, r29	; 62
    1fb2:	0f be       	out	0x3f, r0	; 63
    1fb4:	cd bf       	out	0x3d, r28	; 61
    1fb6:	7c 01       	movw	r14, r24
    1fb8:	fa 01       	movw	r30, r20
    1fba:	cb 01       	movw	r24, r22
    1fbc:	19 a2       	std	Y+33, r1	; 0x21
    1fbe:	22 30       	cpi	r18, 0x02	; 2
    1fc0:	08 f4       	brcc	.+2      	; 0x1fc4 <_ZN5Print11printNumberEmh+0x32>
    1fc2:	2a e0       	ldi	r18, 0x0A	; 10
    1fc4:	8e 01       	movw	r16, r28
    1fc6:	0f 5d       	subi	r16, 0xDF	; 223
    1fc8:	1f 4f       	sbci	r17, 0xFF	; 255
    1fca:	82 2e       	mov	r8, r18
    1fcc:	91 2c       	mov	r9, r1
    1fce:	a1 2c       	mov	r10, r1
    1fd0:	b1 2c       	mov	r11, r1
    1fd2:	bf 01       	movw	r22, r30
    1fd4:	a5 01       	movw	r20, r10
    1fd6:	94 01       	movw	r18, r8
    1fd8:	0e 94 42 2b 	call	0x5684	; 0x5684 <__udivmodsi4>
    1fdc:	f9 01       	movw	r30, r18
    1fde:	ca 01       	movw	r24, r20
    1fe0:	01 50       	subi	r16, 0x01	; 1
    1fe2:	11 09       	sbc	r17, r1
    1fe4:	6a 30       	cpi	r22, 0x0A	; 10
    1fe6:	10 f4       	brcc	.+4      	; 0x1fec <_ZN5Print11printNumberEmh+0x5a>
    1fe8:	60 5d       	subi	r22, 0xD0	; 208
    1fea:	01 c0       	rjmp	.+2      	; 0x1fee <_ZN5Print11printNumberEmh+0x5c>
    1fec:	69 5c       	subi	r22, 0xC9	; 201
    1fee:	d8 01       	movw	r26, r16
    1ff0:	6c 93       	st	X, r22
    1ff2:	23 2b       	or	r18, r19
    1ff4:	24 2b       	or	r18, r20
    1ff6:	25 2b       	or	r18, r21
    1ff8:	61 f7       	brne	.-40     	; 0x1fd2 <_ZN5Print11printNumberEmh+0x40>
    1ffa:	b8 01       	movw	r22, r16
    1ffc:	c7 01       	movw	r24, r14
    1ffe:	48 df       	rcall	.-368    	; 0x1e90 <_ZN5Print5writeEPKc>
    2000:	a1 96       	adiw	r28, 0x21	; 33
    2002:	0f b6       	in	r0, 0x3f	; 63
    2004:	f8 94       	cli
    2006:	de bf       	out	0x3e, r29	; 62
    2008:	0f be       	out	0x3f, r0	; 63
    200a:	cd bf       	out	0x3d, r28	; 61
    200c:	df 91       	pop	r29
    200e:	cf 91       	pop	r28
    2010:	1f 91       	pop	r17
    2012:	0f 91       	pop	r16
    2014:	ff 90       	pop	r15
    2016:	ef 90       	pop	r14
    2018:	bf 90       	pop	r11
    201a:	af 90       	pop	r10
    201c:	9f 90       	pop	r9
    201e:	8f 90       	pop	r8
    2020:	08 95       	ret

00002022 <_ZN5Print5printEli>:
    2022:	cf 92       	push	r12
    2024:	df 92       	push	r13
    2026:	ef 92       	push	r14
    2028:	ff 92       	push	r15
    202a:	0f 93       	push	r16
    202c:	1f 93       	push	r17
    202e:	cf 93       	push	r28
    2030:	df 93       	push	r29
    2032:	21 15       	cp	r18, r1
    2034:	31 05       	cpc	r19, r1
    2036:	81 f4       	brne	.+32     	; 0x2058 <_ZN5Print5printEli+0x36>
    2038:	dc 01       	movw	r26, r24
    203a:	ed 91       	ld	r30, X+
    203c:	fc 91       	ld	r31, X
    203e:	01 90       	ld	r0, Z+
    2040:	f0 81       	ld	r31, Z
    2042:	e0 2d       	mov	r30, r0
    2044:	64 2f       	mov	r22, r20
    2046:	df 91       	pop	r29
    2048:	cf 91       	pop	r28
    204a:	1f 91       	pop	r17
    204c:	0f 91       	pop	r16
    204e:	ff 90       	pop	r15
    2050:	ef 90       	pop	r14
    2052:	df 90       	pop	r13
    2054:	cf 90       	pop	r12
    2056:	19 94       	eijmp
    2058:	2a 30       	cpi	r18, 0x0A	; 10
    205a:	31 05       	cpc	r19, r1
    205c:	f1 f4       	brne	.+60     	; 0x209a <_ZN5Print5printEli+0x78>
    205e:	77 ff       	sbrs	r23, 7
    2060:	1b c0       	rjmp	.+54     	; 0x2098 <_ZN5Print5printEli+0x76>
    2062:	6a 01       	movw	r12, r20
    2064:	7b 01       	movw	r14, r22
    2066:	ec 01       	movw	r28, r24
    2068:	6d e2       	ldi	r22, 0x2D	; 45
    206a:	59 df       	rcall	.-334    	; 0x1f1e <_ZN5Print5printEc>
    206c:	8c 01       	movw	r16, r24
    206e:	44 27       	eor	r20, r20
    2070:	55 27       	eor	r21, r21
    2072:	ba 01       	movw	r22, r20
    2074:	4c 19       	sub	r20, r12
    2076:	5d 09       	sbc	r21, r13
    2078:	6e 09       	sbc	r22, r14
    207a:	7f 09       	sbc	r23, r15
    207c:	2a e0       	ldi	r18, 0x0A	; 10
    207e:	ce 01       	movw	r24, r28
    2080:	88 df       	rcall	.-240    	; 0x1f92 <_ZN5Print11printNumberEmh>
    2082:	80 0f       	add	r24, r16
    2084:	91 1f       	adc	r25, r17
    2086:	df 91       	pop	r29
    2088:	cf 91       	pop	r28
    208a:	1f 91       	pop	r17
    208c:	0f 91       	pop	r16
    208e:	ff 90       	pop	r15
    2090:	ef 90       	pop	r14
    2092:	df 90       	pop	r13
    2094:	cf 90       	pop	r12
    2096:	08 95       	ret
    2098:	2a e0       	ldi	r18, 0x0A	; 10
    209a:	df 91       	pop	r29
    209c:	cf 91       	pop	r28
    209e:	1f 91       	pop	r17
    20a0:	0f 91       	pop	r16
    20a2:	ff 90       	pop	r15
    20a4:	ef 90       	pop	r14
    20a6:	df 90       	pop	r13
    20a8:	cf 90       	pop	r12
    20aa:	73 cf       	rjmp	.-282    	; 0x1f92 <_ZN5Print11printNumberEmh>

000020ac <_ZN5Print5printEii>:
    20ac:	9a 01       	movw	r18, r20
    20ae:	ab 01       	movw	r20, r22
    20b0:	77 0f       	add	r23, r23
    20b2:	66 0b       	sbc	r22, r22
    20b4:	77 0b       	sbc	r23, r23
    20b6:	b5 cf       	rjmp	.-150    	; 0x2022 <_ZN5Print5printEli>

000020b8 <_ZN5Print7printlnEii>:
    20b8:	0f 93       	push	r16
    20ba:	1f 93       	push	r17
    20bc:	cf 93       	push	r28
    20be:	df 93       	push	r29
    20c0:	ec 01       	movw	r28, r24
    20c2:	f4 df       	rcall	.-24     	; 0x20ac <_ZN5Print5printEii>
    20c4:	8c 01       	movw	r16, r24
    20c6:	ce 01       	movw	r24, r28
    20c8:	31 df       	rcall	.-414    	; 0x1f2c <_ZN5Print7printlnEv>
    20ca:	80 0f       	add	r24, r16
    20cc:	91 1f       	adc	r25, r17
    20ce:	df 91       	pop	r29
    20d0:	cf 91       	pop	r28
    20d2:	1f 91       	pop	r17
    20d4:	0f 91       	pop	r16
    20d6:	08 95       	ret

000020d8 <_ZN6Stream9timedReadEv>:
    20d8:	0f 93       	push	r16
    20da:	1f 93       	push	r17
    20dc:	cf 93       	push	r28
    20de:	df 93       	push	r29
    20e0:	ec 01       	movw	r28, r24
    20e2:	89 d0       	rcall	.+274    	; 0x21f6 <millis>
    20e4:	68 87       	std	Y+8, r22	; 0x08
    20e6:	79 87       	std	Y+9, r23	; 0x09
    20e8:	8a 87       	std	Y+10, r24	; 0x0a
    20ea:	9b 87       	std	Y+11, r25	; 0x0b
    20ec:	e8 81       	ld	r30, Y
    20ee:	f9 81       	ldd	r31, Y+1	; 0x01
    20f0:	02 84       	ldd	r0, Z+10	; 0x0a
    20f2:	f3 85       	ldd	r31, Z+11	; 0x0b
    20f4:	e0 2d       	mov	r30, r0
    20f6:	ce 01       	movw	r24, r28
    20f8:	19 95       	eicall
    20fa:	97 ff       	sbrs	r25, 7
    20fc:	16 c0       	rjmp	.+44     	; 0x212a <_ZN6Stream9timedReadEv+0x52>
    20fe:	7b d0       	rcall	.+246    	; 0x21f6 <millis>
    2100:	08 85       	ldd	r16, Y+8	; 0x08
    2102:	19 85       	ldd	r17, Y+9	; 0x09
    2104:	2a 85       	ldd	r18, Y+10	; 0x0a
    2106:	3b 85       	ldd	r19, Y+11	; 0x0b
    2108:	dc 01       	movw	r26, r24
    210a:	cb 01       	movw	r24, r22
    210c:	80 1b       	sub	r24, r16
    210e:	91 0b       	sbc	r25, r17
    2110:	a2 0b       	sbc	r26, r18
    2112:	b3 0b       	sbc	r27, r19
    2114:	0c 81       	ldd	r16, Y+4	; 0x04
    2116:	1d 81       	ldd	r17, Y+5	; 0x05
    2118:	2e 81       	ldd	r18, Y+6	; 0x06
    211a:	3f 81       	ldd	r19, Y+7	; 0x07
    211c:	80 17       	cp	r24, r16
    211e:	91 07       	cpc	r25, r17
    2120:	a2 07       	cpc	r26, r18
    2122:	b3 07       	cpc	r27, r19
    2124:	18 f3       	brcs	.-58     	; 0x20ec <_ZN6Stream9timedReadEv+0x14>
    2126:	8f ef       	ldi	r24, 0xFF	; 255
    2128:	9f ef       	ldi	r25, 0xFF	; 255
    212a:	df 91       	pop	r29
    212c:	cf 91       	pop	r28
    212e:	1f 91       	pop	r17
    2130:	0f 91       	pop	r16
    2132:	08 95       	ret

00002134 <_ZN6Stream10readStringEv>:
    2134:	0f 93       	push	r16
    2136:	1f 93       	push	r17
    2138:	cf 93       	push	r28
    213a:	df 93       	push	r29
    213c:	ec 01       	movw	r28, r24
    213e:	8b 01       	movw	r16, r22
    2140:	6e e2       	ldi	r22, 0x2E	; 46
    2142:	73 e0       	ldi	r23, 0x03	; 3
    2144:	ab d2       	rcall	.+1366   	; 0x269c <_ZN6StringC1EPKc>
    2146:	c8 01       	movw	r24, r16
    2148:	c7 df       	rcall	.-114    	; 0x20d8 <_ZN6Stream9timedReadEv>
    214a:	97 fd       	sbrc	r25, 7
    214c:	04 c0       	rjmp	.+8      	; 0x2156 <_ZN6Stream10readStringEv+0x22>
    214e:	68 2f       	mov	r22, r24
    2150:	ce 01       	movw	r24, r28
    2152:	e5 d2       	rcall	.+1482   	; 0x271e <_ZN6String6concatEc>
    2154:	f8 cf       	rjmp	.-16     	; 0x2146 <_ZN6Stream10readStringEv+0x12>
    2156:	ce 01       	movw	r24, r28
    2158:	df 91       	pop	r29
    215a:	cf 91       	pop	r28
    215c:	1f 91       	pop	r17
    215e:	0f 91       	pop	r16
    2160:	08 95       	ret

00002162 <__vector_23>:
    2162:	1f 92       	push	r1
    2164:	0f 92       	push	r0
    2166:	0f b6       	in	r0, 0x3f	; 63
    2168:	0f 92       	push	r0
    216a:	11 24       	eor	r1, r1
    216c:	2f 93       	push	r18
    216e:	3f 93       	push	r19
    2170:	8f 93       	push	r24
    2172:	9f 93       	push	r25
    2174:	af 93       	push	r26
    2176:	bf 93       	push	r27
    2178:	80 91 c1 0b 	lds	r24, 0x0BC1	; 0x800bc1 <timer0_millis>
    217c:	90 91 c2 0b 	lds	r25, 0x0BC2	; 0x800bc2 <timer0_millis+0x1>
    2180:	a0 91 c3 0b 	lds	r26, 0x0BC3	; 0x800bc3 <timer0_millis+0x2>
    2184:	b0 91 c4 0b 	lds	r27, 0x0BC4	; 0x800bc4 <timer0_millis+0x3>
    2188:	30 91 c0 0b 	lds	r19, 0x0BC0	; 0x800bc0 <timer0_fract>
    218c:	23 e0       	ldi	r18, 0x03	; 3
    218e:	23 0f       	add	r18, r19
    2190:	2d 37       	cpi	r18, 0x7D	; 125
    2192:	20 f4       	brcc	.+8      	; 0x219c <__vector_23+0x3a>
    2194:	01 96       	adiw	r24, 0x01	; 1
    2196:	a1 1d       	adc	r26, r1
    2198:	b1 1d       	adc	r27, r1
    219a:	05 c0       	rjmp	.+10     	; 0x21a6 <__vector_23+0x44>
    219c:	26 e8       	ldi	r18, 0x86	; 134
    219e:	23 0f       	add	r18, r19
    21a0:	02 96       	adiw	r24, 0x02	; 2
    21a2:	a1 1d       	adc	r26, r1
    21a4:	b1 1d       	adc	r27, r1
    21a6:	20 93 c0 0b 	sts	0x0BC0, r18	; 0x800bc0 <timer0_fract>
    21aa:	80 93 c1 0b 	sts	0x0BC1, r24	; 0x800bc1 <timer0_millis>
    21ae:	90 93 c2 0b 	sts	0x0BC2, r25	; 0x800bc2 <timer0_millis+0x1>
    21b2:	a0 93 c3 0b 	sts	0x0BC3, r26	; 0x800bc3 <timer0_millis+0x2>
    21b6:	b0 93 c4 0b 	sts	0x0BC4, r27	; 0x800bc4 <timer0_millis+0x3>
    21ba:	80 91 c5 0b 	lds	r24, 0x0BC5	; 0x800bc5 <timer0_overflow_count>
    21be:	90 91 c6 0b 	lds	r25, 0x0BC6	; 0x800bc6 <timer0_overflow_count+0x1>
    21c2:	a0 91 c7 0b 	lds	r26, 0x0BC7	; 0x800bc7 <timer0_overflow_count+0x2>
    21c6:	b0 91 c8 0b 	lds	r27, 0x0BC8	; 0x800bc8 <timer0_overflow_count+0x3>
    21ca:	01 96       	adiw	r24, 0x01	; 1
    21cc:	a1 1d       	adc	r26, r1
    21ce:	b1 1d       	adc	r27, r1
    21d0:	80 93 c5 0b 	sts	0x0BC5, r24	; 0x800bc5 <timer0_overflow_count>
    21d4:	90 93 c6 0b 	sts	0x0BC6, r25	; 0x800bc6 <timer0_overflow_count+0x1>
    21d8:	a0 93 c7 0b 	sts	0x0BC7, r26	; 0x800bc7 <timer0_overflow_count+0x2>
    21dc:	b0 93 c8 0b 	sts	0x0BC8, r27	; 0x800bc8 <timer0_overflow_count+0x3>
    21e0:	bf 91       	pop	r27
    21e2:	af 91       	pop	r26
    21e4:	9f 91       	pop	r25
    21e6:	8f 91       	pop	r24
    21e8:	3f 91       	pop	r19
    21ea:	2f 91       	pop	r18
    21ec:	0f 90       	pop	r0
    21ee:	0f be       	out	0x3f, r0	; 63
    21f0:	0f 90       	pop	r0
    21f2:	1f 90       	pop	r1
    21f4:	18 95       	reti

000021f6 <millis>:
    21f6:	2f b7       	in	r18, 0x3f	; 63
    21f8:	f8 94       	cli
    21fa:	60 91 c1 0b 	lds	r22, 0x0BC1	; 0x800bc1 <timer0_millis>
    21fe:	70 91 c2 0b 	lds	r23, 0x0BC2	; 0x800bc2 <timer0_millis+0x1>
    2202:	80 91 c3 0b 	lds	r24, 0x0BC3	; 0x800bc3 <timer0_millis+0x2>
    2206:	90 91 c4 0b 	lds	r25, 0x0BC4	; 0x800bc4 <timer0_millis+0x3>
    220a:	2f bf       	out	0x3f, r18	; 63
    220c:	08 95       	ret

0000220e <micros>:
    220e:	3f b7       	in	r19, 0x3f	; 63
    2210:	f8 94       	cli
    2212:	80 91 c5 0b 	lds	r24, 0x0BC5	; 0x800bc5 <timer0_overflow_count>
    2216:	90 91 c6 0b 	lds	r25, 0x0BC6	; 0x800bc6 <timer0_overflow_count+0x1>
    221a:	a0 91 c7 0b 	lds	r26, 0x0BC7	; 0x800bc7 <timer0_overflow_count+0x2>
    221e:	b0 91 c8 0b 	lds	r27, 0x0BC8	; 0x800bc8 <timer0_overflow_count+0x3>
    2222:	26 b5       	in	r18, 0x26	; 38
    2224:	a8 9b       	sbis	0x15, 0	; 21
    2226:	05 c0       	rjmp	.+10     	; 0x2232 <micros+0x24>
    2228:	2f 3f       	cpi	r18, 0xFF	; 255
    222a:	19 f0       	breq	.+6      	; 0x2232 <micros+0x24>
    222c:	01 96       	adiw	r24, 0x01	; 1
    222e:	a1 1d       	adc	r26, r1
    2230:	b1 1d       	adc	r27, r1
    2232:	3f bf       	out	0x3f, r19	; 63
    2234:	ba 2f       	mov	r27, r26
    2236:	a9 2f       	mov	r26, r25
    2238:	98 2f       	mov	r25, r24
    223a:	88 27       	eor	r24, r24
    223c:	82 0f       	add	r24, r18
    223e:	91 1d       	adc	r25, r1
    2240:	a1 1d       	adc	r26, r1
    2242:	b1 1d       	adc	r27, r1
    2244:	bc 01       	movw	r22, r24
    2246:	cd 01       	movw	r24, r26
    2248:	42 e0       	ldi	r20, 0x02	; 2
    224a:	66 0f       	add	r22, r22
    224c:	77 1f       	adc	r23, r23
    224e:	88 1f       	adc	r24, r24
    2250:	99 1f       	adc	r25, r25
    2252:	4a 95       	dec	r20
    2254:	d1 f7       	brne	.-12     	; 0x224a <micros+0x3c>
    2256:	08 95       	ret

00002258 <delay>:
    2258:	8f 92       	push	r8
    225a:	9f 92       	push	r9
    225c:	af 92       	push	r10
    225e:	bf 92       	push	r11
    2260:	cf 92       	push	r12
    2262:	df 92       	push	r13
    2264:	ef 92       	push	r14
    2266:	ff 92       	push	r15
    2268:	6b 01       	movw	r12, r22
    226a:	7c 01       	movw	r14, r24
    226c:	d0 df       	rcall	.-96     	; 0x220e <micros>
    226e:	4b 01       	movw	r8, r22
    2270:	5c 01       	movw	r10, r24
    2272:	c1 14       	cp	r12, r1
    2274:	d1 04       	cpc	r13, r1
    2276:	e1 04       	cpc	r14, r1
    2278:	f1 04       	cpc	r15, r1
    227a:	f9 f0       	breq	.+62     	; 0x22ba <delay+0x62>
    227c:	0e 94 22 1b 	call	0x3644	; 0x3644 <yield>
    2280:	c6 df       	rcall	.-116    	; 0x220e <micros>
    2282:	dc 01       	movw	r26, r24
    2284:	cb 01       	movw	r24, r22
    2286:	88 19       	sub	r24, r8
    2288:	99 09       	sbc	r25, r9
    228a:	aa 09       	sbc	r26, r10
    228c:	bb 09       	sbc	r27, r11
    228e:	88 3e       	cpi	r24, 0xE8	; 232
    2290:	93 40       	sbci	r25, 0x03	; 3
    2292:	a1 05       	cpc	r26, r1
    2294:	b1 05       	cpc	r27, r1
    2296:	68 f3       	brcs	.-38     	; 0x2272 <delay+0x1a>
    2298:	21 e0       	ldi	r18, 0x01	; 1
    229a:	c2 1a       	sub	r12, r18
    229c:	d1 08       	sbc	r13, r1
    229e:	e1 08       	sbc	r14, r1
    22a0:	f1 08       	sbc	r15, r1
    22a2:	88 ee       	ldi	r24, 0xE8	; 232
    22a4:	88 0e       	add	r8, r24
    22a6:	83 e0       	ldi	r24, 0x03	; 3
    22a8:	98 1e       	adc	r9, r24
    22aa:	a1 1c       	adc	r10, r1
    22ac:	b1 1c       	adc	r11, r1
    22ae:	c1 14       	cp	r12, r1
    22b0:	d1 04       	cpc	r13, r1
    22b2:	e1 04       	cpc	r14, r1
    22b4:	f1 04       	cpc	r15, r1
    22b6:	21 f7       	brne	.-56     	; 0x2280 <delay+0x28>
    22b8:	dc cf       	rjmp	.-72     	; 0x2272 <delay+0x1a>
    22ba:	ff 90       	pop	r15
    22bc:	ef 90       	pop	r14
    22be:	df 90       	pop	r13
    22c0:	cf 90       	pop	r12
    22c2:	bf 90       	pop	r11
    22c4:	af 90       	pop	r10
    22c6:	9f 90       	pop	r9
    22c8:	8f 90       	pop	r8
    22ca:	08 95       	ret

000022cc <delayMicroseconds>:
    22cc:	82 30       	cpi	r24, 0x02	; 2
    22ce:	91 05       	cpc	r25, r1
    22d0:	38 f0       	brcs	.+14     	; 0x22e0 <delayMicroseconds+0x14>
    22d2:	88 0f       	add	r24, r24
    22d4:	99 1f       	adc	r25, r25
    22d6:	88 0f       	add	r24, r24
    22d8:	99 1f       	adc	r25, r25
    22da:	05 97       	sbiw	r24, 0x05	; 5
    22dc:	01 97       	sbiw	r24, 0x01	; 1
    22de:	f1 f7       	brne	.-4      	; 0x22dc <delayMicroseconds+0x10>
    22e0:	08 95       	ret

000022e2 <init>:
    22e2:	78 94       	sei
    22e4:	84 b5       	in	r24, 0x24	; 36
    22e6:	82 60       	ori	r24, 0x02	; 2
    22e8:	84 bd       	out	0x24, r24	; 36
    22ea:	84 b5       	in	r24, 0x24	; 36
    22ec:	81 60       	ori	r24, 0x01	; 1
    22ee:	84 bd       	out	0x24, r24	; 36
    22f0:	85 b5       	in	r24, 0x25	; 37
    22f2:	82 60       	ori	r24, 0x02	; 2
    22f4:	85 bd       	out	0x25, r24	; 37
    22f6:	85 b5       	in	r24, 0x25	; 37
    22f8:	81 60       	ori	r24, 0x01	; 1
    22fa:	85 bd       	out	0x25, r24	; 37
    22fc:	ee e6       	ldi	r30, 0x6E	; 110
    22fe:	f0 e0       	ldi	r31, 0x00	; 0
    2300:	80 81       	ld	r24, Z
    2302:	81 60       	ori	r24, 0x01	; 1
    2304:	80 83       	st	Z, r24
    2306:	e1 e8       	ldi	r30, 0x81	; 129
    2308:	f0 e0       	ldi	r31, 0x00	; 0
    230a:	10 82       	st	Z, r1
    230c:	80 81       	ld	r24, Z
    230e:	82 60       	ori	r24, 0x02	; 2
    2310:	80 83       	st	Z, r24
    2312:	80 81       	ld	r24, Z
    2314:	81 60       	ori	r24, 0x01	; 1
    2316:	80 83       	st	Z, r24
    2318:	e0 e8       	ldi	r30, 0x80	; 128
    231a:	f0 e0       	ldi	r31, 0x00	; 0
    231c:	80 81       	ld	r24, Z
    231e:	81 60       	ori	r24, 0x01	; 1
    2320:	80 83       	st	Z, r24
    2322:	e1 eb       	ldi	r30, 0xB1	; 177
    2324:	f0 e0       	ldi	r31, 0x00	; 0
    2326:	80 81       	ld	r24, Z
    2328:	84 60       	ori	r24, 0x04	; 4
    232a:	80 83       	st	Z, r24
    232c:	e0 eb       	ldi	r30, 0xB0	; 176
    232e:	f0 e0       	ldi	r31, 0x00	; 0
    2330:	80 81       	ld	r24, Z
    2332:	81 60       	ori	r24, 0x01	; 1
    2334:	80 83       	st	Z, r24
    2336:	e1 e9       	ldi	r30, 0x91	; 145
    2338:	f0 e0       	ldi	r31, 0x00	; 0
    233a:	80 81       	ld	r24, Z
    233c:	82 60       	ori	r24, 0x02	; 2
    233e:	80 83       	st	Z, r24
    2340:	80 81       	ld	r24, Z
    2342:	81 60       	ori	r24, 0x01	; 1
    2344:	80 83       	st	Z, r24
    2346:	e0 e9       	ldi	r30, 0x90	; 144
    2348:	f0 e0       	ldi	r31, 0x00	; 0
    234a:	80 81       	ld	r24, Z
    234c:	81 60       	ori	r24, 0x01	; 1
    234e:	80 83       	st	Z, r24
    2350:	e1 ea       	ldi	r30, 0xA1	; 161
    2352:	f0 e0       	ldi	r31, 0x00	; 0
    2354:	80 81       	ld	r24, Z
    2356:	82 60       	ori	r24, 0x02	; 2
    2358:	80 83       	st	Z, r24
    235a:	80 81       	ld	r24, Z
    235c:	81 60       	ori	r24, 0x01	; 1
    235e:	80 83       	st	Z, r24
    2360:	e0 ea       	ldi	r30, 0xA0	; 160
    2362:	f0 e0       	ldi	r31, 0x00	; 0
    2364:	80 81       	ld	r24, Z
    2366:	81 60       	ori	r24, 0x01	; 1
    2368:	80 83       	st	Z, r24
    236a:	e1 e2       	ldi	r30, 0x21	; 33
    236c:	f1 e0       	ldi	r31, 0x01	; 1
    236e:	80 81       	ld	r24, Z
    2370:	82 60       	ori	r24, 0x02	; 2
    2372:	80 83       	st	Z, r24
    2374:	80 81       	ld	r24, Z
    2376:	81 60       	ori	r24, 0x01	; 1
    2378:	80 83       	st	Z, r24
    237a:	e0 e2       	ldi	r30, 0x20	; 32
    237c:	f1 e0       	ldi	r31, 0x01	; 1
    237e:	80 81       	ld	r24, Z
    2380:	81 60       	ori	r24, 0x01	; 1
    2382:	80 83       	st	Z, r24
    2384:	ea e7       	ldi	r30, 0x7A	; 122
    2386:	f0 e0       	ldi	r31, 0x00	; 0
    2388:	80 81       	ld	r24, Z
    238a:	84 60       	ori	r24, 0x04	; 4
    238c:	80 83       	st	Z, r24
    238e:	80 81       	ld	r24, Z
    2390:	82 60       	ori	r24, 0x02	; 2
    2392:	80 83       	st	Z, r24
    2394:	80 81       	ld	r24, Z
    2396:	81 60       	ori	r24, 0x01	; 1
    2398:	80 83       	st	Z, r24
    239a:	80 81       	ld	r24, Z
    239c:	80 68       	ori	r24, 0x80	; 128
    239e:	80 83       	st	Z, r24
    23a0:	10 92 c1 00 	sts	0x00C1, r1	; 0x8000c1 <__TEXT_REGION_LENGTH__+0x7000c1>
    23a4:	08 95       	ret

000023a6 <analogRead>:
    23a6:	86 33       	cpi	r24, 0x36	; 54
    23a8:	08 f0       	brcs	.+2      	; 0x23ac <analogRead+0x6>
    23aa:	86 53       	subi	r24, 0x36	; 54
    23ac:	90 91 7b 00 	lds	r25, 0x007B	; 0x80007b <__TEXT_REGION_LENGTH__+0x70007b>
    23b0:	28 2f       	mov	r18, r24
    23b2:	28 70       	andi	r18, 0x08	; 8
    23b4:	97 7f       	andi	r25, 0xF7	; 247
    23b6:	92 2b       	or	r25, r18
    23b8:	90 93 7b 00 	sts	0x007B, r25	; 0x80007b <__TEXT_REGION_LENGTH__+0x70007b>
    23bc:	20 91 09 02 	lds	r18, 0x0209	; 0x800209 <analog_reference>
    23c0:	90 e4       	ldi	r25, 0x40	; 64
    23c2:	29 9f       	mul	r18, r25
    23c4:	90 01       	movw	r18, r0
    23c6:	11 24       	eor	r1, r1
    23c8:	87 70       	andi	r24, 0x07	; 7
    23ca:	82 2b       	or	r24, r18
    23cc:	80 93 7c 00 	sts	0x007C, r24	; 0x80007c <__TEXT_REGION_LENGTH__+0x70007c>
    23d0:	80 91 7a 00 	lds	r24, 0x007A	; 0x80007a <__TEXT_REGION_LENGTH__+0x70007a>
    23d4:	80 64       	ori	r24, 0x40	; 64
    23d6:	80 93 7a 00 	sts	0x007A, r24	; 0x80007a <__TEXT_REGION_LENGTH__+0x70007a>
    23da:	80 91 7a 00 	lds	r24, 0x007A	; 0x80007a <__TEXT_REGION_LENGTH__+0x70007a>
    23de:	86 fd       	sbrc	r24, 6
    23e0:	fc cf       	rjmp	.-8      	; 0x23da <analogRead+0x34>
    23e2:	80 91 78 00 	lds	r24, 0x0078	; 0x800078 <__TEXT_REGION_LENGTH__+0x700078>
    23e6:	20 91 79 00 	lds	r18, 0x0079	; 0x800079 <__TEXT_REGION_LENGTH__+0x700079>
    23ea:	90 e0       	ldi	r25, 0x00	; 0
    23ec:	92 2b       	or	r25, r18
    23ee:	08 95       	ret

000023f0 <turnOffPWM>:
    23f0:	90 e0       	ldi	r25, 0x00	; 0
    23f2:	fc 01       	movw	r30, r24
    23f4:	31 97       	sbiw	r30, 0x01	; 1
    23f6:	e2 31       	cpi	r30, 0x12	; 18
    23f8:	f1 05       	cpc	r31, r1
    23fa:	08 f0       	brcs	.+2      	; 0x23fe <turnOffPWM+0xe>
    23fc:	4e c0       	rjmp	.+156    	; 0x249a <turnOffPWM+0xaa>
    23fe:	88 27       	eor	r24, r24
    2400:	e4 58       	subi	r30, 0x84	; 132
    2402:	ff 4f       	sbci	r31, 0xFF	; 255
    2404:	8f 4f       	sbci	r24, 0xFF	; 255
    2406:	0c 94 64 2b 	jmp	0x56c8	; 0x56c8 <__tablejump2__>
    240a:	80 91 80 00 	lds	r24, 0x0080	; 0x800080 <__TEXT_REGION_LENGTH__+0x700080>
    240e:	8f 77       	andi	r24, 0x7F	; 127
    2410:	03 c0       	rjmp	.+6      	; 0x2418 <turnOffPWM+0x28>
    2412:	80 91 80 00 	lds	r24, 0x0080	; 0x800080 <__TEXT_REGION_LENGTH__+0x700080>
    2416:	8f 7d       	andi	r24, 0xDF	; 223
    2418:	80 93 80 00 	sts	0x0080, r24	; 0x800080 <__TEXT_REGION_LENGTH__+0x700080>
    241c:	08 95       	ret
    241e:	80 91 80 00 	lds	r24, 0x0080	; 0x800080 <__TEXT_REGION_LENGTH__+0x700080>
    2422:	87 7f       	andi	r24, 0xF7	; 247
    2424:	f9 cf       	rjmp	.-14     	; 0x2418 <turnOffPWM+0x28>
    2426:	84 b5       	in	r24, 0x24	; 36
    2428:	8f 77       	andi	r24, 0x7F	; 127
    242a:	02 c0       	rjmp	.+4      	; 0x2430 <turnOffPWM+0x40>
    242c:	84 b5       	in	r24, 0x24	; 36
    242e:	8f 7d       	andi	r24, 0xDF	; 223
    2430:	84 bd       	out	0x24, r24	; 36
    2432:	08 95       	ret
    2434:	80 91 b0 00 	lds	r24, 0x00B0	; 0x8000b0 <__TEXT_REGION_LENGTH__+0x7000b0>
    2438:	8f 77       	andi	r24, 0x7F	; 127
    243a:	03 c0       	rjmp	.+6      	; 0x2442 <turnOffPWM+0x52>
    243c:	80 91 b0 00 	lds	r24, 0x00B0	; 0x8000b0 <__TEXT_REGION_LENGTH__+0x7000b0>
    2440:	8f 7d       	andi	r24, 0xDF	; 223
    2442:	80 93 b0 00 	sts	0x00B0, r24	; 0x8000b0 <__TEXT_REGION_LENGTH__+0x7000b0>
    2446:	08 95       	ret
    2448:	80 91 90 00 	lds	r24, 0x0090	; 0x800090 <__TEXT_REGION_LENGTH__+0x700090>
    244c:	8f 77       	andi	r24, 0x7F	; 127
    244e:	07 c0       	rjmp	.+14     	; 0x245e <turnOffPWM+0x6e>
    2450:	80 91 90 00 	lds	r24, 0x0090	; 0x800090 <__TEXT_REGION_LENGTH__+0x700090>
    2454:	8f 7d       	andi	r24, 0xDF	; 223
    2456:	03 c0       	rjmp	.+6      	; 0x245e <turnOffPWM+0x6e>
    2458:	80 91 90 00 	lds	r24, 0x0090	; 0x800090 <__TEXT_REGION_LENGTH__+0x700090>
    245c:	87 7f       	andi	r24, 0xF7	; 247
    245e:	80 93 90 00 	sts	0x0090, r24	; 0x800090 <__TEXT_REGION_LENGTH__+0x700090>
    2462:	08 95       	ret
    2464:	80 91 a0 00 	lds	r24, 0x00A0	; 0x8000a0 <__TEXT_REGION_LENGTH__+0x7000a0>
    2468:	8f 77       	andi	r24, 0x7F	; 127
    246a:	07 c0       	rjmp	.+14     	; 0x247a <turnOffPWM+0x8a>
    246c:	80 91 a0 00 	lds	r24, 0x00A0	; 0x8000a0 <__TEXT_REGION_LENGTH__+0x7000a0>
    2470:	8f 7d       	andi	r24, 0xDF	; 223
    2472:	03 c0       	rjmp	.+6      	; 0x247a <turnOffPWM+0x8a>
    2474:	80 91 a0 00 	lds	r24, 0x00A0	; 0x8000a0 <__TEXT_REGION_LENGTH__+0x7000a0>
    2478:	87 7f       	andi	r24, 0xF7	; 247
    247a:	80 93 a0 00 	sts	0x00A0, r24	; 0x8000a0 <__TEXT_REGION_LENGTH__+0x7000a0>
    247e:	08 95       	ret
    2480:	80 91 20 01 	lds	r24, 0x0120	; 0x800120 <__TEXT_REGION_LENGTH__+0x700120>
    2484:	8f 77       	andi	r24, 0x7F	; 127
    2486:	07 c0       	rjmp	.+14     	; 0x2496 <turnOffPWM+0xa6>
    2488:	80 91 20 01 	lds	r24, 0x0120	; 0x800120 <__TEXT_REGION_LENGTH__+0x700120>
    248c:	8f 7d       	andi	r24, 0xDF	; 223
    248e:	03 c0       	rjmp	.+6      	; 0x2496 <turnOffPWM+0xa6>
    2490:	80 91 20 01 	lds	r24, 0x0120	; 0x800120 <__TEXT_REGION_LENGTH__+0x700120>
    2494:	87 7f       	andi	r24, 0xF7	; 247
    2496:	80 93 20 01 	sts	0x0120, r24	; 0x800120 <__TEXT_REGION_LENGTH__+0x700120>
    249a:	08 95       	ret

0000249c <pinMode>:
    249c:	cf 93       	push	r28
    249e:	df 93       	push	r29
    24a0:	90 e0       	ldi	r25, 0x00	; 0
    24a2:	fc 01       	movw	r30, r24
    24a4:	e1 59       	subi	r30, 0x91	; 145
    24a6:	fe 4f       	sbci	r31, 0xFE	; 254
    24a8:	24 91       	lpm	r18, Z
    24aa:	fc 01       	movw	r30, r24
    24ac:	eb 54       	subi	r30, 0x4B	; 75
    24ae:	fe 4f       	sbci	r31, 0xFE	; 254
    24b0:	84 91       	lpm	r24, Z
    24b2:	88 23       	and	r24, r24
    24b4:	61 f1       	breq	.+88     	; 0x250e <pinMode+0x72>
    24b6:	90 e0       	ldi	r25, 0x00	; 0
    24b8:	88 0f       	add	r24, r24
    24ba:	99 1f       	adc	r25, r25
    24bc:	fc 01       	movw	r30, r24
    24be:	e1 5d       	subi	r30, 0xD1	; 209
    24c0:	fd 4f       	sbci	r31, 0xFD	; 253
    24c2:	c5 91       	lpm	r28, Z+
    24c4:	d4 91       	lpm	r29, Z
    24c6:	fc 01       	movw	r30, r24
    24c8:	eb 5e       	subi	r30, 0xEB	; 235
    24ca:	fd 4f       	sbci	r31, 0xFD	; 253
    24cc:	a5 91       	lpm	r26, Z+
    24ce:	b4 91       	lpm	r27, Z
    24d0:	61 11       	cpse	r22, r1
    24d2:	09 c0       	rjmp	.+18     	; 0x24e6 <pinMode+0x4a>
    24d4:	9f b7       	in	r25, 0x3f	; 63
    24d6:	f8 94       	cli
    24d8:	88 81       	ld	r24, Y
    24da:	20 95       	com	r18
    24dc:	82 23       	and	r24, r18
    24de:	88 83       	st	Y, r24
    24e0:	ec 91       	ld	r30, X
    24e2:	2e 23       	and	r18, r30
    24e4:	0b c0       	rjmp	.+22     	; 0x24fc <pinMode+0x60>
    24e6:	62 30       	cpi	r22, 0x02	; 2
    24e8:	61 f4       	brne	.+24     	; 0x2502 <pinMode+0x66>
    24ea:	9f b7       	in	r25, 0x3f	; 63
    24ec:	f8 94       	cli
    24ee:	88 81       	ld	r24, Y
    24f0:	32 2f       	mov	r19, r18
    24f2:	30 95       	com	r19
    24f4:	83 23       	and	r24, r19
    24f6:	88 83       	st	Y, r24
    24f8:	ec 91       	ld	r30, X
    24fa:	2e 2b       	or	r18, r30
    24fc:	2c 93       	st	X, r18
    24fe:	9f bf       	out	0x3f, r25	; 63
    2500:	06 c0       	rjmp	.+12     	; 0x250e <pinMode+0x72>
    2502:	8f b7       	in	r24, 0x3f	; 63
    2504:	f8 94       	cli
    2506:	e8 81       	ld	r30, Y
    2508:	2e 2b       	or	r18, r30
    250a:	28 83       	st	Y, r18
    250c:	8f bf       	out	0x3f, r24	; 63
    250e:	df 91       	pop	r29
    2510:	cf 91       	pop	r28
    2512:	08 95       	ret

00002514 <digitalWrite>:
    2514:	1f 93       	push	r17
    2516:	cf 93       	push	r28
    2518:	df 93       	push	r29
    251a:	28 2f       	mov	r18, r24
    251c:	30 e0       	ldi	r19, 0x00	; 0
    251e:	f9 01       	movw	r30, r18
    2520:	e7 5d       	subi	r30, 0xD7	; 215
    2522:	fe 4f       	sbci	r31, 0xFE	; 254
    2524:	84 91       	lpm	r24, Z
    2526:	f9 01       	movw	r30, r18
    2528:	e1 59       	subi	r30, 0x91	; 145
    252a:	fe 4f       	sbci	r31, 0xFE	; 254
    252c:	d4 91       	lpm	r29, Z
    252e:	f9 01       	movw	r30, r18
    2530:	eb 54       	subi	r30, 0x4B	; 75
    2532:	fe 4f       	sbci	r31, 0xFE	; 254
    2534:	c4 91       	lpm	r28, Z
    2536:	cc 23       	and	r28, r28
    2538:	b9 f0       	breq	.+46     	; 0x2568 <digitalWrite+0x54>
    253a:	16 2f       	mov	r17, r22
    253c:	81 11       	cpse	r24, r1
    253e:	58 df       	rcall	.-336    	; 0x23f0 <turnOffPWM>
    2540:	ec 2f       	mov	r30, r28
    2542:	f0 e0       	ldi	r31, 0x00	; 0
    2544:	ee 0f       	add	r30, r30
    2546:	ff 1f       	adc	r31, r31
    2548:	eb 5e       	subi	r30, 0xEB	; 235
    254a:	fd 4f       	sbci	r31, 0xFD	; 253
    254c:	a5 91       	lpm	r26, Z+
    254e:	b4 91       	lpm	r27, Z
    2550:	9f b7       	in	r25, 0x3f	; 63
    2552:	f8 94       	cli
    2554:	11 11       	cpse	r17, r1
    2556:	04 c0       	rjmp	.+8      	; 0x2560 <digitalWrite+0x4c>
    2558:	8c 91       	ld	r24, X
    255a:	d0 95       	com	r29
    255c:	d8 23       	and	r29, r24
    255e:	02 c0       	rjmp	.+4      	; 0x2564 <digitalWrite+0x50>
    2560:	ec 91       	ld	r30, X
    2562:	de 2b       	or	r29, r30
    2564:	dc 93       	st	X, r29
    2566:	9f bf       	out	0x3f, r25	; 63
    2568:	df 91       	pop	r29
    256a:	cf 91       	pop	r28
    256c:	1f 91       	pop	r17
    256e:	08 95       	ret

00002570 <digitalRead>:
    2570:	cf 93       	push	r28
    2572:	df 93       	push	r29
    2574:	28 2f       	mov	r18, r24
    2576:	30 e0       	ldi	r19, 0x00	; 0
    2578:	f9 01       	movw	r30, r18
    257a:	e7 5d       	subi	r30, 0xD7	; 215
    257c:	fe 4f       	sbci	r31, 0xFE	; 254
    257e:	84 91       	lpm	r24, Z
    2580:	f9 01       	movw	r30, r18
    2582:	e1 59       	subi	r30, 0x91	; 145
    2584:	fe 4f       	sbci	r31, 0xFE	; 254
    2586:	d4 91       	lpm	r29, Z
    2588:	f9 01       	movw	r30, r18
    258a:	eb 54       	subi	r30, 0x4B	; 75
    258c:	fe 4f       	sbci	r31, 0xFE	; 254
    258e:	c4 91       	lpm	r28, Z
    2590:	cc 23       	and	r28, r28
    2592:	89 f0       	breq	.+34     	; 0x25b6 <digitalRead+0x46>
    2594:	81 11       	cpse	r24, r1
    2596:	2c df       	rcall	.-424    	; 0x23f0 <turnOffPWM>
    2598:	ec 2f       	mov	r30, r28
    259a:	f0 e0       	ldi	r31, 0x00	; 0
    259c:	ee 0f       	add	r30, r30
    259e:	ff 1f       	adc	r31, r31
    25a0:	e5 50       	subi	r30, 0x05	; 5
    25a2:	fe 4f       	sbci	r31, 0xFE	; 254
    25a4:	a5 91       	lpm	r26, Z+
    25a6:	b4 91       	lpm	r27, Z
    25a8:	ec 91       	ld	r30, X
    25aa:	ed 23       	and	r30, r29
    25ac:	81 e0       	ldi	r24, 0x01	; 1
    25ae:	90 e0       	ldi	r25, 0x00	; 0
    25b0:	21 f4       	brne	.+8      	; 0x25ba <digitalRead+0x4a>
    25b2:	80 e0       	ldi	r24, 0x00	; 0
    25b4:	02 c0       	rjmp	.+4      	; 0x25ba <digitalRead+0x4a>
    25b6:	80 e0       	ldi	r24, 0x00	; 0
    25b8:	90 e0       	ldi	r25, 0x00	; 0
    25ba:	df 91       	pop	r29
    25bc:	cf 91       	pop	r28
    25be:	08 95       	ret

000025c0 <_ZN6StringD1Ev>:
    25c0:	fc 01       	movw	r30, r24
    25c2:	80 81       	ld	r24, Z
    25c4:	91 81       	ldd	r25, Z+1	; 0x01
    25c6:	00 97       	sbiw	r24, 0x00	; 0
    25c8:	11 f0       	breq	.+4      	; 0x25ce <_ZN6StringD1Ev+0xe>
    25ca:	0c 94 33 2c 	jmp	0x5866	; 0x5866 <free>
    25ce:	08 95       	ret

000025d0 <_ZN6String10invalidateEv>:
    25d0:	cf 93       	push	r28
    25d2:	df 93       	push	r29
    25d4:	ec 01       	movw	r28, r24
    25d6:	88 81       	ld	r24, Y
    25d8:	99 81       	ldd	r25, Y+1	; 0x01
    25da:	00 97       	sbiw	r24, 0x00	; 0
    25dc:	11 f0       	breq	.+4      	; 0x25e2 <_ZN6String10invalidateEv+0x12>
    25de:	0e 94 33 2c 	call	0x5866	; 0x5866 <free>
    25e2:	19 82       	std	Y+1, r1	; 0x01
    25e4:	18 82       	st	Y, r1
    25e6:	1d 82       	std	Y+5, r1	; 0x05
    25e8:	1c 82       	std	Y+4, r1	; 0x04
    25ea:	1b 82       	std	Y+3, r1	; 0x03
    25ec:	1a 82       	std	Y+2, r1	; 0x02
    25ee:	df 91       	pop	r29
    25f0:	cf 91       	pop	r28
    25f2:	08 95       	ret

000025f4 <_ZN6String12changeBufferEj>:
    25f4:	0f 93       	push	r16
    25f6:	1f 93       	push	r17
    25f8:	cf 93       	push	r28
    25fa:	df 93       	push	r29
    25fc:	ec 01       	movw	r28, r24
    25fe:	8b 01       	movw	r16, r22
    2600:	6f 5f       	subi	r22, 0xFF	; 255
    2602:	7f 4f       	sbci	r23, 0xFF	; 255
    2604:	88 81       	ld	r24, Y
    2606:	99 81       	ldd	r25, Y+1	; 0x01
    2608:	0e 94 bc 2c 	call	0x5978	; 0x5978 <realloc>
    260c:	00 97       	sbiw	r24, 0x00	; 0
    260e:	31 f0       	breq	.+12     	; 0x261c <_ZN6String12changeBufferEj+0x28>
    2610:	99 83       	std	Y+1, r25	; 0x01
    2612:	88 83       	st	Y, r24
    2614:	1b 83       	std	Y+3, r17	; 0x03
    2616:	0a 83       	std	Y+2, r16	; 0x02
    2618:	81 e0       	ldi	r24, 0x01	; 1
    261a:	01 c0       	rjmp	.+2      	; 0x261e <_ZN6String12changeBufferEj+0x2a>
    261c:	80 e0       	ldi	r24, 0x00	; 0
    261e:	df 91       	pop	r29
    2620:	cf 91       	pop	r28
    2622:	1f 91       	pop	r17
    2624:	0f 91       	pop	r16
    2626:	08 95       	ret

00002628 <_ZN6String7reserveEj>:
    2628:	cf 93       	push	r28
    262a:	df 93       	push	r29
    262c:	ec 01       	movw	r28, r24
    262e:	88 81       	ld	r24, Y
    2630:	99 81       	ldd	r25, Y+1	; 0x01
    2632:	89 2b       	or	r24, r25
    2634:	29 f0       	breq	.+10     	; 0x2640 <_ZN6String7reserveEj+0x18>
    2636:	8a 81       	ldd	r24, Y+2	; 0x02
    2638:	9b 81       	ldd	r25, Y+3	; 0x03
    263a:	86 17       	cp	r24, r22
    263c:	97 07       	cpc	r25, r23
    263e:	58 f4       	brcc	.+22     	; 0x2656 <_ZN6String7reserveEj+0x2e>
    2640:	ce 01       	movw	r24, r28
    2642:	d8 df       	rcall	.-80     	; 0x25f4 <_ZN6String12changeBufferEj>
    2644:	88 23       	and	r24, r24
    2646:	41 f0       	breq	.+16     	; 0x2658 <_ZN6String7reserveEj+0x30>
    2648:	8c 81       	ldd	r24, Y+4	; 0x04
    264a:	9d 81       	ldd	r25, Y+5	; 0x05
    264c:	89 2b       	or	r24, r25
    264e:	19 f4       	brne	.+6      	; 0x2656 <_ZN6String7reserveEj+0x2e>
    2650:	e8 81       	ld	r30, Y
    2652:	f9 81       	ldd	r31, Y+1	; 0x01
    2654:	10 82       	st	Z, r1
    2656:	81 e0       	ldi	r24, 0x01	; 1
    2658:	df 91       	pop	r29
    265a:	cf 91       	pop	r28
    265c:	08 95       	ret

0000265e <_ZN6String4copyEPKcj>:
    265e:	ef 92       	push	r14
    2660:	ff 92       	push	r15
    2662:	0f 93       	push	r16
    2664:	1f 93       	push	r17
    2666:	cf 93       	push	r28
    2668:	df 93       	push	r29
    266a:	ec 01       	movw	r28, r24
    266c:	7b 01       	movw	r14, r22
    266e:	8a 01       	movw	r16, r20
    2670:	ba 01       	movw	r22, r20
    2672:	da df       	rcall	.-76     	; 0x2628 <_ZN6String7reserveEj>
    2674:	81 11       	cpse	r24, r1
    2676:	03 c0       	rjmp	.+6      	; 0x267e <_ZN6String4copyEPKcj+0x20>
    2678:	ce 01       	movw	r24, r28
    267a:	aa df       	rcall	.-172    	; 0x25d0 <_ZN6String10invalidateEv>
    267c:	07 c0       	rjmp	.+14     	; 0x268c <_ZN6String4copyEPKcj+0x2e>
    267e:	1d 83       	std	Y+5, r17	; 0x05
    2680:	0c 83       	std	Y+4, r16	; 0x04
    2682:	b7 01       	movw	r22, r14
    2684:	88 81       	ld	r24, Y
    2686:	99 81       	ldd	r25, Y+1	; 0x01
    2688:	0e 94 cf 2d 	call	0x5b9e	; 0x5b9e <strcpy>
    268c:	ce 01       	movw	r24, r28
    268e:	df 91       	pop	r29
    2690:	cf 91       	pop	r28
    2692:	1f 91       	pop	r17
    2694:	0f 91       	pop	r16
    2696:	ff 90       	pop	r15
    2698:	ef 90       	pop	r14
    269a:	08 95       	ret

0000269c <_ZN6StringC1EPKc>:
    269c:	fc 01       	movw	r30, r24
    269e:	11 82       	std	Z+1, r1	; 0x01
    26a0:	10 82       	st	Z, r1
    26a2:	13 82       	std	Z+3, r1	; 0x03
    26a4:	12 82       	std	Z+2, r1	; 0x02
    26a6:	15 82       	std	Z+5, r1	; 0x05
    26a8:	14 82       	std	Z+4, r1	; 0x04
    26aa:	61 15       	cp	r22, r1
    26ac:	71 05       	cpc	r23, r1
    26ae:	49 f0       	breq	.+18     	; 0x26c2 <_ZN6StringC1EPKc+0x26>
    26b0:	fb 01       	movw	r30, r22
    26b2:	01 90       	ld	r0, Z+
    26b4:	00 20       	and	r0, r0
    26b6:	e9 f7       	brne	.-6      	; 0x26b2 <_ZN6StringC1EPKc+0x16>
    26b8:	31 97       	sbiw	r30, 0x01	; 1
    26ba:	af 01       	movw	r20, r30
    26bc:	46 1b       	sub	r20, r22
    26be:	57 0b       	sbc	r21, r23
    26c0:	ce cf       	rjmp	.-100    	; 0x265e <_ZN6String4copyEPKcj>
    26c2:	08 95       	ret

000026c4 <_ZN6String6concatEPKcj>:
    26c4:	ef 92       	push	r14
    26c6:	ff 92       	push	r15
    26c8:	0f 93       	push	r16
    26ca:	1f 93       	push	r17
    26cc:	cf 93       	push	r28
    26ce:	df 93       	push	r29
    26d0:	61 15       	cp	r22, r1
    26d2:	71 05       	cpc	r23, r1
    26d4:	11 f4       	brne	.+4      	; 0x26da <_ZN6String6concatEPKcj+0x16>
    26d6:	80 e0       	ldi	r24, 0x00	; 0
    26d8:	1b c0       	rjmp	.+54     	; 0x2710 <_ZN6String6concatEPKcj+0x4c>
    26da:	41 15       	cp	r20, r1
    26dc:	51 05       	cpc	r21, r1
    26de:	b9 f0       	breq	.+46     	; 0x270e <_ZN6String6concatEPKcj+0x4a>
    26e0:	7b 01       	movw	r14, r22
    26e2:	ec 01       	movw	r28, r24
    26e4:	8c 81       	ldd	r24, Y+4	; 0x04
    26e6:	9d 81       	ldd	r25, Y+5	; 0x05
    26e8:	8a 01       	movw	r16, r20
    26ea:	08 0f       	add	r16, r24
    26ec:	19 1f       	adc	r17, r25
    26ee:	b8 01       	movw	r22, r16
    26f0:	ce 01       	movw	r24, r28
    26f2:	9a df       	rcall	.-204    	; 0x2628 <_ZN6String7reserveEj>
    26f4:	88 23       	and	r24, r24
    26f6:	79 f3       	breq	.-34     	; 0x26d6 <_ZN6String6concatEPKcj+0x12>
    26f8:	28 81       	ld	r18, Y
    26fa:	39 81       	ldd	r19, Y+1	; 0x01
    26fc:	8c 81       	ldd	r24, Y+4	; 0x04
    26fe:	9d 81       	ldd	r25, Y+5	; 0x05
    2700:	b7 01       	movw	r22, r14
    2702:	82 0f       	add	r24, r18
    2704:	93 1f       	adc	r25, r19
    2706:	0e 94 cf 2d 	call	0x5b9e	; 0x5b9e <strcpy>
    270a:	1d 83       	std	Y+5, r17	; 0x05
    270c:	0c 83       	std	Y+4, r16	; 0x04
    270e:	81 e0       	ldi	r24, 0x01	; 1
    2710:	df 91       	pop	r29
    2712:	cf 91       	pop	r28
    2714:	1f 91       	pop	r17
    2716:	0f 91       	pop	r16
    2718:	ff 90       	pop	r15
    271a:	ef 90       	pop	r14
    271c:	08 95       	ret

0000271e <_ZN6String6concatEc>:
    271e:	cf 93       	push	r28
    2720:	df 93       	push	r29
    2722:	1f 92       	push	r1
    2724:	1f 92       	push	r1
    2726:	cd b7       	in	r28, 0x3d	; 61
    2728:	de b7       	in	r29, 0x3e	; 62
    272a:	69 83       	std	Y+1, r22	; 0x01
    272c:	1a 82       	std	Y+2, r1	; 0x02
    272e:	41 e0       	ldi	r20, 0x01	; 1
    2730:	50 e0       	ldi	r21, 0x00	; 0
    2732:	be 01       	movw	r22, r28
    2734:	6f 5f       	subi	r22, 0xFF	; 255
    2736:	7f 4f       	sbci	r23, 0xFF	; 255
    2738:	c5 df       	rcall	.-118    	; 0x26c4 <_ZN6String6concatEPKcj>
    273a:	0f 90       	pop	r0
    273c:	0f 90       	pop	r0
    273e:	df 91       	pop	r29
    2740:	cf 91       	pop	r28
    2742:	08 95       	ret

00002744 <_ZNK6String5toIntEv>:
    2744:	fc 01       	movw	r30, r24
    2746:	80 81       	ld	r24, Z
    2748:	91 81       	ldd	r25, Z+1	; 0x01
    274a:	00 97       	sbiw	r24, 0x00	; 0
    274c:	11 f0       	breq	.+4      	; 0x2752 <_ZNK6String5toIntEv+0xe>
    274e:	0c 94 a0 2d 	jmp	0x5b40	; 0x5b40 <atol>
    2752:	60 e0       	ldi	r22, 0x00	; 0
    2754:	70 e0       	ldi	r23, 0x00	; 0
    2756:	cb 01       	movw	r24, r22
    2758:	08 95       	ret

0000275a <_ZN16Adafruit_AMG88xx5writeEhPhh>:
    275a:	ef 92       	push	r14
    275c:	ff 92       	push	r15
    275e:	0f 93       	push	r16
    2760:	1f 93       	push	r17
    2762:	cf 93       	push	r28
    2764:	df 93       	push	r29
    2766:	c6 2f       	mov	r28, r22
    2768:	7a 01       	movw	r14, r20
    276a:	02 2f       	mov	r16, r18
    276c:	fc 01       	movw	r30, r24
    276e:	60 81       	ld	r22, Z
    2770:	82 ed       	ldi	r24, 0xD2	; 210
    2772:	9c e0       	ldi	r25, 0x0C	; 12
    2774:	6f d6       	rcall	.+3294   	; 0x3454 <_ZN7TwoWire17beginTransmissionEh>
    2776:	6c 2f       	mov	r22, r28
    2778:	82 ed       	ldi	r24, 0xD2	; 210
    277a:	9c e0       	ldi	r25, 0x0C	; 12
    277c:	1a d6       	rcall	.+3124   	; 0x33b2 <_ZN7TwoWire5writeEh>
    277e:	e7 01       	movw	r28, r14
    2780:	10 e0       	ldi	r17, 0x00	; 0
    2782:	ce 01       	movw	r24, r28
    2784:	8e 19       	sub	r24, r14
    2786:	9f 09       	sbc	r25, r15
    2788:	80 17       	cp	r24, r16
    278a:	91 07       	cpc	r25, r17
    278c:	2c f4       	brge	.+10     	; 0x2798 <_ZN16Adafruit_AMG88xx5writeEhPhh+0x3e>
    278e:	69 91       	ld	r22, Y+
    2790:	82 ed       	ldi	r24, 0xD2	; 210
    2792:	9c e0       	ldi	r25, 0x0C	; 12
    2794:	0e d6       	rcall	.+3100   	; 0x33b2 <_ZN7TwoWire5writeEh>
    2796:	f5 cf       	rjmp	.-22     	; 0x2782 <_ZN16Adafruit_AMG88xx5writeEhPhh+0x28>
    2798:	82 ed       	ldi	r24, 0xD2	; 210
    279a:	9c e0       	ldi	r25, 0x0C	; 12
    279c:	df 91       	pop	r29
    279e:	cf 91       	pop	r28
    27a0:	1f 91       	pop	r17
    27a2:	0f 91       	pop	r16
    27a4:	ff 90       	pop	r15
    27a6:	ef 90       	pop	r14
    27a8:	d8 c6       	rjmp	.+3504   	; 0x355a <_ZN7TwoWire15endTransmissionEv>

000027aa <_ZN16Adafruit_AMG88xx6write8Ehh>:
    27aa:	cf 93       	push	r28
    27ac:	df 93       	push	r29
    27ae:	1f 92       	push	r1
    27b0:	cd b7       	in	r28, 0x3d	; 61
    27b2:	de b7       	in	r29, 0x3e	; 62
    27b4:	49 83       	std	Y+1, r20	; 0x01
    27b6:	21 e0       	ldi	r18, 0x01	; 1
    27b8:	ae 01       	movw	r20, r28
    27ba:	4f 5f       	subi	r20, 0xFF	; 255
    27bc:	5f 4f       	sbci	r21, 0xFF	; 255
    27be:	cd df       	rcall	.-102    	; 0x275a <_ZN16Adafruit_AMG88xx5writeEhPhh>
    27c0:	0f 90       	pop	r0
    27c2:	df 91       	pop	r29
    27c4:	cf 91       	pop	r28
    27c6:	08 95       	ret

000027c8 <_ZN16Adafruit_AMG88xx16disableInterruptEv>:
    27c8:	fc 01       	movw	r30, r24
    27ca:	24 81       	ldd	r18, Z+4	; 0x04
    27cc:	2e 7f       	andi	r18, 0xFE	; 254
    27ce:	24 83       	std	Z+4, r18	; 0x04
    27d0:	21 fb       	bst	r18, 1
    27d2:	44 27       	eor	r20, r20
    27d4:	40 f9       	bld	r20, 0
    27d6:	50 e0       	ldi	r21, 0x00	; 0
    27d8:	44 0f       	add	r20, r20
    27da:	55 1f       	adc	r21, r21
    27dc:	63 e0       	ldi	r22, 0x03	; 3
    27de:	e5 cf       	rjmp	.-54     	; 0x27aa <_ZN16Adafruit_AMG88xx6write8Ehh>

000027e0 <_ZN16Adafruit_AMG88xx5beginEh>:
    27e0:	cf 93       	push	r28
    27e2:	df 93       	push	r29
    27e4:	ec 01       	movw	r28, r24
    27e6:	68 83       	st	Y, r22
    27e8:	82 ed       	ldi	r24, 0xD2	; 210
    27ea:	9c e0       	ldi	r25, 0x0C	; 12
    27ec:	21 d6       	rcall	.+3138   	; 0x3430 <_ZN7TwoWire5beginEv>
    27ee:	19 82       	std	Y+1, r1	; 0x01
    27f0:	40 e0       	ldi	r20, 0x00	; 0
    27f2:	60 e0       	ldi	r22, 0x00	; 0
    27f4:	ce 01       	movw	r24, r28
    27f6:	d9 df       	rcall	.-78     	; 0x27aa <_ZN16Adafruit_AMG88xx6write8Ehh>
    27f8:	8f e3       	ldi	r24, 0x3F	; 63
    27fa:	8a 83       	std	Y+2, r24	; 0x02
    27fc:	4f e3       	ldi	r20, 0x3F	; 63
    27fe:	61 e0       	ldi	r22, 0x01	; 1
    2800:	ce 01       	movw	r24, r28
    2802:	d3 df       	rcall	.-90     	; 0x27aa <_ZN16Adafruit_AMG88xx6write8Ehh>
    2804:	ce 01       	movw	r24, r28
    2806:	e0 df       	rcall	.-64     	; 0x27c8 <_ZN16Adafruit_AMG88xx16disableInterruptEv>
    2808:	8b 81       	ldd	r24, Y+3	; 0x03
    280a:	8e 7f       	andi	r24, 0xFE	; 254
    280c:	8b 83       	std	Y+3, r24	; 0x03
    280e:	40 e0       	ldi	r20, 0x00	; 0
    2810:	62 e0       	ldi	r22, 0x02	; 2
    2812:	ce 01       	movw	r24, r28
    2814:	ca df       	rcall	.-108    	; 0x27aa <_ZN16Adafruit_AMG88xx6write8Ehh>
    2816:	64 e6       	ldi	r22, 0x64	; 100
    2818:	70 e0       	ldi	r23, 0x00	; 0
    281a:	80 e0       	ldi	r24, 0x00	; 0
    281c:	90 e0       	ldi	r25, 0x00	; 0
    281e:	1c dd       	rcall	.-1480   	; 0x2258 <delay>
    2820:	81 e0       	ldi	r24, 0x01	; 1
    2822:	df 91       	pop	r29
    2824:	cf 91       	pop	r28
    2826:	08 95       	ret

00002828 <_ZN16Adafruit_AMG88xx4readEhPhh>:
    2828:	6f 92       	push	r6
    282a:	7f 92       	push	r7
    282c:	8f 92       	push	r8
    282e:	9f 92       	push	r9
    2830:	af 92       	push	r10
    2832:	bf 92       	push	r11
    2834:	cf 92       	push	r12
    2836:	df 92       	push	r13
    2838:	ef 92       	push	r14
    283a:	ff 92       	push	r15
    283c:	0f 93       	push	r16
    283e:	1f 93       	push	r17
    2840:	cf 93       	push	r28
    2842:	df 93       	push	r29
    2844:	8c 01       	movw	r16, r24
    2846:	66 2e       	mov	r6, r22
    2848:	6a 01       	movw	r12, r20
    284a:	72 2e       	mov	r7, r18
    284c:	c0 e0       	ldi	r28, 0x00	; 0
    284e:	c7 15       	cp	r28, r7
    2850:	78 f5       	brcc	.+94     	; 0x28b0 <_ZN16Adafruit_AMG88xx4readEhPhh+0x88>
    2852:	d7 2d       	mov	r29, r7
    2854:	dc 1b       	sub	r29, r28
    2856:	d1 32       	cpi	r29, 0x21	; 33
    2858:	08 f0       	brcs	.+2      	; 0x285c <_ZN16Adafruit_AMG88xx4readEhPhh+0x34>
    285a:	d0 e2       	ldi	r29, 0x20	; 32
    285c:	f8 01       	movw	r30, r16
    285e:	60 81       	ld	r22, Z
    2860:	82 ed       	ldi	r24, 0xD2	; 210
    2862:	9c e0       	ldi	r25, 0x0C	; 12
    2864:	f7 d5       	rcall	.+3054   	; 0x3454 <_ZN7TwoWire17beginTransmissionEh>
    2866:	6c 2f       	mov	r22, r28
    2868:	66 0d       	add	r22, r6
    286a:	82 ed       	ldi	r24, 0xD2	; 210
    286c:	9c e0       	ldi	r25, 0x0C	; 12
    286e:	a1 d5       	rcall	.+2882   	; 0x33b2 <_ZN7TwoWire5writeEh>
    2870:	82 ed       	ldi	r24, 0xD2	; 210
    2872:	9c e0       	ldi	r25, 0x0C	; 12
    2874:	72 d6       	rcall	.+3300   	; 0x355a <_ZN7TwoWire15endTransmissionEv>
    2876:	4d 2f       	mov	r20, r29
    2878:	f8 01       	movw	r30, r16
    287a:	60 81       	ld	r22, Z
    287c:	82 ed       	ldi	r24, 0xD2	; 210
    287e:	9c e0       	ldi	r25, 0x0C	; 12
    2880:	68 d6       	rcall	.+3280   	; 0x3552 <_ZN7TwoWire11requestFromEhh>
    2882:	81 2c       	mov	r8, r1
    2884:	91 2c       	mov	r9, r1
    2886:	ad 2e       	mov	r10, r29
    2888:	b1 2c       	mov	r11, r1
    288a:	8c 2f       	mov	r24, r28
    288c:	88 0d       	add	r24, r8
    288e:	8a 14       	cp	r8, r10
    2890:	9b 04       	cpc	r9, r11
    2892:	14 f0       	brlt	.+4      	; 0x2898 <_ZN16Adafruit_AMG88xx4readEhPhh+0x70>
    2894:	cd 0f       	add	r28, r29
    2896:	db cf       	rjmp	.-74     	; 0x284e <_ZN16Adafruit_AMG88xx4readEhPhh+0x26>
    2898:	76 01       	movw	r14, r12
    289a:	e8 0e       	add	r14, r24
    289c:	f1 1c       	adc	r15, r1
    289e:	82 ed       	ldi	r24, 0xD2	; 210
    28a0:	9c e0       	ldi	r25, 0x0C	; 12
    28a2:	00 d5       	rcall	.+2560   	; 0x32a4 <_ZN7TwoWire4readEv>
    28a4:	f7 01       	movw	r30, r14
    28a6:	80 83       	st	Z, r24
    28a8:	ff ef       	ldi	r31, 0xFF	; 255
    28aa:	8f 1a       	sub	r8, r31
    28ac:	9f 0a       	sbc	r9, r31
    28ae:	ed cf       	rjmp	.-38     	; 0x288a <_ZN16Adafruit_AMG88xx4readEhPhh+0x62>
    28b0:	df 91       	pop	r29
    28b2:	cf 91       	pop	r28
    28b4:	1f 91       	pop	r17
    28b6:	0f 91       	pop	r16
    28b8:	ff 90       	pop	r15
    28ba:	ef 90       	pop	r14
    28bc:	df 90       	pop	r13
    28be:	cf 90       	pop	r12
    28c0:	bf 90       	pop	r11
    28c2:	af 90       	pop	r10
    28c4:	9f 90       	pop	r9
    28c6:	8f 90       	pop	r8
    28c8:	7f 90       	pop	r7
    28ca:	6f 90       	pop	r6
    28cc:	08 95       	ret

000028ce <_ZN16Adafruit_AMG88xx10readPixelsEPfh>:
    28ce:	8f 92       	push	r8
    28d0:	9f 92       	push	r9
    28d2:	af 92       	push	r10
    28d4:	bf 92       	push	r11
    28d6:	cf 92       	push	r12
    28d8:	df 92       	push	r13
    28da:	ef 92       	push	r14
    28dc:	ff 92       	push	r15
    28de:	0f 93       	push	r16
    28e0:	1f 93       	push	r17
    28e2:	cf 93       	push	r28
    28e4:	df 93       	push	r29
    28e6:	cd b7       	in	r28, 0x3d	; 61
    28e8:	de b7       	in	r29, 0x3e	; 62
    28ea:	f6 2e       	mov	r15, r22
    28ec:	17 2f       	mov	r17, r23
    28ee:	04 2f       	mov	r16, r20
    28f0:	8d b6       	in	r8, 0x3d	; 61
    28f2:	9e b6       	in	r9, 0x3e	; 62
    28f4:	24 2f       	mov	r18, r20
    28f6:	22 0f       	add	r18, r18
    28f8:	46 fd       	sbrc	r20, 6
    28fa:	20 e8       	ldi	r18, 0x80	; 128
    28fc:	4d b7       	in	r20, 0x3d	; 61
    28fe:	5e b7       	in	r21, 0x3e	; 62
    2900:	42 1b       	sub	r20, r18
    2902:	51 09       	sbc	r21, r1
    2904:	0f b6       	in	r0, 0x3f	; 63
    2906:	f8 94       	cli
    2908:	5e bf       	out	0x3e, r21	; 62
    290a:	0f be       	out	0x3f, r0	; 63
    290c:	4d bf       	out	0x3d, r20	; 61
    290e:	ed b7       	in	r30, 0x3d	; 61
    2910:	fe b7       	in	r31, 0x3e	; 62
    2912:	31 96       	adiw	r30, 0x01	; 1
    2914:	5f 01       	movw	r10, r30
    2916:	af 01       	movw	r20, r30
    2918:	60 e8       	ldi	r22, 0x80	; 128
    291a:	86 df       	rcall	.-244    	; 0x2828 <_ZN16Adafruit_AMG88xx4readEhPhh>
    291c:	cf 2c       	mov	r12, r15
    291e:	d1 2e       	mov	r13, r17
    2920:	e1 2c       	mov	r14, r1
    2922:	f1 2c       	mov	r15, r1
    2924:	10 e0       	ldi	r17, 0x00	; 0
    2926:	e0 16       	cp	r14, r16
    2928:	f1 06       	cpc	r15, r17
    292a:	5c f5       	brge	.+86     	; 0x2982 <_ZN16Adafruit_AMG88xx10readPixelsEPfh+0xb4>
    292c:	8e 2d       	mov	r24, r14
    292e:	88 0f       	add	r24, r24
    2930:	f5 01       	movw	r30, r10
    2932:	e8 0f       	add	r30, r24
    2934:	f1 1d       	adc	r31, r1
    2936:	61 81       	ldd	r22, Z+1	; 0x01
    2938:	70 e0       	ldi	r23, 0x00	; 0
    293a:	76 2f       	mov	r23, r22
    293c:	66 27       	eor	r22, r22
    293e:	80 81       	ld	r24, Z
    2940:	68 2b       	or	r22, r24
    2942:	94 e0       	ldi	r25, 0x04	; 4
    2944:	66 0f       	add	r22, r22
    2946:	77 1f       	adc	r23, r23
    2948:	9a 95       	dec	r25
    294a:	e1 f7       	brne	.-8      	; 0x2944 <_ZN16Adafruit_AMG88xx10readPixelsEPfh+0x76>
    294c:	24 e0       	ldi	r18, 0x04	; 4
    294e:	75 95       	asr	r23
    2950:	67 95       	ror	r22
    2952:	2a 95       	dec	r18
    2954:	e1 f7       	brne	.-8      	; 0x294e <_ZN16Adafruit_AMG88xx10readPixelsEPfh+0x80>
    2956:	07 2e       	mov	r0, r23
    2958:	00 0c       	add	r0, r0
    295a:	88 0b       	sbc	r24, r24
    295c:	99 0b       	sbc	r25, r25
    295e:	0e 94 cf 0a 	call	0x159e	; 0x159e <__floatsisf>
    2962:	20 e0       	ldi	r18, 0x00	; 0
    2964:	30 e0       	ldi	r19, 0x00	; 0
    2966:	40 e8       	ldi	r20, 0x80	; 128
    2968:	5e e3       	ldi	r21, 0x3E	; 62
    296a:	0e 94 83 0b 	call	0x1706	; 0x1706 <__mulsf3>
    296e:	f6 01       	movw	r30, r12
    2970:	61 93       	st	Z+, r22
    2972:	71 93       	st	Z+, r23
    2974:	81 93       	st	Z+, r24
    2976:	91 93       	st	Z+, r25
    2978:	6f 01       	movw	r12, r30
    297a:	ff ef       	ldi	r31, 0xFF	; 255
    297c:	ef 1a       	sub	r14, r31
    297e:	ff 0a       	sbc	r15, r31
    2980:	d2 cf       	rjmp	.-92     	; 0x2926 <_ZN16Adafruit_AMG88xx10readPixelsEPfh+0x58>
    2982:	0f b6       	in	r0, 0x3f	; 63
    2984:	f8 94       	cli
    2986:	9e be       	out	0x3e, r9	; 62
    2988:	0f be       	out	0x3f, r0	; 63
    298a:	8d be       	out	0x3d, r8	; 61
    298c:	df 91       	pop	r29
    298e:	cf 91       	pop	r28
    2990:	1f 91       	pop	r17
    2992:	0f 91       	pop	r16
    2994:	ff 90       	pop	r15
    2996:	ef 90       	pop	r14
    2998:	df 90       	pop	r13
    299a:	cf 90       	pop	r12
    299c:	bf 90       	pop	r11
    299e:	af 90       	pop	r10
    29a0:	9f 90       	pop	r9
    29a2:	8f 90       	pop	r8
    29a4:	08 95       	ret

000029a6 <_ZN11SPISettingsC1Emhh>:
    29a6:	0f 93       	push	r16
    29a8:	fc 01       	movw	r30, r24
    29aa:	80 e0       	ldi	r24, 0x00	; 0
    29ac:	92 e1       	ldi	r25, 0x12	; 18
    29ae:	aa e7       	ldi	r26, 0x7A	; 122
    29b0:	b0 e0       	ldi	r27, 0x00	; 0
    29b2:	30 e0       	ldi	r19, 0x00	; 0
    29b4:	48 17       	cp	r20, r24
    29b6:	59 07       	cpc	r21, r25
    29b8:	6a 07       	cpc	r22, r26
    29ba:	7b 07       	cpc	r23, r27
    29bc:	40 f4       	brcc	.+16     	; 0x29ce <_ZN11SPISettingsC1Emhh+0x28>
    29be:	b6 95       	lsr	r27
    29c0:	a7 95       	ror	r26
    29c2:	97 95       	ror	r25
    29c4:	87 95       	ror	r24
    29c6:	3f 5f       	subi	r19, 0xFF	; 255
    29c8:	36 30       	cpi	r19, 0x06	; 6
    29ca:	a1 f7       	brne	.-24     	; 0x29b4 <_ZN11SPISettingsC1Emhh+0xe>
    29cc:	37 e0       	ldi	r19, 0x07	; 7
    29ce:	91 e0       	ldi	r25, 0x01	; 1
    29d0:	93 27       	eor	r25, r19
    29d2:	22 23       	and	r18, r18
    29d4:	11 f0       	breq	.+4      	; 0x29da <_ZN11SPISettingsC1Emhh+0x34>
    29d6:	20 e5       	ldi	r18, 0x50	; 80
    29d8:	01 c0       	rjmp	.+2      	; 0x29dc <_ZN11SPISettingsC1Emhh+0x36>
    29da:	20 e7       	ldi	r18, 0x70	; 112
    29dc:	0c 70       	andi	r16, 0x0C	; 12
    29de:	89 2f       	mov	r24, r25
    29e0:	86 95       	lsr	r24
    29e2:	08 2b       	or	r16, r24
    29e4:	02 2b       	or	r16, r18
    29e6:	00 83       	st	Z, r16
    29e8:	91 70       	andi	r25, 0x01	; 1
    29ea:	91 83       	std	Z+1, r25	; 0x01
    29ec:	0f 91       	pop	r16
    29ee:	08 95       	ret

000029f0 <_ZN8SPIClass16beginTransactionE11SPISettings>:
    29f0:	20 91 cf 0c 	lds	r18, 0x0CCF	; 0x800ccf <_ZN8SPIClass13interruptModeE>
    29f4:	22 23       	and	r18, r18
    29f6:	99 f0       	breq	.+38     	; 0x2a1e <_ZN8SPIClass16beginTransactionE11SPISettings+0x2e>
    29f8:	4f b7       	in	r20, 0x3f	; 63
    29fa:	f8 94       	cli
    29fc:	20 91 cf 0c 	lds	r18, 0x0CCF	; 0x800ccf <_ZN8SPIClass13interruptModeE>
    2a00:	21 30       	cpi	r18, 0x01	; 1
    2a02:	59 f4       	brne	.+22     	; 0x2a1a <_ZN8SPIClass16beginTransactionE11SPISettings+0x2a>
    2a04:	2d b3       	in	r18, 0x1d	; 29
    2a06:	20 93 cd 0c 	sts	0x0CCD, r18	; 0x800ccd <_ZN8SPIClass13interruptSaveE>
    2a0a:	3d b3       	in	r19, 0x1d	; 29
    2a0c:	20 91 ce 0c 	lds	r18, 0x0CCE	; 0x800cce <_ZN8SPIClass13interruptMaskE>
    2a10:	20 95       	com	r18
    2a12:	23 23       	and	r18, r19
    2a14:	2d bb       	out	0x1d, r18	; 29
    2a16:	4f bf       	out	0x3f, r20	; 63
    2a18:	02 c0       	rjmp	.+4      	; 0x2a1e <_ZN8SPIClass16beginTransactionE11SPISettings+0x2e>
    2a1a:	40 93 cd 0c 	sts	0x0CCD, r20	; 0x800ccd <_ZN8SPIClass13interruptSaveE>
    2a1e:	8c bd       	out	0x2c, r24	; 44
    2a20:	9d bd       	out	0x2d, r25	; 45
    2a22:	08 95       	ret

00002a24 <_ZN8SPIClass14endTransactionEv>:
    2a24:	80 91 cf 0c 	lds	r24, 0x0CCF	; 0x800ccf <_ZN8SPIClass13interruptModeE>
    2a28:	88 23       	and	r24, r24
    2a2a:	61 f0       	breq	.+24     	; 0x2a44 <_ZN8SPIClass14endTransactionEv+0x20>
    2a2c:	9f b7       	in	r25, 0x3f	; 63
    2a2e:	f8 94       	cli
    2a30:	20 91 cf 0c 	lds	r18, 0x0CCF	; 0x800ccf <_ZN8SPIClass13interruptModeE>
    2a34:	80 91 cd 0c 	lds	r24, 0x0CCD	; 0x800ccd <_ZN8SPIClass13interruptSaveE>
    2a38:	21 30       	cpi	r18, 0x01	; 1
    2a3a:	19 f4       	brne	.+6      	; 0x2a42 <_ZN8SPIClass14endTransactionEv+0x1e>
    2a3c:	8d bb       	out	0x1d, r24	; 29
    2a3e:	9f bf       	out	0x3f, r25	; 63
    2a40:	08 95       	ret
    2a42:	8f bf       	out	0x3f, r24	; 63
    2a44:	08 95       	ret

00002a46 <_ZN12Adafruit_GPS5writeEh>:
    2a46:	df 92       	push	r13
    2a48:	ef 92       	push	r14
    2a4a:	ff 92       	push	r15
    2a4c:	0f 93       	push	r16
    2a4e:	1f 93       	push	r17
    2a50:	cf 93       	push	r28
    2a52:	df 93       	push	r29
    2a54:	ec 01       	movw	r28, r24
    2a56:	fc 01       	movw	r30, r24
    2a58:	ea 54       	subi	r30, 0x4A	; 74
    2a5a:	ff 4f       	sbci	r31, 0xFF	; 255
    2a5c:	80 81       	ld	r24, Z
    2a5e:	91 81       	ldd	r25, Z+1	; 0x01
    2a60:	00 97       	sbiw	r24, 0x00	; 0
    2a62:	39 f4       	brne	.+14     	; 0x2a72 <_ZN12Adafruit_GPS5writeEh+0x2c>
    2a64:	fe 01       	movw	r30, r28
    2a66:	e8 54       	subi	r30, 0x48	; 72
    2a68:	ff 4f       	sbci	r31, 0xFF	; 255
    2a6a:	80 81       	ld	r24, Z
    2a6c:	91 81       	ldd	r25, Z+1	; 0x01
    2a6e:	00 97       	sbiw	r24, 0x00	; 0
    2a70:	71 f0       	breq	.+28     	; 0x2a8e <_ZN12Adafruit_GPS5writeEh+0x48>
    2a72:	dc 01       	movw	r26, r24
    2a74:	ed 91       	ld	r30, X+
    2a76:	fc 91       	ld	r31, X
    2a78:	01 90       	ld	r0, Z+
    2a7a:	f0 81       	ld	r31, Z
    2a7c:	e0 2d       	mov	r30, r0
    2a7e:	df 91       	pop	r29
    2a80:	cf 91       	pop	r28
    2a82:	1f 91       	pop	r17
    2a84:	0f 91       	pop	r16
    2a86:	ff 90       	pop	r15
    2a88:	ef 90       	pop	r14
    2a8a:	df 90       	pop	r13
    2a8c:	19 94       	eijmp
    2a8e:	d6 2e       	mov	r13, r22
    2a90:	7e 01       	movw	r14, r28
    2a92:	ba eb       	ldi	r27, 0xBA	; 186
    2a94:	eb 0e       	add	r14, r27
    2a96:	f1 1c       	adc	r15, r1
    2a98:	f7 01       	movw	r30, r14
    2a9a:	80 81       	ld	r24, Z
    2a9c:	91 81       	ldd	r25, Z+1	; 0x01
    2a9e:	00 97       	sbiw	r24, 0x00	; 0
    2aa0:	41 f4       	brne	.+16     	; 0x2ab2 <_ZN12Adafruit_GPS5writeEh+0x6c>
    2aa2:	fe 01       	movw	r30, r28
    2aa4:	e4 54       	subi	r30, 0x44	; 68
    2aa6:	ff 4f       	sbci	r31, 0xFF	; 255
    2aa8:	80 81       	ld	r24, Z
    2aaa:	91 81       	ldd	r25, Z+1	; 0x01
    2aac:	89 2b       	or	r24, r25
    2aae:	f9 f4       	brne	.+62     	; 0x2aee <_ZN12Adafruit_GPS5writeEh+0xa8>
    2ab0:	13 c0       	rjmp	.+38     	; 0x2ad8 <_ZN12Adafruit_GPS5writeEh+0x92>
    2ab2:	fe 01       	movw	r30, r28
    2ab4:	eb 5d       	subi	r30, 0xDB	; 219
    2ab6:	fe 4f       	sbci	r31, 0xFE	; 254
    2ab8:	60 81       	ld	r22, Z
    2aba:	cc d4       	rcall	.+2456   	; 0x3454 <_ZN7TwoWire17beginTransmissionEh>
    2abc:	d7 01       	movw	r26, r14
    2abe:	8d 91       	ld	r24, X+
    2ac0:	9c 91       	ld	r25, X
    2ac2:	dc 01       	movw	r26, r24
    2ac4:	ed 91       	ld	r30, X+
    2ac6:	fc 91       	ld	r31, X
    2ac8:	01 90       	ld	r0, Z+
    2aca:	f0 81       	ld	r31, Z
    2acc:	e0 2d       	mov	r30, r0
    2ace:	6d 2d       	mov	r22, r13
    2ad0:	19 95       	eicall
    2ad2:	8c 01       	movw	r16, r24
    2ad4:	01 97       	sbiw	r24, 0x01	; 1
    2ad6:	19 f0       	breq	.+6      	; 0x2ade <_ZN12Adafruit_GPS5writeEh+0x98>
    2ad8:	00 e0       	ldi	r16, 0x00	; 0
    2ada:	10 e0       	ldi	r17, 0x00	; 0
    2adc:	23 c0       	rjmp	.+70     	; 0x2b24 <_ZN12Adafruit_GPS5writeEh+0xde>
    2ade:	61 e0       	ldi	r22, 0x01	; 1
    2ae0:	f7 01       	movw	r30, r14
    2ae2:	80 81       	ld	r24, Z
    2ae4:	91 81       	ldd	r25, Z+1	; 0x01
    2ae6:	c1 d4       	rcall	.+2434   	; 0x346a <_ZN7TwoWire15endTransmissionEh>
    2ae8:	81 11       	cpse	r24, r1
    2aea:	db cf       	rjmp	.-74     	; 0x2aa2 <_ZN12Adafruit_GPS5writeEh+0x5c>
    2aec:	1b c0       	rjmp	.+54     	; 0x2b24 <_ZN12Adafruit_GPS5writeEh+0xde>
    2aee:	fe 01       	movw	r30, r28
    2af0:	e1 54       	subi	r30, 0x41	; 65
    2af2:	ff 4f       	sbci	r31, 0xFF	; 255
    2af4:	80 81       	ld	r24, Z
    2af6:	91 81       	ldd	r25, Z+1	; 0x01
    2af8:	7b df       	rcall	.-266    	; 0x29f0 <_ZN8SPIClass16beginTransactionE11SPISettings>
    2afa:	c2 54       	subi	r28, 0x42	; 66
    2afc:	df 4f       	sbci	r29, 0xFF	; 255
    2afe:	88 81       	ld	r24, Y
    2b00:	87 fd       	sbrc	r24, 7
    2b02:	02 c0       	rjmp	.+4      	; 0x2b08 <_ZN12Adafruit_GPS5writeEh+0xc2>
    2b04:	60 e0       	ldi	r22, 0x00	; 0
    2b06:	06 dd       	rcall	.-1524   	; 0x2514 <digitalWrite>
    2b08:	de bc       	out	0x2e, r13	; 46
    2b0a:	00 00       	nop
    2b0c:	0d b4       	in	r0, 0x2d	; 45
    2b0e:	07 fe       	sbrs	r0, 7
    2b10:	fd cf       	rjmp	.-6      	; 0x2b0c <_ZN12Adafruit_GPS5writeEh+0xc6>
    2b12:	8e b5       	in	r24, 0x2e	; 46
    2b14:	88 81       	ld	r24, Y
    2b16:	87 fd       	sbrc	r24, 7
    2b18:	02 c0       	rjmp	.+4      	; 0x2b1e <_ZN12Adafruit_GPS5writeEh+0xd8>
    2b1a:	61 e0       	ldi	r22, 0x01	; 1
    2b1c:	fb dc       	rcall	.-1546   	; 0x2514 <digitalWrite>
    2b1e:	82 df       	rcall	.-252    	; 0x2a24 <_ZN8SPIClass14endTransactionEv>
    2b20:	01 e0       	ldi	r16, 0x01	; 1
    2b22:	10 e0       	ldi	r17, 0x00	; 0
    2b24:	c8 01       	movw	r24, r16
    2b26:	df 91       	pop	r29
    2b28:	cf 91       	pop	r28
    2b2a:	1f 91       	pop	r17
    2b2c:	0f 91       	pop	r16
    2b2e:	ff 90       	pop	r15
    2b30:	ef 90       	pop	r14
    2b32:	df 90       	pop	r13
    2b34:	08 95       	ret

00002b36 <_ZN12Adafruit_GPS11common_initEv>:
    2b36:	fc 01       	movw	r30, r24
    2b38:	dc 01       	movw	r26, r24
    2b3a:	aa 54       	subi	r26, 0x4A	; 74
    2b3c:	bf 4f       	sbci	r27, 0xFF	; 255
    2b3e:	11 96       	adiw	r26, 0x01	; 1
    2b40:	1c 92       	st	X, r1
    2b42:	1e 92       	st	-X, r1
    2b44:	12 96       	adiw	r26, 0x02	; 2
    2b46:	11 96       	adiw	r26, 0x01	; 1
    2b48:	1c 92       	st	X, r1
    2b4a:	1e 92       	st	-X, r1
    2b4c:	12 96       	adiw	r26, 0x02	; 2
    2b4e:	11 96       	adiw	r26, 0x01	; 1
    2b50:	1c 92       	st	X, r1
    2b52:	1e 92       	st	-X, r1
    2b54:	12 96       	adiw	r26, 0x02	; 2
    2b56:	11 96       	adiw	r26, 0x01	; 1
    2b58:	1c 92       	st	X, r1
    2b5a:	1e 92       	st	-X, r1
    2b5c:	ae 57       	subi	r26, 0x7E	; 126
    2b5e:	be 4f       	sbci	r27, 0xFE	; 254
    2b60:	1c 92       	st	X, r1
    2b62:	a9 58       	subi	r26, 0x89	; 137
    2b64:	b1 40       	sbci	r27, 0x01	; 1
    2b66:	1c 92       	st	X, r1
    2b68:	ac 57       	subi	r26, 0x7C	; 124
    2b6a:	be 4f       	sbci	r27, 0xFE	; 254
    2b6c:	1c 92       	st	X, r1
    2b6e:	11 96       	adiw	r26, 0x01	; 1
    2b70:	87 5b       	subi	r24, 0xB7	; 183
    2b72:	9e 4f       	sbci	r25, 0xFE	; 254
    2b74:	11 96       	adiw	r26, 0x01	; 1
    2b76:	9c 93       	st	X, r25
    2b78:	8e 93       	st	-X, r24
    2b7a:	12 96       	adiw	r26, 0x02	; 2
    2b7c:	88 58       	subi	r24, 0x88	; 136
    2b7e:	9f 4f       	sbci	r25, 0xFF	; 255
    2b80:	11 96       	adiw	r26, 0x01	; 1
    2b82:	9c 93       	st	X, r25
    2b84:	8e 93       	st	-X, r24
    2b86:	a2 5c       	subi	r26, 0xC2	; 194
    2b88:	b1 40       	sbci	r27, 0x01	; 1
    2b8a:	1c 92       	st	X, r1
    2b8c:	11 97       	sbiw	r26, 0x01	; 1
    2b8e:	1c 92       	st	X, r1
    2b90:	11 97       	sbiw	r26, 0x01	; 1
    2b92:	1c 92       	st	X, r1
    2b94:	13 ae       	std	Z+59, r1	; 0x3b
    2b96:	12 ae       	std	Z+58, r1	; 0x3a
    2b98:	11 ae       	std	Z+57, r1	; 0x39
    2b9a:	16 aa       	std	Z+54, r1	; 0x36
    2b9c:	15 aa       	std	Z+53, r1	; 0x35
    2b9e:	14 aa       	std	Z+52, r1	; 0x34
    2ba0:	12 97       	sbiw	r26, 0x02	; 2
    2ba2:	1c 92       	st	X, r1
    2ba4:	11 97       	sbiw	r26, 0x01	; 1
    2ba6:	1c 92       	st	X, r1
    2ba8:	11 97       	sbiw	r26, 0x01	; 1
    2baa:	1c 92       	st	X, r1
    2bac:	13 96       	adiw	r26, 0x03	; 3
    2bae:	1c 92       	st	X, r1
    2bb0:	10 ae       	std	Z+56, r1	; 0x38
    2bb2:	17 aa       	std	Z+55, r1	; 0x37
    2bb4:	17 97       	sbiw	r26, 0x07	; 7
    2bb6:	1d 92       	st	X+, r1
    2bb8:	1d 92       	st	X+, r1
    2bba:	1d 92       	st	X+, r1
    2bbc:	1c 92       	st	X, r1
    2bbe:	13 97       	sbiw	r26, 0x03	; 3
    2bc0:	14 97       	sbiw	r26, 0x04	; 4
    2bc2:	1d 92       	st	X+, r1
    2bc4:	1d 92       	st	X+, r1
    2bc6:	1d 92       	st	X+, r1
    2bc8:	1c 92       	st	X, r1
    2bca:	13 97       	sbiw	r26, 0x03	; 3
    2bcc:	14 97       	sbiw	r26, 0x04	; 4
    2bce:	1d 92       	st	X+, r1
    2bd0:	1d 92       	st	X+, r1
    2bd2:	1d 92       	st	X+, r1
    2bd4:	1c 92       	st	X, r1
    2bd6:	13 97       	sbiw	r26, 0x03	; 3
    2bd8:	14 97       	sbiw	r26, 0x04	; 4
    2bda:	1d 92       	st	X+, r1
    2bdc:	1d 92       	st	X+, r1
    2bde:	1d 92       	st	X+, r1
    2be0:	1c 92       	st	X, r1
    2be2:	13 97       	sbiw	r26, 0x03	; 3
    2be4:	14 97       	sbiw	r26, 0x04	; 4
    2be6:	1d 92       	st	X+, r1
    2be8:	1d 92       	st	X+, r1
    2bea:	1d 92       	st	X+, r1
    2bec:	1c 92       	st	X, r1
    2bee:	13 97       	sbiw	r26, 0x03	; 3
    2bf0:	14 97       	sbiw	r26, 0x04	; 4
    2bf2:	1d 92       	st	X+, r1
    2bf4:	1d 92       	st	X+, r1
    2bf6:	1d 92       	st	X+, r1
    2bf8:	1c 92       	st	X, r1
    2bfa:	13 97       	sbiw	r26, 0x03	; 3
    2bfc:	14 97       	sbiw	r26, 0x04	; 4
    2bfe:	1d 92       	st	X+, r1
    2c00:	1d 92       	st	X+, r1
    2c02:	1d 92       	st	X+, r1
    2c04:	1c 92       	st	X, r1
    2c06:	13 97       	sbiw	r26, 0x03	; 3
    2c08:	14 97       	sbiw	r26, 0x04	; 4
    2c0a:	1d 92       	st	X+, r1
    2c0c:	1d 92       	st	X+, r1
    2c0e:	1d 92       	st	X+, r1
    2c10:	1c 92       	st	X, r1
    2c12:	13 97       	sbiw	r26, 0x03	; 3
    2c14:	54 97       	sbiw	r26, 0x14	; 20
    2c16:	1d 92       	st	X+, r1
    2c18:	1d 92       	st	X+, r1
    2c1a:	1d 92       	st	X+, r1
    2c1c:	1c 92       	st	X, r1
    2c1e:	13 97       	sbiw	r26, 0x03	; 3
    2c20:	14 ae       	std	Z+60, r1	; 0x3c
    2c22:	15 ae       	std	Z+61, r1	; 0x3d
    2c24:	16 ae       	std	Z+62, r1	; 0x3e
    2c26:	17 ae       	std	Z+63, r1	; 0x3f
    2c28:	08 95       	ret

00002c2a <_ZN12Adafruit_GPSC1EP14HardwareSerial>:
    2c2a:	ef 92       	push	r14
    2c2c:	ff 92       	push	r15
    2c2e:	0f 93       	push	r16
    2c30:	1f 93       	push	r17
    2c32:	cf 93       	push	r28
    2c34:	df 93       	push	r29
    2c36:	ec 01       	movw	r28, r24
    2c38:	7b 01       	movw	r14, r22
    2c3a:	1b 82       	std	Y+3, r1	; 0x03
    2c3c:	1a 82       	std	Y+2, r1	; 0x02
    2c3e:	88 ec       	ldi	r24, 0xC8	; 200
    2c40:	93 e0       	ldi	r25, 0x03	; 3
    2c42:	99 83       	std	Y+1, r25	; 0x01
    2c44:	88 83       	st	Y, r24
    2c46:	1d 82       	std	Y+5, r1	; 0x05
    2c48:	1c 82       	std	Y+4, r1	; 0x04
    2c4a:	1e 82       	std	Y+6, r1	; 0x06
    2c4c:	1f 82       	std	Y+7, r1	; 0x07
    2c4e:	18 86       	std	Y+8, r1	; 0x08
    2c50:	84 e1       	ldi	r24, 0x14	; 20
    2c52:	fe 01       	movw	r30, r28
    2c54:	39 96       	adiw	r30, 0x09	; 9
    2c56:	df 01       	movw	r26, r30
    2c58:	98 2f       	mov	r25, r24
    2c5a:	1d 92       	st	X+, r1
    2c5c:	9a 95       	dec	r25
    2c5e:	e9 f7       	brne	.-6      	; 0x2c5a <_ZN12Adafruit_GPSC1EP14HardwareSerial+0x30>
    2c60:	1d 8e       	std	Y+29, r1	; 0x1d
    2c62:	1e 8e       	std	Y+30, r1	; 0x1e
    2c64:	1f 8e       	std	Y+31, r1	; 0x1f
    2c66:	77 96       	adiw	r30, 0x17	; 23
    2c68:	df 01       	movw	r26, r30
    2c6a:	1d 92       	st	X+, r1
    2c6c:	8a 95       	dec	r24
    2c6e:	e9 f7       	brne	.-6      	; 0x2c6a <_ZN12Adafruit_GPSC1EP14HardwareSerial+0x40>
    2c70:	de 01       	movw	r26, r28
    2c72:	a9 57       	subi	r26, 0x79	; 121
    2c74:	bf 4f       	sbci	r27, 0xFF	; 255
    2c76:	8a e0       	ldi	r24, 0x0A	; 10
    2c78:	ea e1       	ldi	r30, 0x1A	; 26
    2c7a:	f2 e0       	ldi	r31, 0x02	; 2
    2c7c:	01 90       	ld	r0, Z+
    2c7e:	0d 92       	st	X+, r0
    2c80:	8a 95       	dec	r24
    2c82:	e1 f7       	brne	.-8      	; 0x2c7c <_ZN12Adafruit_GPSC1EP14HardwareSerial+0x52>
    2c84:	de 01       	movw	r26, r28
    2c86:	af 56       	subi	r26, 0x6F	; 111
    2c88:	bf 4f       	sbci	r27, 0xFF	; 255
    2c8a:	8a e0       	ldi	r24, 0x0A	; 10
    2c8c:	e4 e2       	ldi	r30, 0x24	; 36
    2c8e:	f2 e0       	ldi	r31, 0x02	; 2
    2c90:	01 90       	ld	r0, Z+
    2c92:	0d 92       	st	X+, r0
    2c94:	8a 95       	dec	r24
    2c96:	e1 f7       	brne	.-8      	; 0x2c90 <_ZN12Adafruit_GPSC1EP14HardwareSerial+0x66>
    2c98:	fe 01       	movw	r30, r28
    2c9a:	e5 56       	subi	r30, 0x65	; 101
    2c9c:	ff 4f       	sbci	r31, 0xFF	; 255
    2c9e:	83 e4       	ldi	r24, 0x43	; 67
    2ca0:	93 e0       	ldi	r25, 0x03	; 3
    2ca2:	91 83       	std	Z+1, r25	; 0x01
    2ca4:	80 83       	st	Z, r24
    2ca6:	32 96       	adiw	r30, 0x02	; 2
    2ca8:	80 e0       	ldi	r24, 0x00	; 0
    2caa:	94 e9       	ldi	r25, 0x94	; 148
    2cac:	a5 e3       	ldi	r26, 0x35	; 53
    2cae:	b7 e7       	ldi	r27, 0x77	; 119
    2cb0:	80 83       	st	Z, r24
    2cb2:	91 83       	std	Z+1, r25	; 0x01
    2cb4:	a2 83       	std	Z+2, r26	; 0x02
    2cb6:	b3 83       	std	Z+3, r27	; 0x03
    2cb8:	34 96       	adiw	r30, 0x04	; 4
    2cba:	80 83       	st	Z, r24
    2cbc:	91 83       	std	Z+1, r25	; 0x01
    2cbe:	a2 83       	std	Z+2, r26	; 0x02
    2cc0:	b3 83       	std	Z+3, r27	; 0x03
    2cc2:	34 96       	adiw	r30, 0x04	; 4
    2cc4:	80 83       	st	Z, r24
    2cc6:	91 83       	std	Z+1, r25	; 0x01
    2cc8:	a2 83       	std	Z+2, r26	; 0x02
    2cca:	b3 83       	std	Z+3, r27	; 0x03
    2ccc:	34 96       	adiw	r30, 0x04	; 4
    2cce:	80 83       	st	Z, r24
    2cd0:	91 83       	std	Z+1, r25	; 0x01
    2cd2:	a2 83       	std	Z+2, r26	; 0x02
    2cd4:	b3 83       	std	Z+3, r27	; 0x03
    2cd6:	34 96       	adiw	r30, 0x04	; 4
    2cd8:	80 83       	st	Z, r24
    2cda:	91 83       	std	Z+1, r25	; 0x01
    2cdc:	a2 83       	std	Z+2, r26	; 0x02
    2cde:	b3 83       	std	Z+3, r27	; 0x03
    2ce0:	34 96       	adiw	r30, 0x04	; 4
    2ce2:	80 83       	st	Z, r24
    2ce4:	91 83       	std	Z+1, r25	; 0x01
    2ce6:	a2 83       	std	Z+2, r26	; 0x02
    2ce8:	b3 83       	std	Z+3, r27	; 0x03
    2cea:	3d 96       	adiw	r30, 0x0d	; 13
    2cec:	1f ef       	ldi	r17, 0xFF	; 255
    2cee:	10 83       	st	Z, r17
    2cf0:	00 e0       	ldi	r16, 0x00	; 0
    2cf2:	21 e0       	ldi	r18, 0x01	; 1
    2cf4:	40 e4       	ldi	r20, 0x40	; 64
    2cf6:	52 e4       	ldi	r21, 0x42	; 66
    2cf8:	6f e0       	ldi	r22, 0x0F	; 15
    2cfa:	70 e0       	ldi	r23, 0x00	; 0
    2cfc:	ce 01       	movw	r24, r28
    2cfe:	81 54       	subi	r24, 0x41	; 65
    2d00:	9f 4f       	sbci	r25, 0xFF	; 255
    2d02:	51 de       	rcall	.-862    	; 0x29a6 <_ZN11SPISettingsC1Emhh>
    2d04:	fe 01       	movw	r30, r28
    2d06:	ea 5b       	subi	r30, 0xBA	; 186
    2d08:	fe 4f       	sbci	r31, 0xFE	; 254
    2d0a:	10 83       	st	Z, r17
    2d0c:	31 96       	adiw	r30, 0x01	; 1
    2d0e:	10 82       	st	Z, r1
    2d10:	31 96       	adiw	r30, 0x01	; 1
    2d12:	10 82       	st	Z, r1
    2d14:	ef 50       	subi	r30, 0x0F	; 15
    2d16:	ff 4f       	sbci	r31, 0xFF	; 255
    2d18:	10 82       	st	Z, r1
    2d1a:	ce 01       	movw	r24, r28
    2d1c:	0c df       	rcall	.-488    	; 0x2b36 <_ZN12Adafruit_GPS11common_initEv>
    2d1e:	c8 54       	subi	r28, 0x48	; 72
    2d20:	df 4f       	sbci	r29, 0xFF	; 255
    2d22:	f9 82       	std	Y+1, r15	; 0x01
    2d24:	e8 82       	st	Y, r14
    2d26:	df 91       	pop	r29
    2d28:	cf 91       	pop	r28
    2d2a:	1f 91       	pop	r17
    2d2c:	0f 91       	pop	r16
    2d2e:	ff 90       	pop	r15
    2d30:	ef 90       	pop	r14
    2d32:	08 95       	ret

00002d34 <_ZN15Adafruit_ST773511setRotationEh>:
    2d34:	cf 93       	push	r28
    2d36:	df 93       	push	r29
    2d38:	1f 92       	push	r1
    2d3a:	cd b7       	in	r28, 0x3d	; 61
    2d3c:	de b7       	in	r29, 0x3e	; 62
    2d3e:	fc 01       	movw	r30, r24
    2d40:	19 82       	std	Y+1, r1	; 0x01
    2d42:	63 70       	andi	r22, 0x03	; 3
    2d44:	66 8b       	std	Z+22, r22	; 0x16
    2d46:	dc 01       	movw	r26, r24
    2d48:	aa 5b       	subi	r26, 0xBA	; 186
    2d4a:	bf 4f       	sbci	r27, 0xFF	; 255
    2d4c:	8c 91       	ld	r24, X
    2d4e:	98 2f       	mov	r25, r24
    2d50:	9b 7f       	andi	r25, 0xFB	; 251
    2d52:	af 01       	movw	r20, r30
    2d54:	4c 5b       	subi	r20, 0xBC	; 188
    2d56:	5f 4f       	sbci	r21, 0xFF	; 255
    2d58:	91 30       	cpi	r25, 0x01	; 1
    2d5a:	29 f4       	brne	.+10     	; 0x2d66 <_ZN15Adafruit_ST773511setRotationEh+0x32>
    2d5c:	62 30       	cpi	r22, 0x02	; 2
    2d5e:	08 f4       	brcc	.+2      	; 0x2d62 <_ZN15Adafruit_ST773511setRotationEh+0x2e>
    2d60:	93 e0       	ldi	r25, 0x03	; 3
    2d62:	da 01       	movw	r26, r20
    2d64:	9c 93       	st	X, r25
    2d66:	9f 01       	movw	r18, r30
    2d68:	2d 5b       	subi	r18, 0xBD	; 189
    2d6a:	3f 4f       	sbci	r19, 0xFF	; 255
    2d6c:	62 30       	cpi	r22, 0x02	; 2
    2d6e:	d9 f0       	breq	.+54     	; 0x2da6 <_ZN15Adafruit_ST773511setRotationEh+0x72>
    2d70:	63 30       	cpi	r22, 0x03	; 3
    2d72:	09 f4       	brne	.+2      	; 0x2d76 <_ZN15Adafruit_ST773511setRotationEh+0x42>
    2d74:	3f c0       	rjmp	.+126    	; 0x2df4 <_ZN15Adafruit_ST773511setRotationEh+0xc0>
    2d76:	61 30       	cpi	r22, 0x01	; 1
    2d78:	71 f0       	breq	.+28     	; 0x2d96 <_ZN15Adafruit_ST773511setRotationEh+0x62>
    2d7a:	82 30       	cpi	r24, 0x02	; 2
    2d7c:	11 f0       	breq	.+4      	; 0x2d82 <_ZN15Adafruit_ST773511setRotationEh+0x4e>
    2d7e:	84 30       	cpi	r24, 0x04	; 4
    2d80:	29 f4       	brne	.+10     	; 0x2d8c <_ZN15Adafruit_ST773511setRotationEh+0x58>
    2d82:	90 ec       	ldi	r25, 0xC0	; 192
    2d84:	99 83       	std	Y+1, r25	; 0x01
    2d86:	81 30       	cpi	r24, 0x01	; 1
    2d88:	19 f4       	brne	.+6      	; 0x2d90 <_ZN15Adafruit_ST773511setRotationEh+0x5c>
    2d8a:	15 c0       	rjmp	.+42     	; 0x2db6 <_ZN15Adafruit_ST773511setRotationEh+0x82>
    2d8c:	98 ec       	ldi	r25, 0xC8	; 200
    2d8e:	10 c0       	rjmp	.+32     	; 0x2db0 <_ZN15Adafruit_ST773511setRotationEh+0x7c>
    2d90:	84 30       	cpi	r24, 0x04	; 4
    2d92:	b1 f0       	breq	.+44     	; 0x2dc0 <_ZN15Adafruit_ST773511setRotationEh+0x8c>
    2d94:	1c c0       	rjmp	.+56     	; 0x2dce <_ZN15Adafruit_ST773511setRotationEh+0x9a>
    2d96:	82 30       	cpi	r24, 0x02	; 2
    2d98:	11 f0       	breq	.+4      	; 0x2d9e <_ZN15Adafruit_ST773511setRotationEh+0x6a>
    2d9a:	84 30       	cpi	r24, 0x04	; 4
    2d9c:	11 f4       	brne	.+4      	; 0x2da2 <_ZN15Adafruit_ST773511setRotationEh+0x6e>
    2d9e:	90 ea       	ldi	r25, 0xA0	; 160
    2da0:	2e c0       	rjmp	.+92     	; 0x2dfe <_ZN15Adafruit_ST773511setRotationEh+0xca>
    2da2:	98 ea       	ldi	r25, 0xA8	; 168
    2da4:	35 c0       	rjmp	.+106    	; 0x2e10 <_ZN15Adafruit_ST773511setRotationEh+0xdc>
    2da6:	82 30       	cpi	r24, 0x02	; 2
    2da8:	91 f0       	breq	.+36     	; 0x2dce <_ZN15Adafruit_ST773511setRotationEh+0x9a>
    2daa:	84 30       	cpi	r24, 0x04	; 4
    2dac:	49 f0       	breq	.+18     	; 0x2dc0 <_ZN15Adafruit_ST773511setRotationEh+0x8c>
    2dae:	98 e0       	ldi	r25, 0x08	; 8
    2db0:	99 83       	std	Y+1, r25	; 0x01
    2db2:	81 30       	cpi	r24, 0x01	; 1
    2db4:	61 f4       	brne	.+24     	; 0x2dce <_ZN15Adafruit_ST773511setRotationEh+0x9a>
    2db6:	80 e8       	ldi	r24, 0x80	; 128
    2db8:	90 e0       	ldi	r25, 0x00	; 0
    2dba:	93 87       	std	Z+11, r25	; 0x0b
    2dbc:	82 87       	std	Z+10, r24	; 0x0a
    2dbe:	0d c0       	rjmp	.+26     	; 0x2dda <_ZN15Adafruit_ST773511setRotationEh+0xa6>
    2dc0:	80 ea       	ldi	r24, 0xA0	; 160
    2dc2:	90 e0       	ldi	r25, 0x00	; 0
    2dc4:	93 87       	std	Z+11, r25	; 0x0b
    2dc6:	82 87       	std	Z+10, r24	; 0x0a
    2dc8:	80 e5       	ldi	r24, 0x50	; 80
    2dca:	90 e0       	ldi	r25, 0x00	; 0
    2dcc:	06 c0       	rjmp	.+12     	; 0x2dda <_ZN15Adafruit_ST773511setRotationEh+0xa6>
    2dce:	80 ea       	ldi	r24, 0xA0	; 160
    2dd0:	90 e0       	ldi	r25, 0x00	; 0
    2dd2:	93 87       	std	Z+11, r25	; 0x0b
    2dd4:	82 87       	std	Z+10, r24	; 0x0a
    2dd6:	80 e8       	ldi	r24, 0x80	; 128
    2dd8:	90 e0       	ldi	r25, 0x00	; 0
    2dda:	91 87       	std	Z+9, r25	; 0x09
    2ddc:	80 87       	std	Z+8, r24	; 0x08
    2dde:	d9 01       	movw	r26, r18
    2de0:	8c 91       	ld	r24, X
    2de2:	90 e0       	ldi	r25, 0x00	; 0
    2de4:	92 af       	std	Z+58, r25	; 0x3a
    2de6:	81 af       	std	Z+57, r24	; 0x39
    2de8:	da 01       	movw	r26, r20
    2dea:	8c 91       	ld	r24, X
    2dec:	90 e0       	ldi	r25, 0x00	; 0
    2dee:	94 af       	std	Z+60, r25	; 0x3c
    2df0:	83 af       	std	Z+59, r24	; 0x3b
    2df2:	2d c0       	rjmp	.+90     	; 0x2e4e <_ZN15Adafruit_ST773511setRotationEh+0x11a>
    2df4:	82 30       	cpi	r24, 0x02	; 2
    2df6:	11 f0       	breq	.+4      	; 0x2dfc <_ZN15Adafruit_ST773511setRotationEh+0xc8>
    2df8:	84 30       	cpi	r24, 0x04	; 4
    2dfa:	49 f4       	brne	.+18     	; 0x2e0e <_ZN15Adafruit_ST773511setRotationEh+0xda>
    2dfc:	90 e6       	ldi	r25, 0x60	; 96
    2dfe:	99 83       	std	Y+1, r25	; 0x01
    2e00:	81 30       	cpi	r24, 0x01	; 1
    2e02:	51 f4       	brne	.+20     	; 0x2e18 <_ZN15Adafruit_ST773511setRotationEh+0xe4>
    2e04:	80 e8       	ldi	r24, 0x80	; 128
    2e06:	90 e0       	ldi	r25, 0x00	; 0
    2e08:	91 87       	std	Z+9, r25	; 0x09
    2e0a:	80 87       	std	Z+8, r24	; 0x08
    2e0c:	14 c0       	rjmp	.+40     	; 0x2e36 <_ZN15Adafruit_ST773511setRotationEh+0x102>
    2e0e:	98 e6       	ldi	r25, 0x68	; 104
    2e10:	99 83       	std	Y+1, r25	; 0x01
    2e12:	81 30       	cpi	r24, 0x01	; 1
    2e14:	51 f4       	brne	.+20     	; 0x2e2a <_ZN15Adafruit_ST773511setRotationEh+0xf6>
    2e16:	f6 cf       	rjmp	.-20     	; 0x2e04 <_ZN15Adafruit_ST773511setRotationEh+0xd0>
    2e18:	84 30       	cpi	r24, 0x04	; 4
    2e1a:	39 f4       	brne	.+14     	; 0x2e2a <_ZN15Adafruit_ST773511setRotationEh+0xf6>
    2e1c:	80 ea       	ldi	r24, 0xA0	; 160
    2e1e:	90 e0       	ldi	r25, 0x00	; 0
    2e20:	91 87       	std	Z+9, r25	; 0x09
    2e22:	80 87       	std	Z+8, r24	; 0x08
    2e24:	80 e5       	ldi	r24, 0x50	; 80
    2e26:	90 e0       	ldi	r25, 0x00	; 0
    2e28:	06 c0       	rjmp	.+12     	; 0x2e36 <_ZN15Adafruit_ST773511setRotationEh+0x102>
    2e2a:	80 ea       	ldi	r24, 0xA0	; 160
    2e2c:	90 e0       	ldi	r25, 0x00	; 0
    2e2e:	91 87       	std	Z+9, r25	; 0x09
    2e30:	80 87       	std	Z+8, r24	; 0x08
    2e32:	80 e8       	ldi	r24, 0x80	; 128
    2e34:	90 e0       	ldi	r25, 0x00	; 0
    2e36:	93 87       	std	Z+11, r25	; 0x0b
    2e38:	82 87       	std	Z+10, r24	; 0x0a
    2e3a:	d9 01       	movw	r26, r18
    2e3c:	8c 91       	ld	r24, X
    2e3e:	90 e0       	ldi	r25, 0x00	; 0
    2e40:	94 af       	std	Z+60, r25	; 0x3c
    2e42:	83 af       	std	Z+59, r24	; 0x3b
    2e44:	da 01       	movw	r26, r20
    2e46:	8c 91       	ld	r24, X
    2e48:	90 e0       	ldi	r25, 0x00	; 0
    2e4a:	92 af       	std	Z+58, r25	; 0x3a
    2e4c:	81 af       	std	Z+57, r24	; 0x39
    2e4e:	21 e0       	ldi	r18, 0x01	; 1
    2e50:	ae 01       	movw	r20, r28
    2e52:	4f 5f       	subi	r20, 0xFF	; 255
    2e54:	5f 4f       	sbci	r21, 0xFF	; 255
    2e56:	66 e3       	ldi	r22, 0x36	; 54
    2e58:	cf 01       	movw	r24, r30
    2e5a:	0e 94 bf 24 	call	0x497e	; 0x497e <_ZN15Adafruit_SPITFT11sendCommandEhPhh>
    2e5e:	0f 90       	pop	r0
    2e60:	df 91       	pop	r29
    2e62:	cf 91       	pop	r28
    2e64:	08 95       	ret

00002e66 <_ZN15Adafruit_ST7735C1Eaaa>:
    2e66:	ef 92       	push	r14
    2e68:	0f 93       	push	r16
    2e6a:	cf 93       	push	r28
    2e6c:	df 93       	push	r29
    2e6e:	ec 01       	movw	r28, r24
    2e70:	e2 2e       	mov	r14, r18
    2e72:	04 2f       	mov	r16, r20
    2e74:	26 2f       	mov	r18, r22
    2e76:	40 ea       	ldi	r20, 0xA0	; 160
    2e78:	50 e0       	ldi	r21, 0x00	; 0
    2e7a:	60 e8       	ldi	r22, 0x80	; 128
    2e7c:	70 e0       	ldi	r23, 0x00	; 0
    2e7e:	b7 d0       	rcall	.+366    	; 0x2fee <_ZN15Adafruit_ST77xxC1Ejjaaa>
    2e80:	84 ed       	ldi	r24, 0xD4	; 212
    2e82:	93 e0       	ldi	r25, 0x03	; 3
    2e84:	99 83       	std	Y+1, r25	; 0x01
    2e86:	88 83       	st	Y, r24
    2e88:	df 91       	pop	r29
    2e8a:	cf 91       	pop	r28
    2e8c:	0f 91       	pop	r16
    2e8e:	ef 90       	pop	r14
    2e90:	08 95       	ret

00002e92 <_ZN15Adafruit_ST77xx5beginEm>:
    2e92:	41 15       	cp	r20, r1
    2e94:	51 05       	cpc	r21, r1
    2e96:	61 05       	cpc	r22, r1
    2e98:	71 05       	cpc	r23, r1
    2e9a:	21 f4       	brne	.+8      	; 0x2ea4 <_ZN15Adafruit_ST77xx5beginEm+0x12>
    2e9c:	40 e0       	ldi	r20, 0x00	; 0
    2e9e:	58 e4       	ldi	r21, 0x48	; 72
    2ea0:	68 ee       	ldi	r22, 0xE8	; 232
    2ea2:	71 e0       	ldi	r23, 0x01	; 1
    2ea4:	fc 01       	movw	r30, r24
    2ea6:	ff 96       	adiw	r30, 0x3f	; 63
    2ea8:	40 83       	st	Z, r20
    2eaa:	51 83       	std	Z+1, r21	; 0x01
    2eac:	62 83       	std	Z+2, r22	; 0x02
    2eae:	73 83       	std	Z+3, r23	; 0x03
    2eb0:	21 e2       	ldi	r18, 0x21	; 33
    2eb2:	fc 01       	movw	r30, r24
    2eb4:	25 af       	std	Z+61, r18	; 0x3d
    2eb6:	20 e2       	ldi	r18, 0x20	; 32
    2eb8:	26 af       	std	Z+62, r18	; 0x3e
    2eba:	eb 5b       	subi	r30, 0xBB	; 187
    2ebc:	ff 4f       	sbci	r31, 0xFF	; 255
    2ebe:	20 81       	ld	r18, Z
    2ec0:	0c 94 ea 22 	jmp	0x45d4	; 0x45d4 <_ZN15Adafruit_SPITFT7initSPIEmh>

00002ec4 <_ZN15Adafruit_ST77xx13setAddrWindowEjjjj>:
    2ec4:	8f 92       	push	r8
    2ec6:	9f 92       	push	r9
    2ec8:	af 92       	push	r10
    2eca:	bf 92       	push	r11
    2ecc:	cf 92       	push	r12
    2ece:	df 92       	push	r13
    2ed0:	ef 92       	push	r14
    2ed2:	ff 92       	push	r15
    2ed4:	0f 93       	push	r16
    2ed6:	1f 93       	push	r17
    2ed8:	cf 93       	push	r28
    2eda:	df 93       	push	r29
    2edc:	ec 01       	movw	r28, r24
    2ede:	89 ad       	ldd	r24, Y+57	; 0x39
    2ee0:	9a ad       	ldd	r25, Y+58	; 0x3a
    2ee2:	4b 01       	movw	r8, r22
    2ee4:	88 0e       	add	r8, r24
    2ee6:	99 1e       	adc	r9, r25
    2ee8:	8b ad       	ldd	r24, Y+59	; 0x3b
    2eea:	9c ad       	ldd	r25, Y+60	; 0x3c
    2eec:	48 0f       	add	r20, r24
    2eee:	59 1f       	adc	r21, r25
    2ef0:	c9 01       	movw	r24, r18
    2ef2:	01 97       	sbiw	r24, 0x01	; 1
    2ef4:	88 0d       	add	r24, r8
    2ef6:	99 1d       	adc	r25, r9
    2ef8:	a0 e0       	ldi	r26, 0x00	; 0
    2efa:	b0 e0       	ldi	r27, 0x00	; 0
    2efc:	a1 2c       	mov	r10, r1
    2efe:	b1 2c       	mov	r11, r1
    2f00:	54 01       	movw	r10, r8
    2f02:	99 24       	eor	r9, r9
    2f04:	88 24       	eor	r8, r8
    2f06:	88 2a       	or	r8, r24
    2f08:	99 2a       	or	r9, r25
    2f0a:	aa 2a       	or	r10, r26
    2f0c:	bb 2a       	or	r11, r27
    2f0e:	01 50       	subi	r16, 0x01	; 1
    2f10:	11 09       	sbc	r17, r1
    2f12:	68 01       	movw	r12, r16
    2f14:	c4 0e       	add	r12, r20
    2f16:	d5 1e       	adc	r13, r21
    2f18:	86 01       	movw	r16, r12
    2f1a:	20 e0       	ldi	r18, 0x00	; 0
    2f1c:	30 e0       	ldi	r19, 0x00	; 0
    2f1e:	6a 01       	movw	r12, r20
    2f20:	e1 2c       	mov	r14, r1
    2f22:	f1 2c       	mov	r15, r1
    2f24:	76 01       	movw	r14, r12
    2f26:	dd 24       	eor	r13, r13
    2f28:	cc 24       	eor	r12, r12
    2f2a:	c0 2a       	or	r12, r16
    2f2c:	d1 2a       	or	r13, r17
    2f2e:	e2 2a       	or	r14, r18
    2f30:	f3 2a       	or	r15, r19
    2f32:	6a e2       	ldi	r22, 0x2A	; 42
    2f34:	ce 01       	movw	r24, r28
    2f36:	0e 94 59 24 	call	0x48b2	; 0x48b2 <_ZN15Adafruit_SPITFT12writeCommandEh>
    2f3a:	b5 01       	movw	r22, r10
    2f3c:	a4 01       	movw	r20, r8
    2f3e:	ce 01       	movw	r24, r28
    2f40:	0e 94 94 25 	call	0x4b28	; 0x4b28 <_ZN15Adafruit_SPITFT11SPI_WRITE32Em>
    2f44:	6b e2       	ldi	r22, 0x2B	; 43
    2f46:	ce 01       	movw	r24, r28
    2f48:	0e 94 59 24 	call	0x48b2	; 0x48b2 <_ZN15Adafruit_SPITFT12writeCommandEh>
    2f4c:	b7 01       	movw	r22, r14
    2f4e:	a6 01       	movw	r20, r12
    2f50:	ce 01       	movw	r24, r28
    2f52:	0e 94 94 25 	call	0x4b28	; 0x4b28 <_ZN15Adafruit_SPITFT11SPI_WRITE32Em>
    2f56:	6c e2       	ldi	r22, 0x2C	; 44
    2f58:	ce 01       	movw	r24, r28
    2f5a:	df 91       	pop	r29
    2f5c:	cf 91       	pop	r28
    2f5e:	1f 91       	pop	r17
    2f60:	0f 91       	pop	r16
    2f62:	ff 90       	pop	r15
    2f64:	ef 90       	pop	r14
    2f66:	df 90       	pop	r13
    2f68:	cf 90       	pop	r12
    2f6a:	bf 90       	pop	r11
    2f6c:	af 90       	pop	r10
    2f6e:	9f 90       	pop	r9
    2f70:	8f 90       	pop	r8
    2f72:	0c 94 59 24 	jmp	0x48b2	; 0x48b2 <_ZN15Adafruit_SPITFT12writeCommandEh>

00002f76 <_ZN15Adafruit_ST77xx11setRotationEh>:
    2f76:	cf 93       	push	r28
    2f78:	df 93       	push	r29
    2f7a:	1f 92       	push	r1
    2f7c:	cd b7       	in	r28, 0x3d	; 61
    2f7e:	de b7       	in	r29, 0x3e	; 62
    2f80:	fc 01       	movw	r30, r24
    2f82:	19 82       	std	Y+1, r1	; 0x01
    2f84:	63 70       	andi	r22, 0x03	; 3
    2f86:	66 8b       	std	Z+22, r22	; 0x16
    2f88:	8d 5b       	subi	r24, 0xBD	; 189
    2f8a:	9f 4f       	sbci	r25, 0xFF	; 255
    2f8c:	af 01       	movw	r20, r30
    2f8e:	4c 5b       	subi	r20, 0xBC	; 188
    2f90:	5f 4f       	sbci	r21, 0xFF	; 255
    2f92:	62 30       	cpi	r22, 0x02	; 2
    2f94:	49 f0       	breq	.+18     	; 0x2fa8 <_ZN15Adafruit_ST77xx11setRotationEh+0x32>
    2f96:	63 30       	cpi	r22, 0x03	; 3
    2f98:	91 f0       	breq	.+36     	; 0x2fbe <_ZN15Adafruit_ST77xx11setRotationEh+0x48>
    2f9a:	61 30       	cpi	r22, 0x01	; 1
    2f9c:	19 f0       	breq	.+6      	; 0x2fa4 <_ZN15Adafruit_ST77xx11setRotationEh+0x2e>
    2f9e:	20 ec       	ldi	r18, 0xC0	; 192
    2fa0:	29 83       	std	Y+1, r18	; 0x01
    2fa2:	02 c0       	rjmp	.+4      	; 0x2fa8 <_ZN15Adafruit_ST77xx11setRotationEh+0x32>
    2fa4:	20 ea       	ldi	r18, 0xA0	; 160
    2fa6:	0c c0       	rjmp	.+24     	; 0x2fc0 <_ZN15Adafruit_ST77xx11setRotationEh+0x4a>
    2fa8:	dc 01       	movw	r26, r24
    2faa:	8c 91       	ld	r24, X
    2fac:	90 e0       	ldi	r25, 0x00	; 0
    2fae:	92 af       	std	Z+58, r25	; 0x3a
    2fb0:	81 af       	std	Z+57, r24	; 0x39
    2fb2:	da 01       	movw	r26, r20
    2fb4:	8c 91       	ld	r24, X
    2fb6:	90 e0       	ldi	r25, 0x00	; 0
    2fb8:	94 af       	std	Z+60, r25	; 0x3c
    2fba:	83 af       	std	Z+59, r24	; 0x3b
    2fbc:	0c c0       	rjmp	.+24     	; 0x2fd6 <_ZN15Adafruit_ST77xx11setRotationEh+0x60>
    2fbe:	20 e6       	ldi	r18, 0x60	; 96
    2fc0:	29 83       	std	Y+1, r18	; 0x01
    2fc2:	dc 01       	movw	r26, r24
    2fc4:	8c 91       	ld	r24, X
    2fc6:	90 e0       	ldi	r25, 0x00	; 0
    2fc8:	94 af       	std	Z+60, r25	; 0x3c
    2fca:	83 af       	std	Z+59, r24	; 0x3b
    2fcc:	da 01       	movw	r26, r20
    2fce:	8c 91       	ld	r24, X
    2fd0:	90 e0       	ldi	r25, 0x00	; 0
    2fd2:	92 af       	std	Z+58, r25	; 0x3a
    2fd4:	81 af       	std	Z+57, r24	; 0x39
    2fd6:	21 e0       	ldi	r18, 0x01	; 1
    2fd8:	ae 01       	movw	r20, r28
    2fda:	4f 5f       	subi	r20, 0xFF	; 255
    2fdc:	5f 4f       	sbci	r21, 0xFF	; 255
    2fde:	66 e3       	ldi	r22, 0x36	; 54
    2fe0:	cf 01       	movw	r24, r30
    2fe2:	0e 94 bf 24 	call	0x497e	; 0x497e <_ZN15Adafruit_SPITFT11sendCommandEhPhh>
    2fe6:	0f 90       	pop	r0
    2fe8:	df 91       	pop	r29
    2fea:	cf 91       	pop	r28
    2fec:	08 95       	ret

00002fee <_ZN15Adafruit_ST77xxC1Ejjaaa>:
    2fee:	ef 92       	push	r14
    2ff0:	0f 93       	push	r16
    2ff2:	cf 93       	push	r28
    2ff4:	df 93       	push	r29
    2ff6:	ec 01       	movw	r28, r24
    2ff8:	0e 94 dd 22 	call	0x45ba	; 0x45ba <_ZN15Adafruit_SPITFTC1Ejjaaa>
    2ffc:	84 e0       	ldi	r24, 0x04	; 4
    2ffe:	94 e0       	ldi	r25, 0x04	; 4
    3000:	99 83       	std	Y+1, r25	; 0x01
    3002:	88 83       	st	Y, r24
    3004:	fe 01       	movw	r30, r28
    3006:	ed 5b       	subi	r30, 0xBD	; 189
    3008:	ff 4f       	sbci	r31, 0xFF	; 255
    300a:	10 82       	st	Z, r1
    300c:	31 96       	adiw	r30, 0x01	; 1
    300e:	10 82       	st	Z, r1
    3010:	cb 5b       	subi	r28, 0xBB	; 187
    3012:	df 4f       	sbci	r29, 0xFF	; 255
    3014:	18 82       	st	Y, r1
    3016:	df 91       	pop	r29
    3018:	cf 91       	pop	r28
    301a:	0f 91       	pop	r16
    301c:	ef 90       	pop	r14
    301e:	08 95       	ret

00003020 <_ZN6HCSR04C1Eiiii>:
    3020:	af 92       	push	r10
    3022:	bf 92       	push	r11
    3024:	cf 92       	push	r12
    3026:	df 92       	push	r13
    3028:	ef 92       	push	r14
    302a:	ff 92       	push	r15
    302c:	0f 93       	push	r16
    302e:	1f 93       	push	r17
    3030:	cf 93       	push	r28
    3032:	df 93       	push	r29
    3034:	ec 01       	movw	r28, r24
    3036:	e6 2e       	mov	r14, r22
    3038:	a7 2e       	mov	r10, r23
    303a:	f4 2e       	mov	r15, r20
    303c:	b5 2e       	mov	r11, r21
    303e:	69 01       	movw	r12, r18
    3040:	8f ef       	ldi	r24, 0xFF	; 255
    3042:	9f ef       	ldi	r25, 0xFF	; 255
    3044:	9d 83       	std	Y+5, r25	; 0x05
    3046:	8c 83       	std	Y+4, r24	; 0x04
    3048:	9f 83       	std	Y+7, r25	; 0x07
    304a:	8e 83       	std	Y+6, r24	; 0x06
    304c:	61 e0       	ldi	r22, 0x01	; 1
    304e:	8e 2d       	mov	r24, r14
    3050:	25 da       	rcall	.-2998   	; 0x249c <pinMode>
    3052:	60 e0       	ldi	r22, 0x00	; 0
    3054:	8f 2d       	mov	r24, r15
    3056:	22 da       	rcall	.-3004   	; 0x249c <pinMode>
    3058:	e8 82       	st	Y, r14
    305a:	a9 82       	std	Y+1, r10	; 0x01
    305c:	fa 82       	std	Y+2, r15	; 0x02
    305e:	bb 82       	std	Y+3, r11	; 0x03
    3060:	dd 82       	std	Y+5, r13	; 0x05
    3062:	cc 82       	std	Y+4, r12	; 0x04
    3064:	1f 83       	std	Y+7, r17	; 0x07
    3066:	0e 83       	std	Y+6, r16	; 0x06
    3068:	df 91       	pop	r29
    306a:	cf 91       	pop	r28
    306c:	1f 91       	pop	r17
    306e:	0f 91       	pop	r16
    3070:	ff 90       	pop	r15
    3072:	ef 90       	pop	r14
    3074:	df 90       	pop	r13
    3076:	cf 90       	pop	r12
    3078:	bf 90       	pop	r11
    307a:	af 90       	pop	r10
    307c:	08 95       	ret

0000307e <_ZN6HCSR0418echoInMicrosecondsEv>:
    307e:	cf 92       	push	r12
    3080:	df 92       	push	r13
    3082:	ef 92       	push	r14
    3084:	ff 92       	push	r15
    3086:	cf 93       	push	r28
    3088:	df 93       	push	r29
    308a:	ec 01       	movw	r28, r24
    308c:	60 e0       	ldi	r22, 0x00	; 0
    308e:	88 81       	ld	r24, Y
    3090:	41 da       	rcall	.-2942   	; 0x2514 <digitalWrite>
    3092:	85 e0       	ldi	r24, 0x05	; 5
    3094:	90 e0       	ldi	r25, 0x00	; 0
    3096:	1a d9       	rcall	.-3532   	; 0x22cc <delayMicroseconds>
    3098:	61 e0       	ldi	r22, 0x01	; 1
    309a:	88 81       	ld	r24, Y
    309c:	3b da       	rcall	.-2954   	; 0x2514 <digitalWrite>
    309e:	8a e0       	ldi	r24, 0x0A	; 10
    30a0:	90 e0       	ldi	r25, 0x00	; 0
    30a2:	14 d9       	rcall	.-3544   	; 0x22cc <delayMicroseconds>
    30a4:	60 e0       	ldi	r22, 0x00	; 0
    30a6:	88 81       	ld	r24, Y
    30a8:	35 da       	rcall	.-2966   	; 0x2514 <digitalWrite>
    30aa:	8a 81       	ldd	r24, Y+2	; 0x02
    30ac:	61 da       	rcall	.-2878   	; 0x2570 <digitalRead>
    30ae:	89 2b       	or	r24, r25
    30b0:	e1 f3       	breq	.-8      	; 0x30aa <_ZN6HCSR0418echoInMicrosecondsEv+0x2c>
    30b2:	ad d8       	rcall	.-3750   	; 0x220e <micros>
    30b4:	6b 01       	movw	r12, r22
    30b6:	7c 01       	movw	r14, r24
    30b8:	8a 81       	ldd	r24, Y+2	; 0x02
    30ba:	5a da       	rcall	.-2892   	; 0x2570 <digitalRead>
    30bc:	01 97       	sbiw	r24, 0x01	; 1
    30be:	e1 f3       	breq	.-8      	; 0x30b8 <_ZN6HCSR0418echoInMicrosecondsEv+0x3a>
    30c0:	a6 d8       	rcall	.-3764   	; 0x220e <micros>
    30c2:	cb 01       	movw	r24, r22
    30c4:	8c 19       	sub	r24, r12
    30c6:	9d 09       	sbc	r25, r13
    30c8:	df 91       	pop	r29
    30ca:	cf 91       	pop	r28
    30cc:	ff 90       	pop	r15
    30ce:	ef 90       	pop	r14
    30d0:	df 90       	pop	r13
    30d2:	cf 90       	pop	r12
    30d4:	08 95       	ret

000030d6 <_ZN6HCSR0421distanceInMillimetersEv>:
    30d6:	cf 93       	push	r28
    30d8:	df 93       	push	r29
    30da:	ec 01       	movw	r28, r24
    30dc:	d0 df       	rcall	.-96     	; 0x307e <_ZN6HCSR0418echoInMicrosecondsEv>
    30de:	97 fd       	sbrc	r25, 7
    30e0:	01 96       	adiw	r24, 0x01	; 1
    30e2:	bc 01       	movw	r22, r24
    30e4:	75 95       	asr	r23
    30e6:	67 95       	ror	r22
    30e8:	07 2e       	mov	r0, r23
    30ea:	00 0c       	add	r0, r0
    30ec:	88 0b       	sbc	r24, r24
    30ee:	99 0b       	sbc	r25, r25
    30f0:	0e 94 cf 0a 	call	0x159e	; 0x159e <__floatsisf>
    30f4:	27 ee       	ldi	r18, 0xE7	; 231
    30f6:	3b ef       	ldi	r19, 0xFB	; 251
    30f8:	49 ea       	ldi	r20, 0xA9	; 169
    30fa:	5e e3       	ldi	r21, 0x3E	; 62
    30fc:	0e 94 83 0b 	call	0x1706	; 0x1706 <__mulsf3>
    3100:	0e 94 9c 0a 	call	0x1538	; 0x1538 <__fixsfsi>
    3104:	9b 01       	movw	r18, r22
    3106:	4c 81       	ldd	r20, Y+4	; 0x04
    3108:	5d 81       	ldd	r21, Y+5	; 0x05
    310a:	4f 3f       	cpi	r20, 0xFF	; 255
    310c:	af ef       	ldi	r26, 0xFF	; 255
    310e:	5a 07       	cpc	r21, r26
    3110:	21 f4       	brne	.+8      	; 0x311a <_ZN6HCSR0421distanceInMillimetersEv+0x44>
    3112:	ee 81       	ldd	r30, Y+6	; 0x06
    3114:	ff 81       	ldd	r31, Y+7	; 0x07
    3116:	31 96       	adiw	r30, 0x01	; 1
    3118:	59 f0       	breq	.+22     	; 0x3130 <_ZN6HCSR0421distanceInMillimetersEv+0x5a>
    311a:	42 17       	cp	r20, r18
    311c:	53 07       	cpc	r21, r19
    311e:	2c f4       	brge	.+10     	; 0x312a <_ZN6HCSR0421distanceInMillimetersEv+0x54>
    3120:	4e 81       	ldd	r20, Y+6	; 0x06
    3122:	5f 81       	ldd	r21, Y+7	; 0x07
    3124:	24 17       	cp	r18, r20
    3126:	35 07       	cpc	r19, r21
    3128:	1c f0       	brlt	.+6      	; 0x3130 <_ZN6HCSR0421distanceInMillimetersEv+0x5a>
    312a:	8f ef       	ldi	r24, 0xFF	; 255
    312c:	9f ef       	ldi	r25, 0xFF	; 255
    312e:	01 c0       	rjmp	.+2      	; 0x3132 <_ZN6HCSR0421distanceInMillimetersEv+0x5c>
    3130:	cb 01       	movw	r24, r22
    3132:	df 91       	pop	r29
    3134:	cf 91       	pop	r28
    3136:	08 95       	ret

00003138 <__vector_10>:
    3138:	1f 92       	push	r1
    313a:	0f 92       	push	r0
    313c:	0f b6       	in	r0, 0x3f	; 63
    313e:	0f 92       	push	r0
    3140:	11 24       	eor	r1, r1
    3142:	0b b6       	in	r0, 0x3b	; 59
    3144:	0f 92       	push	r0
    3146:	2f 93       	push	r18
    3148:	3f 93       	push	r19
    314a:	4f 93       	push	r20
    314c:	5f 93       	push	r21
    314e:	6f 93       	push	r22
    3150:	7f 93       	push	r23
    3152:	8f 93       	push	r24
    3154:	9f 93       	push	r25
    3156:	af 93       	push	r26
    3158:	bf 93       	push	r27
    315a:	ef 93       	push	r30
    315c:	ff 93       	push	r31
    315e:	e0 91 cb 0c 	lds	r30, 0x0CCB	; 0x800ccb <_ZN14SoftwareSerial13active_objectE>
    3162:	f0 91 cc 0c 	lds	r31, 0x0CCC	; 0x800ccc <_ZN14SoftwareSerial13active_objectE+0x1>
    3166:	30 97       	sbiw	r30, 0x00	; 0
    3168:	09 f4       	brne	.+2      	; 0x316c <__vector_10+0x34>
    316a:	4f c0       	rjmp	.+158    	; 0x320a <__vector_10+0xd2>
    316c:	96 8d       	ldd	r25, Z+30	; 0x1e
    316e:	a6 85       	ldd	r26, Z+14	; 0x0e
    3170:	b7 85       	ldd	r27, Z+15	; 0x0f
    3172:	85 85       	ldd	r24, Z+13	; 0x0d
    3174:	91 ff       	sbrs	r25, 1
    3176:	04 c0       	rjmp	.+8      	; 0x3180 <__vector_10+0x48>
    3178:	9c 91       	ld	r25, X
    317a:	89 23       	and	r24, r25
    317c:	29 f4       	brne	.+10     	; 0x3188 <__vector_10+0x50>
    317e:	45 c0       	rjmp	.+138    	; 0x320a <__vector_10+0xd2>
    3180:	9c 91       	ld	r25, X
    3182:	89 23       	and	r24, r25
    3184:	09 f0       	breq	.+2      	; 0x3188 <__vector_10+0x50>
    3186:	41 c0       	rjmp	.+130    	; 0x320a <__vector_10+0xd2>
    3188:	a3 89       	ldd	r26, Z+19	; 0x13
    318a:	b4 89       	ldd	r27, Z+20	; 0x14
    318c:	9c 91       	ld	r25, X
    318e:	85 89       	ldd	r24, Z+21	; 0x15
    3190:	80 95       	com	r24
    3192:	89 23       	and	r24, r25
    3194:	8c 93       	st	X, r24
	__asm__ volatile (
		"1: sbiw %0,1" "\n\t"
		"brne 1b"
		: "=w" (__count)
		: "0" (__count)
	);
    3196:	86 89       	ldd	r24, Z+22	; 0x16
    3198:	97 89       	ldd	r25, Z+23	; 0x17
    319a:	01 97       	sbiw	r24, 0x01	; 1
    319c:	f1 f7       	brne	.-4      	; 0x319a <__vector_10+0x62>
    319e:	60 8d       	ldd	r22, Z+24	; 0x18
    31a0:	71 8d       	ldd	r23, Z+25	; 0x19
    31a2:	a6 85       	ldd	r26, Z+14	; 0x0e
    31a4:	b7 85       	ldd	r27, Z+15	; 0x0f
    31a6:	55 85       	ldd	r21, Z+13	; 0x0d
    31a8:	38 e0       	ldi	r19, 0x08	; 8
    31aa:	20 e0       	ldi	r18, 0x00	; 0
    31ac:	cb 01       	movw	r24, r22
    31ae:	01 97       	sbiw	r24, 0x01	; 1
    31b0:	f1 f7       	brne	.-4      	; 0x31ae <__vector_10+0x76>
    31b2:	82 2f       	mov	r24, r18
    31b4:	90 e0       	ldi	r25, 0x00	; 0
    31b6:	95 95       	asr	r25
    31b8:	87 95       	ror	r24
    31ba:	28 2f       	mov	r18, r24
    31bc:	4c 91       	ld	r20, X
    31be:	45 23       	and	r20, r21
    31c0:	09 f0       	breq	.+2      	; 0x31c4 <__vector_10+0x8c>
    31c2:	20 68       	ori	r18, 0x80	; 128
    31c4:	31 50       	subi	r19, 0x01	; 1
    31c6:	91 f7       	brne	.-28     	; 0x31ac <__vector_10+0x74>
    31c8:	86 8d       	ldd	r24, Z+30	; 0x1e
    31ca:	81 fd       	sbrc	r24, 1
    31cc:	20 95       	com	r18
    31ce:	80 91 ca 0b 	lds	r24, 0x0BCA	; 0x800bca <_ZN14SoftwareSerial20_receive_buffer_tailE>
    31d2:	90 e0       	ldi	r25, 0x00	; 0
    31d4:	01 96       	adiw	r24, 0x01	; 1
    31d6:	30 91 c9 0b 	lds	r19, 0x0BC9	; 0x800bc9 <_ZN14SoftwareSerial20_receive_buffer_headE>
    31da:	38 17       	cp	r19, r24
    31dc:	49 f0       	breq	.+18     	; 0x31f0 <__vector_10+0xb8>
    31de:	a0 91 ca 0b 	lds	r26, 0x0BCA	; 0x800bca <_ZN14SoftwareSerial20_receive_buffer_tailE>
    31e2:	b0 e0       	ldi	r27, 0x00	; 0
    31e4:	a5 53       	subi	r26, 0x35	; 53
    31e6:	b4 4f       	sbci	r27, 0xF4	; 244
    31e8:	2c 93       	st	X, r18
    31ea:	80 93 ca 0b 	sts	0x0BCA, r24	; 0x800bca <_ZN14SoftwareSerial20_receive_buffer_tailE>
    31ee:	03 c0       	rjmp	.+6      	; 0x31f6 <__vector_10+0xbe>
    31f0:	86 8d       	ldd	r24, Z+30	; 0x1e
    31f2:	81 60       	ori	r24, 0x01	; 1
    31f4:	86 8f       	std	Z+30, r24	; 0x1e
    31f6:	82 8d       	ldd	r24, Z+26	; 0x1a
    31f8:	93 8d       	ldd	r25, Z+27	; 0x1b
    31fa:	01 97       	sbiw	r24, 0x01	; 1
    31fc:	f1 f7       	brne	.-4      	; 0x31fa <__vector_10+0xc2>
    31fe:	a3 89       	ldd	r26, Z+19	; 0x13
    3200:	b4 89       	ldd	r27, Z+20	; 0x14
    3202:	9c 91       	ld	r25, X
    3204:	85 89       	ldd	r24, Z+21	; 0x15
    3206:	89 2b       	or	r24, r25
    3208:	8c 93       	st	X, r24
    320a:	ff 91       	pop	r31
    320c:	ef 91       	pop	r30
    320e:	bf 91       	pop	r27
    3210:	af 91       	pop	r26
    3212:	9f 91       	pop	r25
    3214:	8f 91       	pop	r24
    3216:	7f 91       	pop	r23
    3218:	6f 91       	pop	r22
    321a:	5f 91       	pop	r21
    321c:	4f 91       	pop	r20
    321e:	3f 91       	pop	r19
    3220:	2f 91       	pop	r18
    3222:	0f 90       	pop	r0
    3224:	0b be       	out	0x3b, r0	; 59
    3226:	0f 90       	pop	r0
    3228:	0f be       	out	0x3f, r0	; 63
    322a:	0f 90       	pop	r0
    322c:	1f 90       	pop	r1
    322e:	18 95       	reti

00003230 <_ZN8SPIClass5beginEv>:
    3230:	cf 93       	push	r28
    3232:	cf b7       	in	r28, 0x3f	; 63
    3234:	f8 94       	cli
    3236:	80 91 d0 0c 	lds	r24, 0x0CD0	; 0x800cd0 <_ZN8SPIClass11initializedE>
    323a:	81 11       	cpse	r24, r1
    323c:	23 c0       	rjmp	.+70     	; 0x3284 <_ZN8SPIClass5beginEv+0x54>
    323e:	ea ee       	ldi	r30, 0xEA	; 234
    3240:	f1 e0       	ldi	r31, 0x01	; 1
    3242:	84 91       	lpm	r24, Z
    3244:	e4 ea       	ldi	r30, 0xA4	; 164
    3246:	f1 e0       	ldi	r31, 0x01	; 1
    3248:	94 91       	lpm	r25, Z
    324a:	e8 2f       	mov	r30, r24
    324c:	f0 e0       	ldi	r31, 0x00	; 0
    324e:	ee 0f       	add	r30, r30
    3250:	ff 1f       	adc	r31, r31
    3252:	e1 5d       	subi	r30, 0xD1	; 209
    3254:	fd 4f       	sbci	r31, 0xFD	; 253
    3256:	a5 91       	lpm	r26, Z+
    3258:	b4 91       	lpm	r27, Z
    325a:	ec 91       	ld	r30, X
    325c:	e9 23       	and	r30, r25
    325e:	19 f4       	brne	.+6      	; 0x3266 <_ZN8SPIClass5beginEv+0x36>
    3260:	61 e0       	ldi	r22, 0x01	; 1
    3262:	85 e3       	ldi	r24, 0x35	; 53
    3264:	57 d9       	rcall	.-3410   	; 0x2514 <digitalWrite>
    3266:	61 e0       	ldi	r22, 0x01	; 1
    3268:	85 e3       	ldi	r24, 0x35	; 53
    326a:	18 d9       	rcall	.-3536   	; 0x249c <pinMode>
    326c:	8c b5       	in	r24, 0x2c	; 44
    326e:	80 61       	ori	r24, 0x10	; 16
    3270:	8c bd       	out	0x2c, r24	; 44
    3272:	8c b5       	in	r24, 0x2c	; 44
    3274:	80 64       	ori	r24, 0x40	; 64
    3276:	8c bd       	out	0x2c, r24	; 44
    3278:	61 e0       	ldi	r22, 0x01	; 1
    327a:	84 e3       	ldi	r24, 0x34	; 52
    327c:	0f d9       	rcall	.-3554   	; 0x249c <pinMode>
    327e:	61 e0       	ldi	r22, 0x01	; 1
    3280:	83 e3       	ldi	r24, 0x33	; 51
    3282:	0c d9       	rcall	.-3560   	; 0x249c <pinMode>
    3284:	80 91 d0 0c 	lds	r24, 0x0CD0	; 0x800cd0 <_ZN8SPIClass11initializedE>
    3288:	8f 5f       	subi	r24, 0xFF	; 255
    328a:	80 93 d0 0c 	sts	0x0CD0, r24	; 0x800cd0 <_ZN8SPIClass11initializedE>
    328e:	cf bf       	out	0x3f, r28	; 63
    3290:	cf 91       	pop	r28
    3292:	08 95       	ret

00003294 <_ZN7TwoWire9availableEv>:
    3294:	80 91 06 0d 	lds	r24, 0x0D06	; 0x800d06 <_ZN7TwoWire14rxBufferLengthE>
    3298:	90 e0       	ldi	r25, 0x00	; 0
    329a:	20 91 07 0d 	lds	r18, 0x0D07	; 0x800d07 <_ZN7TwoWire13rxBufferIndexE>
    329e:	82 1b       	sub	r24, r18
    32a0:	91 09       	sbc	r25, r1
    32a2:	08 95       	ret

000032a4 <_ZN7TwoWire4readEv>:
    32a4:	90 91 07 0d 	lds	r25, 0x0D07	; 0x800d07 <_ZN7TwoWire13rxBufferIndexE>
    32a8:	80 91 06 0d 	lds	r24, 0x0D06	; 0x800d06 <_ZN7TwoWire14rxBufferLengthE>
    32ac:	98 17       	cp	r25, r24
    32ae:	50 f4       	brcc	.+20     	; 0x32c4 <_ZN7TwoWire4readEv+0x20>
    32b0:	e9 2f       	mov	r30, r25
    32b2:	f0 e0       	ldi	r31, 0x00	; 0
    32b4:	e8 5f       	subi	r30, 0xF8	; 248
    32b6:	f2 4f       	sbci	r31, 0xF2	; 242
    32b8:	20 81       	ld	r18, Z
    32ba:	30 e0       	ldi	r19, 0x00	; 0
    32bc:	9f 5f       	subi	r25, 0xFF	; 255
    32be:	90 93 07 0d 	sts	0x0D07, r25	; 0x800d07 <_ZN7TwoWire13rxBufferIndexE>
    32c2:	02 c0       	rjmp	.+4      	; 0x32c8 <_ZN7TwoWire4readEv+0x24>
    32c4:	2f ef       	ldi	r18, 0xFF	; 255
    32c6:	3f ef       	ldi	r19, 0xFF	; 255
    32c8:	c9 01       	movw	r24, r18
    32ca:	08 95       	ret

000032cc <_ZN7TwoWire4peekEv>:
    32cc:	e0 91 07 0d 	lds	r30, 0x0D07	; 0x800d07 <_ZN7TwoWire13rxBufferIndexE>
    32d0:	80 91 06 0d 	lds	r24, 0x0D06	; 0x800d06 <_ZN7TwoWire14rxBufferLengthE>
    32d4:	e8 17       	cp	r30, r24
    32d6:	30 f4       	brcc	.+12     	; 0x32e4 <_ZN7TwoWire4peekEv+0x18>
    32d8:	f0 e0       	ldi	r31, 0x00	; 0
    32da:	e8 5f       	subi	r30, 0xF8	; 248
    32dc:	f2 4f       	sbci	r31, 0xF2	; 242
    32de:	80 81       	ld	r24, Z
    32e0:	90 e0       	ldi	r25, 0x00	; 0
    32e2:	08 95       	ret
    32e4:	8f ef       	ldi	r24, 0xFF	; 255
    32e6:	9f ef       	ldi	r25, 0xFF	; 255
    32e8:	08 95       	ret

000032ea <_ZN7TwoWire5flushEv>:
    32ea:	08 95       	ret

000032ec <_ZN7TwoWire16onReceiveServiceEPhi>:
    32ec:	cf 93       	push	r28
    32ee:	df 93       	push	r29
    32f0:	ec 01       	movw	r28, r24
    32f2:	e0 91 de 0c 	lds	r30, 0x0CDE	; 0x800cde <_ZN7TwoWire14user_onReceiveE>
    32f6:	f0 91 df 0c 	lds	r31, 0x0CDF	; 0x800cdf <_ZN7TwoWire14user_onReceiveE+0x1>
    32fa:	30 97       	sbiw	r30, 0x00	; 0
    32fc:	f1 f0       	breq	.+60     	; 0x333a <_ZN7TwoWire16onReceiveServiceEPhi+0x4e>
    32fe:	90 91 07 0d 	lds	r25, 0x0D07	; 0x800d07 <_ZN7TwoWire13rxBufferIndexE>
    3302:	80 91 06 0d 	lds	r24, 0x0D06	; 0x800d06 <_ZN7TwoWire14rxBufferLengthE>
    3306:	98 17       	cp	r25, r24
    3308:	c0 f0       	brcs	.+48     	; 0x333a <_ZN7TwoWire16onReceiveServiceEPhi+0x4e>
    330a:	90 e0       	ldi	r25, 0x00	; 0
    330c:	29 2f       	mov	r18, r25
    330e:	30 e0       	ldi	r19, 0x00	; 0
    3310:	26 17       	cp	r18, r22
    3312:	37 07       	cpc	r19, r23
    3314:	54 f4       	brge	.+20     	; 0x332a <_ZN7TwoWire16onReceiveServiceEPhi+0x3e>
    3316:	de 01       	movw	r26, r28
    3318:	a2 0f       	add	r26, r18
    331a:	b3 1f       	adc	r27, r19
    331c:	4c 91       	ld	r20, X
    331e:	d9 01       	movw	r26, r18
    3320:	a8 5f       	subi	r26, 0xF8	; 248
    3322:	b2 4f       	sbci	r27, 0xF2	; 242
    3324:	4c 93       	st	X, r20
    3326:	9f 5f       	subi	r25, 0xFF	; 255
    3328:	f1 cf       	rjmp	.-30     	; 0x330c <_ZN7TwoWire16onReceiveServiceEPhi+0x20>
    332a:	10 92 07 0d 	sts	0x0D07, r1	; 0x800d07 <_ZN7TwoWire13rxBufferIndexE>
    332e:	60 93 06 0d 	sts	0x0D06, r22	; 0x800d06 <_ZN7TwoWire14rxBufferLengthE>
    3332:	cb 01       	movw	r24, r22
    3334:	df 91       	pop	r29
    3336:	cf 91       	pop	r28
    3338:	19 94       	eijmp
    333a:	df 91       	pop	r29
    333c:	cf 91       	pop	r28
    333e:	08 95       	ret

00003340 <_ZN7TwoWire16onRequestServiceEv>:
    3340:	e0 91 e0 0c 	lds	r30, 0x0CE0	; 0x800ce0 <_ZN7TwoWire14user_onRequestE>
    3344:	f0 91 e1 0c 	lds	r31, 0x0CE1	; 0x800ce1 <_ZN7TwoWire14user_onRequestE+0x1>
    3348:	30 97       	sbiw	r30, 0x00	; 0
    334a:	29 f0       	breq	.+10     	; 0x3356 <_ZN7TwoWire16onRequestServiceEv+0x16>
    334c:	10 92 e4 0c 	sts	0x0CE4, r1	; 0x800ce4 <_ZN7TwoWire13txBufferIndexE>
    3350:	10 92 e3 0c 	sts	0x0CE3, r1	; 0x800ce3 <_ZN7TwoWire14txBufferLengthE>
    3354:	19 94       	eijmp
    3356:	08 95       	ret

00003358 <_ZN7TwoWire5writeEPKhj>:
    3358:	cf 92       	push	r12
    335a:	df 92       	push	r13
    335c:	ef 92       	push	r14
    335e:	ff 92       	push	r15
    3360:	0f 93       	push	r16
    3362:	1f 93       	push	r17
    3364:	cf 93       	push	r28
    3366:	df 93       	push	r29
    3368:	7c 01       	movw	r14, r24
    336a:	cb 01       	movw	r24, r22
    336c:	8a 01       	movw	r16, r20
    336e:	20 91 e2 0c 	lds	r18, 0x0CE2	; 0x800ce2 <_ZN7TwoWire12transmittingE>
    3372:	22 23       	and	r18, r18
    3374:	89 f0       	breq	.+34     	; 0x3398 <_ZN7TwoWire5writeEPKhj+0x40>
    3376:	eb 01       	movw	r28, r22
    3378:	6b 01       	movw	r12, r22
    337a:	c4 0e       	add	r12, r20
    337c:	d5 1e       	adc	r13, r21
    337e:	cc 15       	cp	r28, r12
    3380:	dd 05       	cpc	r29, r13
    3382:	69 f0       	breq	.+26     	; 0x339e <_ZN7TwoWire5writeEPKhj+0x46>
    3384:	69 91       	ld	r22, Y+
    3386:	d7 01       	movw	r26, r14
    3388:	ed 91       	ld	r30, X+
    338a:	fc 91       	ld	r31, X
    338c:	01 90       	ld	r0, Z+
    338e:	f0 81       	ld	r31, Z
    3390:	e0 2d       	mov	r30, r0
    3392:	c7 01       	movw	r24, r14
    3394:	19 95       	eicall
    3396:	f3 cf       	rjmp	.-26     	; 0x337e <_ZN7TwoWire5writeEPKhj+0x26>
    3398:	64 2f       	mov	r22, r20
    339a:	0e 94 bf 29 	call	0x537e	; 0x537e <twi_transmit>
    339e:	c8 01       	movw	r24, r16
    33a0:	df 91       	pop	r29
    33a2:	cf 91       	pop	r28
    33a4:	1f 91       	pop	r17
    33a6:	0f 91       	pop	r16
    33a8:	ff 90       	pop	r15
    33aa:	ef 90       	pop	r14
    33ac:	df 90       	pop	r13
    33ae:	cf 90       	pop	r12
    33b0:	08 95       	ret

000033b2 <_ZN7TwoWire5writeEh>:
    33b2:	cf 93       	push	r28
    33b4:	df 93       	push	r29
    33b6:	1f 92       	push	r1
    33b8:	cd b7       	in	r28, 0x3d	; 61
    33ba:	de b7       	in	r29, 0x3e	; 62
    33bc:	69 83       	std	Y+1, r22	; 0x01
    33be:	20 91 e2 0c 	lds	r18, 0x0CE2	; 0x800ce2 <_ZN7TwoWire12transmittingE>
    33c2:	22 23       	and	r18, r18
    33c4:	d1 f0       	breq	.+52     	; 0x33fa <_ZN7TwoWire5writeEh+0x48>
    33c6:	20 91 e3 0c 	lds	r18, 0x0CE3	; 0x800ce3 <_ZN7TwoWire14txBufferLengthE>
    33ca:	20 32       	cpi	r18, 0x20	; 32
    33cc:	40 f0       	brcs	.+16     	; 0x33de <_ZN7TwoWire5writeEh+0x2c>
    33ce:	21 e0       	ldi	r18, 0x01	; 1
    33d0:	30 e0       	ldi	r19, 0x00	; 0
    33d2:	fc 01       	movw	r30, r24
    33d4:	33 83       	std	Z+3, r19	; 0x03
    33d6:	22 83       	std	Z+2, r18	; 0x02
    33d8:	80 e0       	ldi	r24, 0x00	; 0
    33da:	90 e0       	ldi	r25, 0x00	; 0
    33dc:	15 c0       	rjmp	.+42     	; 0x3408 <_ZN7TwoWire5writeEh+0x56>
    33de:	80 91 e4 0c 	lds	r24, 0x0CE4	; 0x800ce4 <_ZN7TwoWire13txBufferIndexE>
    33e2:	e8 2f       	mov	r30, r24
    33e4:	f0 e0       	ldi	r31, 0x00	; 0
    33e6:	eb 51       	subi	r30, 0x1B	; 27
    33e8:	f3 4f       	sbci	r31, 0xF3	; 243
    33ea:	99 81       	ldd	r25, Y+1	; 0x01
    33ec:	90 83       	st	Z, r25
    33ee:	8f 5f       	subi	r24, 0xFF	; 255
    33f0:	80 93 e4 0c 	sts	0x0CE4, r24	; 0x800ce4 <_ZN7TwoWire13txBufferIndexE>
    33f4:	80 93 e3 0c 	sts	0x0CE3, r24	; 0x800ce3 <_ZN7TwoWire14txBufferLengthE>
    33f8:	05 c0       	rjmp	.+10     	; 0x3404 <_ZN7TwoWire5writeEh+0x52>
    33fa:	61 e0       	ldi	r22, 0x01	; 1
    33fc:	ce 01       	movw	r24, r28
    33fe:	01 96       	adiw	r24, 0x01	; 1
    3400:	0e 94 bf 29 	call	0x537e	; 0x537e <twi_transmit>
    3404:	81 e0       	ldi	r24, 0x01	; 1
    3406:	90 e0       	ldi	r25, 0x00	; 0
    3408:	0f 90       	pop	r0
    340a:	df 91       	pop	r29
    340c:	cf 91       	pop	r28
    340e:	08 95       	ret

00003410 <_ZN7TwoWireC1Ev>:
    3410:	fc 01       	movw	r30, r24
    3412:	13 82       	std	Z+3, r1	; 0x03
    3414:	12 82       	std	Z+2, r1	; 0x02
    3416:	88 ee       	ldi	r24, 0xE8	; 232
    3418:	93 e0       	ldi	r25, 0x03	; 3
    341a:	a0 e0       	ldi	r26, 0x00	; 0
    341c:	b0 e0       	ldi	r27, 0x00	; 0
    341e:	84 83       	std	Z+4, r24	; 0x04
    3420:	95 83       	std	Z+5, r25	; 0x05
    3422:	a6 83       	std	Z+6, r26	; 0x06
    3424:	b7 83       	std	Z+7, r27	; 0x07
    3426:	84 e3       	ldi	r24, 0x34	; 52
    3428:	94 e0       	ldi	r25, 0x04	; 4
    342a:	91 83       	std	Z+1, r25	; 0x01
    342c:	80 83       	st	Z, r24
    342e:	08 95       	ret

00003430 <_ZN7TwoWire5beginEv>:
    3430:	10 92 07 0d 	sts	0x0D07, r1	; 0x800d07 <_ZN7TwoWire13rxBufferIndexE>
    3434:	10 92 06 0d 	sts	0x0D06, r1	; 0x800d06 <_ZN7TwoWire14rxBufferLengthE>
    3438:	10 92 e4 0c 	sts	0x0CE4, r1	; 0x800ce4 <_ZN7TwoWire13txBufferIndexE>
    343c:	10 92 e3 0c 	sts	0x0CE3, r1	; 0x800ce3 <_ZN7TwoWire14txBufferLengthE>
    3440:	0e 94 03 29 	call	0x5206	; 0x5206 <twi_init>
    3444:	80 ea       	ldi	r24, 0xA0	; 160
    3446:	99 e1       	ldi	r25, 0x19	; 25
    3448:	0e 94 ec 29 	call	0x53d8	; 0x53d8 <twi_attachSlaveTxEvent>
    344c:	86 e7       	ldi	r24, 0x76	; 118
    344e:	99 e1       	ldi	r25, 0x19	; 25
    3450:	0c 94 e7 29 	jmp	0x53ce	; 0x53ce <twi_attachSlaveRxEvent>

00003454 <_ZN7TwoWire17beginTransmissionEh>:
    3454:	81 e0       	ldi	r24, 0x01	; 1
    3456:	80 93 e2 0c 	sts	0x0CE2, r24	; 0x800ce2 <_ZN7TwoWire12transmittingE>
    345a:	60 93 05 0d 	sts	0x0D05, r22	; 0x800d05 <_ZN7TwoWire9txAddressE>
    345e:	10 92 e4 0c 	sts	0x0CE4, r1	; 0x800ce4 <_ZN7TwoWire13txBufferIndexE>
    3462:	10 92 e3 0c 	sts	0x0CE3, r1	; 0x800ce3 <_ZN7TwoWire14txBufferLengthE>
    3466:	08 95       	ret

00003468 <_ZN7TwoWire17beginTransmissionEi>:
    3468:	f5 cf       	rjmp	.-22     	; 0x3454 <_ZN7TwoWire17beginTransmissionEh>

0000346a <_ZN7TwoWire15endTransmissionEh>:
    346a:	0f 93       	push	r16
    346c:	06 2f       	mov	r16, r22
    346e:	21 e0       	ldi	r18, 0x01	; 1
    3470:	40 91 e3 0c 	lds	r20, 0x0CE3	; 0x800ce3 <_ZN7TwoWire14txBufferLengthE>
    3474:	65 ee       	ldi	r22, 0xE5	; 229
    3476:	7c e0       	ldi	r23, 0x0C	; 12
    3478:	80 91 05 0d 	lds	r24, 0x0D05	; 0x800d05 <_ZN7TwoWire9txAddressE>
    347c:	0e 94 69 29 	call	0x52d2	; 0x52d2 <twi_writeTo>
    3480:	10 92 e4 0c 	sts	0x0CE4, r1	; 0x800ce4 <_ZN7TwoWire13txBufferIndexE>
    3484:	10 92 e3 0c 	sts	0x0CE3, r1	; 0x800ce3 <_ZN7TwoWire14txBufferLengthE>
    3488:	10 92 e2 0c 	sts	0x0CE2, r1	; 0x800ce2 <_ZN7TwoWire12transmittingE>
    348c:	0f 91       	pop	r16
    348e:	08 95       	ret

00003490 <_ZN7TwoWire11requestFromEhhmhh>:
    3490:	4f 92       	push	r4
    3492:	5f 92       	push	r5
    3494:	6f 92       	push	r6
    3496:	7f 92       	push	r7
    3498:	af 92       	push	r10
    349a:	bf 92       	push	r11
    349c:	cf 92       	push	r12
    349e:	ef 92       	push	r14
    34a0:	ff 92       	push	r15
    34a2:	0f 93       	push	r16
    34a4:	1f 93       	push	r17
    34a6:	cf 93       	push	r28
    34a8:	df 93       	push	r29
    34aa:	5c 01       	movw	r10, r24
    34ac:	f6 2e       	mov	r15, r22
    34ae:	d4 2f       	mov	r29, r20
    34b0:	28 01       	movw	r4, r16
    34b2:	39 01       	movw	r6, r18
    34b4:	ee 20       	and	r14, r14
    34b6:	11 f1       	breq	.+68     	; 0x34fc <_ZN7TwoWire11requestFromEhhmhh+0x6c>
    34b8:	cd df       	rcall	.-102    	; 0x3454 <_ZN7TwoWire17beginTransmissionEh>
    34ba:	ce 2d       	mov	r28, r14
    34bc:	c4 30       	cpi	r28, 0x04	; 4
    34be:	08 f0       	brcs	.+2      	; 0x34c2 <_ZN7TwoWire11requestFromEhhmhh+0x32>
    34c0:	c3 e0       	ldi	r28, 0x03	; 3
    34c2:	c1 50       	subi	r28, 0x01	; 1
    34c4:	c0 f0       	brcs	.+48     	; 0x34f6 <_ZN7TwoWire11requestFromEhhmhh+0x66>
    34c6:	28 e0       	ldi	r18, 0x08	; 8
    34c8:	c2 9f       	mul	r28, r18
    34ca:	c0 01       	movw	r24, r0
    34cc:	11 24       	eor	r1, r1
    34ce:	a3 01       	movw	r20, r6
    34d0:	92 01       	movw	r18, r4
    34d2:	04 c0       	rjmp	.+8      	; 0x34dc <_ZN7TwoWire11requestFromEhhmhh+0x4c>
    34d4:	56 95       	lsr	r21
    34d6:	47 95       	ror	r20
    34d8:	37 95       	ror	r19
    34da:	27 95       	ror	r18
    34dc:	8a 95       	dec	r24
    34de:	d2 f7       	brpl	.-12     	; 0x34d4 <_ZN7TwoWire11requestFromEhhmhh+0x44>
    34e0:	ca 01       	movw	r24, r20
    34e2:	b9 01       	movw	r22, r18
    34e4:	d5 01       	movw	r26, r10
    34e6:	ed 91       	ld	r30, X+
    34e8:	fc 91       	ld	r31, X
    34ea:	01 90       	ld	r0, Z+
    34ec:	f0 81       	ld	r31, Z
    34ee:	e0 2d       	mov	r30, r0
    34f0:	c5 01       	movw	r24, r10
    34f2:	19 95       	eicall
    34f4:	e6 cf       	rjmp	.-52     	; 0x34c2 <_ZN7TwoWire11requestFromEhhmhh+0x32>
    34f6:	60 e0       	ldi	r22, 0x00	; 0
    34f8:	c5 01       	movw	r24, r10
    34fa:	b7 df       	rcall	.-146    	; 0x346a <_ZN7TwoWire15endTransmissionEh>
    34fc:	4d 2f       	mov	r20, r29
    34fe:	d1 32       	cpi	r29, 0x21	; 33
    3500:	08 f0       	brcs	.+2      	; 0x3504 <_ZN7TwoWire11requestFromEhhmhh+0x74>
    3502:	40 e2       	ldi	r20, 0x20	; 32
    3504:	2c 2d       	mov	r18, r12
    3506:	68 e0       	ldi	r22, 0x08	; 8
    3508:	7d e0       	ldi	r23, 0x0D	; 13
    350a:	8f 2d       	mov	r24, r15
    350c:	0e 94 21 29 	call	0x5242	; 0x5242 <twi_readFrom>
    3510:	10 92 07 0d 	sts	0x0D07, r1	; 0x800d07 <_ZN7TwoWire13rxBufferIndexE>
    3514:	80 93 06 0d 	sts	0x0D06, r24	; 0x800d06 <_ZN7TwoWire14rxBufferLengthE>
    3518:	df 91       	pop	r29
    351a:	cf 91       	pop	r28
    351c:	1f 91       	pop	r17
    351e:	0f 91       	pop	r16
    3520:	ff 90       	pop	r15
    3522:	ef 90       	pop	r14
    3524:	cf 90       	pop	r12
    3526:	bf 90       	pop	r11
    3528:	af 90       	pop	r10
    352a:	7f 90       	pop	r7
    352c:	6f 90       	pop	r6
    352e:	5f 90       	pop	r5
    3530:	4f 90       	pop	r4
    3532:	08 95       	ret

00003534 <_ZN7TwoWire11requestFromEhhh>:
    3534:	cf 92       	push	r12
    3536:	ef 92       	push	r14
    3538:	0f 93       	push	r16
    353a:	1f 93       	push	r17
    353c:	c2 2e       	mov	r12, r18
    353e:	e1 2c       	mov	r14, r1
    3540:	00 e0       	ldi	r16, 0x00	; 0
    3542:	10 e0       	ldi	r17, 0x00	; 0
    3544:	98 01       	movw	r18, r16
    3546:	a4 df       	rcall	.-184    	; 0x3490 <_ZN7TwoWire11requestFromEhhmhh>
    3548:	1f 91       	pop	r17
    354a:	0f 91       	pop	r16
    354c:	ef 90       	pop	r14
    354e:	cf 90       	pop	r12
    3550:	08 95       	ret

00003552 <_ZN7TwoWire11requestFromEhh>:
    3552:	21 e0       	ldi	r18, 0x01	; 1
    3554:	ef cf       	rjmp	.-34     	; 0x3534 <_ZN7TwoWire11requestFromEhhh>

00003556 <_ZN7TwoWire11requestFromEii>:
    3556:	21 e0       	ldi	r18, 0x01	; 1
    3558:	ed cf       	rjmp	.-38     	; 0x3534 <_ZN7TwoWire11requestFromEhhh>

0000355a <_ZN7TwoWire15endTransmissionEv>:
    355a:	61 e0       	ldi	r22, 0x01	; 1
    355c:	86 cf       	rjmp	.-244    	; 0x346a <_ZN7TwoWire15endTransmissionEh>

0000355e <_GLOBAL__sub_I__ZN7TwoWire8rxBufferE>:
    355e:	82 ed       	ldi	r24, 0xD2	; 210
    3560:	9c e0       	ldi	r25, 0x0C	; 12
    3562:	56 cf       	rjmp	.-340    	; 0x3410 <_ZN7TwoWireC1Ev>

00003564 <_ZN13Adafruit_FONA9availableEv>:
    3564:	88 5e       	subi	r24, 0xE8	; 232
    3566:	9e 4f       	sbci	r25, 0xFE	; 254
    3568:	dc 01       	movw	r26, r24
    356a:	8d 91       	ld	r24, X+
    356c:	9c 91       	ld	r25, X
    356e:	dc 01       	movw	r26, r24
    3570:	ed 91       	ld	r30, X+
    3572:	fc 91       	ld	r31, X
    3574:	00 84       	ldd	r0, Z+8	; 0x08
    3576:	f1 85       	ldd	r31, Z+9	; 0x09
    3578:	e0 2d       	mov	r30, r0
    357a:	19 94       	eijmp

0000357c <_ZN13Adafruit_FONA5writeEh>:
    357c:	88 5e       	subi	r24, 0xE8	; 232
    357e:	9e 4f       	sbci	r25, 0xFE	; 254
    3580:	dc 01       	movw	r26, r24
    3582:	8d 91       	ld	r24, X+
    3584:	9c 91       	ld	r25, X
    3586:	dc 01       	movw	r26, r24
    3588:	ed 91       	ld	r30, X+
    358a:	fc 91       	ld	r31, X
    358c:	01 90       	ld	r0, Z+
    358e:	f0 81       	ld	r31, Z
    3590:	e0 2d       	mov	r30, r0
    3592:	19 94       	eijmp

00003594 <_ZN13Adafruit_FONA4readEv>:
    3594:	88 5e       	subi	r24, 0xE8	; 232
    3596:	9e 4f       	sbci	r25, 0xFE	; 254
    3598:	dc 01       	movw	r26, r24
    359a:	8d 91       	ld	r24, X+
    359c:	9c 91       	ld	r25, X
    359e:	dc 01       	movw	r26, r24
    35a0:	ed 91       	ld	r30, X+
    35a2:	fc 91       	ld	r31, X
    35a4:	02 84       	ldd	r0, Z+10	; 0x0a
    35a6:	f3 85       	ldd	r31, Z+11	; 0x0b
    35a8:	e0 2d       	mov	r30, r0
    35aa:	19 94       	eijmp

000035ac <_ZN13Adafruit_FONA4peekEv>:
    35ac:	88 5e       	subi	r24, 0xE8	; 232
    35ae:	9e 4f       	sbci	r25, 0xFE	; 254
    35b0:	dc 01       	movw	r26, r24
    35b2:	8d 91       	ld	r24, X+
    35b4:	9c 91       	ld	r25, X
    35b6:	dc 01       	movw	r26, r24
    35b8:	ed 91       	ld	r30, X+
    35ba:	fc 91       	ld	r31, X
    35bc:	04 84       	ldd	r0, Z+12	; 0x0c
    35be:	f5 85       	ldd	r31, Z+13	; 0x0d
    35c0:	e0 2d       	mov	r30, r0
    35c2:	19 94       	eijmp

000035c4 <_ZN13Adafruit_FONA5flushEv>:
    35c4:	88 5e       	subi	r24, 0xE8	; 232
    35c6:	9e 4f       	sbci	r25, 0xFE	; 254
    35c8:	dc 01       	movw	r26, r24
    35ca:	8d 91       	ld	r24, X+
    35cc:	9c 91       	ld	r25, X
    35ce:	dc 01       	movw	r26, r24
    35d0:	ed 91       	ld	r30, X+
    35d2:	fc 91       	ld	r31, X
    35d4:	06 80       	ldd	r0, Z+6	; 0x06
    35d6:	f7 81       	ldd	r31, Z+7	; 0x07
    35d8:	e0 2d       	mov	r30, r0
    35da:	19 94       	eijmp

000035dc <_ZN13Adafruit_FONAC1Ea>:
    35dc:	fc 01       	movw	r30, r24
    35de:	13 82       	std	Z+3, r1	; 0x03
    35e0:	12 82       	std	Z+2, r1	; 0x02
    35e2:	88 ee       	ldi	r24, 0xE8	; 232
    35e4:	93 e0       	ldi	r25, 0x03	; 3
    35e6:	a0 e0       	ldi	r26, 0x00	; 0
    35e8:	b0 e0       	ldi	r27, 0x00	; 0
    35ea:	84 83       	std	Z+4, r24	; 0x04
    35ec:	95 83       	std	Z+5, r25	; 0x05
    35ee:	a6 83       	std	Z+6, r26	; 0x06
    35f0:	b7 83       	std	Z+7, r27	; 0x07
    35f2:	86 e4       	ldi	r24, 0x46	; 70
    35f4:	94 e0       	ldi	r25, 0x04	; 4
    35f6:	91 83       	std	Z+1, r25	; 0x01
    35f8:	80 83       	st	Z, r24
    35fa:	64 87       	std	Z+12, r22	; 0x0c
    35fc:	df 01       	movw	r26, r30
    35fe:	a3 5f       	subi	r26, 0xF3	; 243
    3600:	be 4f       	sbci	r27, 0xFE	; 254
    3602:	81 e5       	ldi	r24, 0x51	; 81
    3604:	92 e0       	ldi	r25, 0x02	; 2
    3606:	11 96       	adiw	r26, 0x01	; 1
    3608:	9c 93       	st	X, r25
    360a:	8e 93       	st	-X, r24
    360c:	12 96       	adiw	r26, 0x02	; 2
    360e:	11 96       	adiw	r26, 0x01	; 1
    3610:	1c 92       	st	X, r1
    3612:	1e 92       	st	-X, r1
    3614:	12 96       	adiw	r26, 0x02	; 2
    3616:	11 96       	adiw	r26, 0x01	; 1
    3618:	1c 92       	st	X, r1
    361a:	1e 92       	st	-X, r1
    361c:	17 96       	adiw	r26, 0x07	; 7
    361e:	11 96       	adiw	r26, 0x01	; 1
    3620:	1c 92       	st	X, r1
    3622:	1e 92       	st	-X, r1
    3624:	15 97       	sbiw	r26, 0x05	; 5
    3626:	1c 92       	st	X, r1
    3628:	11 96       	adiw	r26, 0x01	; 1
    362a:	8c e4       	ldi	r24, 0x4C	; 76
    362c:	92 e0       	ldi	r25, 0x02	; 2
    362e:	8d 93       	st	X+, r24
    3630:	9c 93       	st	X, r25
    3632:	ea 5e       	subi	r30, 0xEA	; 234
    3634:	fe 4f       	sbci	r31, 0xFE	; 254
    3636:	89 e4       	ldi	r24, 0x49	; 73
    3638:	92 e0       	ldi	r25, 0x02	; 2
    363a:	91 83       	std	Z+1, r25	; 0x01
    363c:	80 83       	st	Z, r24
    363e:	08 95       	ret

00003640 <__cxa_pure_virtual>:
    3640:	0e 94 9c 2d 	call	0x5b38	; 0x5b38 <abort>

00003644 <yield>:
    3644:	08 95       	ret

00003646 <nothing>:
    3646:	08 95       	ret

00003648 <__vector_1>:
    3648:	1f 92       	push	r1
    364a:	0f 92       	push	r0
    364c:	0f b6       	in	r0, 0x3f	; 63
    364e:	0f 92       	push	r0
    3650:	11 24       	eor	r1, r1
    3652:	0b b6       	in	r0, 0x3b	; 59
    3654:	0f 92       	push	r0
    3656:	2f 93       	push	r18
    3658:	3f 93       	push	r19
    365a:	4f 93       	push	r20
    365c:	5f 93       	push	r21
    365e:	6f 93       	push	r22
    3660:	7f 93       	push	r23
    3662:	8f 93       	push	r24
    3664:	9f 93       	push	r25
    3666:	af 93       	push	r26
    3668:	bf 93       	push	r27
    366a:	ef 93       	push	r30
    366c:	ff 93       	push	r31
    366e:	e0 91 0e 02 	lds	r30, 0x020E	; 0x80020e <intFunc+0x4>
    3672:	f0 91 0f 02 	lds	r31, 0x020F	; 0x80020f <intFunc+0x5>
    3676:	19 95       	eicall
    3678:	ff 91       	pop	r31
    367a:	ef 91       	pop	r30
    367c:	bf 91       	pop	r27
    367e:	af 91       	pop	r26
    3680:	9f 91       	pop	r25
    3682:	8f 91       	pop	r24
    3684:	7f 91       	pop	r23
    3686:	6f 91       	pop	r22
    3688:	5f 91       	pop	r21
    368a:	4f 91       	pop	r20
    368c:	3f 91       	pop	r19
    368e:	2f 91       	pop	r18
    3690:	0f 90       	pop	r0
    3692:	0b be       	out	0x3b, r0	; 59
    3694:	0f 90       	pop	r0
    3696:	0f be       	out	0x3f, r0	; 63
    3698:	0f 90       	pop	r0
    369a:	1f 90       	pop	r1
    369c:	18 95       	reti

0000369e <__vector_2>:
    369e:	1f 92       	push	r1
    36a0:	0f 92       	push	r0
    36a2:	0f b6       	in	r0, 0x3f	; 63
    36a4:	0f 92       	push	r0
    36a6:	11 24       	eor	r1, r1
    36a8:	0b b6       	in	r0, 0x3b	; 59
    36aa:	0f 92       	push	r0
    36ac:	2f 93       	push	r18
    36ae:	3f 93       	push	r19
    36b0:	4f 93       	push	r20
    36b2:	5f 93       	push	r21
    36b4:	6f 93       	push	r22
    36b6:	7f 93       	push	r23
    36b8:	8f 93       	push	r24
    36ba:	9f 93       	push	r25
    36bc:	af 93       	push	r26
    36be:	bf 93       	push	r27
    36c0:	ef 93       	push	r30
    36c2:	ff 93       	push	r31
    36c4:	e0 91 10 02 	lds	r30, 0x0210	; 0x800210 <intFunc+0x6>
    36c8:	f0 91 11 02 	lds	r31, 0x0211	; 0x800211 <intFunc+0x7>
    36cc:	19 95       	eicall
    36ce:	ff 91       	pop	r31
    36d0:	ef 91       	pop	r30
    36d2:	bf 91       	pop	r27
    36d4:	af 91       	pop	r26
    36d6:	9f 91       	pop	r25
    36d8:	8f 91       	pop	r24
    36da:	7f 91       	pop	r23
    36dc:	6f 91       	pop	r22
    36de:	5f 91       	pop	r21
    36e0:	4f 91       	pop	r20
    36e2:	3f 91       	pop	r19
    36e4:	2f 91       	pop	r18
    36e6:	0f 90       	pop	r0
    36e8:	0b be       	out	0x3b, r0	; 59
    36ea:	0f 90       	pop	r0
    36ec:	0f be       	out	0x3f, r0	; 63
    36ee:	0f 90       	pop	r0
    36f0:	1f 90       	pop	r1
    36f2:	18 95       	reti

000036f4 <__vector_3>:
    36f4:	1f 92       	push	r1
    36f6:	0f 92       	push	r0
    36f8:	0f b6       	in	r0, 0x3f	; 63
    36fa:	0f 92       	push	r0
    36fc:	11 24       	eor	r1, r1
    36fe:	0b b6       	in	r0, 0x3b	; 59
    3700:	0f 92       	push	r0
    3702:	2f 93       	push	r18
    3704:	3f 93       	push	r19
    3706:	4f 93       	push	r20
    3708:	5f 93       	push	r21
    370a:	6f 93       	push	r22
    370c:	7f 93       	push	r23
    370e:	8f 93       	push	r24
    3710:	9f 93       	push	r25
    3712:	af 93       	push	r26
    3714:	bf 93       	push	r27
    3716:	ef 93       	push	r30
    3718:	ff 93       	push	r31
    371a:	e0 91 12 02 	lds	r30, 0x0212	; 0x800212 <intFunc+0x8>
    371e:	f0 91 13 02 	lds	r31, 0x0213	; 0x800213 <intFunc+0x9>
    3722:	19 95       	eicall
    3724:	ff 91       	pop	r31
    3726:	ef 91       	pop	r30
    3728:	bf 91       	pop	r27
    372a:	af 91       	pop	r26
    372c:	9f 91       	pop	r25
    372e:	8f 91       	pop	r24
    3730:	7f 91       	pop	r23
    3732:	6f 91       	pop	r22
    3734:	5f 91       	pop	r21
    3736:	4f 91       	pop	r20
    3738:	3f 91       	pop	r19
    373a:	2f 91       	pop	r18
    373c:	0f 90       	pop	r0
    373e:	0b be       	out	0x3b, r0	; 59
    3740:	0f 90       	pop	r0
    3742:	0f be       	out	0x3f, r0	; 63
    3744:	0f 90       	pop	r0
    3746:	1f 90       	pop	r1
    3748:	18 95       	reti

0000374a <__vector_4>:
    374a:	1f 92       	push	r1
    374c:	0f 92       	push	r0
    374e:	0f b6       	in	r0, 0x3f	; 63
    3750:	0f 92       	push	r0
    3752:	11 24       	eor	r1, r1
    3754:	0b b6       	in	r0, 0x3b	; 59
    3756:	0f 92       	push	r0
    3758:	2f 93       	push	r18
    375a:	3f 93       	push	r19
    375c:	4f 93       	push	r20
    375e:	5f 93       	push	r21
    3760:	6f 93       	push	r22
    3762:	7f 93       	push	r23
    3764:	8f 93       	push	r24
    3766:	9f 93       	push	r25
    3768:	af 93       	push	r26
    376a:	bf 93       	push	r27
    376c:	ef 93       	push	r30
    376e:	ff 93       	push	r31
    3770:	e0 91 14 02 	lds	r30, 0x0214	; 0x800214 <intFunc+0xa>
    3774:	f0 91 15 02 	lds	r31, 0x0215	; 0x800215 <intFunc+0xb>
    3778:	19 95       	eicall
    377a:	ff 91       	pop	r31
    377c:	ef 91       	pop	r30
    377e:	bf 91       	pop	r27
    3780:	af 91       	pop	r26
    3782:	9f 91       	pop	r25
    3784:	8f 91       	pop	r24
    3786:	7f 91       	pop	r23
    3788:	6f 91       	pop	r22
    378a:	5f 91       	pop	r21
    378c:	4f 91       	pop	r20
    378e:	3f 91       	pop	r19
    3790:	2f 91       	pop	r18
    3792:	0f 90       	pop	r0
    3794:	0b be       	out	0x3b, r0	; 59
    3796:	0f 90       	pop	r0
    3798:	0f be       	out	0x3f, r0	; 63
    379a:	0f 90       	pop	r0
    379c:	1f 90       	pop	r1
    379e:	18 95       	reti

000037a0 <__vector_5>:
    37a0:	1f 92       	push	r1
    37a2:	0f 92       	push	r0
    37a4:	0f b6       	in	r0, 0x3f	; 63
    37a6:	0f 92       	push	r0
    37a8:	11 24       	eor	r1, r1
    37aa:	0b b6       	in	r0, 0x3b	; 59
    37ac:	0f 92       	push	r0
    37ae:	2f 93       	push	r18
    37b0:	3f 93       	push	r19
    37b2:	4f 93       	push	r20
    37b4:	5f 93       	push	r21
    37b6:	6f 93       	push	r22
    37b8:	7f 93       	push	r23
    37ba:	8f 93       	push	r24
    37bc:	9f 93       	push	r25
    37be:	af 93       	push	r26
    37c0:	bf 93       	push	r27
    37c2:	ef 93       	push	r30
    37c4:	ff 93       	push	r31
    37c6:	e0 91 0a 02 	lds	r30, 0x020A	; 0x80020a <intFunc>
    37ca:	f0 91 0b 02 	lds	r31, 0x020B	; 0x80020b <intFunc+0x1>
    37ce:	19 95       	eicall
    37d0:	ff 91       	pop	r31
    37d2:	ef 91       	pop	r30
    37d4:	bf 91       	pop	r27
    37d6:	af 91       	pop	r26
    37d8:	9f 91       	pop	r25
    37da:	8f 91       	pop	r24
    37dc:	7f 91       	pop	r23
    37de:	6f 91       	pop	r22
    37e0:	5f 91       	pop	r21
    37e2:	4f 91       	pop	r20
    37e4:	3f 91       	pop	r19
    37e6:	2f 91       	pop	r18
    37e8:	0f 90       	pop	r0
    37ea:	0b be       	out	0x3b, r0	; 59
    37ec:	0f 90       	pop	r0
    37ee:	0f be       	out	0x3f, r0	; 63
    37f0:	0f 90       	pop	r0
    37f2:	1f 90       	pop	r1
    37f4:	18 95       	reti

000037f6 <__vector_6>:
    37f6:	1f 92       	push	r1
    37f8:	0f 92       	push	r0
    37fa:	0f b6       	in	r0, 0x3f	; 63
    37fc:	0f 92       	push	r0
    37fe:	11 24       	eor	r1, r1
    3800:	0b b6       	in	r0, 0x3b	; 59
    3802:	0f 92       	push	r0
    3804:	2f 93       	push	r18
    3806:	3f 93       	push	r19
    3808:	4f 93       	push	r20
    380a:	5f 93       	push	r21
    380c:	6f 93       	push	r22
    380e:	7f 93       	push	r23
    3810:	8f 93       	push	r24
    3812:	9f 93       	push	r25
    3814:	af 93       	push	r26
    3816:	bf 93       	push	r27
    3818:	ef 93       	push	r30
    381a:	ff 93       	push	r31
    381c:	e0 91 0c 02 	lds	r30, 0x020C	; 0x80020c <intFunc+0x2>
    3820:	f0 91 0d 02 	lds	r31, 0x020D	; 0x80020d <intFunc+0x3>
    3824:	19 95       	eicall
    3826:	ff 91       	pop	r31
    3828:	ef 91       	pop	r30
    382a:	bf 91       	pop	r27
    382c:	af 91       	pop	r26
    382e:	9f 91       	pop	r25
    3830:	8f 91       	pop	r24
    3832:	7f 91       	pop	r23
    3834:	6f 91       	pop	r22
    3836:	5f 91       	pop	r21
    3838:	4f 91       	pop	r20
    383a:	3f 91       	pop	r19
    383c:	2f 91       	pop	r18
    383e:	0f 90       	pop	r0
    3840:	0b be       	out	0x3b, r0	; 59
    3842:	0f 90       	pop	r0
    3844:	0f be       	out	0x3f, r0	; 63
    3846:	0f 90       	pop	r0
    3848:	1f 90       	pop	r1
    384a:	18 95       	reti

0000384c <__vector_7>:
    384c:	1f 92       	push	r1
    384e:	0f 92       	push	r0
    3850:	0f b6       	in	r0, 0x3f	; 63
    3852:	0f 92       	push	r0
    3854:	11 24       	eor	r1, r1
    3856:	0b b6       	in	r0, 0x3b	; 59
    3858:	0f 92       	push	r0
    385a:	2f 93       	push	r18
    385c:	3f 93       	push	r19
    385e:	4f 93       	push	r20
    3860:	5f 93       	push	r21
    3862:	6f 93       	push	r22
    3864:	7f 93       	push	r23
    3866:	8f 93       	push	r24
    3868:	9f 93       	push	r25
    386a:	af 93       	push	r26
    386c:	bf 93       	push	r27
    386e:	ef 93       	push	r30
    3870:	ff 93       	push	r31
    3872:	e0 91 16 02 	lds	r30, 0x0216	; 0x800216 <intFunc+0xc>
    3876:	f0 91 17 02 	lds	r31, 0x0217	; 0x800217 <intFunc+0xd>
    387a:	19 95       	eicall
    387c:	ff 91       	pop	r31
    387e:	ef 91       	pop	r30
    3880:	bf 91       	pop	r27
    3882:	af 91       	pop	r26
    3884:	9f 91       	pop	r25
    3886:	8f 91       	pop	r24
    3888:	7f 91       	pop	r23
    388a:	6f 91       	pop	r22
    388c:	5f 91       	pop	r21
    388e:	4f 91       	pop	r20
    3890:	3f 91       	pop	r19
    3892:	2f 91       	pop	r18
    3894:	0f 90       	pop	r0
    3896:	0b be       	out	0x3b, r0	; 59
    3898:	0f 90       	pop	r0
    389a:	0f be       	out	0x3f, r0	; 63
    389c:	0f 90       	pop	r0
    389e:	1f 90       	pop	r1
    38a0:	18 95       	reti

000038a2 <__vector_8>:
    38a2:	1f 92       	push	r1
    38a4:	0f 92       	push	r0
    38a6:	0f b6       	in	r0, 0x3f	; 63
    38a8:	0f 92       	push	r0
    38aa:	11 24       	eor	r1, r1
    38ac:	0b b6       	in	r0, 0x3b	; 59
    38ae:	0f 92       	push	r0
    38b0:	2f 93       	push	r18
    38b2:	3f 93       	push	r19
    38b4:	4f 93       	push	r20
    38b6:	5f 93       	push	r21
    38b8:	6f 93       	push	r22
    38ba:	7f 93       	push	r23
    38bc:	8f 93       	push	r24
    38be:	9f 93       	push	r25
    38c0:	af 93       	push	r26
    38c2:	bf 93       	push	r27
    38c4:	ef 93       	push	r30
    38c6:	ff 93       	push	r31
    38c8:	e0 91 18 02 	lds	r30, 0x0218	; 0x800218 <intFunc+0xe>
    38cc:	f0 91 19 02 	lds	r31, 0x0219	; 0x800219 <intFunc+0xf>
    38d0:	19 95       	eicall
    38d2:	ff 91       	pop	r31
    38d4:	ef 91       	pop	r30
    38d6:	bf 91       	pop	r27
    38d8:	af 91       	pop	r26
    38da:	9f 91       	pop	r25
    38dc:	8f 91       	pop	r24
    38de:	7f 91       	pop	r23
    38e0:	6f 91       	pop	r22
    38e2:	5f 91       	pop	r21
    38e4:	4f 91       	pop	r20
    38e6:	3f 91       	pop	r19
    38e8:	2f 91       	pop	r18
    38ea:	0f 90       	pop	r0
    38ec:	0b be       	out	0x3b, r0	; 59
    38ee:	0f 90       	pop	r0
    38f0:	0f be       	out	0x3f, r0	; 63
    38f2:	0f 90       	pop	r0
    38f4:	1f 90       	pop	r1
    38f6:	18 95       	reti

000038f8 <_ZN12Adafruit_GFX9writeLineEiiiij>:
    38f8:	2f 92       	push	r2
    38fa:	3f 92       	push	r3
    38fc:	4f 92       	push	r4
    38fe:	5f 92       	push	r5
    3900:	6f 92       	push	r6
    3902:	7f 92       	push	r7
    3904:	8f 92       	push	r8
    3906:	9f 92       	push	r9
    3908:	af 92       	push	r10
    390a:	bf 92       	push	r11
    390c:	cf 92       	push	r12
    390e:	df 92       	push	r13
    3910:	ef 92       	push	r14
    3912:	ff 92       	push	r15
    3914:	0f 93       	push	r16
    3916:	1f 93       	push	r17
    3918:	cf 93       	push	r28
    391a:	df 93       	push	r29
    391c:	00 d0       	rcall	.+0      	; 0x391e <_ZN12Adafruit_GFX9writeLineEiiiij+0x26>
    391e:	00 d0       	rcall	.+0      	; 0x3920 <_ZN12Adafruit_GFX9writeLineEiiiij+0x28>
    3920:	cd b7       	in	r28, 0x3d	; 61
    3922:	de b7       	in	r29, 0x3e	; 62
    3924:	2c 01       	movw	r4, r24
    3926:	7e 83       	std	Y+6, r23	; 0x06
    3928:	6d 83       	std	Y+5, r22	; 0x05
    392a:	6a 01       	movw	r12, r20
    392c:	59 01       	movw	r10, r18
    392e:	c8 01       	movw	r24, r16
    3930:	fc 82       	std	Y+4, r15	; 0x04
    3932:	eb 82       	std	Y+3, r14	; 0x03
    3934:	48 01       	movw	r8, r16
    3936:	84 1a       	sub	r8, r20
    3938:	95 0a       	sbc	r9, r21
    393a:	97 fe       	sbrs	r9, 7
    393c:	03 c0       	rjmp	.+6      	; 0x3944 <_ZN12Adafruit_GFX9writeLineEiiiij+0x4c>
    393e:	91 94       	neg	r9
    3940:	81 94       	neg	r8
    3942:	91 08       	sbc	r9, r1
    3944:	35 01       	movw	r6, r10
    3946:	2d 81       	ldd	r18, Y+5	; 0x05
    3948:	3e 81       	ldd	r19, Y+6	; 0x06
    394a:	62 1a       	sub	r6, r18
    394c:	73 0a       	sbc	r7, r19
    394e:	77 fe       	sbrs	r7, 7
    3950:	03 c0       	rjmp	.+6      	; 0x3958 <_ZN12Adafruit_GFX9writeLineEiiiij+0x60>
    3952:	71 94       	neg	r7
    3954:	61 94       	neg	r6
    3956:	71 08       	sbc	r7, r1
    3958:	68 14       	cp	r6, r8
    395a:	79 04       	cpc	r7, r9
    395c:	5c f4       	brge	.+22     	; 0x3974 <_ZN12Adafruit_GFX9writeLineEiiiij+0x7c>
    395e:	3a 2d       	mov	r19, r10
    3960:	2b 2d       	mov	r18, r11
    3962:	5c 01       	movw	r10, r24
    3964:	83 2f       	mov	r24, r19
    3966:	92 2f       	mov	r25, r18
    3968:	3d 81       	ldd	r19, Y+5	; 0x05
    396a:	2e 81       	ldd	r18, Y+6	; 0x06
    396c:	de 82       	std	Y+6, r13	; 0x06
    396e:	cd 82       	std	Y+5, r12	; 0x05
    3970:	c3 2e       	mov	r12, r19
    3972:	d2 2e       	mov	r13, r18
    3974:	ad 81       	ldd	r26, Y+5	; 0x05
    3976:	be 81       	ldd	r27, Y+6	; 0x06
    3978:	aa 16       	cp	r10, r26
    397a:	bb 06       	cpc	r11, r27
    397c:	5c f4       	brge	.+22     	; 0x3994 <_ZN12Adafruit_GFX9writeLineEiiiij+0x9c>
    397e:	3c 2d       	mov	r19, r12
    3980:	2d 2d       	mov	r18, r13
    3982:	6c 01       	movw	r12, r24
    3984:	83 2f       	mov	r24, r19
    3986:	92 2f       	mov	r25, r18
    3988:	3d 81       	ldd	r19, Y+5	; 0x05
    398a:	2e 81       	ldd	r18, Y+6	; 0x06
    398c:	be 82       	std	Y+6, r11	; 0x06
    398e:	ad 82       	std	Y+5, r10	; 0x05
    3990:	a3 2e       	mov	r10, r19
    3992:	b2 2e       	mov	r11, r18
    3994:	85 01       	movw	r16, r10
    3996:	2d 81       	ldd	r18, Y+5	; 0x05
    3998:	3e 81       	ldd	r19, Y+6	; 0x06
    399a:	02 1b       	sub	r16, r18
    399c:	13 0b       	sbc	r17, r19
    399e:	1c 01       	movw	r2, r24
    39a0:	2c 18       	sub	r2, r12
    39a2:	3d 08       	sbc	r3, r13
    39a4:	37 fe       	sbrs	r3, 7
    39a6:	03 c0       	rjmp	.+6      	; 0x39ae <_ZN12Adafruit_GFX9writeLineEiiiij+0xb6>
    39a8:	31 94       	neg	r3
    39aa:	21 94       	neg	r2
    39ac:	31 08       	sbc	r3, r1
    39ae:	78 01       	movw	r14, r16
    39b0:	17 ff       	sbrs	r17, 7
    39b2:	03 c0       	rjmp	.+6      	; 0x39ba <_ZN12Adafruit_GFX9writeLineEiiiij+0xc2>
    39b4:	3f ef       	ldi	r19, 0xFF	; 255
    39b6:	e3 1a       	sub	r14, r19
    39b8:	f3 0a       	sbc	r15, r19
    39ba:	f5 94       	asr	r15
    39bc:	e7 94       	ror	r14
    39be:	c8 16       	cp	r12, r24
    39c0:	d9 06       	cpc	r13, r25
    39c2:	2c f0       	brlt	.+10     	; 0x39ce <_ZN12Adafruit_GFX9writeLineEiiiij+0xd6>
    39c4:	8f ef       	ldi	r24, 0xFF	; 255
    39c6:	9f ef       	ldi	r25, 0xFF	; 255
    39c8:	9a 83       	std	Y+2, r25	; 0x02
    39ca:	89 83       	std	Y+1, r24	; 0x01
    39cc:	04 c0       	rjmp	.+8      	; 0x39d6 <_ZN12Adafruit_GFX9writeLineEiiiij+0xde>
    39ce:	a1 e0       	ldi	r26, 0x01	; 1
    39d0:	b0 e0       	ldi	r27, 0x00	; 0
    39d2:	ba 83       	std	Y+2, r27	; 0x02
    39d4:	a9 83       	std	Y+1, r26	; 0x01
    39d6:	2d 81       	ldd	r18, Y+5	; 0x05
    39d8:	3e 81       	ldd	r19, Y+6	; 0x06
    39da:	a2 16       	cp	r10, r18
    39dc:	b3 06       	cpc	r11, r19
    39de:	24 f1       	brlt	.+72     	; 0x3a28 <_ZN12Adafruit_GFX9writeLineEiiiij+0x130>
    39e0:	d2 01       	movw	r26, r4
    39e2:	ed 91       	ld	r30, X+
    39e4:	fc 91       	ld	r31, X
    39e6:	04 84       	ldd	r0, Z+12	; 0x0c
    39e8:	f5 85       	ldd	r31, Z+13	; 0x0d
    39ea:	e0 2d       	mov	r30, r0
    39ec:	2b 81       	ldd	r18, Y+3	; 0x03
    39ee:	3c 81       	ldd	r19, Y+4	; 0x04
    39f0:	68 14       	cp	r6, r8
    39f2:	79 04       	cpc	r7, r9
    39f4:	24 f4       	brge	.+8      	; 0x39fe <_ZN12Adafruit_GFX9writeLineEiiiij+0x106>
    39f6:	4d 81       	ldd	r20, Y+5	; 0x05
    39f8:	5e 81       	ldd	r21, Y+6	; 0x06
    39fa:	b6 01       	movw	r22, r12
    39fc:	03 c0       	rjmp	.+6      	; 0x3a04 <_ZN12Adafruit_GFX9writeLineEiiiij+0x10c>
    39fe:	a6 01       	movw	r20, r12
    3a00:	6d 81       	ldd	r22, Y+5	; 0x05
    3a02:	7e 81       	ldd	r23, Y+6	; 0x06
    3a04:	c2 01       	movw	r24, r4
    3a06:	19 95       	eicall
    3a08:	e2 18       	sub	r14, r2
    3a0a:	f3 08       	sbc	r15, r3
    3a0c:	f7 fe       	sbrs	r15, 7
    3a0e:	06 c0       	rjmp	.+12     	; 0x3a1c <_ZN12Adafruit_GFX9writeLineEiiiij+0x124>
    3a10:	29 81       	ldd	r18, Y+1	; 0x01
    3a12:	3a 81       	ldd	r19, Y+2	; 0x02
    3a14:	c2 0e       	add	r12, r18
    3a16:	d3 1e       	adc	r13, r19
    3a18:	e0 0e       	add	r14, r16
    3a1a:	f1 1e       	adc	r15, r17
    3a1c:	8d 81       	ldd	r24, Y+5	; 0x05
    3a1e:	9e 81       	ldd	r25, Y+6	; 0x06
    3a20:	01 96       	adiw	r24, 0x01	; 1
    3a22:	9e 83       	std	Y+6, r25	; 0x06
    3a24:	8d 83       	std	Y+5, r24	; 0x05
    3a26:	d7 cf       	rjmp	.-82     	; 0x39d6 <_ZN12Adafruit_GFX9writeLineEiiiij+0xde>
    3a28:	26 96       	adiw	r28, 0x06	; 6
    3a2a:	0f b6       	in	r0, 0x3f	; 63
    3a2c:	f8 94       	cli
    3a2e:	de bf       	out	0x3e, r29	; 62
    3a30:	0f be       	out	0x3f, r0	; 63
    3a32:	cd bf       	out	0x3d, r28	; 61
    3a34:	df 91       	pop	r29
    3a36:	cf 91       	pop	r28
    3a38:	1f 91       	pop	r17
    3a3a:	0f 91       	pop	r16
    3a3c:	ff 90       	pop	r15
    3a3e:	ef 90       	pop	r14
    3a40:	df 90       	pop	r13
    3a42:	cf 90       	pop	r12
    3a44:	bf 90       	pop	r11
    3a46:	af 90       	pop	r10
    3a48:	9f 90       	pop	r9
    3a4a:	8f 90       	pop	r8
    3a4c:	7f 90       	pop	r7
    3a4e:	6f 90       	pop	r6
    3a50:	5f 90       	pop	r5
    3a52:	4f 90       	pop	r4
    3a54:	3f 90       	pop	r3
    3a56:	2f 90       	pop	r2
    3a58:	08 95       	ret

00003a5a <_ZN12Adafruit_GFX10writePixelEiij>:
    3a5a:	dc 01       	movw	r26, r24
    3a5c:	ed 91       	ld	r30, X+
    3a5e:	fc 91       	ld	r31, X
    3a60:	00 84       	ldd	r0, Z+8	; 0x08
    3a62:	f1 85       	ldd	r31, Z+9	; 0x09
    3a64:	e0 2d       	mov	r30, r0
    3a66:	19 94       	eijmp

00003a68 <_ZN12Adafruit_GFX14writeFastVLineEiiij>:
    3a68:	0f 93       	push	r16
    3a6a:	1f 93       	push	r17
    3a6c:	dc 01       	movw	r26, r24
    3a6e:	ed 91       	ld	r30, X+
    3a70:	fc 91       	ld	r31, X
    3a72:	04 8c       	ldd	r0, Z+28	; 0x1c
    3a74:	f5 8d       	ldd	r31, Z+29	; 0x1d
    3a76:	e0 2d       	mov	r30, r0
    3a78:	19 95       	eicall
    3a7a:	1f 91       	pop	r17
    3a7c:	0f 91       	pop	r16
    3a7e:	08 95       	ret

00003a80 <_ZN12Adafruit_GFX14writeFastHLineEiiij>:
    3a80:	0f 93       	push	r16
    3a82:	1f 93       	push	r17
    3a84:	dc 01       	movw	r26, r24
    3a86:	ed 91       	ld	r30, X+
    3a88:	fc 91       	ld	r31, X
    3a8a:	06 8c       	ldd	r0, Z+30	; 0x1e
    3a8c:	f7 8d       	ldd	r31, Z+31	; 0x1f
    3a8e:	e0 2d       	mov	r30, r0
    3a90:	19 95       	eicall
    3a92:	1f 91       	pop	r17
    3a94:	0f 91       	pop	r16
    3a96:	08 95       	ret

00003a98 <_ZN12Adafruit_GFX13writeFillRectEiiiij>:
    3a98:	ef 92       	push	r14
    3a9a:	ff 92       	push	r15
    3a9c:	0f 93       	push	r16
    3a9e:	1f 93       	push	r17
    3aa0:	dc 01       	movw	r26, r24
    3aa2:	ed 91       	ld	r30, X+
    3aa4:	fc 91       	ld	r31, X
    3aa6:	00 a0       	ldd	r0, Z+32	; 0x20
    3aa8:	f1 a1       	ldd	r31, Z+33	; 0x21
    3aaa:	e0 2d       	mov	r30, r0
    3aac:	19 95       	eicall
    3aae:	1f 91       	pop	r17
    3ab0:	0f 91       	pop	r16
    3ab2:	ff 90       	pop	r15
    3ab4:	ef 90       	pop	r14
    3ab6:	08 95       	ret

00003ab8 <_ZN12Adafruit_GFX10startWriteEv>:
    3ab8:	08 95       	ret

00003aba <_ZN12Adafruit_GFX13drawFastVLineEiiij>:
    3aba:	8f 92       	push	r8
    3abc:	9f 92       	push	r9
    3abe:	af 92       	push	r10
    3ac0:	bf 92       	push	r11
    3ac2:	cf 92       	push	r12
    3ac4:	df 92       	push	r13
    3ac6:	ef 92       	push	r14
    3ac8:	ff 92       	push	r15
    3aca:	0f 93       	push	r16
    3acc:	1f 93       	push	r17
    3ace:	cf 93       	push	r28
    3ad0:	df 93       	push	r29
    3ad2:	ec 01       	movw	r28, r24
    3ad4:	5b 01       	movw	r10, r22
    3ad6:	4a 01       	movw	r8, r20
    3ad8:	69 01       	movw	r12, r18
    3ada:	78 01       	movw	r14, r16
    3adc:	e8 81       	ld	r30, Y
    3ade:	f9 81       	ldd	r31, Y+1	; 0x01
    3ae0:	02 84       	ldd	r0, Z+10	; 0x0a
    3ae2:	f3 85       	ldd	r31, Z+11	; 0x0b
    3ae4:	e0 2d       	mov	r30, r0
    3ae6:	19 95       	eicall
    3ae8:	c8 0c       	add	r12, r8
    3aea:	d9 1c       	adc	r13, r9
    3aec:	86 01       	movw	r16, r12
    3aee:	01 50       	subi	r16, 0x01	; 1
    3af0:	11 09       	sbc	r17, r1
    3af2:	e8 81       	ld	r30, Y
    3af4:	f9 81       	ldd	r31, Y+1	; 0x01
    3af6:	04 88       	ldd	r0, Z+20	; 0x14
    3af8:	f5 89       	ldd	r31, Z+21	; 0x15
    3afa:	e0 2d       	mov	r30, r0
    3afc:	95 01       	movw	r18, r10
    3afe:	a4 01       	movw	r20, r8
    3b00:	b5 01       	movw	r22, r10
    3b02:	ce 01       	movw	r24, r28
    3b04:	19 95       	eicall
    3b06:	e8 81       	ld	r30, Y
    3b08:	f9 81       	ldd	r31, Y+1	; 0x01
    3b0a:	06 88       	ldd	r0, Z+22	; 0x16
    3b0c:	f7 89       	ldd	r31, Z+23	; 0x17
    3b0e:	e0 2d       	mov	r30, r0
    3b10:	ce 01       	movw	r24, r28
    3b12:	df 91       	pop	r29
    3b14:	cf 91       	pop	r28
    3b16:	1f 91       	pop	r17
    3b18:	0f 91       	pop	r16
    3b1a:	ff 90       	pop	r15
    3b1c:	ef 90       	pop	r14
    3b1e:	df 90       	pop	r13
    3b20:	cf 90       	pop	r12
    3b22:	bf 90       	pop	r11
    3b24:	af 90       	pop	r10
    3b26:	9f 90       	pop	r9
    3b28:	8f 90       	pop	r8
    3b2a:	19 94       	eijmp

00003b2c <_ZN12Adafruit_GFX13drawFastHLineEiiij>:
    3b2c:	8f 92       	push	r8
    3b2e:	9f 92       	push	r9
    3b30:	af 92       	push	r10
    3b32:	bf 92       	push	r11
    3b34:	cf 92       	push	r12
    3b36:	df 92       	push	r13
    3b38:	ef 92       	push	r14
    3b3a:	ff 92       	push	r15
    3b3c:	0f 93       	push	r16
    3b3e:	1f 93       	push	r17
    3b40:	cf 93       	push	r28
    3b42:	df 93       	push	r29
    3b44:	ec 01       	movw	r28, r24
    3b46:	5b 01       	movw	r10, r22
    3b48:	4a 01       	movw	r8, r20
    3b4a:	69 01       	movw	r12, r18
    3b4c:	e8 81       	ld	r30, Y
    3b4e:	f9 81       	ldd	r31, Y+1	; 0x01
    3b50:	02 84       	ldd	r0, Z+10	; 0x0a
    3b52:	f3 85       	ldd	r31, Z+11	; 0x0b
    3b54:	e0 2d       	mov	r30, r0
    3b56:	19 95       	eicall
    3b58:	95 01       	movw	r18, r10
    3b5a:	2c 0d       	add	r18, r12
    3b5c:	3d 1d       	adc	r19, r13
    3b5e:	21 50       	subi	r18, 0x01	; 1
    3b60:	31 09       	sbc	r19, r1
    3b62:	e8 81       	ld	r30, Y
    3b64:	f9 81       	ldd	r31, Y+1	; 0x01
    3b66:	04 88       	ldd	r0, Z+20	; 0x14
    3b68:	f5 89       	ldd	r31, Z+21	; 0x15
    3b6a:	e0 2d       	mov	r30, r0
    3b6c:	78 01       	movw	r14, r16
    3b6e:	84 01       	movw	r16, r8
    3b70:	a4 01       	movw	r20, r8
    3b72:	b5 01       	movw	r22, r10
    3b74:	ce 01       	movw	r24, r28
    3b76:	19 95       	eicall
    3b78:	e8 81       	ld	r30, Y
    3b7a:	f9 81       	ldd	r31, Y+1	; 0x01
    3b7c:	06 88       	ldd	r0, Z+22	; 0x16
    3b7e:	f7 89       	ldd	r31, Z+23	; 0x17
    3b80:	e0 2d       	mov	r30, r0
    3b82:	ce 01       	movw	r24, r28
    3b84:	df 91       	pop	r29
    3b86:	cf 91       	pop	r28
    3b88:	1f 91       	pop	r17
    3b8a:	0f 91       	pop	r16
    3b8c:	ff 90       	pop	r15
    3b8e:	ef 90       	pop	r14
    3b90:	df 90       	pop	r13
    3b92:	cf 90       	pop	r12
    3b94:	bf 90       	pop	r11
    3b96:	af 90       	pop	r10
    3b98:	9f 90       	pop	r9
    3b9a:	8f 90       	pop	r8
    3b9c:	19 94       	eijmp

00003b9e <_ZN12Adafruit_GFX8fillRectEiiiij>:
    3b9e:	4f 92       	push	r4
    3ba0:	5f 92       	push	r5
    3ba2:	6f 92       	push	r6
    3ba4:	7f 92       	push	r7
    3ba6:	8f 92       	push	r8
    3ba8:	9f 92       	push	r9
    3baa:	af 92       	push	r10
    3bac:	bf 92       	push	r11
    3bae:	cf 92       	push	r12
    3bb0:	df 92       	push	r13
    3bb2:	ef 92       	push	r14
    3bb4:	ff 92       	push	r15
    3bb6:	0f 93       	push	r16
    3bb8:	1f 93       	push	r17
    3bba:	cf 93       	push	r28
    3bbc:	df 93       	push	r29
    3bbe:	6c 01       	movw	r12, r24
    3bc0:	2b 01       	movw	r4, r22
    3bc2:	5a 01       	movw	r10, r20
    3bc4:	39 01       	movw	r6, r18
    3bc6:	48 01       	movw	r8, r16
    3bc8:	dc 01       	movw	r26, r24
    3bca:	ed 91       	ld	r30, X+
    3bcc:	fc 91       	ld	r31, X
    3bce:	02 84       	ldd	r0, Z+10	; 0x0a
    3bd0:	f3 85       	ldd	r31, Z+11	; 0x0b
    3bd2:	e0 2d       	mov	r30, r0
    3bd4:	19 95       	eicall
    3bd6:	e2 01       	movw	r28, r4
    3bd8:	64 0c       	add	r6, r4
    3bda:	75 1c       	adc	r7, r5
    3bdc:	d6 01       	movw	r26, r12
    3bde:	ed 91       	ld	r30, X+
    3be0:	fc 91       	ld	r31, X
    3be2:	c6 15       	cp	r28, r6
    3be4:	d7 05       	cpc	r29, r7
    3be6:	5c f4       	brge	.+22     	; 0x3bfe <_ZN12Adafruit_GFX8fillRectEiiiij+0x60>
    3be8:	00 88       	ldd	r0, Z+16	; 0x10
    3bea:	f1 89       	ldd	r31, Z+17	; 0x11
    3bec:	e0 2d       	mov	r30, r0
    3bee:	87 01       	movw	r16, r14
    3bf0:	94 01       	movw	r18, r8
    3bf2:	a5 01       	movw	r20, r10
    3bf4:	be 01       	movw	r22, r28
    3bf6:	c6 01       	movw	r24, r12
    3bf8:	19 95       	eicall
    3bfa:	21 96       	adiw	r28, 0x01	; 1
    3bfc:	ef cf       	rjmp	.-34     	; 0x3bdc <_ZN12Adafruit_GFX8fillRectEiiiij+0x3e>
    3bfe:	06 88       	ldd	r0, Z+22	; 0x16
    3c00:	f7 89       	ldd	r31, Z+23	; 0x17
    3c02:	e0 2d       	mov	r30, r0
    3c04:	c6 01       	movw	r24, r12
    3c06:	df 91       	pop	r29
    3c08:	cf 91       	pop	r28
    3c0a:	1f 91       	pop	r17
    3c0c:	0f 91       	pop	r16
    3c0e:	ff 90       	pop	r15
    3c10:	ef 90       	pop	r14
    3c12:	df 90       	pop	r13
    3c14:	cf 90       	pop	r12
    3c16:	bf 90       	pop	r11
    3c18:	af 90       	pop	r10
    3c1a:	9f 90       	pop	r9
    3c1c:	8f 90       	pop	r8
    3c1e:	7f 90       	pop	r7
    3c20:	6f 90       	pop	r6
    3c22:	5f 90       	pop	r5
    3c24:	4f 90       	pop	r4
    3c26:	19 94       	eijmp

00003c28 <_ZN12Adafruit_GFX10fillScreenEj>:
    3c28:	ef 92       	push	r14
    3c2a:	ff 92       	push	r15
    3c2c:	0f 93       	push	r16
    3c2e:	1f 93       	push	r17
    3c30:	dc 01       	movw	r26, r24
    3c32:	1a 96       	adiw	r26, 0x0a	; 10
    3c34:	0d 91       	ld	r16, X+
    3c36:	1c 91       	ld	r17, X
    3c38:	1b 97       	sbiw	r26, 0x0b	; 11
    3c3a:	18 96       	adiw	r26, 0x08	; 8
    3c3c:	2d 91       	ld	r18, X+
    3c3e:	3c 91       	ld	r19, X
    3c40:	19 97       	sbiw	r26, 0x09	; 9
    3c42:	ed 91       	ld	r30, X+
    3c44:	fc 91       	ld	r31, X
    3c46:	00 a0       	ldd	r0, Z+32	; 0x20
    3c48:	f1 a1       	ldd	r31, Z+33	; 0x21
    3c4a:	e0 2d       	mov	r30, r0
    3c4c:	7b 01       	movw	r14, r22
    3c4e:	40 e0       	ldi	r20, 0x00	; 0
    3c50:	50 e0       	ldi	r21, 0x00	; 0
    3c52:	60 e0       	ldi	r22, 0x00	; 0
    3c54:	70 e0       	ldi	r23, 0x00	; 0
    3c56:	19 95       	eicall
    3c58:	1f 91       	pop	r17
    3c5a:	0f 91       	pop	r16
    3c5c:	ff 90       	pop	r15
    3c5e:	ef 90       	pop	r14
    3c60:	08 95       	ret

00003c62 <_ZN12Adafruit_GFX8drawLineEiiiij>:
    3c62:	8f 92       	push	r8
    3c64:	9f 92       	push	r9
    3c66:	af 92       	push	r10
    3c68:	bf 92       	push	r11
    3c6a:	cf 92       	push	r12
    3c6c:	df 92       	push	r13
    3c6e:	ef 92       	push	r14
    3c70:	ff 92       	push	r15
    3c72:	0f 93       	push	r16
    3c74:	1f 93       	push	r17
    3c76:	cf 93       	push	r28
    3c78:	df 93       	push	r29
    3c7a:	4c 01       	movw	r8, r24
    3c7c:	6b 01       	movw	r12, r22
    3c7e:	5a 01       	movw	r10, r20
    3c80:	e9 01       	movw	r28, r18
    3c82:	dc 01       	movw	r26, r24
    3c84:	ed 91       	ld	r30, X+
    3c86:	fc 91       	ld	r31, X
    3c88:	62 17       	cp	r22, r18
    3c8a:	73 07       	cpc	r23, r19
    3c8c:	81 f4       	brne	.+32     	; 0x3cae <_ZN12Adafruit_GFX8drawLineEiiiij+0x4c>
    3c8e:	04 17       	cp	r16, r20
    3c90:	15 07       	cpc	r17, r21
    3c92:	24 f4       	brge	.+8      	; 0x3c9c <_ZN12Adafruit_GFX8drawLineEiiiij+0x3a>
    3c94:	8b 2d       	mov	r24, r11
    3c96:	58 01       	movw	r10, r16
    3c98:	04 2f       	mov	r16, r20
    3c9a:	18 2f       	mov	r17, r24
    3c9c:	0a 19       	sub	r16, r10
    3c9e:	1b 09       	sbc	r17, r11
    3ca0:	98 01       	movw	r18, r16
    3ca2:	2f 5f       	subi	r18, 0xFF	; 255
    3ca4:	3f 4f       	sbci	r19, 0xFF	; 255
    3ca6:	04 8c       	ldd	r0, Z+28	; 0x1c
    3ca8:	f5 8d       	ldd	r31, Z+29	; 0x1d
    3caa:	e0 2d       	mov	r30, r0
    3cac:	12 c0       	rjmp	.+36     	; 0x3cd2 <_ZN12Adafruit_GFX8drawLineEiiiij+0x70>
    3cae:	40 17       	cp	r20, r16
    3cb0:	51 07       	cpc	r21, r17
    3cb2:	09 f5       	brne	.+66     	; 0x3cf6 <_ZN12Adafruit_GFX8drawLineEiiiij+0x94>
    3cb4:	26 17       	cp	r18, r22
    3cb6:	37 07       	cpc	r19, r23
    3cb8:	24 f4       	brge	.+8      	; 0x3cc2 <_ZN12Adafruit_GFX8drawLineEiiiij+0x60>
    3cba:	8d 2d       	mov	r24, r13
    3cbc:	69 01       	movw	r12, r18
    3cbe:	c6 2f       	mov	r28, r22
    3cc0:	d8 2f       	mov	r29, r24
    3cc2:	9e 01       	movw	r18, r28
    3cc4:	2c 19       	sub	r18, r12
    3cc6:	3d 09       	sbc	r19, r13
    3cc8:	2f 5f       	subi	r18, 0xFF	; 255
    3cca:	3f 4f       	sbci	r19, 0xFF	; 255
    3ccc:	06 8c       	ldd	r0, Z+30	; 0x1e
    3cce:	f7 8d       	ldd	r31, Z+31	; 0x1f
    3cd0:	e0 2d       	mov	r30, r0
    3cd2:	87 01       	movw	r16, r14
    3cd4:	a5 01       	movw	r20, r10
    3cd6:	b6 01       	movw	r22, r12
    3cd8:	c4 01       	movw	r24, r8
    3cda:	19 95       	eicall
    3cdc:	df 91       	pop	r29
    3cde:	cf 91       	pop	r28
    3ce0:	1f 91       	pop	r17
    3ce2:	0f 91       	pop	r16
    3ce4:	ff 90       	pop	r15
    3ce6:	ef 90       	pop	r14
    3ce8:	df 90       	pop	r13
    3cea:	cf 90       	pop	r12
    3cec:	bf 90       	pop	r11
    3cee:	af 90       	pop	r10
    3cf0:	9f 90       	pop	r9
    3cf2:	8f 90       	pop	r8
    3cf4:	08 95       	ret
    3cf6:	02 84       	ldd	r0, Z+10	; 0x0a
    3cf8:	f3 85       	ldd	r31, Z+11	; 0x0b
    3cfa:	e0 2d       	mov	r30, r0
    3cfc:	19 95       	eicall
    3cfe:	d4 01       	movw	r26, r8
    3d00:	ed 91       	ld	r30, X+
    3d02:	fc 91       	ld	r31, X
    3d04:	04 88       	ldd	r0, Z+20	; 0x14
    3d06:	f5 89       	ldd	r31, Z+21	; 0x15
    3d08:	e0 2d       	mov	r30, r0
    3d0a:	9e 01       	movw	r18, r28
    3d0c:	a5 01       	movw	r20, r10
    3d0e:	b6 01       	movw	r22, r12
    3d10:	c4 01       	movw	r24, r8
    3d12:	19 95       	eicall
    3d14:	d4 01       	movw	r26, r8
    3d16:	ed 91       	ld	r30, X+
    3d18:	fc 91       	ld	r31, X
    3d1a:	06 88       	ldd	r0, Z+22	; 0x16
    3d1c:	f7 89       	ldd	r31, Z+23	; 0x17
    3d1e:	e0 2d       	mov	r30, r0
    3d20:	c4 01       	movw	r24, r8
    3d22:	df 91       	pop	r29
    3d24:	cf 91       	pop	r28
    3d26:	1f 91       	pop	r17
    3d28:	0f 91       	pop	r16
    3d2a:	ff 90       	pop	r15
    3d2c:	ef 90       	pop	r14
    3d2e:	df 90       	pop	r13
    3d30:	cf 90       	pop	r12
    3d32:	bf 90       	pop	r11
    3d34:	af 90       	pop	r10
    3d36:	9f 90       	pop	r9
    3d38:	8f 90       	pop	r8
    3d3a:	19 94       	eijmp

00003d3c <_ZN12Adafruit_GFX8drawRectEiiiij>:
    3d3c:	6f 92       	push	r6
    3d3e:	7f 92       	push	r7
    3d40:	8f 92       	push	r8
    3d42:	9f 92       	push	r9
    3d44:	af 92       	push	r10
    3d46:	bf 92       	push	r11
    3d48:	cf 92       	push	r12
    3d4a:	df 92       	push	r13
    3d4c:	ef 92       	push	r14
    3d4e:	ff 92       	push	r15
    3d50:	0f 93       	push	r16
    3d52:	1f 93       	push	r17
    3d54:	cf 93       	push	r28
    3d56:	df 93       	push	r29
    3d58:	ec 01       	movw	r28, r24
    3d5a:	4b 01       	movw	r8, r22
    3d5c:	5a 01       	movw	r10, r20
    3d5e:	69 01       	movw	r12, r18
    3d60:	38 01       	movw	r6, r16
    3d62:	e8 81       	ld	r30, Y
    3d64:	f9 81       	ldd	r31, Y+1	; 0x01
    3d66:	02 84       	ldd	r0, Z+10	; 0x0a
    3d68:	f3 85       	ldd	r31, Z+11	; 0x0b
    3d6a:	e0 2d       	mov	r30, r0
    3d6c:	19 95       	eicall
    3d6e:	e8 81       	ld	r30, Y
    3d70:	f9 81       	ldd	r31, Y+1	; 0x01
    3d72:	02 88       	ldd	r0, Z+18	; 0x12
    3d74:	f3 89       	ldd	r31, Z+19	; 0x13
    3d76:	e0 2d       	mov	r30, r0
    3d78:	87 01       	movw	r16, r14
    3d7a:	96 01       	movw	r18, r12
    3d7c:	a5 01       	movw	r20, r10
    3d7e:	b4 01       	movw	r22, r8
    3d80:	ce 01       	movw	r24, r28
    3d82:	19 95       	eicall
    3d84:	a5 01       	movw	r20, r10
    3d86:	46 0d       	add	r20, r6
    3d88:	57 1d       	adc	r21, r7
    3d8a:	41 50       	subi	r20, 0x01	; 1
    3d8c:	51 09       	sbc	r21, r1
    3d8e:	e8 81       	ld	r30, Y
    3d90:	f9 81       	ldd	r31, Y+1	; 0x01
    3d92:	02 88       	ldd	r0, Z+18	; 0x12
    3d94:	f3 89       	ldd	r31, Z+19	; 0x13
    3d96:	e0 2d       	mov	r30, r0
    3d98:	96 01       	movw	r18, r12
    3d9a:	b4 01       	movw	r22, r8
    3d9c:	ce 01       	movw	r24, r28
    3d9e:	19 95       	eicall
    3da0:	e8 81       	ld	r30, Y
    3da2:	f9 81       	ldd	r31, Y+1	; 0x01
    3da4:	00 88       	ldd	r0, Z+16	; 0x10
    3da6:	f1 89       	ldd	r31, Z+17	; 0x11
    3da8:	e0 2d       	mov	r30, r0
    3daa:	93 01       	movw	r18, r6
    3dac:	a5 01       	movw	r20, r10
    3dae:	b4 01       	movw	r22, r8
    3db0:	ce 01       	movw	r24, r28
    3db2:	19 95       	eicall
    3db4:	c8 0c       	add	r12, r8
    3db6:	d9 1c       	adc	r13, r9
    3db8:	b6 01       	movw	r22, r12
    3dba:	61 50       	subi	r22, 0x01	; 1
    3dbc:	71 09       	sbc	r23, r1
    3dbe:	e8 81       	ld	r30, Y
    3dc0:	f9 81       	ldd	r31, Y+1	; 0x01
    3dc2:	00 88       	ldd	r0, Z+16	; 0x10
    3dc4:	f1 89       	ldd	r31, Z+17	; 0x11
    3dc6:	e0 2d       	mov	r30, r0
    3dc8:	93 01       	movw	r18, r6
    3dca:	a5 01       	movw	r20, r10
    3dcc:	ce 01       	movw	r24, r28
    3dce:	19 95       	eicall
    3dd0:	e8 81       	ld	r30, Y
    3dd2:	f9 81       	ldd	r31, Y+1	; 0x01
    3dd4:	06 88       	ldd	r0, Z+22	; 0x16
    3dd6:	f7 89       	ldd	r31, Z+23	; 0x17
    3dd8:	e0 2d       	mov	r30, r0
    3dda:	ce 01       	movw	r24, r28
    3ddc:	df 91       	pop	r29
    3dde:	cf 91       	pop	r28
    3de0:	1f 91       	pop	r17
    3de2:	0f 91       	pop	r16
    3de4:	ff 90       	pop	r15
    3de6:	ef 90       	pop	r14
    3de8:	df 90       	pop	r13
    3dea:	cf 90       	pop	r12
    3dec:	bf 90       	pop	r11
    3dee:	af 90       	pop	r10
    3df0:	9f 90       	pop	r9
    3df2:	8f 90       	pop	r8
    3df4:	7f 90       	pop	r7
    3df6:	6f 90       	pop	r6
    3df8:	19 94       	eijmp

00003dfa <_ZN12Adafruit_GFX13invertDisplayEb>:
    3dfa:	08 95       	ret

00003dfc <_ZN12Adafruit_GFX11setRotationEh>:
    3dfc:	fc 01       	movw	r30, r24
    3dfe:	63 70       	andi	r22, 0x03	; 3
    3e00:	66 8b       	std	Z+22, r22	; 0x16
    3e02:	84 81       	ldd	r24, Z+4	; 0x04
    3e04:	95 81       	ldd	r25, Z+5	; 0x05
    3e06:	26 81       	ldd	r18, Z+6	; 0x06
    3e08:	37 81       	ldd	r19, Z+7	; 0x07
    3e0a:	61 30       	cpi	r22, 0x01	; 1
    3e0c:	39 f0       	breq	.+14     	; 0x3e1c <_ZN12Adafruit_GFX11setRotationEh+0x20>
    3e0e:	63 30       	cpi	r22, 0x03	; 3
    3e10:	29 f0       	breq	.+10     	; 0x3e1c <_ZN12Adafruit_GFX11setRotationEh+0x20>
    3e12:	91 87       	std	Z+9, r25	; 0x09
    3e14:	80 87       	std	Z+8, r24	; 0x08
    3e16:	33 87       	std	Z+11, r19	; 0x0b
    3e18:	22 87       	std	Z+10, r18	; 0x0a
    3e1a:	08 95       	ret
    3e1c:	31 87       	std	Z+9, r19	; 0x09
    3e1e:	20 87       	std	Z+8, r18	; 0x08
    3e20:	93 87       	std	Z+11, r25	; 0x0b
    3e22:	82 87       	std	Z+10, r24	; 0x0a
    3e24:	08 95       	ret

00003e26 <_ZN12Adafruit_GFXC1Eii>:
    3e26:	fc 01       	movw	r30, r24
    3e28:	13 82       	std	Z+3, r1	; 0x03
    3e2a:	12 82       	std	Z+2, r1	; 0x02
    3e2c:	88 e5       	ldi	r24, 0x58	; 88
    3e2e:	94 e0       	ldi	r25, 0x04	; 4
    3e30:	91 83       	std	Z+1, r25	; 0x01
    3e32:	80 83       	st	Z, r24
    3e34:	75 83       	std	Z+5, r23	; 0x05
    3e36:	64 83       	std	Z+4, r22	; 0x04
    3e38:	57 83       	std	Z+7, r21	; 0x07
    3e3a:	46 83       	std	Z+6, r20	; 0x06
    3e3c:	71 87       	std	Z+9, r23	; 0x09
    3e3e:	60 87       	std	Z+8, r22	; 0x08
    3e40:	53 87       	std	Z+11, r21	; 0x0b
    3e42:	42 87       	std	Z+10, r20	; 0x0a
    3e44:	16 8a       	std	Z+22, r1	; 0x16
    3e46:	15 86       	std	Z+13, r1	; 0x0d
    3e48:	14 86       	std	Z+12, r1	; 0x0c
    3e4a:	17 86       	std	Z+15, r1	; 0x0f
    3e4c:	16 86       	std	Z+14, r1	; 0x0e
    3e4e:	81 e0       	ldi	r24, 0x01	; 1
    3e50:	85 8b       	std	Z+21, r24	; 0x15
    3e52:	84 8b       	std	Z+20, r24	; 0x14
    3e54:	2f ef       	ldi	r18, 0xFF	; 255
    3e56:	3f ef       	ldi	r19, 0xFF	; 255
    3e58:	33 8b       	std	Z+19, r19	; 0x13
    3e5a:	22 8b       	std	Z+18, r18	; 0x12
    3e5c:	31 8b       	std	Z+17, r19	; 0x11
    3e5e:	20 8b       	std	Z+16, r18	; 0x10
    3e60:	87 8b       	std	Z+23, r24	; 0x17
    3e62:	10 8e       	std	Z+24, r1	; 0x18
    3e64:	12 8e       	std	Z+26, r1	; 0x1a
    3e66:	11 8e       	std	Z+25, r1	; 0x19
    3e68:	08 95       	ret

00003e6a <_ZN12Adafruit_GFX8drawCharEiihjjhh>:
    3e6a:	2f 92       	push	r2
    3e6c:	3f 92       	push	r3
    3e6e:	4f 92       	push	r4
    3e70:	5f 92       	push	r5
    3e72:	6f 92       	push	r6
    3e74:	7f 92       	push	r7
    3e76:	8f 92       	push	r8
    3e78:	9f 92       	push	r9
    3e7a:	af 92       	push	r10
    3e7c:	bf 92       	push	r11
    3e7e:	cf 92       	push	r12
    3e80:	df 92       	push	r13
    3e82:	ef 92       	push	r14
    3e84:	ff 92       	push	r15
    3e86:	0f 93       	push	r16
    3e88:	1f 93       	push	r17
    3e8a:	cf 93       	push	r28
    3e8c:	df 93       	push	r29
    3e8e:	cd b7       	in	r28, 0x3d	; 61
    3e90:	de b7       	in	r29, 0x3e	; 62
    3e92:	6b 97       	sbiw	r28, 0x1b	; 27
    3e94:	0f b6       	in	r0, 0x3f	; 63
    3e96:	f8 94       	cli
    3e98:	de bf       	out	0x3e, r29	; 62
    3e9a:	0f be       	out	0x3f, r0	; 63
    3e9c:	cd bf       	out	0x3d, r28	; 61
    3e9e:	9b 8f       	std	Y+27, r25	; 0x1b
    3ea0:	8a 8f       	std	Y+26, r24	; 0x1a
    3ea2:	2b 01       	movw	r4, r22
    3ea4:	5a 83       	std	Y+2, r21	; 0x02
    3ea6:	49 83       	std	Y+1, r20	; 0x01
    3ea8:	d2 2e       	mov	r13, r18
    3eaa:	19 87       	std	Y+9, r17	; 0x09
    3eac:	08 87       	std	Y+8, r16	; 0x08
    3eae:	47 01       	movw	r8, r14
    3eb0:	ab 82       	std	Y+3, r10	; 0x03
    3eb2:	dc 01       	movw	r26, r24
    3eb4:	59 96       	adiw	r26, 0x19	; 25
    3eb6:	2d 91       	ld	r18, X+
    3eb8:	3c 91       	ld	r19, X
    3eba:	5a 97       	sbiw	r26, 0x1a	; 26
    3ebc:	21 15       	cp	r18, r1
    3ebe:	31 05       	cpc	r19, r1
    3ec0:	09 f0       	breq	.+2      	; 0x3ec4 <_ZN12Adafruit_GFX8drawCharEiihjjhh+0x5a>
    3ec2:	00 c1       	rjmp	.+512    	; 0x40c4 <_ZN12Adafruit_GFX8drawCharEiihjjhh+0x25a>
    3ec4:	18 96       	adiw	r26, 0x08	; 8
    3ec6:	8d 91       	ld	r24, X+
    3ec8:	9c 91       	ld	r25, X
    3eca:	19 97       	sbiw	r26, 0x09	; 9
    3ecc:	68 17       	cp	r22, r24
    3ece:	79 07       	cpc	r23, r25
    3ed0:	0c f0       	brlt	.+2      	; 0x3ed4 <_ZN12Adafruit_GFX8drawCharEiihjjhh+0x6a>
    3ed2:	e7 c1       	rjmp	.+974    	; 0x42a2 <_ZN12Adafruit_GFX8drawCharEiihjjhh+0x438>
    3ed4:	1a 96       	adiw	r26, 0x0a	; 10
    3ed6:	8d 91       	ld	r24, X+
    3ed8:	9c 91       	ld	r25, X
    3eda:	1b 97       	sbiw	r26, 0x0b	; 11
    3edc:	48 17       	cp	r20, r24
    3ede:	59 07       	cpc	r21, r25
    3ee0:	0c f0       	brlt	.+2      	; 0x3ee4 <_ZN12Adafruit_GFX8drawCharEiihjjhh+0x7a>
    3ee2:	df c1       	rjmp	.+958    	; 0x42a2 <_ZN12Adafruit_GFX8drawCharEiihjjhh+0x438>
    3ee4:	2c 2c       	mov	r2, r12
    3ee6:	31 2c       	mov	r3, r1
    3ee8:	fb 01       	movw	r30, r22
    3eea:	26 e0       	ldi	r18, 0x06	; 6
    3eec:	c2 9e       	mul	r12, r18
    3eee:	e0 0d       	add	r30, r0
    3ef0:	f1 1d       	adc	r31, r1
    3ef2:	11 24       	eor	r1, r1
    3ef4:	fd 87       	std	Y+13, r31	; 0x0d
    3ef6:	ec 87       	std	Y+12, r30	; 0x0c
    3ef8:	1e 16       	cp	r1, r30
    3efa:	1f 06       	cpc	r1, r31
    3efc:	0c f0       	brlt	.+2      	; 0x3f00 <_ZN12Adafruit_GFX8drawCharEiihjjhh+0x96>
    3efe:	d1 c1       	rjmp	.+930    	; 0x42a2 <_ZN12Adafruit_GFX8drawCharEiihjjhh+0x438>
    3f00:	4a 2d       	mov	r20, r10
    3f02:	50 e0       	ldi	r21, 0x00	; 0
    3f04:	5b 87       	std	Y+11, r21	; 0x0b
    3f06:	4a 87       	std	Y+10, r20	; 0x0a
    3f08:	83 e0       	ldi	r24, 0x03	; 3
    3f0a:	44 0f       	add	r20, r20
    3f0c:	55 1f       	adc	r21, r21
    3f0e:	8a 95       	dec	r24
    3f10:	e1 f7       	brne	.-8      	; 0x3f0a <_ZN12Adafruit_GFX8drawCharEiihjjhh+0xa0>
    3f12:	5f 87       	std	Y+15, r21	; 0x0f
    3f14:	4e 87       	std	Y+14, r20	; 0x0e
    3f16:	89 81       	ldd	r24, Y+1	; 0x01
    3f18:	9a 81       	ldd	r25, Y+2	; 0x02
    3f1a:	84 0f       	add	r24, r20
    3f1c:	95 1f       	adc	r25, r21
    3f1e:	18 16       	cp	r1, r24
    3f20:	19 06       	cpc	r1, r25
    3f22:	0c f0       	brlt	.+2      	; 0x3f26 <_ZN12Adafruit_GFX8drawCharEiihjjhh+0xbc>
    3f24:	be c1       	rjmp	.+892    	; 0x42a2 <_ZN12Adafruit_GFX8drawCharEiihjjhh+0x438>
    3f26:	58 96       	adiw	r26, 0x18	; 24
    3f28:	8c 91       	ld	r24, X
    3f2a:	81 11       	cpse	r24, r1
    3f2c:	04 c0       	rjmp	.+8      	; 0x3f36 <_ZN12Adafruit_GFX8drawCharEiihjjhh+0xcc>
    3f2e:	6f ea       	ldi	r22, 0xAF	; 175
    3f30:	6d 15       	cp	r22, r13
    3f32:	08 f4       	brcc	.+2      	; 0x3f36 <_ZN12Adafruit_GFX8drawCharEiihjjhh+0xcc>
    3f34:	d3 94       	inc	r13
    3f36:	aa 8d       	ldd	r26, Y+26	; 0x1a
    3f38:	bb 8d       	ldd	r27, Y+27	; 0x1b
    3f3a:	ed 91       	ld	r30, X+
    3f3c:	fc 91       	ld	r31, X
    3f3e:	11 97       	sbiw	r26, 0x01	; 1
    3f40:	02 84       	ldd	r0, Z+10	; 0x0a
    3f42:	f3 85       	ldd	r31, Z+11	; 0x0b
    3f44:	e0 2d       	mov	r30, r0
    3f46:	cd 01       	movw	r24, r26
    3f48:	19 95       	eicall
    3f4a:	b5 e0       	ldi	r27, 0x05	; 5
    3f4c:	db 9e       	mul	r13, r27
    3f4e:	c0 01       	movw	r24, r0
    3f50:	11 24       	eor	r1, r1
    3f52:	ec 2d       	mov	r30, r12
    3f54:	f0 e0       	ldi	r31, 0x00	; 0
    3f56:	f9 8b       	std	Y+17, r31	; 0x11
    3f58:	e8 8b       	std	Y+16, r30	; 0x10
    3f5a:	92 01       	movw	r18, r4
    3f5c:	2b 5f       	subi	r18, 0xFB	; 251
    3f5e:	3f 4f       	sbci	r19, 0xFF	; 255
    3f60:	3b 8b       	std	Y+19, r19	; 0x13
    3f62:	2a 8b       	std	Y+18, r18	; 0x12
    3f64:	32 01       	movw	r6, r4
    3f66:	5d 82       	std	Y+5, r5	; 0x05
    3f68:	4c 82       	std	Y+4, r4	; 0x04
    3f6a:	ac 01       	movw	r20, r24
    3f6c:	44 19       	sub	r20, r4
    3f6e:	55 09       	sbc	r21, r5
    3f70:	5d 8b       	std	Y+21, r21	; 0x15
    3f72:	4c 8b       	std	Y+20, r20	; 0x14
    3f74:	7b 81       	ldd	r23, Y+3	; 0x03
    3f76:	67 2f       	mov	r22, r23
    3f78:	70 e0       	ldi	r23, 0x00	; 0
    3f7a:	7f 8b       	std	Y+23, r23	; 0x17
    3f7c:	6e 8b       	std	Y+22, r22	; 0x16
    3f7e:	89 81       	ldd	r24, Y+1	; 0x01
    3f80:	9a 81       	ldd	r25, Y+2	; 0x02
    3f82:	08 96       	adiw	r24, 0x08	; 8
    3f84:	99 8f       	std	Y+25, r25	; 0x19
    3f86:	88 8f       	std	Y+24, r24	; 0x18
    3f88:	ec 89       	ldd	r30, Y+20	; 0x14
    3f8a:	fd 89       	ldd	r31, Y+21	; 0x15
    3f8c:	e6 0d       	add	r30, r6
    3f8e:	f7 1d       	adc	r31, r7
    3f90:	e7 5a       	subi	r30, 0xA7	; 167
    3f92:	fd 4f       	sbci	r31, 0xFD	; 253
    3f94:	d4 90       	lpm	r13, Z
    3f96:	a9 81       	ldd	r26, Y+1	; 0x01
    3f98:	ba 81       	ldd	r27, Y+2	; 0x02
    3f9a:	bf 83       	std	Y+7, r27	; 0x07
    3f9c:	ae 83       	std	Y+6, r26	; 0x06
    3f9e:	5d 01       	movw	r10, r26
    3fa0:	d0 fe       	sbrs	r13, 0
    3fa2:	16 c0       	rjmp	.+44     	; 0x3fd0 <_ZN12Adafruit_GFX8drawCharEiihjjhh+0x166>
    3fa4:	aa 8d       	ldd	r26, Y+26	; 0x1a
    3fa6:	bb 8d       	ldd	r27, Y+27	; 0x1b
    3fa8:	ed 91       	ld	r30, X+
    3faa:	fc 91       	ld	r31, X
    3fac:	b1 e0       	ldi	r27, 0x01	; 1
    3fae:	cb 12       	cpse	r12, r27
    3fb0:	09 c0       	rjmp	.+18     	; 0x3fc4 <_ZN12Adafruit_GFX8drawCharEiihjjhh+0x15a>
    3fb2:	2b 81       	ldd	r18, Y+3	; 0x03
    3fb4:	21 30       	cpi	r18, 0x01	; 1
    3fb6:	31 f4       	brne	.+12     	; 0x3fc4 <_ZN12Adafruit_GFX8drawCharEiihjjhh+0x15a>
    3fb8:	04 84       	ldd	r0, Z+12	; 0x0c
    3fba:	f5 85       	ldd	r31, Z+13	; 0x0d
    3fbc:	e0 2d       	mov	r30, r0
    3fbe:	28 85       	ldd	r18, Y+8	; 0x08
    3fc0:	39 85       	ldd	r19, Y+9	; 0x09
    3fc2:	19 c0       	rjmp	.+50     	; 0x3ff6 <_ZN12Adafruit_GFX8drawCharEiihjjhh+0x18c>
    3fc4:	06 84       	ldd	r0, Z+14	; 0x0e
    3fc6:	f7 85       	ldd	r31, Z+15	; 0x0f
    3fc8:	e0 2d       	mov	r30, r0
    3fca:	e8 84       	ldd	r14, Y+8	; 0x08
    3fcc:	f9 84       	ldd	r15, Y+9	; 0x09
    3fce:	1d c0       	rjmp	.+58     	; 0x400a <_ZN12Adafruit_GFX8drawCharEiihjjhh+0x1a0>
    3fd0:	48 85       	ldd	r20, Y+8	; 0x08
    3fd2:	59 85       	ldd	r21, Y+9	; 0x09
    3fd4:	48 15       	cp	r20, r8
    3fd6:	59 05       	cpc	r21, r9
    3fd8:	11 f1       	breq	.+68     	; 0x401e <_ZN12Adafruit_GFX8drawCharEiihjjhh+0x1b4>
    3fda:	aa 8d       	ldd	r26, Y+26	; 0x1a
    3fdc:	bb 8d       	ldd	r27, Y+27	; 0x1b
    3fde:	ed 91       	ld	r30, X+
    3fe0:	fc 91       	ld	r31, X
    3fe2:	b1 e0       	ldi	r27, 0x01	; 1
    3fe4:	cb 12       	cpse	r12, r27
    3fe6:	0d c0       	rjmp	.+26     	; 0x4002 <_ZN12Adafruit_GFX8drawCharEiihjjhh+0x198>
    3fe8:	2b 81       	ldd	r18, Y+3	; 0x03
    3fea:	21 30       	cpi	r18, 0x01	; 1
    3fec:	51 f4       	brne	.+20     	; 0x4002 <_ZN12Adafruit_GFX8drawCharEiihjjhh+0x198>
    3fee:	04 84       	ldd	r0, Z+12	; 0x0c
    3ff0:	f5 85       	ldd	r31, Z+13	; 0x0d
    3ff2:	e0 2d       	mov	r30, r0
    3ff4:	94 01       	movw	r18, r8
    3ff6:	a5 01       	movw	r20, r10
    3ff8:	b3 01       	movw	r22, r6
    3ffa:	8a 8d       	ldd	r24, Y+26	; 0x1a
    3ffc:	9b 8d       	ldd	r25, Y+27	; 0x1b
    3ffe:	19 95       	eicall
    4000:	0e c0       	rjmp	.+28     	; 0x401e <_ZN12Adafruit_GFX8drawCharEiihjjhh+0x1b4>
    4002:	06 84       	ldd	r0, Z+14	; 0x0e
    4004:	f7 85       	ldd	r31, Z+15	; 0x0f
    4006:	e0 2d       	mov	r30, r0
    4008:	74 01       	movw	r14, r8
    400a:	0a 85       	ldd	r16, Y+10	; 0x0a
    400c:	1b 85       	ldd	r17, Y+11	; 0x0b
    400e:	91 01       	movw	r18, r2
    4010:	4e 81       	ldd	r20, Y+6	; 0x06
    4012:	5f 81       	ldd	r21, Y+7	; 0x07
    4014:	6c 81       	ldd	r22, Y+4	; 0x04
    4016:	7d 81       	ldd	r23, Y+5	; 0x05
    4018:	8a 8d       	ldd	r24, Y+26	; 0x1a
    401a:	9b 8d       	ldd	r25, Y+27	; 0x1b
    401c:	19 95       	eicall
    401e:	d6 94       	lsr	r13
    4020:	4e 81       	ldd	r20, Y+6	; 0x06
    4022:	5f 81       	ldd	r21, Y+7	; 0x07
    4024:	6e 89       	ldd	r22, Y+22	; 0x16
    4026:	7f 89       	ldd	r23, Y+23	; 0x17
    4028:	46 0f       	add	r20, r22
    402a:	57 1f       	adc	r21, r23
    402c:	5f 83       	std	Y+7, r21	; 0x07
    402e:	4e 83       	std	Y+6, r20	; 0x06
    4030:	7f ef       	ldi	r23, 0xFF	; 255
    4032:	a7 1a       	sub	r10, r23
    4034:	b7 0a       	sbc	r11, r23
    4036:	88 8d       	ldd	r24, Y+24	; 0x18
    4038:	99 8d       	ldd	r25, Y+25	; 0x19
    403a:	a8 16       	cp	r10, r24
    403c:	b9 06       	cpc	r11, r25
    403e:	09 f0       	breq	.+2      	; 0x4042 <_ZN12Adafruit_GFX8drawCharEiihjjhh+0x1d8>
    4040:	af cf       	rjmp	.-162    	; 0x3fa0 <_ZN12Adafruit_GFX8drawCharEiihjjhh+0x136>
    4042:	ac 81       	ldd	r26, Y+4	; 0x04
    4044:	bd 81       	ldd	r27, Y+5	; 0x05
    4046:	e8 89       	ldd	r30, Y+16	; 0x10
    4048:	f9 89       	ldd	r31, Y+17	; 0x11
    404a:	ae 0f       	add	r26, r30
    404c:	bf 1f       	adc	r27, r31
    404e:	bd 83       	std	Y+5, r27	; 0x05
    4050:	ac 83       	std	Y+4, r26	; 0x04
    4052:	ff ef       	ldi	r31, 0xFF	; 255
    4054:	6f 1a       	sub	r6, r31
    4056:	7f 0a       	sbc	r7, r31
    4058:	2a 89       	ldd	r18, Y+18	; 0x12
    405a:	3b 89       	ldd	r19, Y+19	; 0x13
    405c:	62 16       	cp	r6, r18
    405e:	73 06       	cpc	r7, r19
    4060:	09 f0       	breq	.+2      	; 0x4064 <_ZN12Adafruit_GFX8drawCharEiihjjhh+0x1fa>
    4062:	92 cf       	rjmp	.-220    	; 0x3f88 <_ZN12Adafruit_GFX8drawCharEiihjjhh+0x11e>
    4064:	48 85       	ldd	r20, Y+8	; 0x08
    4066:	59 85       	ldd	r21, Y+9	; 0x09
    4068:	48 15       	cp	r20, r8
    406a:	59 05       	cpc	r21, r9
    406c:	09 f4       	brne	.+2      	; 0x4070 <_ZN12Adafruit_GFX8drawCharEiihjjhh+0x206>
    406e:	f7 c0       	rjmp	.+494    	; 0x425e <_ZN12Adafruit_GFX8drawCharEiihjjhh+0x3f4>
    4070:	aa 8d       	ldd	r26, Y+26	; 0x1a
    4072:	bb 8d       	ldd	r27, Y+27	; 0x1b
    4074:	ed 91       	ld	r30, X+
    4076:	fc 91       	ld	r31, X
    4078:	b1 e0       	ldi	r27, 0x01	; 1
    407a:	cb 12       	cpse	r12, r27
    407c:	12 c0       	rjmp	.+36     	; 0x40a2 <_ZN12Adafruit_GFX8drawCharEiihjjhh+0x238>
    407e:	2b 81       	ldd	r18, Y+3	; 0x03
    4080:	21 30       	cpi	r18, 0x01	; 1
    4082:	79 f4       	brne	.+30     	; 0x40a2 <_ZN12Adafruit_GFX8drawCharEiihjjhh+0x238>
    4084:	b2 01       	movw	r22, r4
    4086:	6b 5f       	subi	r22, 0xFB	; 251
    4088:	7f 4f       	sbci	r23, 0xFF	; 255
    408a:	00 88       	ldd	r0, Z+16	; 0x10
    408c:	f1 89       	ldd	r31, Z+17	; 0x11
    408e:	e0 2d       	mov	r30, r0
    4090:	84 01       	movw	r16, r8
    4092:	28 e0       	ldi	r18, 0x08	; 8
    4094:	30 e0       	ldi	r19, 0x00	; 0
    4096:	49 81       	ldd	r20, Y+1	; 0x01
    4098:	5a 81       	ldd	r21, Y+2	; 0x02
    409a:	8a 8d       	ldd	r24, Y+26	; 0x1a
    409c:	9b 8d       	ldd	r25, Y+27	; 0x1b
    409e:	19 95       	eicall
    40a0:	de c0       	rjmp	.+444    	; 0x425e <_ZN12Adafruit_GFX8drawCharEiihjjhh+0x3f4>
    40a2:	6c 85       	ldd	r22, Y+12	; 0x0c
    40a4:	7d 85       	ldd	r23, Y+13	; 0x0d
    40a6:	62 19       	sub	r22, r2
    40a8:	73 09       	sbc	r23, r3
    40aa:	06 84       	ldd	r0, Z+14	; 0x0e
    40ac:	f7 85       	ldd	r31, Z+15	; 0x0f
    40ae:	e0 2d       	mov	r30, r0
    40b0:	74 01       	movw	r14, r8
    40b2:	0e 85       	ldd	r16, Y+14	; 0x0e
    40b4:	1f 85       	ldd	r17, Y+15	; 0x0f
    40b6:	91 01       	movw	r18, r2
    40b8:	49 81       	ldd	r20, Y+1	; 0x01
    40ba:	5a 81       	ldd	r21, Y+2	; 0x02
    40bc:	8a 8d       	ldd	r24, Y+26	; 0x1a
    40be:	9b 8d       	ldd	r25, Y+27	; 0x1b
    40c0:	19 95       	eicall
    40c2:	cd c0       	rjmp	.+410    	; 0x425e <_ZN12Adafruit_GFX8drawCharEiihjjhh+0x3f4>
    40c4:	f9 01       	movw	r30, r18
    40c6:	34 96       	adiw	r30, 0x04	; 4
    40c8:	e4 91       	lpm	r30, Z
    40ca:	de 1a       	sub	r13, r30
    40cc:	f9 01       	movw	r30, r18
    40ce:	32 96       	adiw	r30, 0x02	; 2
    40d0:	85 91       	lpm	r24, Z+
    40d2:	94 91       	lpm	r25, Z
    40d4:	b7 e0       	ldi	r27, 0x07	; 7
    40d6:	db 9e       	mul	r13, r27
    40d8:	80 0d       	add	r24, r0
    40da:	91 1d       	adc	r25, r1
    40dc:	11 24       	eor	r1, r1
    40de:	f9 01       	movw	r30, r18
    40e0:	25 91       	lpm	r18, Z+
    40e2:	34 91       	lpm	r19, Z
    40e4:	39 8b       	std	Y+17, r19	; 0x11
    40e6:	28 8b       	std	Y+16, r18	; 0x10
    40e8:	fc 01       	movw	r30, r24
    40ea:	25 90       	lpm	r2, Z+
    40ec:	34 90       	lpm	r3, Z
    40ee:	fc 01       	movw	r30, r24
    40f0:	32 96       	adiw	r30, 0x02	; 2
    40f2:	74 90       	lpm	r7, Z
    40f4:	31 96       	adiw	r30, 0x01	; 1
    40f6:	a4 90       	lpm	r10, Z
    40f8:	32 96       	adiw	r30, 0x02	; 2
    40fa:	94 90       	lpm	r9, Z
    40fc:	31 96       	adiw	r30, 0x01	; 1
    40fe:	b4 90       	lpm	r11, Z
    4100:	31 e0       	ldi	r19, 0x01	; 1
    4102:	3c 15       	cp	r19, r12
    4104:	18 f0       	brcs	.+6      	; 0x410c <_ZN12Adafruit_GFX8drawCharEiihjjhh+0x2a2>
    4106:	4b 81       	ldd	r20, Y+3	; 0x03
    4108:	42 30       	cpi	r20, 0x02	; 2
    410a:	68 f0       	brcs	.+26     	; 0x4126 <_ZN12Adafruit_GFX8drawCharEiihjjhh+0x2bc>
    410c:	69 2d       	mov	r22, r9
    410e:	09 2c       	mov	r0, r9
    4110:	00 0c       	add	r0, r0
    4112:	77 0b       	sbc	r23, r23
    4114:	7d 83       	std	Y+5, r23	; 0x05
    4116:	6c 83       	std	Y+4, r22	; 0x04
    4118:	8b 2d       	mov	r24, r11
    411a:	0b 2c       	mov	r0, r11
    411c:	00 0c       	add	r0, r0
    411e:	99 0b       	sbc	r25, r25
    4120:	9f 83       	std	Y+7, r25	; 0x07
    4122:	8e 83       	std	Y+6, r24	; 0x06
    4124:	04 c0       	rjmp	.+8      	; 0x412e <_ZN12Adafruit_GFX8drawCharEiihjjhh+0x2c4>
    4126:	1f 82       	std	Y+7, r1	; 0x07
    4128:	1e 82       	std	Y+6, r1	; 0x06
    412a:	1d 82       	std	Y+5, r1	; 0x05
    412c:	1c 82       	std	Y+4, r1	; 0x04
    412e:	aa 8d       	ldd	r26, Y+26	; 0x1a
    4130:	bb 8d       	ldd	r27, Y+27	; 0x1b
    4132:	ed 91       	ld	r30, X+
    4134:	fc 91       	ld	r31, X
    4136:	11 97       	sbiw	r26, 0x01	; 1
    4138:	02 84       	ldd	r0, Z+10	; 0x0a
    413a:	f3 85       	ldd	r31, Z+11	; 0x0b
    413c:	e0 2d       	mov	r30, r0
    413e:	cd 01       	movw	r24, r26
    4140:	19 95       	eicall
    4142:	61 2c       	mov	r6, r1
    4144:	d1 2c       	mov	r13, r1
    4146:	81 2c       	mov	r8, r1
    4148:	fb 81       	ldd	r31, Y+3	; 0x03
    414a:	ef 2f       	mov	r30, r31
    414c:	f0 e0       	ldi	r31, 0x00	; 0
    414e:	fb 87       	std	Y+11, r31	; 0x0b
    4150:	ea 87       	std	Y+10, r30	; 0x0a
    4152:	2c 2d       	mov	r18, r12
    4154:	30 e0       	ldi	r19, 0x00	; 0
    4156:	3d 87       	std	Y+13, r19	; 0x0d
    4158:	2c 87       	std	Y+12, r18	; 0x0c
    415a:	49 81       	ldd	r20, Y+1	; 0x01
    415c:	5a 81       	ldd	r21, Y+2	; 0x02
    415e:	4b 0d       	add	r20, r11
    4160:	51 1d       	adc	r21, r1
    4162:	b7 fc       	sbrc	r11, 7
    4164:	5a 95       	dec	r21
    4166:	5d 8b       	std	Y+21, r21	; 0x15
    4168:	4c 8b       	std	Y+20, r20	; 0x14
    416a:	b2 01       	movw	r22, r4
    416c:	69 0d       	add	r22, r9
    416e:	71 1d       	adc	r23, r1
    4170:	97 fc       	sbrc	r9, 7
    4172:	7a 95       	dec	r23
    4174:	7f 8b       	std	Y+23, r23	; 0x17
    4176:	6e 8b       	std	Y+22, r22	; 0x16
    4178:	8a 14       	cp	r8, r10
    417a:	08 f0       	brcs	.+2      	; 0x417e <_ZN12Adafruit_GFX8drawCharEiihjjhh+0x314>
    417c:	70 c0       	rjmp	.+224    	; 0x425e <_ZN12Adafruit_GFX8drawCharEiihjjhh+0x3f4>
    417e:	28 2d       	mov	r18, r8
    4180:	30 e0       	ldi	r19, 0x00	; 0
    4182:	4e 81       	ldd	r20, Y+6	; 0x06
    4184:	5f 81       	ldd	r21, Y+7	; 0x07
    4186:	42 0f       	add	r20, r18
    4188:	53 1f       	adc	r21, r19
    418a:	aa 85       	ldd	r26, Y+10	; 0x0a
    418c:	bb 85       	ldd	r27, Y+11	; 0x0b
    418e:	a4 9f       	mul	r26, r20
    4190:	c0 01       	movw	r24, r0
    4192:	a5 9f       	mul	r26, r21
    4194:	90 0d       	add	r25, r0
    4196:	b4 9f       	mul	r27, r20
    4198:	90 0d       	add	r25, r0
    419a:	11 24       	eor	r1, r1
    419c:	e9 81       	ldd	r30, Y+1	; 0x01
    419e:	fa 81       	ldd	r31, Y+2	; 0x02
    41a0:	e8 0f       	add	r30, r24
    41a2:	f9 1f       	adc	r31, r25
    41a4:	ff 87       	std	Y+15, r31	; 0x0f
    41a6:	ee 87       	std	Y+14, r30	; 0x0e
    41a8:	86 2d       	mov	r24, r6
    41aa:	91 2c       	mov	r9, r1
    41ac:	4c 89       	ldd	r20, Y+20	; 0x14
    41ae:	5d 89       	ldd	r21, Y+21	; 0x15
    41b0:	42 0f       	add	r20, r18
    41b2:	53 1f       	adc	r21, r19
    41b4:	5b 8b       	std	Y+19, r21	; 0x13
    41b6:	4a 8b       	std	Y+18, r20	; 0x12
    41b8:	97 14       	cp	r9, r7
    41ba:	08 f0       	brcs	.+2      	; 0x41be <_ZN12Adafruit_GFX8drawCharEiihjjhh+0x354>
    41bc:	4d c0       	rjmp	.+154    	; 0x4258 <_ZN12Adafruit_GFX8drawCharEiihjjhh+0x3ee>
    41be:	bb 24       	eor	r11, r11
    41c0:	b3 94       	inc	r11
    41c2:	b8 0e       	add	r11, r24
    41c4:	87 70       	andi	r24, 0x07	; 7
    41c6:	41 f4       	brne	.+16     	; 0x41d8 <_ZN12Adafruit_GFX8drawCharEiihjjhh+0x36e>
    41c8:	c1 01       	movw	r24, r2
    41ca:	01 96       	adiw	r24, 0x01	; 1
    41cc:	e8 89       	ldd	r30, Y+16	; 0x10
    41ce:	f9 89       	ldd	r31, Y+17	; 0x11
    41d0:	e2 0d       	add	r30, r2
    41d2:	f3 1d       	adc	r31, r3
    41d4:	d4 90       	lpm	r13, Z
    41d6:	1c 01       	movw	r2, r24
    41d8:	d7 fe       	sbrs	r13, 7
    41da:	3a c0       	rjmp	.+116    	; 0x4250 <_ZN12Adafruit_GFX8drawCharEiihjjhh+0x3e6>
    41dc:	51 e0       	ldi	r21, 0x01	; 1
    41de:	c5 12       	cpse	r12, r21
    41e0:	16 c0       	rjmp	.+44     	; 0x420e <_ZN12Adafruit_GFX8drawCharEiihjjhh+0x3a4>
    41e2:	6b 81       	ldd	r22, Y+3	; 0x03
    41e4:	61 30       	cpi	r22, 0x01	; 1
    41e6:	99 f4       	brne	.+38     	; 0x420e <_ZN12Adafruit_GFX8drawCharEiihjjhh+0x3a4>
    41e8:	aa 8d       	ldd	r26, Y+26	; 0x1a
    41ea:	bb 8d       	ldd	r27, Y+27	; 0x1b
    41ec:	ed 91       	ld	r30, X+
    41ee:	fc 91       	ld	r31, X
    41f0:	11 97       	sbiw	r26, 0x01	; 1
    41f2:	04 84       	ldd	r0, Z+12	; 0x0c
    41f4:	f5 85       	ldd	r31, Z+13	; 0x0d
    41f6:	e0 2d       	mov	r30, r0
    41f8:	28 85       	ldd	r18, Y+8	; 0x08
    41fa:	39 85       	ldd	r19, Y+9	; 0x09
    41fc:	4a 89       	ldd	r20, Y+18	; 0x12
    41fe:	5b 89       	ldd	r21, Y+19	; 0x13
    4200:	6e 89       	ldd	r22, Y+22	; 0x16
    4202:	7f 89       	ldd	r23, Y+23	; 0x17
    4204:	69 0d       	add	r22, r9
    4206:	71 1d       	adc	r23, r1
    4208:	cd 01       	movw	r24, r26
    420a:	19 95       	eicall
    420c:	21 c0       	rjmp	.+66     	; 0x4250 <_ZN12Adafruit_GFX8drawCharEiihjjhh+0x3e6>
    420e:	8c 81       	ldd	r24, Y+4	; 0x04
    4210:	9d 81       	ldd	r25, Y+5	; 0x05
    4212:	89 0d       	add	r24, r9
    4214:	91 1d       	adc	r25, r1
    4216:	ec 85       	ldd	r30, Y+12	; 0x0c
    4218:	fd 85       	ldd	r31, Y+13	; 0x0d
    421a:	8e 9f       	mul	r24, r30
    421c:	b0 01       	movw	r22, r0
    421e:	8f 9f       	mul	r24, r31
    4220:	70 0d       	add	r23, r0
    4222:	9e 9f       	mul	r25, r30
    4224:	70 0d       	add	r23, r0
    4226:	11 24       	eor	r1, r1
    4228:	64 0d       	add	r22, r4
    422a:	75 1d       	adc	r23, r5
    422c:	aa 8d       	ldd	r26, Y+26	; 0x1a
    422e:	bb 8d       	ldd	r27, Y+27	; 0x1b
    4230:	ed 91       	ld	r30, X+
    4232:	fc 91       	ld	r31, X
    4234:	11 97       	sbiw	r26, 0x01	; 1
    4236:	06 84       	ldd	r0, Z+14	; 0x0e
    4238:	f7 85       	ldd	r31, Z+15	; 0x0f
    423a:	e0 2d       	mov	r30, r0
    423c:	e8 84       	ldd	r14, Y+8	; 0x08
    423e:	f9 84       	ldd	r15, Y+9	; 0x09
    4240:	0a 85       	ldd	r16, Y+10	; 0x0a
    4242:	1b 85       	ldd	r17, Y+11	; 0x0b
    4244:	2c 85       	ldd	r18, Y+12	; 0x0c
    4246:	3d 85       	ldd	r19, Y+13	; 0x0d
    4248:	4e 85       	ldd	r20, Y+14	; 0x0e
    424a:	5f 85       	ldd	r21, Y+15	; 0x0f
    424c:	cd 01       	movw	r24, r26
    424e:	19 95       	eicall
    4250:	dd 0c       	add	r13, r13
    4252:	93 94       	inc	r9
    4254:	8b 2d       	mov	r24, r11
    4256:	b0 cf       	rjmp	.-160    	; 0x41b8 <_ZN12Adafruit_GFX8drawCharEiihjjhh+0x34e>
    4258:	67 0c       	add	r6, r7
    425a:	83 94       	inc	r8
    425c:	8d cf       	rjmp	.-230    	; 0x4178 <_ZN12Adafruit_GFX8drawCharEiihjjhh+0x30e>
    425e:	aa 8d       	ldd	r26, Y+26	; 0x1a
    4260:	bb 8d       	ldd	r27, Y+27	; 0x1b
    4262:	ed 91       	ld	r30, X+
    4264:	fc 91       	ld	r31, X
    4266:	11 97       	sbiw	r26, 0x01	; 1
    4268:	06 88       	ldd	r0, Z+22	; 0x16
    426a:	f7 89       	ldd	r31, Z+23	; 0x17
    426c:	e0 2d       	mov	r30, r0
    426e:	cd 01       	movw	r24, r26
    4270:	6b 96       	adiw	r28, 0x1b	; 27
    4272:	0f b6       	in	r0, 0x3f	; 63
    4274:	f8 94       	cli
    4276:	de bf       	out	0x3e, r29	; 62
    4278:	0f be       	out	0x3f, r0	; 63
    427a:	cd bf       	out	0x3d, r28	; 61
    427c:	df 91       	pop	r29
    427e:	cf 91       	pop	r28
    4280:	1f 91       	pop	r17
    4282:	0f 91       	pop	r16
    4284:	ff 90       	pop	r15
    4286:	ef 90       	pop	r14
    4288:	df 90       	pop	r13
    428a:	cf 90       	pop	r12
    428c:	bf 90       	pop	r11
    428e:	af 90       	pop	r10
    4290:	9f 90       	pop	r9
    4292:	8f 90       	pop	r8
    4294:	7f 90       	pop	r7
    4296:	6f 90       	pop	r6
    4298:	5f 90       	pop	r5
    429a:	4f 90       	pop	r4
    429c:	3f 90       	pop	r3
    429e:	2f 90       	pop	r2
    42a0:	19 94       	eijmp
    42a2:	6b 96       	adiw	r28, 0x1b	; 27
    42a4:	0f b6       	in	r0, 0x3f	; 63
    42a6:	f8 94       	cli
    42a8:	de bf       	out	0x3e, r29	; 62
    42aa:	0f be       	out	0x3f, r0	; 63
    42ac:	cd bf       	out	0x3d, r28	; 61
    42ae:	df 91       	pop	r29
    42b0:	cf 91       	pop	r28
    42b2:	1f 91       	pop	r17
    42b4:	0f 91       	pop	r16
    42b6:	ff 90       	pop	r15
    42b8:	ef 90       	pop	r14
    42ba:	df 90       	pop	r13
    42bc:	cf 90       	pop	r12
    42be:	bf 90       	pop	r11
    42c0:	af 90       	pop	r10
    42c2:	9f 90       	pop	r9
    42c4:	8f 90       	pop	r8
    42c6:	7f 90       	pop	r7
    42c8:	6f 90       	pop	r6
    42ca:	5f 90       	pop	r5
    42cc:	4f 90       	pop	r4
    42ce:	3f 90       	pop	r3
    42d0:	2f 90       	pop	r2
    42d2:	08 95       	ret

000042d4 <_ZN12Adafruit_GFX5writeEh>:
    42d4:	8f 92       	push	r8
    42d6:	9f 92       	push	r9
    42d8:	af 92       	push	r10
    42da:	cf 92       	push	r12
    42dc:	ef 92       	push	r14
    42de:	ff 92       	push	r15
    42e0:	0f 93       	push	r16
    42e2:	1f 93       	push	r17
    42e4:	cf 93       	push	r28
    42e6:	df 93       	push	r29
    42e8:	ec 01       	movw	r28, r24
    42ea:	26 2f       	mov	r18, r22
    42ec:	89 8d       	ldd	r24, Y+25	; 0x19
    42ee:	9a 8d       	ldd	r25, Y+26	; 0x1a
    42f0:	00 97       	sbiw	r24, 0x00	; 0
    42f2:	09 f0       	breq	.+2      	; 0x42f6 <_ZN12Adafruit_GFX5writeEh+0x22>
    42f4:	41 c0       	rjmp	.+130    	; 0x4378 <_ZN12Adafruit_GFX5writeEh+0xa4>
    42f6:	6a 30       	cpi	r22, 0x0A	; 10
    42f8:	59 f4       	brne	.+22     	; 0x4310 <_ZN12Adafruit_GFX5writeEh+0x3c>
    42fa:	1d 86       	std	Y+13, r1	; 0x0d
    42fc:	1c 86       	std	Y+12, r1	; 0x0c
    42fe:	2d 89       	ldd	r18, Y+21	; 0x15
    4300:	8e 85       	ldd	r24, Y+14	; 0x0e
    4302:	9f 85       	ldd	r25, Y+15	; 0x0f
    4304:	38 e0       	ldi	r19, 0x08	; 8
    4306:	23 9f       	mul	r18, r19
    4308:	80 0d       	add	r24, r0
    430a:	91 1d       	adc	r25, r1
    430c:	11 24       	eor	r1, r1
    430e:	42 c0       	rjmp	.+132    	; 0x4394 <_ZN12Adafruit_GFX5writeEh+0xc0>
    4310:	6d 30       	cpi	r22, 0x0D	; 13
    4312:	09 f4       	brne	.+2      	; 0x4316 <_ZN12Adafruit_GFX5writeEh+0x42>
    4314:	a8 c0       	rjmp	.+336    	; 0x4466 <_ZN12Adafruit_GFX5writeEh+0x192>
    4316:	8f 89       	ldd	r24, Y+23	; 0x17
    4318:	88 23       	and	r24, r24
    431a:	c9 f0       	breq	.+50     	; 0x434e <_ZN12Adafruit_GFX5writeEh+0x7a>
    431c:	3c 89       	ldd	r19, Y+20	; 0x14
    431e:	8c 85       	ldd	r24, Y+12	; 0x0c
    4320:	9d 85       	ldd	r25, Y+13	; 0x0d
    4322:	46 e0       	ldi	r20, 0x06	; 6
    4324:	34 9f       	mul	r19, r20
    4326:	80 0d       	add	r24, r0
    4328:	91 1d       	adc	r25, r1
    432a:	11 24       	eor	r1, r1
    432c:	48 85       	ldd	r20, Y+8	; 0x08
    432e:	59 85       	ldd	r21, Y+9	; 0x09
    4330:	48 17       	cp	r20, r24
    4332:	59 07       	cpc	r21, r25
    4334:	64 f4       	brge	.+24     	; 0x434e <_ZN12Adafruit_GFX5writeEh+0x7a>
    4336:	1d 86       	std	Y+13, r1	; 0x0d
    4338:	1c 86       	std	Y+12, r1	; 0x0c
    433a:	3d 89       	ldd	r19, Y+21	; 0x15
    433c:	8e 85       	ldd	r24, Y+14	; 0x0e
    433e:	9f 85       	ldd	r25, Y+15	; 0x0f
    4340:	48 e0       	ldi	r20, 0x08	; 8
    4342:	34 9f       	mul	r19, r20
    4344:	80 0d       	add	r24, r0
    4346:	91 1d       	adc	r25, r1
    4348:	11 24       	eor	r1, r1
    434a:	9f 87       	std	Y+15, r25	; 0x0f
    434c:	8e 87       	std	Y+14, r24	; 0x0e
    434e:	ea 88       	ldd	r14, Y+18	; 0x12
    4350:	fb 88       	ldd	r15, Y+19	; 0x13
    4352:	08 89       	ldd	r16, Y+16	; 0x10
    4354:	19 89       	ldd	r17, Y+17	; 0x11
    4356:	4e 85       	ldd	r20, Y+14	; 0x0e
    4358:	5f 85       	ldd	r21, Y+15	; 0x0f
    435a:	6c 85       	ldd	r22, Y+12	; 0x0c
    435c:	7d 85       	ldd	r23, Y+13	; 0x0d
    435e:	ad 88       	ldd	r10, Y+21	; 0x15
    4360:	cc 88       	ldd	r12, Y+20	; 0x14
    4362:	ce 01       	movw	r24, r28
    4364:	82 dd       	rcall	.-1276   	; 0x3e6a <_ZN12Adafruit_GFX8drawCharEiihjjhh>
    4366:	2c 89       	ldd	r18, Y+20	; 0x14
    4368:	8c 85       	ldd	r24, Y+12	; 0x0c
    436a:	9d 85       	ldd	r25, Y+13	; 0x0d
    436c:	36 e0       	ldi	r19, 0x06	; 6
    436e:	23 9f       	mul	r18, r19
    4370:	80 0d       	add	r24, r0
    4372:	91 1d       	adc	r25, r1
    4374:	11 24       	eor	r1, r1
    4376:	3e c0       	rjmp	.+124    	; 0x43f4 <_ZN12Adafruit_GFX5writeEh+0x120>
    4378:	6a 30       	cpi	r22, 0x0A	; 10
    437a:	79 f4       	brne	.+30     	; 0x439a <_ZN12Adafruit_GFX5writeEh+0xc6>
    437c:	1d 86       	std	Y+13, r1	; 0x0d
    437e:	1c 86       	std	Y+12, r1	; 0x0c
    4380:	2d 89       	ldd	r18, Y+21	; 0x15
    4382:	fc 01       	movw	r30, r24
    4384:	36 96       	adiw	r30, 0x06	; 6
    4386:	e4 91       	lpm	r30, Z
    4388:	8e 85       	ldd	r24, Y+14	; 0x0e
    438a:	9f 85       	ldd	r25, Y+15	; 0x0f
    438c:	2e 9f       	mul	r18, r30
    438e:	80 0d       	add	r24, r0
    4390:	91 1d       	adc	r25, r1
    4392:	11 24       	eor	r1, r1
    4394:	9f 87       	std	Y+15, r25	; 0x0f
    4396:	8e 87       	std	Y+14, r24	; 0x0e
    4398:	66 c0       	rjmp	.+204    	; 0x4466 <_ZN12Adafruit_GFX5writeEh+0x192>
    439a:	6d 30       	cpi	r22, 0x0D	; 13
    439c:	09 f4       	brne	.+2      	; 0x43a0 <_ZN12Adafruit_GFX5writeEh+0xcc>
    439e:	63 c0       	rjmp	.+198    	; 0x4466 <_ZN12Adafruit_GFX5writeEh+0x192>
    43a0:	fc 01       	movw	r30, r24
    43a2:	34 96       	adiw	r30, 0x04	; 4
    43a4:	34 91       	lpm	r19, Z
    43a6:	63 17       	cp	r22, r19
    43a8:	08 f4       	brcc	.+2      	; 0x43ac <_ZN12Adafruit_GFX5writeEh+0xd8>
    43aa:	5d c0       	rjmp	.+186    	; 0x4466 <_ZN12Adafruit_GFX5writeEh+0x192>
    43ac:	31 96       	adiw	r30, 0x01	; 1
    43ae:	e4 91       	lpm	r30, Z
    43b0:	e6 17       	cp	r30, r22
    43b2:	08 f4       	brcc	.+2      	; 0x43b6 <_ZN12Adafruit_GFX5writeEh+0xe2>
    43b4:	58 c0       	rjmp	.+176    	; 0x4466 <_ZN12Adafruit_GFX5writeEh+0x192>
    43b6:	46 2f       	mov	r20, r22
    43b8:	43 1b       	sub	r20, r19
    43ba:	34 2f       	mov	r19, r20
    43bc:	fc 01       	movw	r30, r24
    43be:	32 96       	adiw	r30, 0x02	; 2
    43c0:	85 90       	lpm	r8, Z+
    43c2:	94 90       	lpm	r9, Z
    43c4:	47 e0       	ldi	r20, 0x07	; 7
    43c6:	34 9f       	mul	r19, r20
    43c8:	80 0c       	add	r8, r0
    43ca:	91 1c       	adc	r9, r1
    43cc:	11 24       	eor	r1, r1
    43ce:	f4 01       	movw	r30, r8
    43d0:	32 96       	adiw	r30, 0x02	; 2
    43d2:	34 91       	lpm	r19, Z
    43d4:	31 96       	adiw	r30, 0x01	; 1
    43d6:	e4 91       	lpm	r30, Z
    43d8:	33 23       	and	r19, r19
    43da:	11 f0       	breq	.+4      	; 0x43e0 <_ZN12Adafruit_GFX5writeEh+0x10c>
    43dc:	e1 11       	cpse	r30, r1
    43de:	0d c0       	rjmp	.+26     	; 0x43fa <_ZN12Adafruit_GFX5writeEh+0x126>
    43e0:	f4 01       	movw	r30, r8
    43e2:	34 96       	adiw	r30, 0x04	; 4
    43e4:	e4 91       	lpm	r30, Z
    43e6:	2c 89       	ldd	r18, Y+20	; 0x14
    43e8:	8c 85       	ldd	r24, Y+12	; 0x0c
    43ea:	9d 85       	ldd	r25, Y+13	; 0x0d
    43ec:	e2 9f       	mul	r30, r18
    43ee:	80 0d       	add	r24, r0
    43f0:	91 1d       	adc	r25, r1
    43f2:	11 24       	eor	r1, r1
    43f4:	9d 87       	std	Y+13, r25	; 0x0d
    43f6:	8c 87       	std	Y+12, r24	; 0x0c
    43f8:	36 c0       	rjmp	.+108    	; 0x4466 <_ZN12Adafruit_GFX5writeEh+0x192>
    43fa:	f4 01       	movw	r30, r8
    43fc:	35 96       	adiw	r30, 0x05	; 5
    43fe:	44 91       	lpm	r20, Z
    4400:	5f 89       	ldd	r21, Y+23	; 0x17
    4402:	55 23       	and	r21, r21
    4404:	19 f1       	breq	.+70     	; 0x444c <_ZN12Adafruit_GFX5writeEh+0x178>
    4406:	5c 89       	ldd	r21, Y+20	; 0x14
    4408:	e3 2f       	mov	r30, r19
    440a:	f0 e0       	ldi	r31, 0x00	; 0
    440c:	e4 0f       	add	r30, r20
    440e:	f1 1d       	adc	r31, r1
    4410:	47 fd       	sbrc	r20, 7
    4412:	fa 95       	dec	r31
    4414:	5e 9f       	mul	r21, r30
    4416:	b0 01       	movw	r22, r0
    4418:	5f 9f       	mul	r21, r31
    441a:	70 0d       	add	r23, r0
    441c:	11 24       	eor	r1, r1
    441e:	4c 85       	ldd	r20, Y+12	; 0x0c
    4420:	5d 85       	ldd	r21, Y+13	; 0x0d
    4422:	46 0f       	add	r20, r22
    4424:	57 1f       	adc	r21, r23
    4426:	68 85       	ldd	r22, Y+8	; 0x08
    4428:	79 85       	ldd	r23, Y+9	; 0x09
    442a:	64 17       	cp	r22, r20
    442c:	75 07       	cpc	r23, r21
    442e:	74 f4       	brge	.+28     	; 0x444c <_ZN12Adafruit_GFX5writeEh+0x178>
    4430:	1d 86       	std	Y+13, r1	; 0x0d
    4432:	1c 86       	std	Y+12, r1	; 0x0c
    4434:	3d 89       	ldd	r19, Y+21	; 0x15
    4436:	fc 01       	movw	r30, r24
    4438:	36 96       	adiw	r30, 0x06	; 6
    443a:	e4 91       	lpm	r30, Z
    443c:	8e 85       	ldd	r24, Y+14	; 0x0e
    443e:	9f 85       	ldd	r25, Y+15	; 0x0f
    4440:	3e 9f       	mul	r19, r30
    4442:	80 0d       	add	r24, r0
    4444:	91 1d       	adc	r25, r1
    4446:	11 24       	eor	r1, r1
    4448:	9f 87       	std	Y+15, r25	; 0x0f
    444a:	8e 87       	std	Y+14, r24	; 0x0e
    444c:	ea 88       	ldd	r14, Y+18	; 0x12
    444e:	fb 88       	ldd	r15, Y+19	; 0x13
    4450:	08 89       	ldd	r16, Y+16	; 0x10
    4452:	19 89       	ldd	r17, Y+17	; 0x11
    4454:	4e 85       	ldd	r20, Y+14	; 0x0e
    4456:	5f 85       	ldd	r21, Y+15	; 0x0f
    4458:	6c 85       	ldd	r22, Y+12	; 0x0c
    445a:	7d 85       	ldd	r23, Y+13	; 0x0d
    445c:	ad 88       	ldd	r10, Y+21	; 0x15
    445e:	cc 88       	ldd	r12, Y+20	; 0x14
    4460:	ce 01       	movw	r24, r28
    4462:	03 dd       	rcall	.-1530   	; 0x3e6a <_ZN12Adafruit_GFX8drawCharEiihjjhh>
    4464:	bd cf       	rjmp	.-134    	; 0x43e0 <_ZN12Adafruit_GFX5writeEh+0x10c>
    4466:	81 e0       	ldi	r24, 0x01	; 1
    4468:	90 e0       	ldi	r25, 0x00	; 0
    446a:	df 91       	pop	r29
    446c:	cf 91       	pop	r28
    446e:	1f 91       	pop	r17
    4470:	0f 91       	pop	r16
    4472:	ff 90       	pop	r15
    4474:	ef 90       	pop	r14
    4476:	cf 90       	pop	r12
    4478:	af 90       	pop	r10
    447a:	9f 90       	pop	r9
    447c:	8f 90       	pop	r8
    447e:	08 95       	ret

00004480 <_ZN15Adafruit_SPITFT11SPI_CS_HIGHEv>:
    4480:	dc 01       	movw	r26, r24
    4482:	5b 96       	adiw	r26, 0x1b	; 27
    4484:	ed 91       	ld	r30, X+
    4486:	fc 91       	ld	r31, X
    4488:	5c 97       	sbiw	r26, 0x1c	; 28
    448a:	90 81       	ld	r25, Z
    448c:	d1 96       	adiw	r26, 0x31	; 49
    448e:	8c 91       	ld	r24, X
    4490:	89 2b       	or	r24, r25
    4492:	80 83       	st	Z, r24
    4494:	08 95       	ret

00004496 <_ZN15Adafruit_SPITFT8endWriteEv>:
    4496:	cf 93       	push	r28
    4498:	df 93       	push	r29
    449a:	ec 01       	movw	r28, r24
    449c:	8f a9       	ldd	r24, Y+55	; 0x37
    449e:	87 fd       	sbrc	r24, 7
    44a0:	02 c0       	rjmp	.+4      	; 0x44a6 <_ZN15Adafruit_SPITFT8endWriteEv+0x10>
    44a2:	ce 01       	movw	r24, r28
    44a4:	ed df       	rcall	.-38     	; 0x4480 <_ZN15Adafruit_SPITFT11SPI_CS_HIGHEv>
    44a6:	8d a9       	ldd	r24, Y+53	; 0x35
    44a8:	81 11       	cpse	r24, r1
    44aa:	04 c0       	rjmp	.+8      	; 0x44b4 <_ZN15Adafruit_SPITFT8endWriteEv+0x1e>
    44ac:	df 91       	pop	r29
    44ae:	cf 91       	pop	r28
    44b0:	0c 94 12 15 	jmp	0x2a24	; 0x2a24 <_ZN8SPIClass14endTransactionEv>
    44b4:	df 91       	pop	r29
    44b6:	cf 91       	pop	r28
    44b8:	08 95       	ret

000044ba <_ZN15Adafruit_SPITFT10SPI_CS_LOWEv>:
    44ba:	dc 01       	movw	r26, r24
    44bc:	5b 96       	adiw	r26, 0x1b	; 27
    44be:	ed 91       	ld	r30, X+
    44c0:	fc 91       	ld	r31, X
    44c2:	5c 97       	sbiw	r26, 0x1c	; 28
    44c4:	90 81       	ld	r25, Z
    44c6:	d2 96       	adiw	r26, 0x32	; 50
    44c8:	8c 91       	ld	r24, X
    44ca:	89 23       	and	r24, r25
    44cc:	80 83       	st	Z, r24
    44ce:	08 95       	ret

000044d0 <_ZN15Adafruit_SPITFT11SPI_DC_HIGHEv>:
    44d0:	dc 01       	movw	r26, r24
    44d2:	5d 96       	adiw	r26, 0x1d	; 29
    44d4:	ed 91       	ld	r30, X+
    44d6:	fc 91       	ld	r31, X
    44d8:	5e 97       	sbiw	r26, 0x1e	; 30
    44da:	90 81       	ld	r25, Z
    44dc:	d3 96       	adiw	r26, 0x33	; 51
    44de:	8c 91       	ld	r24, X
    44e0:	89 2b       	or	r24, r25
    44e2:	80 83       	st	Z, r24
    44e4:	08 95       	ret

000044e6 <_ZN15Adafruit_SPITFT10SPI_DC_LOWEv>:
    44e6:	dc 01       	movw	r26, r24
    44e8:	5d 96       	adiw	r26, 0x1d	; 29
    44ea:	ed 91       	ld	r30, X+
    44ec:	fc 91       	ld	r31, X
    44ee:	5e 97       	sbiw	r26, 0x1e	; 30
    44f0:	90 81       	ld	r25, Z
    44f2:	d4 96       	adiw	r26, 0x34	; 52
    44f4:	8c 91       	ld	r24, X
    44f6:	89 23       	and	r24, r25
    44f8:	80 83       	st	Z, r24
    44fa:	08 95       	ret

000044fc <_ZN15Adafruit_SPITFTC1EjjP8SPIClassaaa>:
    44fc:	af 92       	push	r10
    44fe:	bf 92       	push	r11
    4500:	cf 92       	push	r12
    4502:	ef 92       	push	r14
    4504:	0f 93       	push	r16
    4506:	1f 93       	push	r17
    4508:	cf 93       	push	r28
    450a:	df 93       	push	r29
    450c:	ec 01       	movw	r28, r24
    450e:	59 01       	movw	r10, r18
    4510:	8a dc       	rcall	.-1772   	; 0x3e26 <_ZN12Adafruit_GFXC1Eii>
    4512:	84 e8       	ldi	r24, 0x84	; 132
    4514:	94 e0       	ldi	r25, 0x04	; 4
    4516:	99 83       	std	Y+1, r25	; 0x01
    4518:	88 83       	st	Y, r24
    451a:	1d aa       	std	Y+53, r1	; 0x35
    451c:	ce aa       	std	Y+54, r12	; 0x36
    451e:	0f ab       	std	Y+55, r16	; 0x37
    4520:	e8 ae       	std	Y+56, r14	; 0x38
    4522:	1a ae       	std	Y+58, r1	; 0x3a
    4524:	19 ae       	std	Y+57, r1	; 0x39
    4526:	1c ae       	std	Y+60, r1	; 0x3c
    4528:	1b ae       	std	Y+59, r1	; 0x3b
    452a:	1d ae       	std	Y+61, r1	; 0x3d
    452c:	1e ae       	std	Y+62, r1	; 0x3e
    452e:	fe 01       	movw	r30, r28
    4530:	ff 96       	adiw	r30, 0x3f	; 63
    4532:	10 82       	st	Z, r1
    4534:	11 82       	std	Z+1, r1	; 0x01
    4536:	12 82       	std	Z+2, r1	; 0x02
    4538:	13 82       	std	Z+3, r1	; 0x03
    453a:	b8 a2       	std	Y+32, r11	; 0x20
    453c:	af 8e       	std	Y+31, r10	; 0x1f
    453e:	8e 2d       	mov	r24, r14
    4540:	ee 0c       	add	r14, r14
    4542:	99 0b       	sbc	r25, r25
    4544:	fc 01       	movw	r30, r24
    4546:	eb 54       	subi	r30, 0x4B	; 75
    4548:	fe 4f       	sbci	r31, 0xFE	; 254
    454a:	e4 91       	lpm	r30, Z
    454c:	f0 e0       	ldi	r31, 0x00	; 0
    454e:	ee 0f       	add	r30, r30
    4550:	ff 1f       	adc	r31, r31
    4552:	eb 5e       	subi	r30, 0xEB	; 235
    4554:	fd 4f       	sbci	r31, 0xFD	; 253
    4556:	25 91       	lpm	r18, Z+
    4558:	34 91       	lpm	r19, Z
    455a:	3e 8f       	std	Y+30, r19	; 0x1e
    455c:	2d 8f       	std	Y+29, r18	; 0x1d
    455e:	fc 01       	movw	r30, r24
    4560:	e1 59       	subi	r30, 0x91	; 145
    4562:	fe 4f       	sbci	r31, 0xFE	; 254
    4564:	84 91       	lpm	r24, Z
    4566:	8b ab       	std	Y+51, r24	; 0x33
    4568:	07 fd       	sbrc	r16, 7
    456a:	16 c0       	rjmp	.+44     	; 0x4598 <_ZN15Adafruit_SPITFTC1EjjP8SPIClassaaa+0x9c>
    456c:	00 2e       	mov	r0, r16
    456e:	00 0c       	add	r0, r0
    4570:	11 0b       	sbc	r17, r17
    4572:	f8 01       	movw	r30, r16
    4574:	eb 54       	subi	r30, 0x4B	; 75
    4576:	fe 4f       	sbci	r31, 0xFE	; 254
    4578:	e4 91       	lpm	r30, Z
    457a:	f0 e0       	ldi	r31, 0x00	; 0
    457c:	ee 0f       	add	r30, r30
    457e:	ff 1f       	adc	r31, r31
    4580:	eb 5e       	subi	r30, 0xEB	; 235
    4582:	fd 4f       	sbci	r31, 0xFD	; 253
    4584:	25 91       	lpm	r18, Z+
    4586:	34 91       	lpm	r19, Z
    4588:	3c 8f       	std	Y+28, r19	; 0x1c
    458a:	2b 8f       	std	Y+27, r18	; 0x1b
    458c:	f8 01       	movw	r30, r16
    458e:	e1 59       	subi	r30, 0x91	; 145
    4590:	fe 4f       	sbci	r31, 0xFE	; 254
    4592:	04 91       	lpm	r16, Z
    4594:	09 ab       	std	Y+49, r16	; 0x31
    4596:	03 c0       	rjmp	.+6      	; 0x459e <_ZN15Adafruit_SPITFTC1EjjP8SPIClassaaa+0xa2>
    4598:	3c 8f       	std	Y+28, r19	; 0x1c
    459a:	2b 8f       	std	Y+27, r18	; 0x1b
    459c:	19 aa       	std	Y+49, r1	; 0x31
    459e:	99 a9       	ldd	r25, Y+49	; 0x31
    45a0:	90 95       	com	r25
    45a2:	9a ab       	std	Y+50, r25	; 0x32
    45a4:	80 95       	com	r24
    45a6:	8c ab       	std	Y+52, r24	; 0x34
    45a8:	df 91       	pop	r29
    45aa:	cf 91       	pop	r28
    45ac:	1f 91       	pop	r17
    45ae:	0f 91       	pop	r16
    45b0:	ef 90       	pop	r14
    45b2:	cf 90       	pop	r12
    45b4:	bf 90       	pop	r11
    45b6:	af 90       	pop	r10
    45b8:	08 95       	ret

000045ba <_ZN15Adafruit_SPITFTC1Ejjaaa>:
    45ba:	cf 92       	push	r12
    45bc:	ef 92       	push	r14
    45be:	0f 93       	push	r16
    45c0:	ce 2c       	mov	r12, r14
    45c2:	e0 2e       	mov	r14, r16
    45c4:	02 2f       	mov	r16, r18
    45c6:	21 ed       	ldi	r18, 0xD1	; 209
    45c8:	3c e0       	ldi	r19, 0x0C	; 12
    45ca:	98 df       	rcall	.-208    	; 0x44fc <_ZN15Adafruit_SPITFTC1EjjP8SPIClassaaa>
    45cc:	0f 91       	pop	r16
    45ce:	ef 90       	pop	r14
    45d0:	cf 90       	pop	r12
    45d2:	08 95       	ret

000045d4 <_ZN15Adafruit_SPITFT7initSPIEmh>:
    45d4:	8f 92       	push	r8
    45d6:	9f 92       	push	r9
    45d8:	af 92       	push	r10
    45da:	bf 92       	push	r11
    45dc:	df 92       	push	r13
    45de:	ef 92       	push	r14
    45e0:	ff 92       	push	r15
    45e2:	0f 93       	push	r16
    45e4:	1f 93       	push	r17
    45e6:	cf 93       	push	r28
    45e8:	df 93       	push	r29
    45ea:	1f 92       	push	r1
    45ec:	1f 92       	push	r1
    45ee:	cd b7       	in	r28, 0x3d	; 61
    45f0:	de b7       	in	r29, 0x3e	; 62
    45f2:	7c 01       	movw	r14, r24
    45f4:	4a 01       	movw	r8, r20
    45f6:	5b 01       	movw	r10, r22
    45f8:	12 2f       	mov	r17, r18
    45fa:	45 2b       	or	r20, r21
    45fc:	46 2b       	or	r20, r22
    45fe:	47 2b       	or	r20, r23
    4600:	31 f4       	brne	.+12     	; 0x460e <_ZN15Adafruit_SPITFT7initSPIEmh+0x3a>
    4602:	81 2c       	mov	r8, r1
    4604:	92 e1       	ldi	r25, 0x12	; 18
    4606:	99 2e       	mov	r9, r25
    4608:	9a e7       	ldi	r25, 0x7A	; 122
    460a:	a9 2e       	mov	r10, r25
    460c:	b1 2c       	mov	r11, r1
    460e:	f7 01       	movw	r30, r14
    4610:	87 a9       	ldd	r24, Z+55	; 0x37
    4612:	87 fd       	sbrc	r24, 7
    4614:	08 c0       	rjmp	.+16     	; 0x4626 <_ZN15Adafruit_SPITFT7initSPIEmh+0x52>
    4616:	61 e0       	ldi	r22, 0x01	; 1
    4618:	0e 94 4e 12 	call	0x249c	; 0x249c <pinMode>
    461c:	61 e0       	ldi	r22, 0x01	; 1
    461e:	f7 01       	movw	r30, r14
    4620:	87 a9       	ldd	r24, Z+55	; 0x37
    4622:	0e 94 8a 12 	call	0x2514	; 0x2514 <digitalWrite>
    4626:	61 e0       	ldi	r22, 0x01	; 1
    4628:	f7 01       	movw	r30, r14
    462a:	80 ad       	ldd	r24, Z+56	; 0x38
    462c:	0e 94 4e 12 	call	0x249c	; 0x249c <pinMode>
    4630:	61 e0       	ldi	r22, 0x01	; 1
    4632:	f7 01       	movw	r30, r14
    4634:	80 ad       	ldd	r24, Z+56	; 0x38
    4636:	0e 94 8a 12 	call	0x2514	; 0x2514 <digitalWrite>
    463a:	f7 01       	movw	r30, r14
    463c:	85 a9       	ldd	r24, Z+53	; 0x35
    463e:	81 11       	cpse	r24, r1
    4640:	18 c0       	rjmp	.+48     	; 0x4672 <_ZN15Adafruit_SPITFT7initSPIEmh+0x9e>
    4642:	01 2f       	mov	r16, r17
    4644:	21 e0       	ldi	r18, 0x01	; 1
    4646:	b5 01       	movw	r22, r10
    4648:	a4 01       	movw	r20, r8
    464a:	ce 01       	movw	r24, r28
    464c:	01 96       	adiw	r24, 0x01	; 1
    464e:	0e 94 d3 14 	call	0x29a6	; 0x29a6 <_ZN11SPISettingsC1Emhh>
    4652:	89 81       	ldd	r24, Y+1	; 0x01
    4654:	9a 81       	ldd	r25, Y+2	; 0x02
    4656:	f7 01       	movw	r30, r14
    4658:	92 a3       	std	Z+34, r25	; 0x22
    465a:	81 a3       	std	Z+33, r24	; 0x21
    465c:	01 2f       	mov	r16, r17
    465e:	10 e0       	ldi	r17, 0x00	; 0
    4660:	20 e0       	ldi	r18, 0x00	; 0
    4662:	30 e0       	ldi	r19, 0x00	; 0
    4664:	03 a3       	std	Z+35, r16	; 0x23
    4666:	14 a3       	std	Z+36, r17	; 0x24
    4668:	25 a3       	std	Z+37, r18	; 0x25
    466a:	36 a3       	std	Z+38, r19	; 0x26
    466c:	0e 94 18 19 	call	0x3230	; 0x3230 <_ZN8SPIClass5beginEv>
    4670:	55 c0       	rjmp	.+170    	; 0x471c <_ZN15Adafruit_SPITFT7initSPIEmh+0x148>
    4672:	81 30       	cpi	r24, 0x01	; 1
    4674:	e1 f4       	brne	.+56     	; 0x46ae <_ZN15Adafruit_SPITFT7initSPIEmh+0xda>
    4676:	61 e0       	ldi	r22, 0x01	; 1
    4678:	f7 01       	movw	r30, r14
    467a:	82 a5       	ldd	r24, Z+42	; 0x2a
    467c:	0e 94 4e 12 	call	0x249c	; 0x249c <pinMode>
    4680:	60 e0       	ldi	r22, 0x00	; 0
    4682:	f7 01       	movw	r30, r14
    4684:	82 a5       	ldd	r24, Z+42	; 0x2a
    4686:	0e 94 8a 12 	call	0x2514	; 0x2514 <digitalWrite>
    468a:	61 e0       	ldi	r22, 0x01	; 1
    468c:	f7 01       	movw	r30, r14
    468e:	84 a5       	ldd	r24, Z+44	; 0x2c
    4690:	0e 94 4e 12 	call	0x249c	; 0x249c <pinMode>
    4694:	60 e0       	ldi	r22, 0x00	; 0
    4696:	f7 01       	movw	r30, r14
    4698:	84 a5       	ldd	r24, Z+44	; 0x2c
    469a:	0e 94 8a 12 	call	0x2514	; 0x2514 <digitalWrite>
    469e:	f7 01       	movw	r30, r14
    46a0:	83 a5       	ldd	r24, Z+43	; 0x2b
    46a2:	87 fd       	sbrc	r24, 7
    46a4:	3b c0       	rjmp	.+118    	; 0x471c <_ZN15Adafruit_SPITFT7initSPIEmh+0x148>
    46a6:	60 e0       	ldi	r22, 0x00	; 0
    46a8:	0e 94 4e 12 	call	0x249c	; 0x249c <pinMode>
    46ac:	37 c0       	rjmp	.+110    	; 0x471c <_ZN15Adafruit_SPITFT7initSPIEmh+0x148>
    46ae:	05 eb       	ldi	r16, 0xB5	; 181
    46b0:	11 e0       	ldi	r17, 0x01	; 1
    46b2:	d1 2c       	mov	r13, r1
    46b4:	f8 01       	movw	r30, r16
    46b6:	84 91       	lpm	r24, Z
    46b8:	e8 2f       	mov	r30, r24
    46ba:	f0 e0       	ldi	r31, 0x00	; 0
    46bc:	ee 0f       	add	r30, r30
    46be:	ff 1f       	adc	r31, r31
    46c0:	eb 5e       	subi	r30, 0xEB	; 235
    46c2:	fd 4f       	sbci	r31, 0xFD	; 253
    46c4:	85 91       	lpm	r24, Z+
    46c6:	94 91       	lpm	r25, Z
    46c8:	f7 01       	movw	r30, r14
    46ca:	27 8d       	ldd	r18, Z+31	; 0x1f
    46cc:	30 a1       	ldd	r19, Z+32	; 0x20
    46ce:	28 17       	cp	r18, r24
    46d0:	39 07       	cpc	r19, r25
    46d2:	41 f4       	brne	.+16     	; 0x46e4 <_ZN15Adafruit_SPITFT7initSPIEmh+0x110>
    46d4:	61 e0       	ldi	r22, 0x01	; 1
    46d6:	8d 2d       	mov	r24, r13
    46d8:	0e 94 4e 12 	call	0x249c	; 0x249c <pinMode>
    46dc:	60 e0       	ldi	r22, 0x00	; 0
    46de:	8d 2d       	mov	r24, r13
    46e0:	0e 94 8a 12 	call	0x2514	; 0x2514 <digitalWrite>
    46e4:	d3 94       	inc	r13
    46e6:	0f 5f       	subi	r16, 0xFF	; 255
    46e8:	1f 4f       	sbci	r17, 0xFF	; 255
    46ea:	f6 e4       	ldi	r31, 0x46	; 70
    46ec:	df 12       	cpse	r13, r31
    46ee:	e2 cf       	rjmp	.-60     	; 0x46b4 <_ZN15Adafruit_SPITFT7initSPIEmh+0xe0>
    46f0:	61 e0       	ldi	r22, 0x01	; 1
    46f2:	f7 01       	movw	r30, r14
    46f4:	86 a5       	ldd	r24, Z+46	; 0x2e
    46f6:	0e 94 4e 12 	call	0x249c	; 0x249c <pinMode>
    46fa:	61 e0       	ldi	r22, 0x01	; 1
    46fc:	f7 01       	movw	r30, r14
    46fe:	86 a5       	ldd	r24, Z+46	; 0x2e
    4700:	0e 94 8a 12 	call	0x2514	; 0x2514 <digitalWrite>
    4704:	f7 01       	movw	r30, r14
    4706:	87 a5       	ldd	r24, Z+47	; 0x2f
    4708:	87 fd       	sbrc	r24, 7
    470a:	08 c0       	rjmp	.+16     	; 0x471c <_ZN15Adafruit_SPITFT7initSPIEmh+0x148>
    470c:	61 e0       	ldi	r22, 0x01	; 1
    470e:	0e 94 4e 12 	call	0x249c	; 0x249c <pinMode>
    4712:	61 e0       	ldi	r22, 0x01	; 1
    4714:	f7 01       	movw	r30, r14
    4716:	87 a5       	ldd	r24, Z+47	; 0x2f
    4718:	0e 94 8a 12 	call	0x2514	; 0x2514 <digitalWrite>
    471c:	f7 01       	movw	r30, r14
    471e:	86 a9       	ldd	r24, Z+54	; 0x36
    4720:	87 fd       	sbrc	r24, 7
    4722:	24 c0       	rjmp	.+72     	; 0x476c <_ZN15Adafruit_SPITFT7initSPIEmh+0x198>
    4724:	61 e0       	ldi	r22, 0x01	; 1
    4726:	0e 94 4e 12 	call	0x249c	; 0x249c <pinMode>
    472a:	61 e0       	ldi	r22, 0x01	; 1
    472c:	f7 01       	movw	r30, r14
    472e:	86 a9       	ldd	r24, Z+54	; 0x36
    4730:	0e 94 8a 12 	call	0x2514	; 0x2514 <digitalWrite>
    4734:	64 e6       	ldi	r22, 0x64	; 100
    4736:	70 e0       	ldi	r23, 0x00	; 0
    4738:	80 e0       	ldi	r24, 0x00	; 0
    473a:	90 e0       	ldi	r25, 0x00	; 0
    473c:	0e 94 2c 11 	call	0x2258	; 0x2258 <delay>
    4740:	60 e0       	ldi	r22, 0x00	; 0
    4742:	f7 01       	movw	r30, r14
    4744:	86 a9       	ldd	r24, Z+54	; 0x36
    4746:	0e 94 8a 12 	call	0x2514	; 0x2514 <digitalWrite>
    474a:	64 e6       	ldi	r22, 0x64	; 100
    474c:	70 e0       	ldi	r23, 0x00	; 0
    474e:	80 e0       	ldi	r24, 0x00	; 0
    4750:	90 e0       	ldi	r25, 0x00	; 0
    4752:	0e 94 2c 11 	call	0x2258	; 0x2258 <delay>
    4756:	61 e0       	ldi	r22, 0x01	; 1
    4758:	f7 01       	movw	r30, r14
    475a:	86 a9       	ldd	r24, Z+54	; 0x36
    475c:	0e 94 8a 12 	call	0x2514	; 0x2514 <digitalWrite>
    4760:	68 ec       	ldi	r22, 0xC8	; 200
    4762:	70 e0       	ldi	r23, 0x00	; 0
    4764:	80 e0       	ldi	r24, 0x00	; 0
    4766:	90 e0       	ldi	r25, 0x00	; 0
    4768:	0e 94 2c 11 	call	0x2258	; 0x2258 <delay>
    476c:	0f 90       	pop	r0
    476e:	0f 90       	pop	r0
    4770:	df 91       	pop	r29
    4772:	cf 91       	pop	r28
    4774:	1f 91       	pop	r17
    4776:	0f 91       	pop	r16
    4778:	ff 90       	pop	r15
    477a:	ef 90       	pop	r14
    477c:	df 90       	pop	r13
    477e:	bf 90       	pop	r11
    4780:	af 90       	pop	r10
    4782:	9f 90       	pop	r9
    4784:	8f 90       	pop	r8
    4786:	08 95       	ret

00004788 <_ZN15Adafruit_SPITFT21SPI_BEGIN_TRANSACTIONEv>:
    4788:	fc 01       	movw	r30, r24
    478a:	85 a9       	ldd	r24, Z+53	; 0x35
    478c:	81 11       	cpse	r24, r1
    478e:	1b c0       	rjmp	.+54     	; 0x47c6 <_ZN15Adafruit_SPITFT21SPI_BEGIN_TRANSACTIONEv+0x3e>
    4790:	41 a1       	ldd	r20, Z+33	; 0x21
    4792:	32 a1       	ldd	r19, Z+34	; 0x22
    4794:	80 91 cf 0c 	lds	r24, 0x0CCF	; 0x800ccf <_ZN8SPIClass13interruptModeE>
    4798:	88 23       	and	r24, r24
    479a:	99 f0       	breq	.+38     	; 0x47c2 <_ZN15Adafruit_SPITFT21SPI_BEGIN_TRANSACTIONEv+0x3a>
    479c:	2f b7       	in	r18, 0x3f	; 63
    479e:	f8 94       	cli
    47a0:	80 91 cf 0c 	lds	r24, 0x0CCF	; 0x800ccf <_ZN8SPIClass13interruptModeE>
    47a4:	81 30       	cpi	r24, 0x01	; 1
    47a6:	59 f4       	brne	.+22     	; 0x47be <_ZN15Adafruit_SPITFT21SPI_BEGIN_TRANSACTIONEv+0x36>
    47a8:	8d b3       	in	r24, 0x1d	; 29
    47aa:	80 93 cd 0c 	sts	0x0CCD, r24	; 0x800ccd <_ZN8SPIClass13interruptSaveE>
    47ae:	9d b3       	in	r25, 0x1d	; 29
    47b0:	80 91 ce 0c 	lds	r24, 0x0CCE	; 0x800cce <_ZN8SPIClass13interruptMaskE>
    47b4:	80 95       	com	r24
    47b6:	89 23       	and	r24, r25
    47b8:	8d bb       	out	0x1d, r24	; 29
    47ba:	2f bf       	out	0x3f, r18	; 63
    47bc:	02 c0       	rjmp	.+4      	; 0x47c2 <_ZN15Adafruit_SPITFT21SPI_BEGIN_TRANSACTIONEv+0x3a>
    47be:	20 93 cd 0c 	sts	0x0CCD, r18	; 0x800ccd <_ZN8SPIClass13interruptSaveE>
    47c2:	4c bd       	out	0x2c, r20	; 44
    47c4:	3d bd       	out	0x2d, r19	; 45
    47c6:	08 95       	ret

000047c8 <_ZN15Adafruit_SPITFT10startWriteEv>:
    47c8:	cf 93       	push	r28
    47ca:	df 93       	push	r29
    47cc:	ec 01       	movw	r28, r24
    47ce:	dc df       	rcall	.-72     	; 0x4788 <_ZN15Adafruit_SPITFT21SPI_BEGIN_TRANSACTIONEv>
    47d0:	8f a9       	ldd	r24, Y+55	; 0x37
    47d2:	87 fd       	sbrc	r24, 7
    47d4:	04 c0       	rjmp	.+8      	; 0x47de <_ZN15Adafruit_SPITFT10startWriteEv+0x16>
    47d6:	ce 01       	movw	r24, r28
    47d8:	df 91       	pop	r29
    47da:	cf 91       	pop	r28
    47dc:	6e ce       	rjmp	.-804    	; 0x44ba <_ZN15Adafruit_SPITFT10SPI_CS_LOWEv>
    47de:	df 91       	pop	r29
    47e0:	cf 91       	pop	r28
    47e2:	08 95       	ret

000047e4 <_ZN15Adafruit_SPITFT13SPI_MOSI_HIGHEv>:
    47e4:	dc 01       	movw	r26, r24
    47e6:	91 96       	adiw	r26, 0x21	; 33
    47e8:	ed 91       	ld	r30, X+
    47ea:	fc 91       	ld	r31, X
    47ec:	92 97       	sbiw	r26, 0x22	; 34
    47ee:	90 81       	ld	r25, Z
    47f0:	95 96       	adiw	r26, 0x25	; 37
    47f2:	8c 91       	ld	r24, X
    47f4:	89 2b       	or	r24, r25
    47f6:	80 83       	st	Z, r24
    47f8:	08 95       	ret

000047fa <_ZN15Adafruit_SPITFT12SPI_MOSI_LOWEv>:
    47fa:	dc 01       	movw	r26, r24
    47fc:	91 96       	adiw	r26, 0x21	; 33
    47fe:	ed 91       	ld	r30, X+
    4800:	fc 91       	ld	r31, X
    4802:	92 97       	sbiw	r26, 0x22	; 34
    4804:	90 81       	ld	r25, Z
    4806:	96 96       	adiw	r26, 0x26	; 38
    4808:	8c 91       	ld	r24, X
    480a:	89 23       	and	r24, r25
    480c:	80 83       	st	Z, r24
    480e:	08 95       	ret

00004810 <_ZN15Adafruit_SPITFT12SPI_SCK_HIGHEv>:
    4810:	dc 01       	movw	r26, r24
    4812:	93 96       	adiw	r26, 0x23	; 35
    4814:	ed 91       	ld	r30, X+
    4816:	fc 91       	ld	r31, X
    4818:	94 97       	sbiw	r26, 0x24	; 36
    481a:	90 81       	ld	r25, Z
    481c:	97 96       	adiw	r26, 0x27	; 39
    481e:	8c 91       	ld	r24, X
    4820:	89 2b       	or	r24, r25
    4822:	80 83       	st	Z, r24
    4824:	08 95       	ret

00004826 <_ZN15Adafruit_SPITFT11SPI_SCK_LOWEv>:
    4826:	dc 01       	movw	r26, r24
    4828:	93 96       	adiw	r26, 0x23	; 35
    482a:	ed 91       	ld	r30, X+
    482c:	fc 91       	ld	r31, X
    482e:	94 97       	sbiw	r26, 0x24	; 36
    4830:	90 81       	ld	r25, Z
    4832:	98 96       	adiw	r26, 0x28	; 40
    4834:	8c 91       	ld	r24, X
    4836:	89 23       	and	r24, r25
    4838:	80 83       	st	Z, r24
    483a:	08 95       	ret

0000483c <_ZN15Adafruit_SPITFT13TFT_WR_STROBEEv>:
    483c:	fc 01       	movw	r30, r24
    483e:	a5 a1       	ldd	r26, Z+37	; 0x25
    4840:	b6 a1       	ldd	r27, Z+38	; 0x26
    4842:	9c 91       	ld	r25, X
    4844:	82 a5       	ldd	r24, Z+42	; 0x2a
    4846:	89 23       	and	r24, r25
    4848:	8c 93       	st	X, r24
    484a:	a5 a1       	ldd	r26, Z+37	; 0x25
    484c:	b6 a1       	ldd	r27, Z+38	; 0x26
    484e:	9c 91       	ld	r25, X
    4850:	81 a5       	ldd	r24, Z+41	; 0x29
    4852:	89 2b       	or	r24, r25
    4854:	8c 93       	st	X, r24
    4856:	08 95       	ret

00004858 <_ZN15Adafruit_SPITFT8spiWriteEh>:
    4858:	0f 93       	push	r16
    485a:	1f 93       	push	r17
    485c:	cf 93       	push	r28
    485e:	df 93       	push	r29
    4860:	ec 01       	movw	r28, r24
    4862:	16 2f       	mov	r17, r22
    4864:	8d a9       	ldd	r24, Y+53	; 0x35
    4866:	81 11       	cpse	r24, r1
    4868:	05 c0       	rjmp	.+10     	; 0x4874 <_ZN15Adafruit_SPITFT8spiWriteEh+0x1c>
    486a:	6e bd       	out	0x2e, r22	; 46
    486c:	0d b4       	in	r0, 0x2d	; 45
    486e:	07 fe       	sbrs	r0, 7
    4870:	fd cf       	rjmp	.-6      	; 0x486c <_ZN15Adafruit_SPITFT8spiWriteEh+0x14>
    4872:	1a c0       	rjmp	.+52     	; 0x48a8 <_ZN15Adafruit_SPITFT8spiWriteEh+0x50>
    4874:	81 30       	cpi	r24, 0x01	; 1
    4876:	79 f4       	brne	.+30     	; 0x4896 <_ZN15Adafruit_SPITFT8spiWriteEh+0x3e>
    4878:	08 e0       	ldi	r16, 0x08	; 8
    487a:	ce 01       	movw	r24, r28
    487c:	17 ff       	sbrs	r17, 7
    487e:	02 c0       	rjmp	.+4      	; 0x4884 <_ZN15Adafruit_SPITFT8spiWriteEh+0x2c>
    4880:	b1 df       	rcall	.-158    	; 0x47e4 <_ZN15Adafruit_SPITFT13SPI_MOSI_HIGHEv>
    4882:	01 c0       	rjmp	.+2      	; 0x4886 <_ZN15Adafruit_SPITFT8spiWriteEh+0x2e>
    4884:	ba df       	rcall	.-140    	; 0x47fa <_ZN15Adafruit_SPITFT12SPI_MOSI_LOWEv>
    4886:	ce 01       	movw	r24, r28
    4888:	c3 df       	rcall	.-122    	; 0x4810 <_ZN15Adafruit_SPITFT12SPI_SCK_HIGHEv>
    488a:	11 0f       	add	r17, r17
    488c:	ce 01       	movw	r24, r28
    488e:	cb df       	rcall	.-106    	; 0x4826 <_ZN15Adafruit_SPITFT11SPI_SCK_LOWEv>
    4890:	01 50       	subi	r16, 0x01	; 1
    4892:	99 f7       	brne	.-26     	; 0x487a <_ZN15Adafruit_SPITFT8spiWriteEh+0x22>
    4894:	09 c0       	rjmp	.+18     	; 0x48a8 <_ZN15Adafruit_SPITFT8spiWriteEh+0x50>
    4896:	ef 8d       	ldd	r30, Y+31	; 0x1f
    4898:	f8 a1       	ldd	r31, Y+32	; 0x20
    489a:	60 83       	st	Z, r22
    489c:	ce 01       	movw	r24, r28
    489e:	df 91       	pop	r29
    48a0:	cf 91       	pop	r28
    48a2:	1f 91       	pop	r17
    48a4:	0f 91       	pop	r16
    48a6:	ca cf       	rjmp	.-108    	; 0x483c <_ZN15Adafruit_SPITFT13TFT_WR_STROBEEv>
    48a8:	df 91       	pop	r29
    48aa:	cf 91       	pop	r28
    48ac:	1f 91       	pop	r17
    48ae:	0f 91       	pop	r16
    48b0:	08 95       	ret

000048b2 <_ZN15Adafruit_SPITFT12writeCommandEh>:
    48b2:	1f 93       	push	r17
    48b4:	cf 93       	push	r28
    48b6:	df 93       	push	r29
    48b8:	ec 01       	movw	r28, r24
    48ba:	16 2f       	mov	r17, r22
    48bc:	14 de       	rcall	.-984    	; 0x44e6 <_ZN15Adafruit_SPITFT10SPI_DC_LOWEv>
    48be:	61 2f       	mov	r22, r17
    48c0:	ce 01       	movw	r24, r28
    48c2:	ca df       	rcall	.-108    	; 0x4858 <_ZN15Adafruit_SPITFT8spiWriteEh>
    48c4:	ce 01       	movw	r24, r28
    48c6:	df 91       	pop	r29
    48c8:	cf 91       	pop	r28
    48ca:	1f 91       	pop	r17
    48cc:	01 ce       	rjmp	.-1022   	; 0x44d0 <_ZN15Adafruit_SPITFT11SPI_DC_HIGHEv>

000048ce <_ZN15Adafruit_SPITFT13invertDisplayEb>:
    48ce:	1f 93       	push	r17
    48d0:	cf 93       	push	r28
    48d2:	df 93       	push	r29
    48d4:	ec 01       	movw	r28, r24
    48d6:	16 2f       	mov	r17, r22
    48d8:	e8 81       	ld	r30, Y
    48da:	f9 81       	ldd	r31, Y+1	; 0x01
    48dc:	02 84       	ldd	r0, Z+10	; 0x0a
    48de:	f3 85       	ldd	r31, Z+11	; 0x0b
    48e0:	e0 2d       	mov	r30, r0
    48e2:	19 95       	eicall
    48e4:	11 23       	and	r17, r17
    48e6:	11 f0       	breq	.+4      	; 0x48ec <_ZN15Adafruit_SPITFT13invertDisplayEb+0x1e>
    48e8:	6d ad       	ldd	r22, Y+61	; 0x3d
    48ea:	01 c0       	rjmp	.+2      	; 0x48ee <_ZN15Adafruit_SPITFT13invertDisplayEb+0x20>
    48ec:	6e ad       	ldd	r22, Y+62	; 0x3e
    48ee:	ce 01       	movw	r24, r28
    48f0:	e0 df       	rcall	.-64     	; 0x48b2 <_ZN15Adafruit_SPITFT12writeCommandEh>
    48f2:	e8 81       	ld	r30, Y
    48f4:	f9 81       	ldd	r31, Y+1	; 0x01
    48f6:	06 88       	ldd	r0, Z+22	; 0x16
    48f8:	f7 89       	ldd	r31, Z+23	; 0x17
    48fa:	e0 2d       	mov	r30, r0
    48fc:	ce 01       	movw	r24, r28
    48fe:	df 91       	pop	r29
    4900:	cf 91       	pop	r28
    4902:	1f 91       	pop	r17
    4904:	19 94       	eijmp

00004906 <_ZN15Adafruit_SPITFT11SPI_WRITE16Ej>:
    4906:	ff 92       	push	r15
    4908:	0f 93       	push	r16
    490a:	1f 93       	push	r17
    490c:	cf 93       	push	r28
    490e:	df 93       	push	r29
    4910:	ec 01       	movw	r28, r24
    4912:	8b 01       	movw	r16, r22
    4914:	8d a9       	ldd	r24, Y+53	; 0x35
    4916:	81 11       	cpse	r24, r1
    4918:	09 c0       	rjmp	.+18     	; 0x492c <_ZN15Adafruit_SPITFT11SPI_WRITE16Ej+0x26>
    491a:	1e bd       	out	0x2e, r17	; 46
    491c:	0d b4       	in	r0, 0x2d	; 45
    491e:	07 fe       	sbrs	r0, 7
    4920:	fd cf       	rjmp	.-6      	; 0x491c <_ZN15Adafruit_SPITFT11SPI_WRITE16Ej+0x16>
    4922:	0e bd       	out	0x2e, r16	; 46
    4924:	0d b4       	in	r0, 0x2d	; 45
    4926:	07 fe       	sbrs	r0, 7
    4928:	fd cf       	rjmp	.-6      	; 0x4924 <_ZN15Adafruit_SPITFT11SPI_WRITE16Ej+0x1e>
    492a:	23 c0       	rjmp	.+70     	; 0x4972 <_ZN15Adafruit_SPITFT11SPI_WRITE16Ej+0x6c>
    492c:	81 30       	cpi	r24, 0x01	; 1
    492e:	91 f4       	brne	.+36     	; 0x4954 <_ZN15Adafruit_SPITFT11SPI_WRITE16Ej+0x4e>
    4930:	90 e1       	ldi	r25, 0x10	; 16
    4932:	f9 2e       	mov	r15, r25
    4934:	ce 01       	movw	r24, r28
    4936:	17 ff       	sbrs	r17, 7
    4938:	02 c0       	rjmp	.+4      	; 0x493e <_ZN15Adafruit_SPITFT11SPI_WRITE16Ej+0x38>
    493a:	54 df       	rcall	.-344    	; 0x47e4 <_ZN15Adafruit_SPITFT13SPI_MOSI_HIGHEv>
    493c:	01 c0       	rjmp	.+2      	; 0x4940 <_ZN15Adafruit_SPITFT11SPI_WRITE16Ej+0x3a>
    493e:	5d df       	rcall	.-326    	; 0x47fa <_ZN15Adafruit_SPITFT12SPI_MOSI_LOWEv>
    4940:	ce 01       	movw	r24, r28
    4942:	66 df       	rcall	.-308    	; 0x4810 <_ZN15Adafruit_SPITFT12SPI_SCK_HIGHEv>
    4944:	ce 01       	movw	r24, r28
    4946:	6f df       	rcall	.-290    	; 0x4826 <_ZN15Adafruit_SPITFT11SPI_SCK_LOWEv>
    4948:	00 0f       	add	r16, r16
    494a:	11 1f       	adc	r17, r17
    494c:	fa 94       	dec	r15
    494e:	f1 10       	cpse	r15, r1
    4950:	f1 cf       	rjmp	.-30     	; 0x4934 <_ZN15Adafruit_SPITFT11SPI_WRITE16Ej+0x2e>
    4952:	0f c0       	rjmp	.+30     	; 0x4972 <_ZN15Adafruit_SPITFT11SPI_WRITE16Ej+0x6c>
    4954:	ef 8d       	ldd	r30, Y+31	; 0x1f
    4956:	f8 a1       	ldd	r31, Y+32	; 0x20
    4958:	10 83       	st	Z, r17
    495a:	ce 01       	movw	r24, r28
    495c:	6f df       	rcall	.-290    	; 0x483c <_ZN15Adafruit_SPITFT13TFT_WR_STROBEEv>
    495e:	ef 8d       	ldd	r30, Y+31	; 0x1f
    4960:	f8 a1       	ldd	r31, Y+32	; 0x20
    4962:	00 83       	st	Z, r16
    4964:	ce 01       	movw	r24, r28
    4966:	df 91       	pop	r29
    4968:	cf 91       	pop	r28
    496a:	1f 91       	pop	r17
    496c:	0f 91       	pop	r16
    496e:	ff 90       	pop	r15
    4970:	65 cf       	rjmp	.-310    	; 0x483c <_ZN15Adafruit_SPITFT13TFT_WR_STROBEEv>
    4972:	df 91       	pop	r29
    4974:	cf 91       	pop	r28
    4976:	1f 91       	pop	r17
    4978:	0f 91       	pop	r16
    497a:	ff 90       	pop	r15
    497c:	08 95       	ret

0000497e <_ZN15Adafruit_SPITFT11sendCommandEhPhh>:
    497e:	cf 92       	push	r12
    4980:	df 92       	push	r13
    4982:	ef 92       	push	r14
    4984:	ff 92       	push	r15
    4986:	0f 93       	push	r16
    4988:	1f 93       	push	r17
    498a:	cf 93       	push	r28
    498c:	df 93       	push	r29
    498e:	ec 01       	movw	r28, r24
    4990:	f6 2e       	mov	r15, r22
    4992:	8a 01       	movw	r16, r20
    4994:	c2 2e       	mov	r12, r18
    4996:	f8 de       	rcall	.-528    	; 0x4788 <_ZN15Adafruit_SPITFT21SPI_BEGIN_TRANSACTIONEv>
    4998:	8f a9       	ldd	r24, Y+55	; 0x37
    499a:	87 fd       	sbrc	r24, 7
    499c:	02 c0       	rjmp	.+4      	; 0x49a2 <_ZN15Adafruit_SPITFT11sendCommandEhPhh+0x24>
    499e:	ce 01       	movw	r24, r28
    49a0:	8c dd       	rcall	.-1256   	; 0x44ba <_ZN15Adafruit_SPITFT10SPI_CS_LOWEv>
    49a2:	ce 01       	movw	r24, r28
    49a4:	a0 dd       	rcall	.-1216   	; 0x44e6 <_ZN15Adafruit_SPITFT10SPI_DC_LOWEv>
    49a6:	6f 2d       	mov	r22, r15
    49a8:	ce 01       	movw	r24, r28
    49aa:	56 df       	rcall	.-340    	; 0x4858 <_ZN15Adafruit_SPITFT8spiWriteEh>
    49ac:	ce 01       	movw	r24, r28
    49ae:	90 dd       	rcall	.-1248   	; 0x44d0 <_ZN15Adafruit_SPITFT11SPI_DC_HIGHEv>
    49b0:	e1 2c       	mov	r14, r1
    49b2:	f1 2c       	mov	r15, r1
    49b4:	d1 2c       	mov	r13, r1
    49b6:	ec 14       	cp	r14, r12
    49b8:	fd 04       	cpc	r15, r13
    49ba:	dc f4       	brge	.+54     	; 0x49f2 <_ZN15Adafruit_SPITFT11sendCommandEhPhh+0x74>
    49bc:	f8 01       	movw	r30, r16
    49be:	60 81       	ld	r22, Z
    49c0:	ce 01       	movw	r24, r28
    49c2:	4a df       	rcall	.-364    	; 0x4858 <_ZN15Adafruit_SPITFT8spiWriteEh>
    49c4:	8d a9       	ldd	r24, Y+53	; 0x35
    49c6:	f8 01       	movw	r30, r16
    49c8:	82 30       	cpi	r24, 0x02	; 2
    49ca:	51 f4       	brne	.+20     	; 0x49e0 <_ZN15Adafruit_SPITFT11sendCommandEhPhh+0x62>
    49cc:	88 a9       	ldd	r24, Y+48	; 0x30
    49ce:	88 23       	and	r24, r24
    49d0:	39 f0       	breq	.+14     	; 0x49e0 <_ZN15Adafruit_SPITFT11sendCommandEhPhh+0x62>
    49d2:	61 81       	ldd	r22, Z+1	; 0x01
    49d4:	72 81       	ldd	r23, Z+2	; 0x02
    49d6:	ce 01       	movw	r24, r28
    49d8:	96 df       	rcall	.-212    	; 0x4906 <_ZN15Adafruit_SPITFT11SPI_WRITE16Ej>
    49da:	0d 5f       	subi	r16, 0xFD	; 253
    49dc:	1f 4f       	sbci	r17, 0xFF	; 255
    49de:	05 c0       	rjmp	.+10     	; 0x49ea <_ZN15Adafruit_SPITFT11sendCommandEhPhh+0x6c>
    49e0:	61 81       	ldd	r22, Z+1	; 0x01
    49e2:	ce 01       	movw	r24, r28
    49e4:	39 df       	rcall	.-398    	; 0x4858 <_ZN15Adafruit_SPITFT8spiWriteEh>
    49e6:	0e 5f       	subi	r16, 0xFE	; 254
    49e8:	1f 4f       	sbci	r17, 0xFF	; 255
    49ea:	ff ef       	ldi	r31, 0xFF	; 255
    49ec:	ef 1a       	sub	r14, r31
    49ee:	ff 0a       	sbc	r15, r31
    49f0:	e2 cf       	rjmp	.-60     	; 0x49b6 <_ZN15Adafruit_SPITFT11sendCommandEhPhh+0x38>
    49f2:	8f a9       	ldd	r24, Y+55	; 0x37
    49f4:	87 fd       	sbrc	r24, 7
    49f6:	02 c0       	rjmp	.+4      	; 0x49fc <_ZN15Adafruit_SPITFT11sendCommandEhPhh+0x7e>
    49f8:	ce 01       	movw	r24, r28
    49fa:	42 dd       	rcall	.-1404   	; 0x4480 <_ZN15Adafruit_SPITFT11SPI_CS_HIGHEv>
    49fc:	8d a9       	ldd	r24, Y+53	; 0x35
    49fe:	81 11       	cpse	r24, r1
    4a00:	0a c0       	rjmp	.+20     	; 0x4a16 <_ZN15Adafruit_SPITFT11sendCommandEhPhh+0x98>
    4a02:	df 91       	pop	r29
    4a04:	cf 91       	pop	r28
    4a06:	1f 91       	pop	r17
    4a08:	0f 91       	pop	r16
    4a0a:	ff 90       	pop	r15
    4a0c:	ef 90       	pop	r14
    4a0e:	df 90       	pop	r13
    4a10:	cf 90       	pop	r12
    4a12:	0c 94 12 15 	jmp	0x2a24	; 0x2a24 <_ZN8SPIClass14endTransactionEv>
    4a16:	df 91       	pop	r29
    4a18:	cf 91       	pop	r28
    4a1a:	1f 91       	pop	r17
    4a1c:	0f 91       	pop	r16
    4a1e:	ff 90       	pop	r15
    4a20:	ef 90       	pop	r14
    4a22:	df 90       	pop	r13
    4a24:	cf 90       	pop	r12
    4a26:	08 95       	ret

00004a28 <_ZN15Adafruit_SPITFT9drawPixelEiij>:
    4a28:	af 92       	push	r10
    4a2a:	bf 92       	push	r11
    4a2c:	cf 92       	push	r12
    4a2e:	df 92       	push	r13
    4a30:	ef 92       	push	r14
    4a32:	ff 92       	push	r15
    4a34:	0f 93       	push	r16
    4a36:	1f 93       	push	r17
    4a38:	cf 93       	push	r28
    4a3a:	df 93       	push	r29
    4a3c:	ec 01       	movw	r28, r24
    4a3e:	77 fd       	sbrc	r23, 7
    4a40:	37 c0       	rjmp	.+110    	; 0x4ab0 <_ZN15Adafruit_SPITFT9drawPixelEiij+0x88>
    4a42:	88 85       	ldd	r24, Y+8	; 0x08
    4a44:	99 85       	ldd	r25, Y+9	; 0x09
    4a46:	68 17       	cp	r22, r24
    4a48:	79 07       	cpc	r23, r25
    4a4a:	94 f5       	brge	.+100    	; 0x4ab0 <_ZN15Adafruit_SPITFT9drawPixelEiij+0x88>
    4a4c:	57 fd       	sbrc	r21, 7
    4a4e:	30 c0       	rjmp	.+96     	; 0x4ab0 <_ZN15Adafruit_SPITFT9drawPixelEiij+0x88>
    4a50:	8a 85       	ldd	r24, Y+10	; 0x0a
    4a52:	9b 85       	ldd	r25, Y+11	; 0x0b
    4a54:	48 17       	cp	r20, r24
    4a56:	59 07       	cpc	r21, r25
    4a58:	5c f5       	brge	.+86     	; 0x4ab0 <_ZN15Adafruit_SPITFT9drawPixelEiij+0x88>
    4a5a:	69 01       	movw	r12, r18
    4a5c:	7a 01       	movw	r14, r20
    4a5e:	5b 01       	movw	r10, r22
    4a60:	e8 81       	ld	r30, Y
    4a62:	f9 81       	ldd	r31, Y+1	; 0x01
    4a64:	02 84       	ldd	r0, Z+10	; 0x0a
    4a66:	f3 85       	ldd	r31, Z+11	; 0x0b
    4a68:	e0 2d       	mov	r30, r0
    4a6a:	ce 01       	movw	r24, r28
    4a6c:	19 95       	eicall
    4a6e:	e8 81       	ld	r30, Y
    4a70:	f9 81       	ldd	r31, Y+1	; 0x01
    4a72:	02 a4       	ldd	r0, Z+42	; 0x2a
    4a74:	f3 a5       	ldd	r31, Z+43	; 0x2b
    4a76:	e0 2d       	mov	r30, r0
    4a78:	01 e0       	ldi	r16, 0x01	; 1
    4a7a:	10 e0       	ldi	r17, 0x00	; 0
    4a7c:	21 e0       	ldi	r18, 0x01	; 1
    4a7e:	30 e0       	ldi	r19, 0x00	; 0
    4a80:	a7 01       	movw	r20, r14
    4a82:	b5 01       	movw	r22, r10
    4a84:	ce 01       	movw	r24, r28
    4a86:	19 95       	eicall
    4a88:	b6 01       	movw	r22, r12
    4a8a:	ce 01       	movw	r24, r28
    4a8c:	3c df       	rcall	.-392    	; 0x4906 <_ZN15Adafruit_SPITFT11SPI_WRITE16Ej>
    4a8e:	e8 81       	ld	r30, Y
    4a90:	f9 81       	ldd	r31, Y+1	; 0x01
    4a92:	06 88       	ldd	r0, Z+22	; 0x16
    4a94:	f7 89       	ldd	r31, Z+23	; 0x17
    4a96:	e0 2d       	mov	r30, r0
    4a98:	ce 01       	movw	r24, r28
    4a9a:	df 91       	pop	r29
    4a9c:	cf 91       	pop	r28
    4a9e:	1f 91       	pop	r17
    4aa0:	0f 91       	pop	r16
    4aa2:	ff 90       	pop	r15
    4aa4:	ef 90       	pop	r14
    4aa6:	df 90       	pop	r13
    4aa8:	cf 90       	pop	r12
    4aaa:	bf 90       	pop	r11
    4aac:	af 90       	pop	r10
    4aae:	19 94       	eijmp
    4ab0:	df 91       	pop	r29
    4ab2:	cf 91       	pop	r28
    4ab4:	1f 91       	pop	r17
    4ab6:	0f 91       	pop	r16
    4ab8:	ff 90       	pop	r15
    4aba:	ef 90       	pop	r14
    4abc:	df 90       	pop	r13
    4abe:	cf 90       	pop	r12
    4ac0:	bf 90       	pop	r11
    4ac2:	af 90       	pop	r10
    4ac4:	08 95       	ret

00004ac6 <_ZN15Adafruit_SPITFT10writePixelEiij>:
    4ac6:	ef 92       	push	r14
    4ac8:	ff 92       	push	r15
    4aca:	0f 93       	push	r16
    4acc:	1f 93       	push	r17
    4ace:	cf 93       	push	r28
    4ad0:	df 93       	push	r29
    4ad2:	ec 01       	movw	r28, r24
    4ad4:	77 fd       	sbrc	r23, 7
    4ad6:	21 c0       	rjmp	.+66     	; 0x4b1a <_ZN15Adafruit_SPITFT10writePixelEiij+0x54>
    4ad8:	88 85       	ldd	r24, Y+8	; 0x08
    4ada:	99 85       	ldd	r25, Y+9	; 0x09
    4adc:	68 17       	cp	r22, r24
    4ade:	79 07       	cpc	r23, r25
    4ae0:	e4 f4       	brge	.+56     	; 0x4b1a <_ZN15Adafruit_SPITFT10writePixelEiij+0x54>
    4ae2:	57 fd       	sbrc	r21, 7
    4ae4:	1a c0       	rjmp	.+52     	; 0x4b1a <_ZN15Adafruit_SPITFT10writePixelEiij+0x54>
    4ae6:	8a 85       	ldd	r24, Y+10	; 0x0a
    4ae8:	9b 85       	ldd	r25, Y+11	; 0x0b
    4aea:	48 17       	cp	r20, r24
    4aec:	59 07       	cpc	r21, r25
    4aee:	ac f4       	brge	.+42     	; 0x4b1a <_ZN15Adafruit_SPITFT10writePixelEiij+0x54>
    4af0:	79 01       	movw	r14, r18
    4af2:	e8 81       	ld	r30, Y
    4af4:	f9 81       	ldd	r31, Y+1	; 0x01
    4af6:	02 a4       	ldd	r0, Z+42	; 0x2a
    4af8:	f3 a5       	ldd	r31, Z+43	; 0x2b
    4afa:	e0 2d       	mov	r30, r0
    4afc:	01 e0       	ldi	r16, 0x01	; 1
    4afe:	10 e0       	ldi	r17, 0x00	; 0
    4b00:	21 e0       	ldi	r18, 0x01	; 1
    4b02:	30 e0       	ldi	r19, 0x00	; 0
    4b04:	ce 01       	movw	r24, r28
    4b06:	19 95       	eicall
    4b08:	b7 01       	movw	r22, r14
    4b0a:	ce 01       	movw	r24, r28
    4b0c:	df 91       	pop	r29
    4b0e:	cf 91       	pop	r28
    4b10:	1f 91       	pop	r17
    4b12:	0f 91       	pop	r16
    4b14:	ff 90       	pop	r15
    4b16:	ef 90       	pop	r14
    4b18:	f6 ce       	rjmp	.-532    	; 0x4906 <_ZN15Adafruit_SPITFT11SPI_WRITE16Ej>
    4b1a:	df 91       	pop	r29
    4b1c:	cf 91       	pop	r28
    4b1e:	1f 91       	pop	r17
    4b20:	0f 91       	pop	r16
    4b22:	ff 90       	pop	r15
    4b24:	ef 90       	pop	r14
    4b26:	08 95       	ret

00004b28 <_ZN15Adafruit_SPITFT11SPI_WRITE32Em>:
    4b28:	cf 92       	push	r12
    4b2a:	df 92       	push	r13
    4b2c:	ef 92       	push	r14
    4b2e:	ff 92       	push	r15
    4b30:	1f 93       	push	r17
    4b32:	cf 93       	push	r28
    4b34:	df 93       	push	r29
    4b36:	ec 01       	movw	r28, r24
    4b38:	6a 01       	movw	r12, r20
    4b3a:	7b 01       	movw	r14, r22
    4b3c:	8d a9       	ldd	r24, Y+53	; 0x35
    4b3e:	81 11       	cpse	r24, r1
    4b40:	1c c0       	rjmp	.+56     	; 0x4b7a <_ZN15Adafruit_SPITFT11SPI_WRITE32Em+0x52>
    4b42:	8f 2d       	mov	r24, r15
    4b44:	99 27       	eor	r25, r25
    4b46:	aa 27       	eor	r26, r26
    4b48:	bb 27       	eor	r27, r27
    4b4a:	8e bd       	out	0x2e, r24	; 46
    4b4c:	0d b4       	in	r0, 0x2d	; 45
    4b4e:	07 fe       	sbrs	r0, 7
    4b50:	fd cf       	rjmp	.-6      	; 0x4b4c <_ZN15Adafruit_SPITFT11SPI_WRITE32Em+0x24>
    4b52:	c7 01       	movw	r24, r14
    4b54:	aa 27       	eor	r26, r26
    4b56:	bb 27       	eor	r27, r27
    4b58:	8e bd       	out	0x2e, r24	; 46
    4b5a:	0d b4       	in	r0, 0x2d	; 45
    4b5c:	07 fe       	sbrs	r0, 7
    4b5e:	fd cf       	rjmp	.-6      	; 0x4b5a <_ZN15Adafruit_SPITFT11SPI_WRITE32Em+0x32>
    4b60:	bb 27       	eor	r27, r27
    4b62:	af 2d       	mov	r26, r15
    4b64:	9e 2d       	mov	r25, r14
    4b66:	8d 2d       	mov	r24, r13
    4b68:	8e bd       	out	0x2e, r24	; 46
    4b6a:	0d b4       	in	r0, 0x2d	; 45
    4b6c:	07 fe       	sbrs	r0, 7
    4b6e:	fd cf       	rjmp	.-6      	; 0x4b6a <_ZN15Adafruit_SPITFT11SPI_WRITE32Em+0x42>
    4b70:	ce bc       	out	0x2e, r12	; 46
    4b72:	0d b4       	in	r0, 0x2d	; 45
    4b74:	07 fe       	sbrs	r0, 7
    4b76:	fd cf       	rjmp	.-6      	; 0x4b72 <_ZN15Adafruit_SPITFT11SPI_WRITE32Em+0x4a>
    4b78:	3a c0       	rjmp	.+116    	; 0x4bee <_ZN15Adafruit_SPITFT11SPI_WRITE32Em+0xc6>
    4b7a:	81 30       	cpi	r24, 0x01	; 1
    4b7c:	91 f4       	brne	.+36     	; 0x4ba2 <_ZN15Adafruit_SPITFT11SPI_WRITE32Em+0x7a>
    4b7e:	10 e2       	ldi	r17, 0x20	; 32
    4b80:	ce 01       	movw	r24, r28
    4b82:	f7 fe       	sbrs	r15, 7
    4b84:	02 c0       	rjmp	.+4      	; 0x4b8a <_ZN15Adafruit_SPITFT11SPI_WRITE32Em+0x62>
    4b86:	2e de       	rcall	.-932    	; 0x47e4 <_ZN15Adafruit_SPITFT13SPI_MOSI_HIGHEv>
    4b88:	01 c0       	rjmp	.+2      	; 0x4b8c <_ZN15Adafruit_SPITFT11SPI_WRITE32Em+0x64>
    4b8a:	37 de       	rcall	.-914    	; 0x47fa <_ZN15Adafruit_SPITFT12SPI_MOSI_LOWEv>
    4b8c:	ce 01       	movw	r24, r28
    4b8e:	40 de       	rcall	.-896    	; 0x4810 <_ZN15Adafruit_SPITFT12SPI_SCK_HIGHEv>
    4b90:	ce 01       	movw	r24, r28
    4b92:	49 de       	rcall	.-878    	; 0x4826 <_ZN15Adafruit_SPITFT11SPI_SCK_LOWEv>
    4b94:	cc 0c       	add	r12, r12
    4b96:	dd 1c       	adc	r13, r13
    4b98:	ee 1c       	adc	r14, r14
    4b9a:	ff 1c       	adc	r15, r15
    4b9c:	11 50       	subi	r17, 0x01	; 1
    4b9e:	81 f7       	brne	.-32     	; 0x4b80 <_ZN15Adafruit_SPITFT11SPI_WRITE32Em+0x58>
    4ba0:	26 c0       	rjmp	.+76     	; 0x4bee <_ZN15Adafruit_SPITFT11SPI_WRITE32Em+0xc6>
    4ba2:	ef 8d       	ldd	r30, Y+31	; 0x1f
    4ba4:	f8 a1       	ldd	r31, Y+32	; 0x20
    4ba6:	87 2f       	mov	r24, r23
    4ba8:	99 27       	eor	r25, r25
    4baa:	aa 27       	eor	r26, r26
    4bac:	bb 27       	eor	r27, r27
    4bae:	80 83       	st	Z, r24
    4bb0:	ce 01       	movw	r24, r28
    4bb2:	44 de       	rcall	.-888    	; 0x483c <_ZN15Adafruit_SPITFT13TFT_WR_STROBEEv>
    4bb4:	ef 8d       	ldd	r30, Y+31	; 0x1f
    4bb6:	f8 a1       	ldd	r31, Y+32	; 0x20
    4bb8:	c7 01       	movw	r24, r14
    4bba:	aa 27       	eor	r26, r26
    4bbc:	bb 27       	eor	r27, r27
    4bbe:	80 83       	st	Z, r24
    4bc0:	ce 01       	movw	r24, r28
    4bc2:	3c de       	rcall	.-904    	; 0x483c <_ZN15Adafruit_SPITFT13TFT_WR_STROBEEv>
    4bc4:	ef 8d       	ldd	r30, Y+31	; 0x1f
    4bc6:	f8 a1       	ldd	r31, Y+32	; 0x20
    4bc8:	bb 27       	eor	r27, r27
    4bca:	af 2d       	mov	r26, r15
    4bcc:	9e 2d       	mov	r25, r14
    4bce:	8d 2d       	mov	r24, r13
    4bd0:	80 83       	st	Z, r24
    4bd2:	ce 01       	movw	r24, r28
    4bd4:	33 de       	rcall	.-922    	; 0x483c <_ZN15Adafruit_SPITFT13TFT_WR_STROBEEv>
    4bd6:	ef 8d       	ldd	r30, Y+31	; 0x1f
    4bd8:	f8 a1       	ldd	r31, Y+32	; 0x20
    4bda:	c0 82       	st	Z, r12
    4bdc:	ce 01       	movw	r24, r28
    4bde:	df 91       	pop	r29
    4be0:	cf 91       	pop	r28
    4be2:	1f 91       	pop	r17
    4be4:	ff 90       	pop	r15
    4be6:	ef 90       	pop	r14
    4be8:	df 90       	pop	r13
    4bea:	cf 90       	pop	r12
    4bec:	27 ce       	rjmp	.-946    	; 0x483c <_ZN15Adafruit_SPITFT13TFT_WR_STROBEEv>
    4bee:	df 91       	pop	r29
    4bf0:	cf 91       	pop	r28
    4bf2:	1f 91       	pop	r17
    4bf4:	ff 90       	pop	r15
    4bf6:	ef 90       	pop	r14
    4bf8:	df 90       	pop	r13
    4bfa:	cf 90       	pop	r12
    4bfc:	08 95       	ret

00004bfe <_ZN15Adafruit_SPITFT10writeColorEjm>:
    4bfe:	af 92       	push	r10
    4c00:	bf 92       	push	r11
    4c02:	cf 92       	push	r12
    4c04:	df 92       	push	r13
    4c06:	ef 92       	push	r14
    4c08:	ff 92       	push	r15
    4c0a:	0f 93       	push	r16
    4c0c:	1f 93       	push	r17
    4c0e:	cf 93       	push	r28
    4c10:	df 93       	push	r29
    4c12:	ec 01       	movw	r28, r24
    4c14:	8b 01       	movw	r16, r22
    4c16:	21 15       	cp	r18, r1
    4c18:	31 05       	cpc	r19, r1
    4c1a:	41 05       	cpc	r20, r1
    4c1c:	51 05       	cpc	r21, r1
    4c1e:	09 f4       	brne	.+2      	; 0x4c22 <_ZN15Adafruit_SPITFT10writeColorEjm+0x24>
    4c20:	69 c0       	rjmp	.+210    	; 0x4cf4 <_ZN15Adafruit_SPITFT10writeColorEjm+0xf6>
    4c22:	8d a9       	ldd	r24, Y+53	; 0x35
    4c24:	81 11       	cpse	r24, r1
    4c26:	0f c0       	rjmp	.+30     	; 0x4c46 <_ZN15Adafruit_SPITFT10writeColorEjm+0x48>
    4c28:	21 50       	subi	r18, 0x01	; 1
    4c2a:	31 09       	sbc	r19, r1
    4c2c:	41 09       	sbc	r20, r1
    4c2e:	51 09       	sbc	r21, r1
    4c30:	08 f4       	brcc	.+2      	; 0x4c34 <_ZN15Adafruit_SPITFT10writeColorEjm+0x36>
    4c32:	60 c0       	rjmp	.+192    	; 0x4cf4 <_ZN15Adafruit_SPITFT10writeColorEjm+0xf6>
    4c34:	1e bd       	out	0x2e, r17	; 46
    4c36:	0d b4       	in	r0, 0x2d	; 45
    4c38:	07 fe       	sbrs	r0, 7
    4c3a:	fd cf       	rjmp	.-6      	; 0x4c36 <_ZN15Adafruit_SPITFT10writeColorEjm+0x38>
    4c3c:	0e bd       	out	0x2e, r16	; 46
    4c3e:	0d b4       	in	r0, 0x2d	; 45
    4c40:	07 fe       	sbrs	r0, 7
    4c42:	fd cf       	rjmp	.-6      	; 0x4c3e <_ZN15Adafruit_SPITFT10writeColorEjm+0x40>
    4c44:	f1 cf       	rjmp	.-30     	; 0x4c28 <_ZN15Adafruit_SPITFT10writeColorEjm+0x2a>
    4c46:	81 30       	cpi	r24, 0x01	; 1
    4c48:	59 f5       	brne	.+86     	; 0x4ca0 <_ZN15Adafruit_SPITFT10writeColorEjm+0xa2>
    4c4a:	69 01       	movw	r12, r18
    4c4c:	7a 01       	movw	r14, r20
    4c4e:	a1 2e       	mov	r10, r17
    4c50:	28 e0       	ldi	r18, 0x08	; 8
    4c52:	b2 2e       	mov	r11, r18
    4c54:	ce 01       	movw	r24, r28
    4c56:	a7 fe       	sbrs	r10, 7
    4c58:	02 c0       	rjmp	.+4      	; 0x4c5e <_ZN15Adafruit_SPITFT10writeColorEjm+0x60>
    4c5a:	c4 dd       	rcall	.-1144   	; 0x47e4 <_ZN15Adafruit_SPITFT13SPI_MOSI_HIGHEv>
    4c5c:	01 c0       	rjmp	.+2      	; 0x4c60 <_ZN15Adafruit_SPITFT10writeColorEjm+0x62>
    4c5e:	cd dd       	rcall	.-1126   	; 0x47fa <_ZN15Adafruit_SPITFT12SPI_MOSI_LOWEv>
    4c60:	ce 01       	movw	r24, r28
    4c62:	d6 dd       	rcall	.-1108   	; 0x4810 <_ZN15Adafruit_SPITFT12SPI_SCK_HIGHEv>
    4c64:	ce 01       	movw	r24, r28
    4c66:	df dd       	rcall	.-1090   	; 0x4826 <_ZN15Adafruit_SPITFT11SPI_SCK_LOWEv>
    4c68:	aa 0c       	add	r10, r10
    4c6a:	ba 94       	dec	r11
    4c6c:	b1 10       	cpse	r11, r1
    4c6e:	f2 cf       	rjmp	.-28     	; 0x4c54 <_ZN15Adafruit_SPITFT10writeColorEjm+0x56>
    4c70:	a0 2e       	mov	r10, r16
    4c72:	98 e0       	ldi	r25, 0x08	; 8
    4c74:	b9 2e       	mov	r11, r25
    4c76:	ce 01       	movw	r24, r28
    4c78:	a7 fe       	sbrs	r10, 7
    4c7a:	02 c0       	rjmp	.+4      	; 0x4c80 <_ZN15Adafruit_SPITFT10writeColorEjm+0x82>
    4c7c:	b3 dd       	rcall	.-1178   	; 0x47e4 <_ZN15Adafruit_SPITFT13SPI_MOSI_HIGHEv>
    4c7e:	01 c0       	rjmp	.+2      	; 0x4c82 <_ZN15Adafruit_SPITFT10writeColorEjm+0x84>
    4c80:	bc dd       	rcall	.-1160   	; 0x47fa <_ZN15Adafruit_SPITFT12SPI_MOSI_LOWEv>
    4c82:	ce 01       	movw	r24, r28
    4c84:	c5 dd       	rcall	.-1142   	; 0x4810 <_ZN15Adafruit_SPITFT12SPI_SCK_HIGHEv>
    4c86:	ce 01       	movw	r24, r28
    4c88:	ce dd       	rcall	.-1124   	; 0x4826 <_ZN15Adafruit_SPITFT11SPI_SCK_LOWEv>
    4c8a:	aa 0c       	add	r10, r10
    4c8c:	ba 94       	dec	r11
    4c8e:	b1 10       	cpse	r11, r1
    4c90:	f2 cf       	rjmp	.-28     	; 0x4c76 <_ZN15Adafruit_SPITFT10writeColorEjm+0x78>
    4c92:	81 e0       	ldi	r24, 0x01	; 1
    4c94:	c8 1a       	sub	r12, r24
    4c96:	d1 08       	sbc	r13, r1
    4c98:	e1 08       	sbc	r14, r1
    4c9a:	f1 08       	sbc	r15, r1
    4c9c:	c1 f6       	brne	.-80     	; 0x4c4e <_ZN15Adafruit_SPITFT10writeColorEjm+0x50>
    4c9e:	2a c0       	rjmp	.+84     	; 0x4cf4 <_ZN15Adafruit_SPITFT10writeColorEjm+0xf6>
    4ca0:	16 13       	cpse	r17, r22
    4ca2:	16 c0       	rjmp	.+44     	; 0x4cd0 <_ZN15Adafruit_SPITFT10writeColorEjm+0xd2>
    4ca4:	ef 8d       	ldd	r30, Y+31	; 0x1f
    4ca6:	f8 a1       	ldd	r31, Y+32	; 0x20
    4ca8:	10 83       	st	Z, r17
    4caa:	69 01       	movw	r12, r18
    4cac:	7a 01       	movw	r14, r20
    4cae:	cc 0c       	add	r12, r12
    4cb0:	dd 1c       	adc	r13, r13
    4cb2:	ee 1c       	adc	r14, r14
    4cb4:	ff 1c       	adc	r15, r15
    4cb6:	c1 14       	cp	r12, r1
    4cb8:	d1 04       	cpc	r13, r1
    4cba:	e1 04       	cpc	r14, r1
    4cbc:	f1 04       	cpc	r15, r1
    4cbe:	d1 f0       	breq	.+52     	; 0x4cf4 <_ZN15Adafruit_SPITFT10writeColorEjm+0xf6>
    4cc0:	ce 01       	movw	r24, r28
    4cc2:	bc dd       	rcall	.-1160   	; 0x483c <_ZN15Adafruit_SPITFT13TFT_WR_STROBEEv>
    4cc4:	81 e0       	ldi	r24, 0x01	; 1
    4cc6:	c8 1a       	sub	r12, r24
    4cc8:	d1 08       	sbc	r13, r1
    4cca:	e1 08       	sbc	r14, r1
    4ccc:	f1 08       	sbc	r15, r1
    4cce:	f3 cf       	rjmp	.-26     	; 0x4cb6 <_ZN15Adafruit_SPITFT10writeColorEjm+0xb8>
    4cd0:	69 01       	movw	r12, r18
    4cd2:	7a 01       	movw	r14, r20
    4cd4:	ef 8d       	ldd	r30, Y+31	; 0x1f
    4cd6:	f8 a1       	ldd	r31, Y+32	; 0x20
    4cd8:	10 83       	st	Z, r17
    4cda:	ce 01       	movw	r24, r28
    4cdc:	af dd       	rcall	.-1186   	; 0x483c <_ZN15Adafruit_SPITFT13TFT_WR_STROBEEv>
    4cde:	ef 8d       	ldd	r30, Y+31	; 0x1f
    4ce0:	f8 a1       	ldd	r31, Y+32	; 0x20
    4ce2:	00 83       	st	Z, r16
    4ce4:	ce 01       	movw	r24, r28
    4ce6:	aa dd       	rcall	.-1196   	; 0x483c <_ZN15Adafruit_SPITFT13TFT_WR_STROBEEv>
    4ce8:	81 e0       	ldi	r24, 0x01	; 1
    4cea:	c8 1a       	sub	r12, r24
    4cec:	d1 08       	sbc	r13, r1
    4cee:	e1 08       	sbc	r14, r1
    4cf0:	f1 08       	sbc	r15, r1
    4cf2:	81 f7       	brne	.-32     	; 0x4cd4 <_ZN15Adafruit_SPITFT10writeColorEjm+0xd6>
    4cf4:	df 91       	pop	r29
    4cf6:	cf 91       	pop	r28
    4cf8:	1f 91       	pop	r17
    4cfa:	0f 91       	pop	r16
    4cfc:	ff 90       	pop	r15
    4cfe:	ef 90       	pop	r14
    4d00:	df 90       	pop	r13
    4d02:	cf 90       	pop	r12
    4d04:	bf 90       	pop	r11
    4d06:	af 90       	pop	r10
    4d08:	08 95       	ret

00004d0a <_ZN15Adafruit_SPITFT23writeFillRectPreclippedEiiiij>:
    4d0a:	af 92       	push	r10
    4d0c:	bf 92       	push	r11
    4d0e:	cf 92       	push	r12
    4d10:	df 92       	push	r13
    4d12:	ef 92       	push	r14
    4d14:	ff 92       	push	r15
    4d16:	0f 93       	push	r16
    4d18:	1f 93       	push	r17
    4d1a:	cf 93       	push	r28
    4d1c:	df 93       	push	r29
    4d1e:	ec 01       	movw	r28, r24
    4d20:	59 01       	movw	r10, r18
    4d22:	e8 81       	ld	r30, Y
    4d24:	f9 81       	ldd	r31, Y+1	; 0x01
    4d26:	02 a4       	ldd	r0, Z+42	; 0x2a
    4d28:	f3 a5       	ldd	r31, Z+43	; 0x2b
    4d2a:	e0 2d       	mov	r30, r0
    4d2c:	19 95       	eicall
    4d2e:	95 01       	movw	r18, r10
    4d30:	d8 01       	movw	r26, r16
    4d32:	d2 d4       	rcall	.+2468   	; 0x56d8 <__mulhisi3>
    4d34:	9b 01       	movw	r18, r22
    4d36:	ac 01       	movw	r20, r24
    4d38:	b7 01       	movw	r22, r14
    4d3a:	ce 01       	movw	r24, r28
    4d3c:	df 91       	pop	r29
    4d3e:	cf 91       	pop	r28
    4d40:	1f 91       	pop	r17
    4d42:	0f 91       	pop	r16
    4d44:	ff 90       	pop	r15
    4d46:	ef 90       	pop	r14
    4d48:	df 90       	pop	r13
    4d4a:	cf 90       	pop	r12
    4d4c:	bf 90       	pop	r11
    4d4e:	af 90       	pop	r10
    4d50:	56 cf       	rjmp	.-340    	; 0x4bfe <_ZN15Adafruit_SPITFT10writeColorEjm>

00004d52 <_ZN15Adafruit_SPITFT14writeFastVLineEiiij>:
    4d52:	ef 92       	push	r14
    4d54:	ff 92       	push	r15
    4d56:	0f 93       	push	r16
    4d58:	1f 93       	push	r17
    4d5a:	cf 93       	push	r28
    4d5c:	df 93       	push	r29
    4d5e:	77 fd       	sbrc	r23, 7
    4d60:	33 c0       	rjmp	.+102    	; 0x4dc8 <_ZN15Adafruit_SPITFT14writeFastVLineEiiij+0x76>
    4d62:	dc 01       	movw	r26, r24
    4d64:	18 96       	adiw	r26, 0x08	; 8
    4d66:	ed 91       	ld	r30, X+
    4d68:	fc 91       	ld	r31, X
    4d6a:	19 97       	sbiw	r26, 0x09	; 9
    4d6c:	6e 17       	cp	r22, r30
    4d6e:	7f 07       	cpc	r23, r31
    4d70:	5c f5       	brge	.+86     	; 0x4dc8 <_ZN15Adafruit_SPITFT14writeFastVLineEiiij+0x76>
    4d72:	21 15       	cp	r18, r1
    4d74:	31 05       	cpc	r19, r1
    4d76:	41 f1       	breq	.+80     	; 0x4dc8 <_ZN15Adafruit_SPITFT14writeFastVLineEiiij+0x76>
    4d78:	37 ff       	sbrs	r19, 7
    4d7a:	07 c0       	rjmp	.+14     	; 0x4d8a <_ZN15Adafruit_SPITFT14writeFastVLineEiiij+0x38>
    4d7c:	f9 01       	movw	r30, r18
    4d7e:	31 96       	adiw	r30, 0x01	; 1
    4d80:	4e 0f       	add	r20, r30
    4d82:	5f 1f       	adc	r21, r31
    4d84:	31 95       	neg	r19
    4d86:	21 95       	neg	r18
    4d88:	31 09       	sbc	r19, r1
    4d8a:	dc 01       	movw	r26, r24
    4d8c:	1a 96       	adiw	r26, 0x0a	; 10
    4d8e:	ed 91       	ld	r30, X+
    4d90:	fc 91       	ld	r31, X
    4d92:	1b 97       	sbiw	r26, 0x0b	; 11
    4d94:	4e 17       	cp	r20, r30
    4d96:	5f 07       	cpc	r21, r31
    4d98:	bc f4       	brge	.+46     	; 0x4dc8 <_ZN15Adafruit_SPITFT14writeFastVLineEiiij+0x76>
    4d9a:	ea 01       	movw	r28, r20
    4d9c:	c2 0f       	add	r28, r18
    4d9e:	d3 1f       	adc	r29, r19
    4da0:	de 01       	movw	r26, r28
    4da2:	11 97       	sbiw	r26, 0x01	; 1
    4da4:	b7 fd       	sbrc	r27, 7
    4da6:	10 c0       	rjmp	.+32     	; 0x4dc8 <_ZN15Adafruit_SPITFT14writeFastVLineEiiij+0x76>
    4da8:	57 ff       	sbrs	r21, 7
    4daa:	03 c0       	rjmp	.+6      	; 0x4db2 <_ZN15Adafruit_SPITFT14writeFastVLineEiiij+0x60>
    4dac:	9e 01       	movw	r18, r28
    4dae:	40 e0       	ldi	r20, 0x00	; 0
    4db0:	50 e0       	ldi	r21, 0x00	; 0
    4db2:	ae 17       	cp	r26, r30
    4db4:	bf 07       	cpc	r27, r31
    4db6:	1c f0       	brlt	.+6      	; 0x4dbe <_ZN15Adafruit_SPITFT14writeFastVLineEiiij+0x6c>
    4db8:	9f 01       	movw	r18, r30
    4dba:	24 1b       	sub	r18, r20
    4dbc:	35 0b       	sbc	r19, r21
    4dbe:	78 01       	movw	r14, r16
    4dc0:	89 01       	movw	r16, r18
    4dc2:	21 e0       	ldi	r18, 0x01	; 1
    4dc4:	30 e0       	ldi	r19, 0x00	; 0
    4dc6:	a1 df       	rcall	.-190    	; 0x4d0a <_ZN15Adafruit_SPITFT23writeFillRectPreclippedEiiiij>
    4dc8:	df 91       	pop	r29
    4dca:	cf 91       	pop	r28
    4dcc:	1f 91       	pop	r17
    4dce:	0f 91       	pop	r16
    4dd0:	ff 90       	pop	r15
    4dd2:	ef 90       	pop	r14
    4dd4:	08 95       	ret

00004dd6 <_ZN15Adafruit_SPITFT14writeFastHLineEiiij>:
    4dd6:	ef 92       	push	r14
    4dd8:	ff 92       	push	r15
    4dda:	0f 93       	push	r16
    4ddc:	1f 93       	push	r17
    4dde:	cf 93       	push	r28
    4de0:	df 93       	push	r29
    4de2:	57 fd       	sbrc	r21, 7
    4de4:	32 c0       	rjmp	.+100    	; 0x4e4a <_ZN15Adafruit_SPITFT14writeFastHLineEiiij+0x74>
    4de6:	dc 01       	movw	r26, r24
    4de8:	1a 96       	adiw	r26, 0x0a	; 10
    4dea:	ed 91       	ld	r30, X+
    4dec:	fc 91       	ld	r31, X
    4dee:	1b 97       	sbiw	r26, 0x0b	; 11
    4df0:	4e 17       	cp	r20, r30
    4df2:	5f 07       	cpc	r21, r31
    4df4:	54 f5       	brge	.+84     	; 0x4e4a <_ZN15Adafruit_SPITFT14writeFastHLineEiiij+0x74>
    4df6:	21 15       	cp	r18, r1
    4df8:	31 05       	cpc	r19, r1
    4dfa:	39 f1       	breq	.+78     	; 0x4e4a <_ZN15Adafruit_SPITFT14writeFastHLineEiiij+0x74>
    4dfc:	37 ff       	sbrs	r19, 7
    4dfe:	07 c0       	rjmp	.+14     	; 0x4e0e <_ZN15Adafruit_SPITFT14writeFastHLineEiiij+0x38>
    4e00:	f9 01       	movw	r30, r18
    4e02:	31 96       	adiw	r30, 0x01	; 1
    4e04:	6e 0f       	add	r22, r30
    4e06:	7f 1f       	adc	r23, r31
    4e08:	31 95       	neg	r19
    4e0a:	21 95       	neg	r18
    4e0c:	31 09       	sbc	r19, r1
    4e0e:	dc 01       	movw	r26, r24
    4e10:	18 96       	adiw	r26, 0x08	; 8
    4e12:	ed 91       	ld	r30, X+
    4e14:	fc 91       	ld	r31, X
    4e16:	19 97       	sbiw	r26, 0x09	; 9
    4e18:	6e 17       	cp	r22, r30
    4e1a:	7f 07       	cpc	r23, r31
    4e1c:	b4 f4       	brge	.+44     	; 0x4e4a <_ZN15Adafruit_SPITFT14writeFastHLineEiiij+0x74>
    4e1e:	eb 01       	movw	r28, r22
    4e20:	c2 0f       	add	r28, r18
    4e22:	d3 1f       	adc	r29, r19
    4e24:	de 01       	movw	r26, r28
    4e26:	11 97       	sbiw	r26, 0x01	; 1
    4e28:	b7 fd       	sbrc	r27, 7
    4e2a:	0f c0       	rjmp	.+30     	; 0x4e4a <_ZN15Adafruit_SPITFT14writeFastHLineEiiij+0x74>
    4e2c:	77 ff       	sbrs	r23, 7
    4e2e:	03 c0       	rjmp	.+6      	; 0x4e36 <_ZN15Adafruit_SPITFT14writeFastHLineEiiij+0x60>
    4e30:	9e 01       	movw	r18, r28
    4e32:	60 e0       	ldi	r22, 0x00	; 0
    4e34:	70 e0       	ldi	r23, 0x00	; 0
    4e36:	ae 17       	cp	r26, r30
    4e38:	bf 07       	cpc	r27, r31
    4e3a:	1c f0       	brlt	.+6      	; 0x4e42 <_ZN15Adafruit_SPITFT14writeFastHLineEiiij+0x6c>
    4e3c:	9f 01       	movw	r18, r30
    4e3e:	26 1b       	sub	r18, r22
    4e40:	37 0b       	sbc	r19, r23
    4e42:	78 01       	movw	r14, r16
    4e44:	01 e0       	ldi	r16, 0x01	; 1
    4e46:	10 e0       	ldi	r17, 0x00	; 0
    4e48:	60 df       	rcall	.-320    	; 0x4d0a <_ZN15Adafruit_SPITFT23writeFillRectPreclippedEiiiij>
    4e4a:	df 91       	pop	r29
    4e4c:	cf 91       	pop	r28
    4e4e:	1f 91       	pop	r17
    4e50:	0f 91       	pop	r16
    4e52:	ff 90       	pop	r15
    4e54:	ef 90       	pop	r14
    4e56:	08 95       	ret

00004e58 <_ZN15Adafruit_SPITFT13drawFastVLineEiiij>:
    4e58:	8f 92       	push	r8
    4e5a:	9f 92       	push	r9
    4e5c:	af 92       	push	r10
    4e5e:	bf 92       	push	r11
    4e60:	cf 92       	push	r12
    4e62:	df 92       	push	r13
    4e64:	ef 92       	push	r14
    4e66:	ff 92       	push	r15
    4e68:	0f 93       	push	r16
    4e6a:	1f 93       	push	r17
    4e6c:	cf 93       	push	r28
    4e6e:	df 93       	push	r29
    4e70:	5c 01       	movw	r10, r24
    4e72:	4b 01       	movw	r8, r22
    4e74:	6a 01       	movw	r12, r20
    4e76:	e9 01       	movw	r28, r18
    4e78:	77 fd       	sbrc	r23, 7
    4e7a:	52 c0       	rjmp	.+164    	; 0x4f20 <_ZN15Adafruit_SPITFT13drawFastVLineEiiij+0xc8>
    4e7c:	dc 01       	movw	r26, r24
    4e7e:	18 96       	adiw	r26, 0x08	; 8
    4e80:	8d 91       	ld	r24, X+
    4e82:	9c 91       	ld	r25, X
    4e84:	19 97       	sbiw	r26, 0x09	; 9
    4e86:	68 17       	cp	r22, r24
    4e88:	79 07       	cpc	r23, r25
    4e8a:	0c f0       	brlt	.+2      	; 0x4e8e <_ZN15Adafruit_SPITFT13drawFastVLineEiiij+0x36>
    4e8c:	49 c0       	rjmp	.+146    	; 0x4f20 <_ZN15Adafruit_SPITFT13drawFastVLineEiiij+0xc8>
    4e8e:	20 97       	sbiw	r28, 0x00	; 0
    4e90:	09 f4       	brne	.+2      	; 0x4e94 <_ZN15Adafruit_SPITFT13drawFastVLineEiiij+0x3c>
    4e92:	46 c0       	rjmp	.+140    	; 0x4f20 <_ZN15Adafruit_SPITFT13drawFastVLineEiiij+0xc8>
    4e94:	37 ff       	sbrs	r19, 7
    4e96:	07 c0       	rjmp	.+14     	; 0x4ea6 <_ZN15Adafruit_SPITFT13drawFastVLineEiiij+0x4e>
    4e98:	c9 01       	movw	r24, r18
    4e9a:	01 96       	adiw	r24, 0x01	; 1
    4e9c:	c8 0e       	add	r12, r24
    4e9e:	d9 1e       	adc	r13, r25
    4ea0:	d1 95       	neg	r29
    4ea2:	c1 95       	neg	r28
    4ea4:	d1 09       	sbc	r29, r1
    4ea6:	f5 01       	movw	r30, r10
    4ea8:	82 85       	ldd	r24, Z+10	; 0x0a
    4eaa:	93 85       	ldd	r25, Z+11	; 0x0b
    4eac:	c8 16       	cp	r12, r24
    4eae:	d9 06       	cpc	r13, r25
    4eb0:	bc f5       	brge	.+110    	; 0x4f20 <_ZN15Adafruit_SPITFT13drawFastVLineEiiij+0xc8>
    4eb2:	a6 01       	movw	r20, r12
    4eb4:	4c 0f       	add	r20, r28
    4eb6:	5d 1f       	adc	r21, r29
    4eb8:	9a 01       	movw	r18, r20
    4eba:	21 50       	subi	r18, 0x01	; 1
    4ebc:	31 09       	sbc	r19, r1
    4ebe:	37 fd       	sbrc	r19, 7
    4ec0:	2f c0       	rjmp	.+94     	; 0x4f20 <_ZN15Adafruit_SPITFT13drawFastVLineEiiij+0xc8>
    4ec2:	d7 fe       	sbrs	r13, 7
    4ec4:	03 c0       	rjmp	.+6      	; 0x4ecc <_ZN15Adafruit_SPITFT13drawFastVLineEiiij+0x74>
    4ec6:	ea 01       	movw	r28, r20
    4ec8:	c1 2c       	mov	r12, r1
    4eca:	d1 2c       	mov	r13, r1
    4ecc:	28 17       	cp	r18, r24
    4ece:	39 07       	cpc	r19, r25
    4ed0:	1c f0       	brlt	.+6      	; 0x4ed8 <_ZN15Adafruit_SPITFT13drawFastVLineEiiij+0x80>
    4ed2:	ec 01       	movw	r28, r24
    4ed4:	cc 19       	sub	r28, r12
    4ed6:	dd 09       	sbc	r29, r13
    4ed8:	d5 01       	movw	r26, r10
    4eda:	ed 91       	ld	r30, X+
    4edc:	fc 91       	ld	r31, X
    4ede:	02 84       	ldd	r0, Z+10	; 0x0a
    4ee0:	f3 85       	ldd	r31, Z+11	; 0x0b
    4ee2:	e0 2d       	mov	r30, r0
    4ee4:	c5 01       	movw	r24, r10
    4ee6:	19 95       	eicall
    4ee8:	78 01       	movw	r14, r16
    4eea:	8e 01       	movw	r16, r28
    4eec:	21 e0       	ldi	r18, 0x01	; 1
    4eee:	30 e0       	ldi	r19, 0x00	; 0
    4ef0:	a6 01       	movw	r20, r12
    4ef2:	b4 01       	movw	r22, r8
    4ef4:	c5 01       	movw	r24, r10
    4ef6:	09 df       	rcall	.-494    	; 0x4d0a <_ZN15Adafruit_SPITFT23writeFillRectPreclippedEiiiij>
    4ef8:	d5 01       	movw	r26, r10
    4efa:	ed 91       	ld	r30, X+
    4efc:	fc 91       	ld	r31, X
    4efe:	06 88       	ldd	r0, Z+22	; 0x16
    4f00:	f7 89       	ldd	r31, Z+23	; 0x17
    4f02:	e0 2d       	mov	r30, r0
    4f04:	c5 01       	movw	r24, r10
    4f06:	df 91       	pop	r29
    4f08:	cf 91       	pop	r28
    4f0a:	1f 91       	pop	r17
    4f0c:	0f 91       	pop	r16
    4f0e:	ff 90       	pop	r15
    4f10:	ef 90       	pop	r14
    4f12:	df 90       	pop	r13
    4f14:	cf 90       	pop	r12
    4f16:	bf 90       	pop	r11
    4f18:	af 90       	pop	r10
    4f1a:	9f 90       	pop	r9
    4f1c:	8f 90       	pop	r8
    4f1e:	19 94       	eijmp
    4f20:	df 91       	pop	r29
    4f22:	cf 91       	pop	r28
    4f24:	1f 91       	pop	r17
    4f26:	0f 91       	pop	r16
    4f28:	ff 90       	pop	r15
    4f2a:	ef 90       	pop	r14
    4f2c:	df 90       	pop	r13
    4f2e:	cf 90       	pop	r12
    4f30:	bf 90       	pop	r11
    4f32:	af 90       	pop	r10
    4f34:	9f 90       	pop	r9
    4f36:	8f 90       	pop	r8
    4f38:	08 95       	ret

00004f3a <_ZN15Adafruit_SPITFT13drawFastHLineEiiij>:
    4f3a:	8f 92       	push	r8
    4f3c:	9f 92       	push	r9
    4f3e:	af 92       	push	r10
    4f40:	bf 92       	push	r11
    4f42:	cf 92       	push	r12
    4f44:	df 92       	push	r13
    4f46:	ef 92       	push	r14
    4f48:	ff 92       	push	r15
    4f4a:	0f 93       	push	r16
    4f4c:	1f 93       	push	r17
    4f4e:	cf 93       	push	r28
    4f50:	df 93       	push	r29
    4f52:	5c 01       	movw	r10, r24
    4f54:	6b 01       	movw	r12, r22
    4f56:	4a 01       	movw	r8, r20
    4f58:	e9 01       	movw	r28, r18
    4f5a:	57 fd       	sbrc	r21, 7
    4f5c:	52 c0       	rjmp	.+164    	; 0x5002 <_ZN15Adafruit_SPITFT13drawFastHLineEiiij+0xc8>
    4f5e:	dc 01       	movw	r26, r24
    4f60:	1a 96       	adiw	r26, 0x0a	; 10
    4f62:	8d 91       	ld	r24, X+
    4f64:	9c 91       	ld	r25, X
    4f66:	1b 97       	sbiw	r26, 0x0b	; 11
    4f68:	48 17       	cp	r20, r24
    4f6a:	59 07       	cpc	r21, r25
    4f6c:	0c f0       	brlt	.+2      	; 0x4f70 <_ZN15Adafruit_SPITFT13drawFastHLineEiiij+0x36>
    4f6e:	49 c0       	rjmp	.+146    	; 0x5002 <_ZN15Adafruit_SPITFT13drawFastHLineEiiij+0xc8>
    4f70:	20 97       	sbiw	r28, 0x00	; 0
    4f72:	09 f4       	brne	.+2      	; 0x4f76 <_ZN15Adafruit_SPITFT13drawFastHLineEiiij+0x3c>
    4f74:	46 c0       	rjmp	.+140    	; 0x5002 <_ZN15Adafruit_SPITFT13drawFastHLineEiiij+0xc8>
    4f76:	37 ff       	sbrs	r19, 7
    4f78:	07 c0       	rjmp	.+14     	; 0x4f88 <_ZN15Adafruit_SPITFT13drawFastHLineEiiij+0x4e>
    4f7a:	c9 01       	movw	r24, r18
    4f7c:	01 96       	adiw	r24, 0x01	; 1
    4f7e:	c8 0e       	add	r12, r24
    4f80:	d9 1e       	adc	r13, r25
    4f82:	d1 95       	neg	r29
    4f84:	c1 95       	neg	r28
    4f86:	d1 09       	sbc	r29, r1
    4f88:	f5 01       	movw	r30, r10
    4f8a:	80 85       	ldd	r24, Z+8	; 0x08
    4f8c:	91 85       	ldd	r25, Z+9	; 0x09
    4f8e:	c8 16       	cp	r12, r24
    4f90:	d9 06       	cpc	r13, r25
    4f92:	bc f5       	brge	.+110    	; 0x5002 <_ZN15Adafruit_SPITFT13drawFastHLineEiiij+0xc8>
    4f94:	a6 01       	movw	r20, r12
    4f96:	4c 0f       	add	r20, r28
    4f98:	5d 1f       	adc	r21, r29
    4f9a:	9a 01       	movw	r18, r20
    4f9c:	21 50       	subi	r18, 0x01	; 1
    4f9e:	31 09       	sbc	r19, r1
    4fa0:	37 fd       	sbrc	r19, 7
    4fa2:	2f c0       	rjmp	.+94     	; 0x5002 <_ZN15Adafruit_SPITFT13drawFastHLineEiiij+0xc8>
    4fa4:	d7 fe       	sbrs	r13, 7
    4fa6:	03 c0       	rjmp	.+6      	; 0x4fae <_ZN15Adafruit_SPITFT13drawFastHLineEiiij+0x74>
    4fa8:	ea 01       	movw	r28, r20
    4faa:	c1 2c       	mov	r12, r1
    4fac:	d1 2c       	mov	r13, r1
    4fae:	28 17       	cp	r18, r24
    4fb0:	39 07       	cpc	r19, r25
    4fb2:	1c f0       	brlt	.+6      	; 0x4fba <_ZN15Adafruit_SPITFT13drawFastHLineEiiij+0x80>
    4fb4:	ec 01       	movw	r28, r24
    4fb6:	cc 19       	sub	r28, r12
    4fb8:	dd 09       	sbc	r29, r13
    4fba:	d5 01       	movw	r26, r10
    4fbc:	ed 91       	ld	r30, X+
    4fbe:	fc 91       	ld	r31, X
    4fc0:	02 84       	ldd	r0, Z+10	; 0x0a
    4fc2:	f3 85       	ldd	r31, Z+11	; 0x0b
    4fc4:	e0 2d       	mov	r30, r0
    4fc6:	c5 01       	movw	r24, r10
    4fc8:	19 95       	eicall
    4fca:	78 01       	movw	r14, r16
    4fcc:	01 e0       	ldi	r16, 0x01	; 1
    4fce:	10 e0       	ldi	r17, 0x00	; 0
    4fd0:	9e 01       	movw	r18, r28
    4fd2:	a4 01       	movw	r20, r8
    4fd4:	b6 01       	movw	r22, r12
    4fd6:	c5 01       	movw	r24, r10
    4fd8:	98 de       	rcall	.-720    	; 0x4d0a <_ZN15Adafruit_SPITFT23writeFillRectPreclippedEiiiij>
    4fda:	d5 01       	movw	r26, r10
    4fdc:	ed 91       	ld	r30, X+
    4fde:	fc 91       	ld	r31, X
    4fe0:	06 88       	ldd	r0, Z+22	; 0x16
    4fe2:	f7 89       	ldd	r31, Z+23	; 0x17
    4fe4:	e0 2d       	mov	r30, r0
    4fe6:	c5 01       	movw	r24, r10
    4fe8:	df 91       	pop	r29
    4fea:	cf 91       	pop	r28
    4fec:	1f 91       	pop	r17
    4fee:	0f 91       	pop	r16
    4ff0:	ff 90       	pop	r15
    4ff2:	ef 90       	pop	r14
    4ff4:	df 90       	pop	r13
    4ff6:	cf 90       	pop	r12
    4ff8:	bf 90       	pop	r11
    4ffa:	af 90       	pop	r10
    4ffc:	9f 90       	pop	r9
    4ffe:	8f 90       	pop	r8
    5000:	19 94       	eijmp
    5002:	df 91       	pop	r29
    5004:	cf 91       	pop	r28
    5006:	1f 91       	pop	r17
    5008:	0f 91       	pop	r16
    500a:	ff 90       	pop	r15
    500c:	ef 90       	pop	r14
    500e:	df 90       	pop	r13
    5010:	cf 90       	pop	r12
    5012:	bf 90       	pop	r11
    5014:	af 90       	pop	r10
    5016:	9f 90       	pop	r9
    5018:	8f 90       	pop	r8
    501a:	08 95       	ret

0000501c <_ZN15Adafruit_SPITFT8fillRectEiiiij>:
    501c:	8f 92       	push	r8
    501e:	9f 92       	push	r9
    5020:	af 92       	push	r10
    5022:	bf 92       	push	r11
    5024:	cf 92       	push	r12
    5026:	df 92       	push	r13
    5028:	ef 92       	push	r14
    502a:	ff 92       	push	r15
    502c:	0f 93       	push	r16
    502e:	1f 93       	push	r17
    5030:	cf 93       	push	r28
    5032:	df 93       	push	r29
    5034:	4c 01       	movw	r8, r24
    5036:	6b 01       	movw	r12, r22
    5038:	5a 01       	movw	r10, r20
    503a:	e9 01       	movw	r28, r18
    503c:	20 97       	sbiw	r28, 0x00	; 0
    503e:	09 f4       	brne	.+2      	; 0x5042 <_ZN15Adafruit_SPITFT8fillRectEiiiij+0x26>
    5040:	6b c0       	rjmp	.+214    	; 0x5118 <_ZN15Adafruit_SPITFT8fillRectEiiiij+0xfc>
    5042:	01 15       	cp	r16, r1
    5044:	11 05       	cpc	r17, r1
    5046:	09 f4       	brne	.+2      	; 0x504a <_ZN15Adafruit_SPITFT8fillRectEiiiij+0x2e>
    5048:	67 c0       	rjmp	.+206    	; 0x5118 <_ZN15Adafruit_SPITFT8fillRectEiiiij+0xfc>
    504a:	37 ff       	sbrs	r19, 7
    504c:	07 c0       	rjmp	.+14     	; 0x505c <_ZN15Adafruit_SPITFT8fillRectEiiiij+0x40>
    504e:	c9 01       	movw	r24, r18
    5050:	01 96       	adiw	r24, 0x01	; 1
    5052:	c8 0e       	add	r12, r24
    5054:	d9 1e       	adc	r13, r25
    5056:	d1 95       	neg	r29
    5058:	c1 95       	neg	r28
    505a:	d1 09       	sbc	r29, r1
    505c:	f4 01       	movw	r30, r8
    505e:	a0 85       	ldd	r26, Z+8	; 0x08
    5060:	b1 85       	ldd	r27, Z+9	; 0x09
    5062:	ca 16       	cp	r12, r26
    5064:	db 06       	cpc	r13, r27
    5066:	0c f0       	brlt	.+2      	; 0x506a <_ZN15Adafruit_SPITFT8fillRectEiiiij+0x4e>
    5068:	57 c0       	rjmp	.+174    	; 0x5118 <_ZN15Adafruit_SPITFT8fillRectEiiiij+0xfc>
    506a:	17 ff       	sbrs	r17, 7
    506c:	07 c0       	rjmp	.+14     	; 0x507c <_ZN15Adafruit_SPITFT8fillRectEiiiij+0x60>
    506e:	c8 01       	movw	r24, r16
    5070:	01 96       	adiw	r24, 0x01	; 1
    5072:	a8 0e       	add	r10, r24
    5074:	b9 1e       	adc	r11, r25
    5076:	11 95       	neg	r17
    5078:	01 95       	neg	r16
    507a:	11 09       	sbc	r17, r1
    507c:	f4 01       	movw	r30, r8
    507e:	82 85       	ldd	r24, Z+10	; 0x0a
    5080:	93 85       	ldd	r25, Z+11	; 0x0b
    5082:	a8 16       	cp	r10, r24
    5084:	b9 06       	cpc	r11, r25
    5086:	0c f0       	brlt	.+2      	; 0x508a <_ZN15Adafruit_SPITFT8fillRectEiiiij+0x6e>
    5088:	47 c0       	rjmp	.+142    	; 0x5118 <_ZN15Adafruit_SPITFT8fillRectEiiiij+0xfc>
    508a:	f6 01       	movw	r30, r12
    508c:	ec 0f       	add	r30, r28
    508e:	fd 1f       	adc	r31, r29
    5090:	af 01       	movw	r20, r30
    5092:	41 50       	subi	r20, 0x01	; 1
    5094:	51 09       	sbc	r21, r1
    5096:	57 fd       	sbrc	r21, 7
    5098:	3f c0       	rjmp	.+126    	; 0x5118 <_ZN15Adafruit_SPITFT8fillRectEiiiij+0xfc>
    509a:	b5 01       	movw	r22, r10
    509c:	60 0f       	add	r22, r16
    509e:	71 1f       	adc	r23, r17
    50a0:	9b 01       	movw	r18, r22
    50a2:	21 50       	subi	r18, 0x01	; 1
    50a4:	31 09       	sbc	r19, r1
    50a6:	37 fd       	sbrc	r19, 7
    50a8:	37 c0       	rjmp	.+110    	; 0x5118 <_ZN15Adafruit_SPITFT8fillRectEiiiij+0xfc>
    50aa:	d7 fe       	sbrs	r13, 7
    50ac:	03 c0       	rjmp	.+6      	; 0x50b4 <_ZN15Adafruit_SPITFT8fillRectEiiiij+0x98>
    50ae:	ef 01       	movw	r28, r30
    50b0:	c1 2c       	mov	r12, r1
    50b2:	d1 2c       	mov	r13, r1
    50b4:	b7 fe       	sbrs	r11, 7
    50b6:	03 c0       	rjmp	.+6      	; 0x50be <_ZN15Adafruit_SPITFT8fillRectEiiiij+0xa2>
    50b8:	8b 01       	movw	r16, r22
    50ba:	a1 2c       	mov	r10, r1
    50bc:	b1 2c       	mov	r11, r1
    50be:	4a 17       	cp	r20, r26
    50c0:	5b 07       	cpc	r21, r27
    50c2:	1c f0       	brlt	.+6      	; 0x50ca <_ZN15Adafruit_SPITFT8fillRectEiiiij+0xae>
    50c4:	ed 01       	movw	r28, r26
    50c6:	cc 19       	sub	r28, r12
    50c8:	dd 09       	sbc	r29, r13
    50ca:	28 17       	cp	r18, r24
    50cc:	39 07       	cpc	r19, r25
    50ce:	1c f0       	brlt	.+6      	; 0x50d6 <_ZN15Adafruit_SPITFT8fillRectEiiiij+0xba>
    50d0:	8c 01       	movw	r16, r24
    50d2:	0a 19       	sub	r16, r10
    50d4:	1b 09       	sbc	r17, r11
    50d6:	d4 01       	movw	r26, r8
    50d8:	ed 91       	ld	r30, X+
    50da:	fc 91       	ld	r31, X
    50dc:	02 84       	ldd	r0, Z+10	; 0x0a
    50de:	f3 85       	ldd	r31, Z+11	; 0x0b
    50e0:	e0 2d       	mov	r30, r0
    50e2:	c4 01       	movw	r24, r8
    50e4:	19 95       	eicall
    50e6:	9e 01       	movw	r18, r28
    50e8:	a5 01       	movw	r20, r10
    50ea:	b6 01       	movw	r22, r12
    50ec:	c4 01       	movw	r24, r8
    50ee:	0d de       	rcall	.-998    	; 0x4d0a <_ZN15Adafruit_SPITFT23writeFillRectPreclippedEiiiij>
    50f0:	d4 01       	movw	r26, r8
    50f2:	ed 91       	ld	r30, X+
    50f4:	fc 91       	ld	r31, X
    50f6:	06 88       	ldd	r0, Z+22	; 0x16
    50f8:	f7 89       	ldd	r31, Z+23	; 0x17
    50fa:	e0 2d       	mov	r30, r0
    50fc:	c4 01       	movw	r24, r8
    50fe:	df 91       	pop	r29
    5100:	cf 91       	pop	r28
    5102:	1f 91       	pop	r17
    5104:	0f 91       	pop	r16
    5106:	ff 90       	pop	r15
    5108:	ef 90       	pop	r14
    510a:	df 90       	pop	r13
    510c:	cf 90       	pop	r12
    510e:	bf 90       	pop	r11
    5110:	af 90       	pop	r10
    5112:	9f 90       	pop	r9
    5114:	8f 90       	pop	r8
    5116:	19 94       	eijmp
    5118:	df 91       	pop	r29
    511a:	cf 91       	pop	r28
    511c:	1f 91       	pop	r17
    511e:	0f 91       	pop	r16
    5120:	ff 90       	pop	r15
    5122:	ef 90       	pop	r14
    5124:	df 90       	pop	r13
    5126:	cf 90       	pop	r12
    5128:	bf 90       	pop	r11
    512a:	af 90       	pop	r10
    512c:	9f 90       	pop	r9
    512e:	8f 90       	pop	r8
    5130:	08 95       	ret

00005132 <_ZN15Adafruit_SPITFT13writeFillRectEiiiij>:
    5132:	8f 92       	push	r8
    5134:	9f 92       	push	r9
    5136:	af 92       	push	r10
    5138:	bf 92       	push	r11
    513a:	cf 92       	push	r12
    513c:	df 92       	push	r13
    513e:	ef 92       	push	r14
    5140:	ff 92       	push	r15
    5142:	0f 93       	push	r16
    5144:	1f 93       	push	r17
    5146:	cf 93       	push	r28
    5148:	df 93       	push	r29
    514a:	47 01       	movw	r8, r14
    514c:	21 15       	cp	r18, r1
    514e:	31 05       	cpc	r19, r1
    5150:	09 f4       	brne	.+2      	; 0x5154 <_ZN15Adafruit_SPITFT13writeFillRectEiiiij+0x22>
    5152:	4c c0       	rjmp	.+152    	; 0x51ec <_ZN15Adafruit_SPITFT13writeFillRectEiiiij+0xba>
    5154:	01 15       	cp	r16, r1
    5156:	11 05       	cpc	r17, r1
    5158:	09 f4       	brne	.+2      	; 0x515c <_ZN15Adafruit_SPITFT13writeFillRectEiiiij+0x2a>
    515a:	48 c0       	rjmp	.+144    	; 0x51ec <_ZN15Adafruit_SPITFT13writeFillRectEiiiij+0xba>
    515c:	37 ff       	sbrs	r19, 7
    515e:	07 c0       	rjmp	.+14     	; 0x516e <_ZN15Adafruit_SPITFT13writeFillRectEiiiij+0x3c>
    5160:	f9 01       	movw	r30, r18
    5162:	31 96       	adiw	r30, 0x01	; 1
    5164:	6e 0f       	add	r22, r30
    5166:	7f 1f       	adc	r23, r31
    5168:	31 95       	neg	r19
    516a:	21 95       	neg	r18
    516c:	31 09       	sbc	r19, r1
    516e:	dc 01       	movw	r26, r24
    5170:	18 96       	adiw	r26, 0x08	; 8
    5172:	ad 90       	ld	r10, X+
    5174:	bc 90       	ld	r11, X
    5176:	19 97       	sbiw	r26, 0x09	; 9
    5178:	6a 15       	cp	r22, r10
    517a:	7b 05       	cpc	r23, r11
    517c:	bc f5       	brge	.+110    	; 0x51ec <_ZN15Adafruit_SPITFT13writeFillRectEiiiij+0xba>
    517e:	17 ff       	sbrs	r17, 7
    5180:	07 c0       	rjmp	.+14     	; 0x5190 <_ZN15Adafruit_SPITFT13writeFillRectEiiiij+0x5e>
    5182:	f8 01       	movw	r30, r16
    5184:	31 96       	adiw	r30, 0x01	; 1
    5186:	4e 0f       	add	r20, r30
    5188:	5f 1f       	adc	r21, r31
    518a:	11 95       	neg	r17
    518c:	01 95       	neg	r16
    518e:	11 09       	sbc	r17, r1
    5190:	dc 01       	movw	r26, r24
    5192:	1a 96       	adiw	r26, 0x0a	; 10
    5194:	ed 91       	ld	r30, X+
    5196:	fc 91       	ld	r31, X
    5198:	1b 97       	sbiw	r26, 0x0b	; 11
    519a:	4e 17       	cp	r20, r30
    519c:	5f 07       	cpc	r21, r31
    519e:	34 f5       	brge	.+76     	; 0x51ec <_ZN15Adafruit_SPITFT13writeFillRectEiiiij+0xba>
    51a0:	6b 01       	movw	r12, r22
    51a2:	c2 0e       	add	r12, r18
    51a4:	d3 1e       	adc	r13, r19
    51a6:	e6 01       	movw	r28, r12
    51a8:	21 97       	sbiw	r28, 0x01	; 1
    51aa:	d7 fd       	sbrc	r29, 7
    51ac:	1f c0       	rjmp	.+62     	; 0x51ec <_ZN15Adafruit_SPITFT13writeFillRectEiiiij+0xba>
    51ae:	7a 01       	movw	r14, r20
    51b0:	e0 0e       	add	r14, r16
    51b2:	f1 1e       	adc	r15, r17
    51b4:	d7 01       	movw	r26, r14
    51b6:	11 97       	sbiw	r26, 0x01	; 1
    51b8:	b7 fd       	sbrc	r27, 7
    51ba:	18 c0       	rjmp	.+48     	; 0x51ec <_ZN15Adafruit_SPITFT13writeFillRectEiiiij+0xba>
    51bc:	77 ff       	sbrs	r23, 7
    51be:	03 c0       	rjmp	.+6      	; 0x51c6 <_ZN15Adafruit_SPITFT13writeFillRectEiiiij+0x94>
    51c0:	96 01       	movw	r18, r12
    51c2:	60 e0       	ldi	r22, 0x00	; 0
    51c4:	70 e0       	ldi	r23, 0x00	; 0
    51c6:	57 ff       	sbrs	r21, 7
    51c8:	03 c0       	rjmp	.+6      	; 0x51d0 <_ZN15Adafruit_SPITFT13writeFillRectEiiiij+0x9e>
    51ca:	87 01       	movw	r16, r14
    51cc:	40 e0       	ldi	r20, 0x00	; 0
    51ce:	50 e0       	ldi	r21, 0x00	; 0
    51d0:	ca 15       	cp	r28, r10
    51d2:	db 05       	cpc	r29, r11
    51d4:	1c f0       	brlt	.+6      	; 0x51dc <_ZN15Adafruit_SPITFT13writeFillRectEiiiij+0xaa>
    51d6:	95 01       	movw	r18, r10
    51d8:	26 1b       	sub	r18, r22
    51da:	37 0b       	sbc	r19, r23
    51dc:	ae 17       	cp	r26, r30
    51de:	bf 07       	cpc	r27, r31
    51e0:	1c f0       	brlt	.+6      	; 0x51e8 <_ZN15Adafruit_SPITFT13writeFillRectEiiiij+0xb6>
    51e2:	8f 01       	movw	r16, r30
    51e4:	04 1b       	sub	r16, r20
    51e6:	15 0b       	sbc	r17, r21
    51e8:	74 01       	movw	r14, r8
    51ea:	8f dd       	rcall	.-1250   	; 0x4d0a <_ZN15Adafruit_SPITFT23writeFillRectPreclippedEiiiij>
    51ec:	df 91       	pop	r29
    51ee:	cf 91       	pop	r28
    51f0:	1f 91       	pop	r17
    51f2:	0f 91       	pop	r16
    51f4:	ff 90       	pop	r15
    51f6:	ef 90       	pop	r14
    51f8:	df 90       	pop	r13
    51fa:	cf 90       	pop	r12
    51fc:	bf 90       	pop	r11
    51fe:	af 90       	pop	r10
    5200:	9f 90       	pop	r9
    5202:	8f 90       	pop	r8
    5204:	08 95       	ret

00005206 <twi_init>:
    5206:	10 92 95 0d 	sts	0x0D95, r1	; 0x800d95 <twi_state>
    520a:	81 e0       	ldi	r24, 0x01	; 1
    520c:	80 93 93 0d 	sts	0x0D93, r24	; 0x800d93 <twi_sendStop>
    5210:	10 92 92 0d 	sts	0x0D92, r1	; 0x800d92 <twi_inRepStart>
    5214:	61 e0       	ldi	r22, 0x01	; 1
    5216:	84 e1       	ldi	r24, 0x14	; 20
    5218:	0e 94 8a 12 	call	0x2514	; 0x2514 <digitalWrite>
    521c:	61 e0       	ldi	r22, 0x01	; 1
    521e:	85 e1       	ldi	r24, 0x15	; 21
    5220:	0e 94 8a 12 	call	0x2514	; 0x2514 <digitalWrite>
    5224:	e9 eb       	ldi	r30, 0xB9	; 185
    5226:	f0 e0       	ldi	r31, 0x00	; 0
    5228:	80 81       	ld	r24, Z
    522a:	8e 7f       	andi	r24, 0xFE	; 254
    522c:	80 83       	st	Z, r24
    522e:	80 81       	ld	r24, Z
    5230:	8d 7f       	andi	r24, 0xFD	; 253
    5232:	80 83       	st	Z, r24
    5234:	88 e4       	ldi	r24, 0x48	; 72
    5236:	80 93 b8 00 	sts	0x00B8, r24	; 0x8000b8 <__TEXT_REGION_LENGTH__+0x7000b8>
    523a:	85 e4       	ldi	r24, 0x45	; 69
    523c:	80 93 bc 00 	sts	0x00BC, r24	; 0x8000bc <__TEXT_REGION_LENGTH__+0x7000bc>
    5240:	08 95       	ret

00005242 <twi_readFrom>:
    5242:	41 32       	cpi	r20, 0x21	; 33
    5244:	08 f0       	brcs	.+2      	; 0x5248 <twi_readFrom+0x6>
    5246:	43 c0       	rjmp	.+134    	; 0x52ce <twi_readFrom+0x8c>
    5248:	90 91 95 0d 	lds	r25, 0x0D95	; 0x800d95 <twi_state>
    524c:	91 11       	cpse	r25, r1
    524e:	fc cf       	rjmp	.-8      	; 0x5248 <twi_readFrom+0x6>
    5250:	91 e0       	ldi	r25, 0x01	; 1
    5252:	90 93 95 0d 	sts	0x0D95, r25	; 0x800d95 <twi_state>
    5256:	20 93 93 0d 	sts	0x0D93, r18	; 0x800d93 <twi_sendStop>
    525a:	2f ef       	ldi	r18, 0xFF	; 255
    525c:	20 93 28 0d 	sts	0x0D28, r18	; 0x800d28 <twi_error>
    5260:	10 92 6d 0d 	sts	0x0D6D, r1	; 0x800d6d <twi_masterBufferIndex>
    5264:	24 0f       	add	r18, r20
    5266:	20 93 6c 0d 	sts	0x0D6C, r18	; 0x800d6c <twi_masterBufferLength>
    526a:	90 93 94 0d 	sts	0x0D94, r25	; 0x800d94 <twi_slarw>
    526e:	90 91 94 0d 	lds	r25, 0x0D94	; 0x800d94 <twi_slarw>
    5272:	88 0f       	add	r24, r24
    5274:	89 2b       	or	r24, r25
    5276:	80 93 94 0d 	sts	0x0D94, r24	; 0x800d94 <twi_slarw>
    527a:	80 91 92 0d 	lds	r24, 0x0D92	; 0x800d92 <twi_inRepStart>
    527e:	81 30       	cpi	r24, 0x01	; 1
    5280:	61 f4       	brne	.+24     	; 0x529a <twi_readFrom+0x58>
    5282:	10 92 92 0d 	sts	0x0D92, r1	; 0x800d92 <twi_inRepStart>
    5286:	80 91 94 0d 	lds	r24, 0x0D94	; 0x800d94 <twi_slarw>
    528a:	80 93 bb 00 	sts	0x00BB, r24	; 0x8000bb <__TEXT_REGION_LENGTH__+0x7000bb>
    528e:	80 91 bc 00 	lds	r24, 0x00BC	; 0x8000bc <__TEXT_REGION_LENGTH__+0x7000bc>
    5292:	83 fd       	sbrc	r24, 3
    5294:	f8 cf       	rjmp	.-16     	; 0x5286 <twi_readFrom+0x44>
    5296:	85 ec       	ldi	r24, 0xC5	; 197
    5298:	01 c0       	rjmp	.+2      	; 0x529c <twi_readFrom+0x5a>
    529a:	85 ee       	ldi	r24, 0xE5	; 229
    529c:	80 93 bc 00 	sts	0x00BC, r24	; 0x8000bc <__TEXT_REGION_LENGTH__+0x7000bc>
    52a0:	80 91 95 0d 	lds	r24, 0x0D95	; 0x800d95 <twi_state>
    52a4:	81 30       	cpi	r24, 0x01	; 1
    52a6:	e1 f3       	breq	.-8      	; 0x52a0 <twi_readFrom+0x5e>
    52a8:	80 91 6d 0d 	lds	r24, 0x0D6D	; 0x800d6d <twi_masterBufferIndex>
    52ac:	84 17       	cp	r24, r20
    52ae:	10 f4       	brcc	.+4      	; 0x52b4 <twi_readFrom+0x72>
    52b0:	40 91 6d 0d 	lds	r20, 0x0D6D	; 0x800d6d <twi_masterBufferIndex>
    52b4:	ae e6       	ldi	r26, 0x6E	; 110
    52b6:	bd e0       	ldi	r27, 0x0D	; 13
    52b8:	96 2f       	mov	r25, r22
    52ba:	fb 01       	movw	r30, r22
    52bc:	8e 2f       	mov	r24, r30
    52be:	89 1b       	sub	r24, r25
    52c0:	84 17       	cp	r24, r20
    52c2:	18 f4       	brcc	.+6      	; 0x52ca <twi_readFrom+0x88>
    52c4:	8d 91       	ld	r24, X+
    52c6:	81 93       	st	Z+, r24
    52c8:	f9 cf       	rjmp	.-14     	; 0x52bc <twi_readFrom+0x7a>
    52ca:	84 2f       	mov	r24, r20
    52cc:	08 95       	ret
    52ce:	80 e0       	ldi	r24, 0x00	; 0
    52d0:	08 95       	ret

000052d2 <twi_writeTo>:
    52d2:	0f 93       	push	r16
    52d4:	41 32       	cpi	r20, 0x21	; 33
    52d6:	08 f0       	brcs	.+2      	; 0x52da <twi_writeTo+0x8>
    52d8:	4a c0       	rjmp	.+148    	; 0x536e <twi_writeTo+0x9c>
    52da:	90 91 95 0d 	lds	r25, 0x0D95	; 0x800d95 <twi_state>
    52de:	91 11       	cpse	r25, r1
    52e0:	fc cf       	rjmp	.-8      	; 0x52da <twi_writeTo+0x8>
    52e2:	32 e0       	ldi	r19, 0x02	; 2
    52e4:	30 93 95 0d 	sts	0x0D95, r19	; 0x800d95 <twi_state>
    52e8:	00 93 93 0d 	sts	0x0D93, r16	; 0x800d93 <twi_sendStop>
    52ec:	3f ef       	ldi	r19, 0xFF	; 255
    52ee:	30 93 28 0d 	sts	0x0D28, r19	; 0x800d28 <twi_error>
    52f2:	10 92 6d 0d 	sts	0x0D6D, r1	; 0x800d6d <twi_masterBufferIndex>
    52f6:	40 93 6c 0d 	sts	0x0D6C, r20	; 0x800d6c <twi_masterBufferLength>
    52fa:	56 2f       	mov	r21, r22
    52fc:	ae e6       	ldi	r26, 0x6E	; 110
    52fe:	bd e0       	ldi	r27, 0x0D	; 13
    5300:	fb 01       	movw	r30, r22
    5302:	3e 2f       	mov	r19, r30
    5304:	35 1b       	sub	r19, r21
    5306:	34 17       	cp	r19, r20
    5308:	18 f4       	brcc	.+6      	; 0x5310 <twi_writeTo+0x3e>
    530a:	31 91       	ld	r19, Z+
    530c:	3d 93       	st	X+, r19
    530e:	f9 cf       	rjmp	.-14     	; 0x5302 <twi_writeTo+0x30>
    5310:	10 92 94 0d 	sts	0x0D94, r1	; 0x800d94 <twi_slarw>
    5314:	30 91 94 0d 	lds	r19, 0x0D94	; 0x800d94 <twi_slarw>
    5318:	88 0f       	add	r24, r24
    531a:	83 2b       	or	r24, r19
    531c:	80 93 94 0d 	sts	0x0D94, r24	; 0x800d94 <twi_slarw>
    5320:	80 91 92 0d 	lds	r24, 0x0D92	; 0x800d92 <twi_inRepStart>
    5324:	81 30       	cpi	r24, 0x01	; 1
    5326:	61 f4       	brne	.+24     	; 0x5340 <twi_writeTo+0x6e>
    5328:	10 92 92 0d 	sts	0x0D92, r1	; 0x800d92 <twi_inRepStart>
    532c:	80 91 94 0d 	lds	r24, 0x0D94	; 0x800d94 <twi_slarw>
    5330:	80 93 bb 00 	sts	0x00BB, r24	; 0x8000bb <__TEXT_REGION_LENGTH__+0x7000bb>
    5334:	80 91 bc 00 	lds	r24, 0x00BC	; 0x8000bc <__TEXT_REGION_LENGTH__+0x7000bc>
    5338:	83 fd       	sbrc	r24, 3
    533a:	f8 cf       	rjmp	.-16     	; 0x532c <twi_writeTo+0x5a>
    533c:	85 ec       	ldi	r24, 0xC5	; 197
    533e:	01 c0       	rjmp	.+2      	; 0x5342 <twi_writeTo+0x70>
    5340:	85 ee       	ldi	r24, 0xE5	; 229
    5342:	80 93 bc 00 	sts	0x00BC, r24	; 0x8000bc <__TEXT_REGION_LENGTH__+0x7000bc>
    5346:	22 23       	and	r18, r18
    5348:	21 f0       	breq	.+8      	; 0x5352 <twi_writeTo+0x80>
    534a:	80 91 95 0d 	lds	r24, 0x0D95	; 0x800d95 <twi_state>
    534e:	82 30       	cpi	r24, 0x02	; 2
    5350:	d1 f3       	breq	.-12     	; 0x5346 <twi_writeTo+0x74>
    5352:	80 91 28 0d 	lds	r24, 0x0D28	; 0x800d28 <twi_error>
    5356:	8f 3f       	cpi	r24, 0xFF	; 255
    5358:	79 f0       	breq	.+30     	; 0x5378 <twi_writeTo+0xa6>
    535a:	80 91 28 0d 	lds	r24, 0x0D28	; 0x800d28 <twi_error>
    535e:	80 32       	cpi	r24, 0x20	; 32
    5360:	41 f0       	breq	.+16     	; 0x5372 <twi_writeTo+0xa0>
    5362:	80 91 28 0d 	lds	r24, 0x0D28	; 0x800d28 <twi_error>
    5366:	80 33       	cpi	r24, 0x30	; 48
    5368:	31 f0       	breq	.+12     	; 0x5376 <twi_writeTo+0xa4>
    536a:	94 e0       	ldi	r25, 0x04	; 4
    536c:	05 c0       	rjmp	.+10     	; 0x5378 <twi_writeTo+0xa6>
    536e:	91 e0       	ldi	r25, 0x01	; 1
    5370:	03 c0       	rjmp	.+6      	; 0x5378 <twi_writeTo+0xa6>
    5372:	92 e0       	ldi	r25, 0x02	; 2
    5374:	01 c0       	rjmp	.+2      	; 0x5378 <twi_writeTo+0xa6>
    5376:	93 e0       	ldi	r25, 0x03	; 3
    5378:	89 2f       	mov	r24, r25
    537a:	0f 91       	pop	r16
    537c:	08 95       	ret

0000537e <twi_transmit>:
    537e:	40 91 4a 0d 	lds	r20, 0x0D4A	; 0x800d4a <twi_txBufferLength>
    5382:	26 2f       	mov	r18, r22
    5384:	30 e0       	ldi	r19, 0x00	; 0
    5386:	24 0f       	add	r18, r20
    5388:	31 1d       	adc	r19, r1
    538a:	21 32       	cpi	r18, 0x21	; 33
    538c:	31 05       	cpc	r19, r1
    538e:	dc f4       	brge	.+54     	; 0x53c6 <twi_transmit+0x48>
    5390:	20 91 95 0d 	lds	r18, 0x0D95	; 0x800d95 <twi_state>
    5394:	24 30       	cpi	r18, 0x04	; 4
    5396:	c9 f4       	brne	.+50     	; 0x53ca <twi_transmit+0x4c>
    5398:	fc 01       	movw	r30, r24
    539a:	80 e0       	ldi	r24, 0x00	; 0
    539c:	90 e0       	ldi	r25, 0x00	; 0
    539e:	86 17       	cp	r24, r22
    53a0:	58 f4       	brcc	.+22     	; 0x53b8 <twi_transmit+0x3a>
    53a2:	30 91 4a 0d 	lds	r19, 0x0D4A	; 0x800d4a <twi_txBufferLength>
    53a6:	21 91       	ld	r18, Z+
    53a8:	dc 01       	movw	r26, r24
    53aa:	a4 5b       	subi	r26, 0xB4	; 180
    53ac:	b2 4f       	sbci	r27, 0xF2	; 242
    53ae:	a3 0f       	add	r26, r19
    53b0:	b1 1d       	adc	r27, r1
    53b2:	2c 93       	st	X, r18
    53b4:	01 96       	adiw	r24, 0x01	; 1
    53b6:	f3 cf       	rjmp	.-26     	; 0x539e <twi_transmit+0x20>
    53b8:	80 91 4a 0d 	lds	r24, 0x0D4A	; 0x800d4a <twi_txBufferLength>
    53bc:	68 0f       	add	r22, r24
    53be:	60 93 4a 0d 	sts	0x0D4A, r22	; 0x800d4a <twi_txBufferLength>
    53c2:	80 e0       	ldi	r24, 0x00	; 0
    53c4:	08 95       	ret
    53c6:	81 e0       	ldi	r24, 0x01	; 1
    53c8:	08 95       	ret
    53ca:	82 e0       	ldi	r24, 0x02	; 2
    53cc:	08 95       	ret

000053ce <twi_attachSlaveRxEvent>:
    53ce:	90 93 8f 0d 	sts	0x0D8F, r25	; 0x800d8f <twi_onSlaveReceive+0x1>
    53d2:	80 93 8e 0d 	sts	0x0D8E, r24	; 0x800d8e <twi_onSlaveReceive>
    53d6:	08 95       	ret

000053d8 <twi_attachSlaveTxEvent>:
    53d8:	90 93 91 0d 	sts	0x0D91, r25	; 0x800d91 <twi_onSlaveTransmit+0x1>
    53dc:	80 93 90 0d 	sts	0x0D90, r24	; 0x800d90 <twi_onSlaveTransmit>
    53e0:	08 95       	ret

000053e2 <twi_stop>:
    53e2:	85 ed       	ldi	r24, 0xD5	; 213
    53e4:	80 93 bc 00 	sts	0x00BC, r24	; 0x8000bc <__TEXT_REGION_LENGTH__+0x7000bc>
    53e8:	80 91 bc 00 	lds	r24, 0x00BC	; 0x8000bc <__TEXT_REGION_LENGTH__+0x7000bc>
    53ec:	84 fd       	sbrc	r24, 4
    53ee:	fc cf       	rjmp	.-8      	; 0x53e8 <twi_stop+0x6>
    53f0:	10 92 95 0d 	sts	0x0D95, r1	; 0x800d95 <twi_state>
    53f4:	08 95       	ret

000053f6 <twi_releaseBus>:
    53f6:	85 ec       	ldi	r24, 0xC5	; 197
    53f8:	80 93 bc 00 	sts	0x00BC, r24	; 0x8000bc <__TEXT_REGION_LENGTH__+0x7000bc>
    53fc:	10 92 95 0d 	sts	0x0D95, r1	; 0x800d95 <twi_state>
    5400:	08 95       	ret

00005402 <__vector_39>:
    5402:	1f 92       	push	r1
    5404:	0f 92       	push	r0
    5406:	0f b6       	in	r0, 0x3f	; 63
    5408:	0f 92       	push	r0
    540a:	11 24       	eor	r1, r1
    540c:	0b b6       	in	r0, 0x3b	; 59
    540e:	0f 92       	push	r0
    5410:	2f 93       	push	r18
    5412:	3f 93       	push	r19
    5414:	4f 93       	push	r20
    5416:	5f 93       	push	r21
    5418:	6f 93       	push	r22
    541a:	7f 93       	push	r23
    541c:	8f 93       	push	r24
    541e:	9f 93       	push	r25
    5420:	af 93       	push	r26
    5422:	bf 93       	push	r27
    5424:	ef 93       	push	r30
    5426:	ff 93       	push	r31
    5428:	80 91 b9 00 	lds	r24, 0x00B9	; 0x8000b9 <__TEXT_REGION_LENGTH__+0x7000b9>
    542c:	88 7f       	andi	r24, 0xF8	; 248
    542e:	80 36       	cpi	r24, 0x60	; 96
    5430:	09 f4       	brne	.+2      	; 0x5434 <__vector_39+0x32>
    5432:	9d c0       	rjmp	.+314    	; 0x556e <__vector_39+0x16c>
    5434:	70 f5       	brcc	.+92     	; 0x5492 <__vector_39+0x90>
    5436:	88 32       	cpi	r24, 0x28	; 40
    5438:	09 f4       	brne	.+2      	; 0x543c <__vector_39+0x3a>
    543a:	5c c0       	rjmp	.+184    	; 0x54f4 <__vector_39+0xf2>
    543c:	90 f4       	brcc	.+36     	; 0x5462 <__vector_39+0x60>
    543e:	80 31       	cpi	r24, 0x10	; 16
    5440:	09 f4       	brne	.+2      	; 0x5444 <__vector_39+0x42>
    5442:	55 c0       	rjmp	.+170    	; 0x54ee <__vector_39+0xec>
    5444:	38 f4       	brcc	.+14     	; 0x5454 <__vector_39+0x52>
    5446:	88 23       	and	r24, r24
    5448:	09 f4       	brne	.+2      	; 0x544c <__vector_39+0x4a>
    544a:	f3 c0       	rjmp	.+486    	; 0x5632 <__vector_39+0x230>
    544c:	88 30       	cpi	r24, 0x08	; 8
    544e:	09 f4       	brne	.+2      	; 0x5452 <__vector_39+0x50>
    5450:	4e c0       	rjmp	.+156    	; 0x54ee <__vector_39+0xec>
    5452:	f2 c0       	rjmp	.+484    	; 0x5638 <__vector_39+0x236>
    5454:	88 31       	cpi	r24, 0x18	; 24
    5456:	09 f4       	brne	.+2      	; 0x545a <__vector_39+0x58>
    5458:	4d c0       	rjmp	.+154    	; 0x54f4 <__vector_39+0xf2>
    545a:	80 32       	cpi	r24, 0x20	; 32
    545c:	09 f4       	brne	.+2      	; 0x5460 <__vector_39+0x5e>
    545e:	5e c0       	rjmp	.+188    	; 0x551c <__vector_39+0x11a>
    5460:	eb c0       	rjmp	.+470    	; 0x5638 <__vector_39+0x236>
    5462:	80 34       	cpi	r24, 0x40	; 64
    5464:	09 f4       	brne	.+2      	; 0x5468 <__vector_39+0x66>
    5466:	69 c0       	rjmp	.+210    	; 0x553a <__vector_39+0x138>
    5468:	50 f4       	brcc	.+20     	; 0x547e <__vector_39+0x7c>
    546a:	80 33       	cpi	r24, 0x30	; 48
    546c:	09 f4       	brne	.+2      	; 0x5470 <__vector_39+0x6e>
    546e:	56 c0       	rjmp	.+172    	; 0x551c <__vector_39+0x11a>
    5470:	88 33       	cpi	r24, 0x38	; 56
    5472:	09 f0       	breq	.+2      	; 0x5476 <__vector_39+0x74>
    5474:	e1 c0       	rjmp	.+450    	; 0x5638 <__vector_39+0x236>
    5476:	80 93 28 0d 	sts	0x0D28, r24	; 0x800d28 <twi_error>
    547a:	bd df       	rcall	.-134    	; 0x53f6 <twi_releaseBus>
    547c:	dd c0       	rjmp	.+442    	; 0x5638 <__vector_39+0x236>
    547e:	80 35       	cpi	r24, 0x50	; 80
    5480:	09 f4       	brne	.+2      	; 0x5484 <__vector_39+0x82>
    5482:	4f c0       	rjmp	.+158    	; 0x5522 <__vector_39+0x120>
    5484:	88 35       	cpi	r24, 0x58	; 88
    5486:	09 f4       	brne	.+2      	; 0x548a <__vector_39+0x88>
    5488:	5d c0       	rjmp	.+186    	; 0x5544 <__vector_39+0x142>
    548a:	88 34       	cpi	r24, 0x48	; 72
    548c:	09 f0       	breq	.+2      	; 0x5490 <__vector_39+0x8e>
    548e:	d4 c0       	rjmp	.+424    	; 0x5638 <__vector_39+0x236>
    5490:	d2 c0       	rjmp	.+420    	; 0x5636 <__vector_39+0x234>
    5492:	88 39       	cpi	r24, 0x98	; 152
    5494:	09 f4       	brne	.+2      	; 0x5498 <__vector_39+0x96>
    5496:	c3 c0       	rjmp	.+390    	; 0x561e <__vector_39+0x21c>
    5498:	a8 f4       	brcc	.+42     	; 0x54c4 <__vector_39+0xc2>
    549a:	88 37       	cpi	r24, 0x78	; 120
    549c:	09 f4       	brne	.+2      	; 0x54a0 <__vector_39+0x9e>
    549e:	67 c0       	rjmp	.+206    	; 0x556e <__vector_39+0x16c>
    54a0:	38 f4       	brcc	.+14     	; 0x54b0 <__vector_39+0xae>
    54a2:	88 36       	cpi	r24, 0x68	; 104
    54a4:	09 f4       	brne	.+2      	; 0x54a8 <__vector_39+0xa6>
    54a6:	63 c0       	rjmp	.+198    	; 0x556e <__vector_39+0x16c>
    54a8:	80 37       	cpi	r24, 0x70	; 112
    54aa:	09 f4       	brne	.+2      	; 0x54ae <__vector_39+0xac>
    54ac:	60 c0       	rjmp	.+192    	; 0x556e <__vector_39+0x16c>
    54ae:	c4 c0       	rjmp	.+392    	; 0x5638 <__vector_39+0x236>
    54b0:	88 38       	cpi	r24, 0x88	; 136
    54b2:	09 f4       	brne	.+2      	; 0x54b6 <__vector_39+0xb4>
    54b4:	b4 c0       	rjmp	.+360    	; 0x561e <__vector_39+0x21c>
    54b6:	80 39       	cpi	r24, 0x90	; 144
    54b8:	09 f4       	brne	.+2      	; 0x54bc <__vector_39+0xba>
    54ba:	5f c0       	rjmp	.+190    	; 0x557a <__vector_39+0x178>
    54bc:	80 38       	cpi	r24, 0x80	; 128
    54be:	09 f0       	breq	.+2      	; 0x54c2 <__vector_39+0xc0>
    54c0:	bb c0       	rjmp	.+374    	; 0x5638 <__vector_39+0x236>
    54c2:	5b c0       	rjmp	.+182    	; 0x557a <__vector_39+0x178>
    54c4:	80 3b       	cpi	r24, 0xB0	; 176
    54c6:	09 f4       	brne	.+2      	; 0x54ca <__vector_39+0xc8>
    54c8:	82 c0       	rjmp	.+260    	; 0x55ce <__vector_39+0x1cc>
    54ca:	38 f4       	brcc	.+14     	; 0x54da <__vector_39+0xd8>
    54cc:	80 3a       	cpi	r24, 0xA0	; 160
    54ce:	09 f4       	brne	.+2      	; 0x54d2 <__vector_39+0xd0>
    54d0:	66 c0       	rjmp	.+204    	; 0x559e <__vector_39+0x19c>
    54d2:	88 3a       	cpi	r24, 0xA8	; 168
    54d4:	09 f4       	brne	.+2      	; 0x54d8 <__vector_39+0xd6>
    54d6:	7b c0       	rjmp	.+246    	; 0x55ce <__vector_39+0x1cc>
    54d8:	af c0       	rjmp	.+350    	; 0x5638 <__vector_39+0x236>
    54da:	80 3c       	cpi	r24, 0xC0	; 192
    54dc:	09 f4       	brne	.+2      	; 0x54e0 <__vector_39+0xde>
    54de:	a3 c0       	rjmp	.+326    	; 0x5626 <__vector_39+0x224>
    54e0:	88 3c       	cpi	r24, 0xC8	; 200
    54e2:	09 f4       	brne	.+2      	; 0x54e6 <__vector_39+0xe4>
    54e4:	a0 c0       	rjmp	.+320    	; 0x5626 <__vector_39+0x224>
    54e6:	88 3b       	cpi	r24, 0xB8	; 184
    54e8:	09 f4       	brne	.+2      	; 0x54ec <__vector_39+0xea>
    54ea:	86 c0       	rjmp	.+268    	; 0x55f8 <__vector_39+0x1f6>
    54ec:	a5 c0       	rjmp	.+330    	; 0x5638 <__vector_39+0x236>
    54ee:	80 91 94 0d 	lds	r24, 0x0D94	; 0x800d94 <twi_slarw>
    54f2:	10 c0       	rjmp	.+32     	; 0x5514 <__vector_39+0x112>
    54f4:	90 91 6d 0d 	lds	r25, 0x0D6D	; 0x800d6d <twi_masterBufferIndex>
    54f8:	80 91 6c 0d 	lds	r24, 0x0D6C	; 0x800d6c <twi_masterBufferLength>
    54fc:	98 17       	cp	r25, r24
    54fe:	70 f5       	brcc	.+92     	; 0x555c <__vector_39+0x15a>
    5500:	e0 91 6d 0d 	lds	r30, 0x0D6D	; 0x800d6d <twi_masterBufferIndex>
    5504:	81 e0       	ldi	r24, 0x01	; 1
    5506:	8e 0f       	add	r24, r30
    5508:	80 93 6d 0d 	sts	0x0D6D, r24	; 0x800d6d <twi_masterBufferIndex>
    550c:	f0 e0       	ldi	r31, 0x00	; 0
    550e:	e2 59       	subi	r30, 0x92	; 146
    5510:	f2 4f       	sbci	r31, 0xF2	; 242
    5512:	80 81       	ld	r24, Z
    5514:	80 93 bb 00 	sts	0x00BB, r24	; 0x8000bb <__TEXT_REGION_LENGTH__+0x7000bb>
    5518:	85 ec       	ldi	r24, 0xC5	; 197
    551a:	82 c0       	rjmp	.+260    	; 0x5620 <__vector_39+0x21e>
    551c:	80 93 28 0d 	sts	0x0D28, r24	; 0x800d28 <twi_error>
    5520:	8a c0       	rjmp	.+276    	; 0x5636 <__vector_39+0x234>
    5522:	e0 91 6d 0d 	lds	r30, 0x0D6D	; 0x800d6d <twi_masterBufferIndex>
    5526:	81 e0       	ldi	r24, 0x01	; 1
    5528:	8e 0f       	add	r24, r30
    552a:	80 93 6d 0d 	sts	0x0D6D, r24	; 0x800d6d <twi_masterBufferIndex>
    552e:	80 91 bb 00 	lds	r24, 0x00BB	; 0x8000bb <__TEXT_REGION_LENGTH__+0x7000bb>
    5532:	f0 e0       	ldi	r31, 0x00	; 0
    5534:	e2 59       	subi	r30, 0x92	; 146
    5536:	f2 4f       	sbci	r31, 0xF2	; 242
    5538:	80 83       	st	Z, r24
    553a:	90 91 6d 0d 	lds	r25, 0x0D6D	; 0x800d6d <twi_masterBufferIndex>
    553e:	80 91 6c 0d 	lds	r24, 0x0D6C	; 0x800d6c <twi_masterBufferLength>
    5542:	6a c0       	rjmp	.+212    	; 0x5618 <__vector_39+0x216>
    5544:	e0 91 6d 0d 	lds	r30, 0x0D6D	; 0x800d6d <twi_masterBufferIndex>
    5548:	81 e0       	ldi	r24, 0x01	; 1
    554a:	8e 0f       	add	r24, r30
    554c:	80 93 6d 0d 	sts	0x0D6D, r24	; 0x800d6d <twi_masterBufferIndex>
    5550:	80 91 bb 00 	lds	r24, 0x00BB	; 0x8000bb <__TEXT_REGION_LENGTH__+0x7000bb>
    5554:	f0 e0       	ldi	r31, 0x00	; 0
    5556:	e2 59       	subi	r30, 0x92	; 146
    5558:	f2 4f       	sbci	r31, 0xF2	; 242
    555a:	80 83       	st	Z, r24
    555c:	80 91 93 0d 	lds	r24, 0x0D93	; 0x800d93 <twi_sendStop>
    5560:	81 11       	cpse	r24, r1
    5562:	69 c0       	rjmp	.+210    	; 0x5636 <__vector_39+0x234>
    5564:	81 e0       	ldi	r24, 0x01	; 1
    5566:	80 93 92 0d 	sts	0x0D92, r24	; 0x800d92 <twi_inRepStart>
    556a:	84 ea       	ldi	r24, 0xA4	; 164
    556c:	5d c0       	rjmp	.+186    	; 0x5628 <__vector_39+0x226>
    556e:	83 e0       	ldi	r24, 0x03	; 3
    5570:	80 93 95 0d 	sts	0x0D95, r24	; 0x800d95 <twi_state>
    5574:	10 92 29 0d 	sts	0x0D29, r1	; 0x800d29 <twi_rxBufferIndex>
    5578:	cf cf       	rjmp	.-98     	; 0x5518 <__vector_39+0x116>
    557a:	80 91 29 0d 	lds	r24, 0x0D29	; 0x800d29 <twi_rxBufferIndex>
    557e:	80 32       	cpi	r24, 0x20	; 32
    5580:	08 f0       	brcs	.+2      	; 0x5584 <__vector_39+0x182>
    5582:	4d c0       	rjmp	.+154    	; 0x561e <__vector_39+0x21c>
    5584:	e0 91 29 0d 	lds	r30, 0x0D29	; 0x800d29 <twi_rxBufferIndex>
    5588:	81 e0       	ldi	r24, 0x01	; 1
    558a:	8e 0f       	add	r24, r30
    558c:	80 93 29 0d 	sts	0x0D29, r24	; 0x800d29 <twi_rxBufferIndex>
    5590:	80 91 bb 00 	lds	r24, 0x00BB	; 0x8000bb <__TEXT_REGION_LENGTH__+0x7000bb>
    5594:	f0 e0       	ldi	r31, 0x00	; 0
    5596:	e6 5d       	subi	r30, 0xD6	; 214
    5598:	f2 4f       	sbci	r31, 0xF2	; 242
    559a:	80 83       	st	Z, r24
    559c:	bd cf       	rjmp	.-134    	; 0x5518 <__vector_39+0x116>
    559e:	2b df       	rcall	.-426    	; 0x53f6 <twi_releaseBus>
    55a0:	80 91 29 0d 	lds	r24, 0x0D29	; 0x800d29 <twi_rxBufferIndex>
    55a4:	80 32       	cpi	r24, 0x20	; 32
    55a6:	30 f4       	brcc	.+12     	; 0x55b4 <__vector_39+0x1b2>
    55a8:	e0 91 29 0d 	lds	r30, 0x0D29	; 0x800d29 <twi_rxBufferIndex>
    55ac:	f0 e0       	ldi	r31, 0x00	; 0
    55ae:	e6 5d       	subi	r30, 0xD6	; 214
    55b0:	f2 4f       	sbci	r31, 0xF2	; 242
    55b2:	10 82       	st	Z, r1
    55b4:	60 91 29 0d 	lds	r22, 0x0D29	; 0x800d29 <twi_rxBufferIndex>
    55b8:	70 e0       	ldi	r23, 0x00	; 0
    55ba:	e0 91 8e 0d 	lds	r30, 0x0D8E	; 0x800d8e <twi_onSlaveReceive>
    55be:	f0 91 8f 0d 	lds	r31, 0x0D8F	; 0x800d8f <twi_onSlaveReceive+0x1>
    55c2:	8a e2       	ldi	r24, 0x2A	; 42
    55c4:	9d e0       	ldi	r25, 0x0D	; 13
    55c6:	19 95       	eicall
    55c8:	10 92 29 0d 	sts	0x0D29, r1	; 0x800d29 <twi_rxBufferIndex>
    55cc:	35 c0       	rjmp	.+106    	; 0x5638 <__vector_39+0x236>
    55ce:	84 e0       	ldi	r24, 0x04	; 4
    55d0:	80 93 95 0d 	sts	0x0D95, r24	; 0x800d95 <twi_state>
    55d4:	10 92 4b 0d 	sts	0x0D4B, r1	; 0x800d4b <twi_txBufferIndex>
    55d8:	10 92 4a 0d 	sts	0x0D4A, r1	; 0x800d4a <twi_txBufferLength>
    55dc:	e0 91 90 0d 	lds	r30, 0x0D90	; 0x800d90 <twi_onSlaveTransmit>
    55e0:	f0 91 91 0d 	lds	r31, 0x0D91	; 0x800d91 <twi_onSlaveTransmit+0x1>
    55e4:	19 95       	eicall
    55e6:	80 91 4a 0d 	lds	r24, 0x0D4A	; 0x800d4a <twi_txBufferLength>
    55ea:	81 11       	cpse	r24, r1
    55ec:	05 c0       	rjmp	.+10     	; 0x55f8 <__vector_39+0x1f6>
    55ee:	81 e0       	ldi	r24, 0x01	; 1
    55f0:	80 93 4a 0d 	sts	0x0D4A, r24	; 0x800d4a <twi_txBufferLength>
    55f4:	10 92 4c 0d 	sts	0x0D4C, r1	; 0x800d4c <twi_txBuffer>
    55f8:	e0 91 4b 0d 	lds	r30, 0x0D4B	; 0x800d4b <twi_txBufferIndex>
    55fc:	81 e0       	ldi	r24, 0x01	; 1
    55fe:	8e 0f       	add	r24, r30
    5600:	80 93 4b 0d 	sts	0x0D4B, r24	; 0x800d4b <twi_txBufferIndex>
    5604:	f0 e0       	ldi	r31, 0x00	; 0
    5606:	e4 5b       	subi	r30, 0xB4	; 180
    5608:	f2 4f       	sbci	r31, 0xF2	; 242
    560a:	80 81       	ld	r24, Z
    560c:	80 93 bb 00 	sts	0x00BB, r24	; 0x8000bb <__TEXT_REGION_LENGTH__+0x7000bb>
    5610:	90 91 4b 0d 	lds	r25, 0x0D4B	; 0x800d4b <twi_txBufferIndex>
    5614:	80 91 4a 0d 	lds	r24, 0x0D4A	; 0x800d4a <twi_txBufferLength>
    5618:	98 17       	cp	r25, r24
    561a:	08 f4       	brcc	.+2      	; 0x561e <__vector_39+0x21c>
    561c:	7d cf       	rjmp	.-262    	; 0x5518 <__vector_39+0x116>
    561e:	85 e8       	ldi	r24, 0x85	; 133
    5620:	80 93 bc 00 	sts	0x00BC, r24	; 0x8000bc <__TEXT_REGION_LENGTH__+0x7000bc>
    5624:	09 c0       	rjmp	.+18     	; 0x5638 <__vector_39+0x236>
    5626:	85 ec       	ldi	r24, 0xC5	; 197
    5628:	80 93 bc 00 	sts	0x00BC, r24	; 0x8000bc <__TEXT_REGION_LENGTH__+0x7000bc>
    562c:	10 92 95 0d 	sts	0x0D95, r1	; 0x800d95 <twi_state>
    5630:	03 c0       	rjmp	.+6      	; 0x5638 <__vector_39+0x236>
    5632:	10 92 28 0d 	sts	0x0D28, r1	; 0x800d28 <twi_error>
    5636:	d5 de       	rcall	.-598    	; 0x53e2 <twi_stop>
    5638:	ff 91       	pop	r31
    563a:	ef 91       	pop	r30
    563c:	bf 91       	pop	r27
    563e:	af 91       	pop	r26
    5640:	9f 91       	pop	r25
    5642:	8f 91       	pop	r24
    5644:	7f 91       	pop	r23
    5646:	6f 91       	pop	r22
    5648:	5f 91       	pop	r21
    564a:	4f 91       	pop	r20
    564c:	3f 91       	pop	r19
    564e:	2f 91       	pop	r18
    5650:	0f 90       	pop	r0
    5652:	0b be       	out	0x3b, r0	; 59
    5654:	0f 90       	pop	r0
    5656:	0f be       	out	0x3f, r0	; 63
    5658:	0f 90       	pop	r0
    565a:	1f 90       	pop	r1
    565c:	18 95       	reti

0000565e <__divmodhi4>:
    565e:	97 fb       	bst	r25, 7
    5660:	07 2e       	mov	r0, r23
    5662:	16 f4       	brtc	.+4      	; 0x5668 <__divmodhi4+0xa>
    5664:	00 94       	com	r0
    5666:	06 d0       	rcall	.+12     	; 0x5674 <__divmodhi4_neg1>
    5668:	77 fd       	sbrc	r23, 7
    566a:	08 d0       	rcall	.+16     	; 0x567c <__divmodhi4_neg2>
    566c:	50 d0       	rcall	.+160    	; 0x570e <__udivmodhi4>
    566e:	07 fc       	sbrc	r0, 7
    5670:	05 d0       	rcall	.+10     	; 0x567c <__divmodhi4_neg2>
    5672:	3e f4       	brtc	.+14     	; 0x5682 <__divmodhi4_exit>

00005674 <__divmodhi4_neg1>:
    5674:	90 95       	com	r25
    5676:	81 95       	neg	r24
    5678:	9f 4f       	sbci	r25, 0xFF	; 255
    567a:	08 95       	ret

0000567c <__divmodhi4_neg2>:
    567c:	70 95       	com	r23
    567e:	61 95       	neg	r22
    5680:	7f 4f       	sbci	r23, 0xFF	; 255

00005682 <__divmodhi4_exit>:
    5682:	08 95       	ret

00005684 <__udivmodsi4>:
    5684:	a1 e2       	ldi	r26, 0x21	; 33
    5686:	1a 2e       	mov	r1, r26
    5688:	aa 1b       	sub	r26, r26
    568a:	bb 1b       	sub	r27, r27
    568c:	fd 01       	movw	r30, r26
    568e:	0d c0       	rjmp	.+26     	; 0x56aa <__udivmodsi4_ep>

00005690 <__udivmodsi4_loop>:
    5690:	aa 1f       	adc	r26, r26
    5692:	bb 1f       	adc	r27, r27
    5694:	ee 1f       	adc	r30, r30
    5696:	ff 1f       	adc	r31, r31
    5698:	a2 17       	cp	r26, r18
    569a:	b3 07       	cpc	r27, r19
    569c:	e4 07       	cpc	r30, r20
    569e:	f5 07       	cpc	r31, r21
    56a0:	20 f0       	brcs	.+8      	; 0x56aa <__udivmodsi4_ep>
    56a2:	a2 1b       	sub	r26, r18
    56a4:	b3 0b       	sbc	r27, r19
    56a6:	e4 0b       	sbc	r30, r20
    56a8:	f5 0b       	sbc	r31, r21

000056aa <__udivmodsi4_ep>:
    56aa:	66 1f       	adc	r22, r22
    56ac:	77 1f       	adc	r23, r23
    56ae:	88 1f       	adc	r24, r24
    56b0:	99 1f       	adc	r25, r25
    56b2:	1a 94       	dec	r1
    56b4:	69 f7       	brne	.-38     	; 0x5690 <__udivmodsi4_loop>
    56b6:	60 95       	com	r22
    56b8:	70 95       	com	r23
    56ba:	80 95       	com	r24
    56bc:	90 95       	com	r25
    56be:	9b 01       	movw	r18, r22
    56c0:	ac 01       	movw	r20, r24
    56c2:	bd 01       	movw	r22, r26
    56c4:	cf 01       	movw	r24, r30
    56c6:	08 95       	ret

000056c8 <__tablejump2__>:
    56c8:	ee 0f       	add	r30, r30
    56ca:	ff 1f       	adc	r31, r31
    56cc:	88 1f       	adc	r24, r24
    56ce:	8b bf       	out	0x3b, r24	; 59
    56d0:	07 90       	elpm	r0, Z+
    56d2:	f6 91       	elpm	r31, Z
    56d4:	e0 2d       	mov	r30, r0
    56d6:	19 94       	eijmp

000056d8 <__mulhisi3>:
    56d8:	05 d0       	rcall	.+10     	; 0x56e4 <__umulhisi3>
    56da:	33 23       	and	r19, r19
    56dc:	12 f4       	brpl	.+4      	; 0x56e2 <__mulhisi3+0xa>
    56de:	8a 1b       	sub	r24, r26
    56e0:	9b 0b       	sbc	r25, r27
    56e2:	10 c0       	rjmp	.+32     	; 0x5704 <__usmulhisi3_tail>

000056e4 <__umulhisi3>:
    56e4:	a2 9f       	mul	r26, r18
    56e6:	b0 01       	movw	r22, r0
    56e8:	b3 9f       	mul	r27, r19
    56ea:	c0 01       	movw	r24, r0
    56ec:	a3 9f       	mul	r26, r19
    56ee:	70 0d       	add	r23, r0
    56f0:	81 1d       	adc	r24, r1
    56f2:	11 24       	eor	r1, r1
    56f4:	91 1d       	adc	r25, r1
    56f6:	b2 9f       	mul	r27, r18
    56f8:	70 0d       	add	r23, r0
    56fa:	81 1d       	adc	r24, r1
    56fc:	11 24       	eor	r1, r1
    56fe:	91 1d       	adc	r25, r1
    5700:	08 95       	ret

00005702 <__usmulhisi3>:
    5702:	f0 df       	rcall	.-32     	; 0x56e4 <__umulhisi3>

00005704 <__usmulhisi3_tail>:
    5704:	b7 ff       	sbrs	r27, 7
    5706:	08 95       	ret
    5708:	82 1b       	sub	r24, r18
    570a:	93 0b       	sbc	r25, r19
    570c:	08 95       	ret

0000570e <__udivmodhi4>:
    570e:	aa 1b       	sub	r26, r26
    5710:	bb 1b       	sub	r27, r27
    5712:	51 e1       	ldi	r21, 0x11	; 17
    5714:	07 c0       	rjmp	.+14     	; 0x5724 <__udivmodhi4_ep>

00005716 <__udivmodhi4_loop>:
    5716:	aa 1f       	adc	r26, r26
    5718:	bb 1f       	adc	r27, r27
    571a:	a6 17       	cp	r26, r22
    571c:	b7 07       	cpc	r27, r23
    571e:	10 f0       	brcs	.+4      	; 0x5724 <__udivmodhi4_ep>
    5720:	a6 1b       	sub	r26, r22
    5722:	b7 0b       	sbc	r27, r23

00005724 <__udivmodhi4_ep>:
    5724:	88 1f       	adc	r24, r24
    5726:	99 1f       	adc	r25, r25
    5728:	5a 95       	dec	r21
    572a:	a9 f7       	brne	.-22     	; 0x5716 <__udivmodhi4_loop>
    572c:	80 95       	com	r24
    572e:	90 95       	com	r25
    5730:	bc 01       	movw	r22, r24
    5732:	cd 01       	movw	r24, r26
    5734:	08 95       	ret

00005736 <malloc>:
    5736:	0f 93       	push	r16
    5738:	1f 93       	push	r17
    573a:	cf 93       	push	r28
    573c:	df 93       	push	r29
    573e:	82 30       	cpi	r24, 0x02	; 2
    5740:	91 05       	cpc	r25, r1
    5742:	10 f4       	brcc	.+4      	; 0x5748 <malloc+0x12>
    5744:	82 e0       	ldi	r24, 0x02	; 2
    5746:	90 e0       	ldi	r25, 0x00	; 0
    5748:	e0 91 98 0d 	lds	r30, 0x0D98	; 0x800d98 <__flp>
    574c:	f0 91 99 0d 	lds	r31, 0x0D99	; 0x800d99 <__flp+0x1>
    5750:	20 e0       	ldi	r18, 0x00	; 0
    5752:	30 e0       	ldi	r19, 0x00	; 0
    5754:	a0 e0       	ldi	r26, 0x00	; 0
    5756:	b0 e0       	ldi	r27, 0x00	; 0
    5758:	30 97       	sbiw	r30, 0x00	; 0
    575a:	19 f1       	breq	.+70     	; 0x57a2 <malloc+0x6c>
    575c:	40 81       	ld	r20, Z
    575e:	51 81       	ldd	r21, Z+1	; 0x01
    5760:	02 81       	ldd	r16, Z+2	; 0x02
    5762:	13 81       	ldd	r17, Z+3	; 0x03
    5764:	48 17       	cp	r20, r24
    5766:	59 07       	cpc	r21, r25
    5768:	c8 f0       	brcs	.+50     	; 0x579c <malloc+0x66>
    576a:	84 17       	cp	r24, r20
    576c:	95 07       	cpc	r25, r21
    576e:	69 f4       	brne	.+26     	; 0x578a <malloc+0x54>
    5770:	10 97       	sbiw	r26, 0x00	; 0
    5772:	31 f0       	breq	.+12     	; 0x5780 <malloc+0x4a>
    5774:	12 96       	adiw	r26, 0x02	; 2
    5776:	0c 93       	st	X, r16
    5778:	12 97       	sbiw	r26, 0x02	; 2
    577a:	13 96       	adiw	r26, 0x03	; 3
    577c:	1c 93       	st	X, r17
    577e:	27 c0       	rjmp	.+78     	; 0x57ce <malloc+0x98>
    5780:	00 93 98 0d 	sts	0x0D98, r16	; 0x800d98 <__flp>
    5784:	10 93 99 0d 	sts	0x0D99, r17	; 0x800d99 <__flp+0x1>
    5788:	22 c0       	rjmp	.+68     	; 0x57ce <malloc+0x98>
    578a:	21 15       	cp	r18, r1
    578c:	31 05       	cpc	r19, r1
    578e:	19 f0       	breq	.+6      	; 0x5796 <malloc+0x60>
    5790:	42 17       	cp	r20, r18
    5792:	53 07       	cpc	r21, r19
    5794:	18 f4       	brcc	.+6      	; 0x579c <malloc+0x66>
    5796:	9a 01       	movw	r18, r20
    5798:	bd 01       	movw	r22, r26
    579a:	ef 01       	movw	r28, r30
    579c:	df 01       	movw	r26, r30
    579e:	f8 01       	movw	r30, r16
    57a0:	db cf       	rjmp	.-74     	; 0x5758 <malloc+0x22>
    57a2:	21 15       	cp	r18, r1
    57a4:	31 05       	cpc	r19, r1
    57a6:	f9 f0       	breq	.+62     	; 0x57e6 <malloc+0xb0>
    57a8:	28 1b       	sub	r18, r24
    57aa:	39 0b       	sbc	r19, r25
    57ac:	24 30       	cpi	r18, 0x04	; 4
    57ae:	31 05       	cpc	r19, r1
    57b0:	80 f4       	brcc	.+32     	; 0x57d2 <malloc+0x9c>
    57b2:	8a 81       	ldd	r24, Y+2	; 0x02
    57b4:	9b 81       	ldd	r25, Y+3	; 0x03
    57b6:	61 15       	cp	r22, r1
    57b8:	71 05       	cpc	r23, r1
    57ba:	21 f0       	breq	.+8      	; 0x57c4 <malloc+0x8e>
    57bc:	fb 01       	movw	r30, r22
    57be:	93 83       	std	Z+3, r25	; 0x03
    57c0:	82 83       	std	Z+2, r24	; 0x02
    57c2:	04 c0       	rjmp	.+8      	; 0x57cc <malloc+0x96>
    57c4:	90 93 99 0d 	sts	0x0D99, r25	; 0x800d99 <__flp+0x1>
    57c8:	80 93 98 0d 	sts	0x0D98, r24	; 0x800d98 <__flp>
    57cc:	fe 01       	movw	r30, r28
    57ce:	32 96       	adiw	r30, 0x02	; 2
    57d0:	44 c0       	rjmp	.+136    	; 0x585a <malloc+0x124>
    57d2:	fe 01       	movw	r30, r28
    57d4:	e2 0f       	add	r30, r18
    57d6:	f3 1f       	adc	r31, r19
    57d8:	81 93       	st	Z+, r24
    57da:	91 93       	st	Z+, r25
    57dc:	22 50       	subi	r18, 0x02	; 2
    57de:	31 09       	sbc	r19, r1
    57e0:	39 83       	std	Y+1, r19	; 0x01
    57e2:	28 83       	st	Y, r18
    57e4:	3a c0       	rjmp	.+116    	; 0x585a <malloc+0x124>
    57e6:	20 91 96 0d 	lds	r18, 0x0D96	; 0x800d96 <__brkval>
    57ea:	30 91 97 0d 	lds	r19, 0x0D97	; 0x800d97 <__brkval+0x1>
    57ee:	23 2b       	or	r18, r19
    57f0:	41 f4       	brne	.+16     	; 0x5802 <malloc+0xcc>
    57f2:	20 91 02 02 	lds	r18, 0x0202	; 0x800202 <__malloc_heap_start>
    57f6:	30 91 03 02 	lds	r19, 0x0203	; 0x800203 <__malloc_heap_start+0x1>
    57fa:	30 93 97 0d 	sts	0x0D97, r19	; 0x800d97 <__brkval+0x1>
    57fe:	20 93 96 0d 	sts	0x0D96, r18	; 0x800d96 <__brkval>
    5802:	20 91 00 02 	lds	r18, 0x0200	; 0x800200 <__DATA_REGION_ORIGIN__>
    5806:	30 91 01 02 	lds	r19, 0x0201	; 0x800201 <__DATA_REGION_ORIGIN__+0x1>
    580a:	21 15       	cp	r18, r1
    580c:	31 05       	cpc	r19, r1
    580e:	41 f4       	brne	.+16     	; 0x5820 <malloc+0xea>
    5810:	2d b7       	in	r18, 0x3d	; 61
    5812:	3e b7       	in	r19, 0x3e	; 62
    5814:	40 91 04 02 	lds	r20, 0x0204	; 0x800204 <__malloc_margin>
    5818:	50 91 05 02 	lds	r21, 0x0205	; 0x800205 <__malloc_margin+0x1>
    581c:	24 1b       	sub	r18, r20
    581e:	35 0b       	sbc	r19, r21
    5820:	e0 91 96 0d 	lds	r30, 0x0D96	; 0x800d96 <__brkval>
    5824:	f0 91 97 0d 	lds	r31, 0x0D97	; 0x800d97 <__brkval+0x1>
    5828:	e2 17       	cp	r30, r18
    582a:	f3 07       	cpc	r31, r19
    582c:	a0 f4       	brcc	.+40     	; 0x5856 <malloc+0x120>
    582e:	2e 1b       	sub	r18, r30
    5830:	3f 0b       	sbc	r19, r31
    5832:	28 17       	cp	r18, r24
    5834:	39 07       	cpc	r19, r25
    5836:	78 f0       	brcs	.+30     	; 0x5856 <malloc+0x120>
    5838:	ac 01       	movw	r20, r24
    583a:	4e 5f       	subi	r20, 0xFE	; 254
    583c:	5f 4f       	sbci	r21, 0xFF	; 255
    583e:	24 17       	cp	r18, r20
    5840:	35 07       	cpc	r19, r21
    5842:	48 f0       	brcs	.+18     	; 0x5856 <malloc+0x120>
    5844:	4e 0f       	add	r20, r30
    5846:	5f 1f       	adc	r21, r31
    5848:	50 93 97 0d 	sts	0x0D97, r21	; 0x800d97 <__brkval+0x1>
    584c:	40 93 96 0d 	sts	0x0D96, r20	; 0x800d96 <__brkval>
    5850:	81 93       	st	Z+, r24
    5852:	91 93       	st	Z+, r25
    5854:	02 c0       	rjmp	.+4      	; 0x585a <malloc+0x124>
    5856:	e0 e0       	ldi	r30, 0x00	; 0
    5858:	f0 e0       	ldi	r31, 0x00	; 0
    585a:	cf 01       	movw	r24, r30
    585c:	df 91       	pop	r29
    585e:	cf 91       	pop	r28
    5860:	1f 91       	pop	r17
    5862:	0f 91       	pop	r16
    5864:	08 95       	ret

00005866 <free>:
    5866:	cf 93       	push	r28
    5868:	df 93       	push	r29
    586a:	00 97       	sbiw	r24, 0x00	; 0
    586c:	09 f4       	brne	.+2      	; 0x5870 <free+0xa>
    586e:	81 c0       	rjmp	.+258    	; 0x5972 <free+0x10c>
    5870:	fc 01       	movw	r30, r24
    5872:	32 97       	sbiw	r30, 0x02	; 2
    5874:	13 82       	std	Z+3, r1	; 0x03
    5876:	12 82       	std	Z+2, r1	; 0x02
    5878:	a0 91 98 0d 	lds	r26, 0x0D98	; 0x800d98 <__flp>
    587c:	b0 91 99 0d 	lds	r27, 0x0D99	; 0x800d99 <__flp+0x1>
    5880:	10 97       	sbiw	r26, 0x00	; 0
    5882:	81 f4       	brne	.+32     	; 0x58a4 <free+0x3e>
    5884:	20 81       	ld	r18, Z
    5886:	31 81       	ldd	r19, Z+1	; 0x01
    5888:	82 0f       	add	r24, r18
    588a:	93 1f       	adc	r25, r19
    588c:	20 91 96 0d 	lds	r18, 0x0D96	; 0x800d96 <__brkval>
    5890:	30 91 97 0d 	lds	r19, 0x0D97	; 0x800d97 <__brkval+0x1>
    5894:	28 17       	cp	r18, r24
    5896:	39 07       	cpc	r19, r25
    5898:	51 f5       	brne	.+84     	; 0x58ee <free+0x88>
    589a:	f0 93 97 0d 	sts	0x0D97, r31	; 0x800d97 <__brkval+0x1>
    589e:	e0 93 96 0d 	sts	0x0D96, r30	; 0x800d96 <__brkval>
    58a2:	67 c0       	rjmp	.+206    	; 0x5972 <free+0x10c>
    58a4:	ed 01       	movw	r28, r26
    58a6:	20 e0       	ldi	r18, 0x00	; 0
    58a8:	30 e0       	ldi	r19, 0x00	; 0
    58aa:	ce 17       	cp	r28, r30
    58ac:	df 07       	cpc	r29, r31
    58ae:	40 f4       	brcc	.+16     	; 0x58c0 <free+0x5a>
    58b0:	4a 81       	ldd	r20, Y+2	; 0x02
    58b2:	5b 81       	ldd	r21, Y+3	; 0x03
    58b4:	9e 01       	movw	r18, r28
    58b6:	41 15       	cp	r20, r1
    58b8:	51 05       	cpc	r21, r1
    58ba:	f1 f0       	breq	.+60     	; 0x58f8 <free+0x92>
    58bc:	ea 01       	movw	r28, r20
    58be:	f5 cf       	rjmp	.-22     	; 0x58aa <free+0x44>
    58c0:	d3 83       	std	Z+3, r29	; 0x03
    58c2:	c2 83       	std	Z+2, r28	; 0x02
    58c4:	40 81       	ld	r20, Z
    58c6:	51 81       	ldd	r21, Z+1	; 0x01
    58c8:	84 0f       	add	r24, r20
    58ca:	95 1f       	adc	r25, r21
    58cc:	c8 17       	cp	r28, r24
    58ce:	d9 07       	cpc	r29, r25
    58d0:	59 f4       	brne	.+22     	; 0x58e8 <free+0x82>
    58d2:	88 81       	ld	r24, Y
    58d4:	99 81       	ldd	r25, Y+1	; 0x01
    58d6:	84 0f       	add	r24, r20
    58d8:	95 1f       	adc	r25, r21
    58da:	02 96       	adiw	r24, 0x02	; 2
    58dc:	91 83       	std	Z+1, r25	; 0x01
    58de:	80 83       	st	Z, r24
    58e0:	8a 81       	ldd	r24, Y+2	; 0x02
    58e2:	9b 81       	ldd	r25, Y+3	; 0x03
    58e4:	93 83       	std	Z+3, r25	; 0x03
    58e6:	82 83       	std	Z+2, r24	; 0x02
    58e8:	21 15       	cp	r18, r1
    58ea:	31 05       	cpc	r19, r1
    58ec:	29 f4       	brne	.+10     	; 0x58f8 <free+0x92>
    58ee:	f0 93 99 0d 	sts	0x0D99, r31	; 0x800d99 <__flp+0x1>
    58f2:	e0 93 98 0d 	sts	0x0D98, r30	; 0x800d98 <__flp>
    58f6:	3d c0       	rjmp	.+122    	; 0x5972 <free+0x10c>
    58f8:	e9 01       	movw	r28, r18
    58fa:	fb 83       	std	Y+3, r31	; 0x03
    58fc:	ea 83       	std	Y+2, r30	; 0x02
    58fe:	49 91       	ld	r20, Y+
    5900:	59 91       	ld	r21, Y+
    5902:	c4 0f       	add	r28, r20
    5904:	d5 1f       	adc	r29, r21
    5906:	ec 17       	cp	r30, r28
    5908:	fd 07       	cpc	r31, r29
    590a:	61 f4       	brne	.+24     	; 0x5924 <free+0xbe>
    590c:	80 81       	ld	r24, Z
    590e:	91 81       	ldd	r25, Z+1	; 0x01
    5910:	84 0f       	add	r24, r20
    5912:	95 1f       	adc	r25, r21
    5914:	02 96       	adiw	r24, 0x02	; 2
    5916:	e9 01       	movw	r28, r18
    5918:	99 83       	std	Y+1, r25	; 0x01
    591a:	88 83       	st	Y, r24
    591c:	82 81       	ldd	r24, Z+2	; 0x02
    591e:	93 81       	ldd	r25, Z+3	; 0x03
    5920:	9b 83       	std	Y+3, r25	; 0x03
    5922:	8a 83       	std	Y+2, r24	; 0x02
    5924:	e0 e0       	ldi	r30, 0x00	; 0
    5926:	f0 e0       	ldi	r31, 0x00	; 0
    5928:	12 96       	adiw	r26, 0x02	; 2
    592a:	8d 91       	ld	r24, X+
    592c:	9c 91       	ld	r25, X
    592e:	13 97       	sbiw	r26, 0x03	; 3
    5930:	00 97       	sbiw	r24, 0x00	; 0
    5932:	19 f0       	breq	.+6      	; 0x593a <free+0xd4>
    5934:	fd 01       	movw	r30, r26
    5936:	dc 01       	movw	r26, r24
    5938:	f7 cf       	rjmp	.-18     	; 0x5928 <free+0xc2>
    593a:	8d 91       	ld	r24, X+
    593c:	9c 91       	ld	r25, X
    593e:	11 97       	sbiw	r26, 0x01	; 1
    5940:	9d 01       	movw	r18, r26
    5942:	2e 5f       	subi	r18, 0xFE	; 254
    5944:	3f 4f       	sbci	r19, 0xFF	; 255
    5946:	82 0f       	add	r24, r18
    5948:	93 1f       	adc	r25, r19
    594a:	20 91 96 0d 	lds	r18, 0x0D96	; 0x800d96 <__brkval>
    594e:	30 91 97 0d 	lds	r19, 0x0D97	; 0x800d97 <__brkval+0x1>
    5952:	28 17       	cp	r18, r24
    5954:	39 07       	cpc	r19, r25
    5956:	69 f4       	brne	.+26     	; 0x5972 <free+0x10c>
    5958:	30 97       	sbiw	r30, 0x00	; 0
    595a:	29 f4       	brne	.+10     	; 0x5966 <free+0x100>
    595c:	10 92 99 0d 	sts	0x0D99, r1	; 0x800d99 <__flp+0x1>
    5960:	10 92 98 0d 	sts	0x0D98, r1	; 0x800d98 <__flp>
    5964:	02 c0       	rjmp	.+4      	; 0x596a <free+0x104>
    5966:	13 82       	std	Z+3, r1	; 0x03
    5968:	12 82       	std	Z+2, r1	; 0x02
    596a:	b0 93 97 0d 	sts	0x0D97, r27	; 0x800d97 <__brkval+0x1>
    596e:	a0 93 96 0d 	sts	0x0D96, r26	; 0x800d96 <__brkval>
    5972:	df 91       	pop	r29
    5974:	cf 91       	pop	r28
    5976:	08 95       	ret

00005978 <realloc>:
    5978:	6f 92       	push	r6
    597a:	7f 92       	push	r7
    597c:	8f 92       	push	r8
    597e:	9f 92       	push	r9
    5980:	af 92       	push	r10
    5982:	bf 92       	push	r11
    5984:	cf 92       	push	r12
    5986:	df 92       	push	r13
    5988:	ef 92       	push	r14
    598a:	ff 92       	push	r15
    598c:	0f 93       	push	r16
    598e:	1f 93       	push	r17
    5990:	cf 93       	push	r28
    5992:	df 93       	push	r29
    5994:	00 97       	sbiw	r24, 0x00	; 0
    5996:	81 f4       	brne	.+32     	; 0x59b8 <realloc+0x40>
    5998:	cb 01       	movw	r24, r22
    599a:	df 91       	pop	r29
    599c:	cf 91       	pop	r28
    599e:	1f 91       	pop	r17
    59a0:	0f 91       	pop	r16
    59a2:	ff 90       	pop	r15
    59a4:	ef 90       	pop	r14
    59a6:	df 90       	pop	r13
    59a8:	cf 90       	pop	r12
    59aa:	bf 90       	pop	r11
    59ac:	af 90       	pop	r10
    59ae:	9f 90       	pop	r9
    59b0:	8f 90       	pop	r8
    59b2:	7f 90       	pop	r7
    59b4:	6f 90       	pop	r6
    59b6:	bf ce       	rjmp	.-642    	; 0x5736 <malloc>
    59b8:	fc 01       	movw	r30, r24
    59ba:	e6 0f       	add	r30, r22
    59bc:	f7 1f       	adc	r31, r23
    59be:	9c 01       	movw	r18, r24
    59c0:	22 50       	subi	r18, 0x02	; 2
    59c2:	31 09       	sbc	r19, r1
    59c4:	e2 17       	cp	r30, r18
    59c6:	f3 07       	cpc	r31, r19
    59c8:	08 f4       	brcc	.+2      	; 0x59cc <realloc+0x54>
    59ca:	a5 c0       	rjmp	.+330    	; 0x5b16 <realloc+0x19e>
    59cc:	ec 01       	movw	r28, r24
    59ce:	d9 01       	movw	r26, r18
    59d0:	0d 91       	ld	r16, X+
    59d2:	1c 91       	ld	r17, X
    59d4:	11 97       	sbiw	r26, 0x01	; 1
    59d6:	06 17       	cp	r16, r22
    59d8:	17 07       	cpc	r17, r23
    59da:	a8 f0       	brcs	.+42     	; 0x5a06 <realloc+0x8e>
    59dc:	05 30       	cpi	r16, 0x05	; 5
    59de:	11 05       	cpc	r17, r1
    59e0:	08 f4       	brcc	.+2      	; 0x59e4 <realloc+0x6c>
    59e2:	97 c0       	rjmp	.+302    	; 0x5b12 <realloc+0x19a>
    59e4:	c8 01       	movw	r24, r16
    59e6:	04 97       	sbiw	r24, 0x04	; 4
    59e8:	86 17       	cp	r24, r22
    59ea:	97 07       	cpc	r25, r23
    59ec:	08 f4       	brcc	.+2      	; 0x59f0 <realloc+0x78>
    59ee:	91 c0       	rjmp	.+290    	; 0x5b12 <realloc+0x19a>
    59f0:	02 50       	subi	r16, 0x02	; 2
    59f2:	11 09       	sbc	r17, r1
    59f4:	06 1b       	sub	r16, r22
    59f6:	17 0b       	sbc	r17, r23
    59f8:	01 93       	st	Z+, r16
    59fa:	11 93       	st	Z+, r17
    59fc:	6d 93       	st	X+, r22
    59fe:	7c 93       	st	X, r23
    5a00:	cf 01       	movw	r24, r30
    5a02:	31 df       	rcall	.-414    	; 0x5866 <free>
    5a04:	86 c0       	rjmp	.+268    	; 0x5b12 <realloc+0x19a>
    5a06:	5b 01       	movw	r10, r22
    5a08:	a0 1a       	sub	r10, r16
    5a0a:	b1 0a       	sbc	r11, r17
    5a0c:	4c 01       	movw	r8, r24
    5a0e:	80 0e       	add	r8, r16
    5a10:	91 1e       	adc	r9, r17
    5a12:	a0 91 98 0d 	lds	r26, 0x0D98	; 0x800d98 <__flp>
    5a16:	b0 91 99 0d 	lds	r27, 0x0D99	; 0x800d99 <__flp+0x1>
    5a1a:	61 2c       	mov	r6, r1
    5a1c:	71 2c       	mov	r7, r1
    5a1e:	e1 2c       	mov	r14, r1
    5a20:	f1 2c       	mov	r15, r1
    5a22:	10 97       	sbiw	r26, 0x00	; 0
    5a24:	09 f4       	brne	.+2      	; 0x5a28 <realloc+0xb0>
    5a26:	46 c0       	rjmp	.+140    	; 0x5ab4 <realloc+0x13c>
    5a28:	8d 91       	ld	r24, X+
    5a2a:	9c 91       	ld	r25, X
    5a2c:	11 97       	sbiw	r26, 0x01	; 1
    5a2e:	a8 15       	cp	r26, r8
    5a30:	b9 05       	cpc	r27, r9
    5a32:	b1 f5       	brne	.+108    	; 0x5aa0 <realloc+0x128>
    5a34:	6c 01       	movw	r12, r24
    5a36:	42 e0       	ldi	r20, 0x02	; 2
    5a38:	c4 0e       	add	r12, r20
    5a3a:	d1 1c       	adc	r13, r1
    5a3c:	ca 14       	cp	r12, r10
    5a3e:	db 04       	cpc	r13, r11
    5a40:	78 f1       	brcs	.+94     	; 0x5aa0 <realloc+0x128>
    5a42:	4c 01       	movw	r8, r24
    5a44:	8a 18       	sub	r8, r10
    5a46:	9b 08       	sbc	r9, r11
    5a48:	64 01       	movw	r12, r8
    5a4a:	42 e0       	ldi	r20, 0x02	; 2
    5a4c:	c4 0e       	add	r12, r20
    5a4e:	d1 1c       	adc	r13, r1
    5a50:	12 96       	adiw	r26, 0x02	; 2
    5a52:	bc 90       	ld	r11, X
    5a54:	12 97       	sbiw	r26, 0x02	; 2
    5a56:	13 96       	adiw	r26, 0x03	; 3
    5a58:	ac 91       	ld	r26, X
    5a5a:	b5 e0       	ldi	r27, 0x05	; 5
    5a5c:	cb 16       	cp	r12, r27
    5a5e:	d1 04       	cpc	r13, r1
    5a60:	40 f0       	brcs	.+16     	; 0x5a72 <realloc+0xfa>
    5a62:	b2 82       	std	Z+2, r11	; 0x02
    5a64:	a3 83       	std	Z+3, r26	; 0x03
    5a66:	91 82       	std	Z+1, r9	; 0x01
    5a68:	80 82       	st	Z, r8
    5a6a:	d9 01       	movw	r26, r18
    5a6c:	6d 93       	st	X+, r22
    5a6e:	7c 93       	st	X, r23
    5a70:	09 c0       	rjmp	.+18     	; 0x5a84 <realloc+0x10c>
    5a72:	0e 5f       	subi	r16, 0xFE	; 254
    5a74:	1f 4f       	sbci	r17, 0xFF	; 255
    5a76:	80 0f       	add	r24, r16
    5a78:	91 1f       	adc	r25, r17
    5a7a:	f9 01       	movw	r30, r18
    5a7c:	91 83       	std	Z+1, r25	; 0x01
    5a7e:	80 83       	st	Z, r24
    5a80:	eb 2d       	mov	r30, r11
    5a82:	fa 2f       	mov	r31, r26
    5a84:	e1 14       	cp	r14, r1
    5a86:	f1 04       	cpc	r15, r1
    5a88:	31 f0       	breq	.+12     	; 0x5a96 <realloc+0x11e>
    5a8a:	d7 01       	movw	r26, r14
    5a8c:	13 96       	adiw	r26, 0x03	; 3
    5a8e:	fc 93       	st	X, r31
    5a90:	ee 93       	st	-X, r30
    5a92:	12 97       	sbiw	r26, 0x02	; 2
    5a94:	3e c0       	rjmp	.+124    	; 0x5b12 <realloc+0x19a>
    5a96:	f0 93 99 0d 	sts	0x0D99, r31	; 0x800d99 <__flp+0x1>
    5a9a:	e0 93 98 0d 	sts	0x0D98, r30	; 0x800d98 <__flp>
    5a9e:	39 c0       	rjmp	.+114    	; 0x5b12 <realloc+0x19a>
    5aa0:	68 16       	cp	r6, r24
    5aa2:	79 06       	cpc	r7, r25
    5aa4:	08 f4       	brcc	.+2      	; 0x5aa8 <realloc+0x130>
    5aa6:	3c 01       	movw	r6, r24
    5aa8:	7d 01       	movw	r14, r26
    5aaa:	12 96       	adiw	r26, 0x02	; 2
    5aac:	0d 90       	ld	r0, X+
    5aae:	bc 91       	ld	r27, X
    5ab0:	a0 2d       	mov	r26, r0
    5ab2:	b7 cf       	rjmp	.-146    	; 0x5a22 <realloc+0xaa>
    5ab4:	80 91 96 0d 	lds	r24, 0x0D96	; 0x800d96 <__brkval>
    5ab8:	90 91 97 0d 	lds	r25, 0x0D97	; 0x800d97 <__brkval+0x1>
    5abc:	88 16       	cp	r8, r24
    5abe:	99 06       	cpc	r9, r25
    5ac0:	e1 f4       	brne	.+56     	; 0x5afa <realloc+0x182>
    5ac2:	66 16       	cp	r6, r22
    5ac4:	77 06       	cpc	r7, r23
    5ac6:	c8 f4       	brcc	.+50     	; 0x5afa <realloc+0x182>
    5ac8:	80 91 00 02 	lds	r24, 0x0200	; 0x800200 <__DATA_REGION_ORIGIN__>
    5acc:	90 91 01 02 	lds	r25, 0x0201	; 0x800201 <__DATA_REGION_ORIGIN__+0x1>
    5ad0:	00 97       	sbiw	r24, 0x00	; 0
    5ad2:	41 f4       	brne	.+16     	; 0x5ae4 <realloc+0x16c>
    5ad4:	8d b7       	in	r24, 0x3d	; 61
    5ad6:	9e b7       	in	r25, 0x3e	; 62
    5ad8:	40 91 04 02 	lds	r20, 0x0204	; 0x800204 <__malloc_margin>
    5adc:	50 91 05 02 	lds	r21, 0x0205	; 0x800205 <__malloc_margin+0x1>
    5ae0:	84 1b       	sub	r24, r20
    5ae2:	95 0b       	sbc	r25, r21
    5ae4:	e8 17       	cp	r30, r24
    5ae6:	f9 07       	cpc	r31, r25
    5ae8:	b0 f4       	brcc	.+44     	; 0x5b16 <realloc+0x19e>
    5aea:	f0 93 97 0d 	sts	0x0D97, r31	; 0x800d97 <__brkval+0x1>
    5aee:	e0 93 96 0d 	sts	0x0D96, r30	; 0x800d96 <__brkval>
    5af2:	f9 01       	movw	r30, r18
    5af4:	71 83       	std	Z+1, r23	; 0x01
    5af6:	60 83       	st	Z, r22
    5af8:	0c c0       	rjmp	.+24     	; 0x5b12 <realloc+0x19a>
    5afa:	cb 01       	movw	r24, r22
    5afc:	1c de       	rcall	.-968    	; 0x5736 <malloc>
    5afe:	7c 01       	movw	r14, r24
    5b00:	00 97       	sbiw	r24, 0x00	; 0
    5b02:	49 f0       	breq	.+18     	; 0x5b16 <realloc+0x19e>
    5b04:	a8 01       	movw	r20, r16
    5b06:	be 01       	movw	r22, r28
    5b08:	41 d0       	rcall	.+130    	; 0x5b8c <memcpy>
    5b0a:	ce 01       	movw	r24, r28
    5b0c:	ac de       	rcall	.-680    	; 0x5866 <free>
    5b0e:	c7 01       	movw	r24, r14
    5b10:	04 c0       	rjmp	.+8      	; 0x5b1a <realloc+0x1a2>
    5b12:	ce 01       	movw	r24, r28
    5b14:	02 c0       	rjmp	.+4      	; 0x5b1a <realloc+0x1a2>
    5b16:	80 e0       	ldi	r24, 0x00	; 0
    5b18:	90 e0       	ldi	r25, 0x00	; 0
    5b1a:	df 91       	pop	r29
    5b1c:	cf 91       	pop	r28
    5b1e:	1f 91       	pop	r17
    5b20:	0f 91       	pop	r16
    5b22:	ff 90       	pop	r15
    5b24:	ef 90       	pop	r14
    5b26:	df 90       	pop	r13
    5b28:	cf 90       	pop	r12
    5b2a:	bf 90       	pop	r11
    5b2c:	af 90       	pop	r10
    5b2e:	9f 90       	pop	r9
    5b30:	8f 90       	pop	r8
    5b32:	7f 90       	pop	r7
    5b34:	6f 90       	pop	r6
    5b36:	08 95       	ret

00005b38 <abort>:
    5b38:	81 e0       	ldi	r24, 0x01	; 1
    5b3a:	90 e0       	ldi	r25, 0x00	; 0
    5b3c:	f8 94       	cli
    5b3e:	4b c0       	rjmp	.+150    	; 0x5bd6 <_exit>

00005b40 <atol>:
    5b40:	1f 93       	push	r17
    5b42:	fc 01       	movw	r30, r24
    5b44:	99 27       	eor	r25, r25
    5b46:	88 27       	eor	r24, r24
    5b48:	bc 01       	movw	r22, r24
    5b4a:	e8 94       	clt
    5b4c:	11 91       	ld	r17, Z+
    5b4e:	10 32       	cpi	r17, 0x20	; 32
    5b50:	e9 f3       	breq	.-6      	; 0x5b4c <atol+0xc>
    5b52:	19 30       	cpi	r17, 0x09	; 9
    5b54:	10 f0       	brcs	.+4      	; 0x5b5a <atol+0x1a>
    5b56:	1e 30       	cpi	r17, 0x0E	; 14
    5b58:	c8 f3       	brcs	.-14     	; 0x5b4c <atol+0xc>
    5b5a:	1b 32       	cpi	r17, 0x2B	; 43
    5b5c:	49 f0       	breq	.+18     	; 0x5b70 <atol+0x30>
    5b5e:	1d 32       	cpi	r17, 0x2D	; 45
    5b60:	41 f4       	brne	.+16     	; 0x5b72 <atol+0x32>
    5b62:	68 94       	set
    5b64:	05 c0       	rjmp	.+10     	; 0x5b70 <atol+0x30>
    5b66:	22 d0       	rcall	.+68     	; 0x5bac <__mulsi_const_10>
    5b68:	61 0f       	add	r22, r17
    5b6a:	71 1d       	adc	r23, r1
    5b6c:	81 1d       	adc	r24, r1
    5b6e:	91 1d       	adc	r25, r1
    5b70:	11 91       	ld	r17, Z+
    5b72:	10 53       	subi	r17, 0x30	; 48
    5b74:	1a 30       	cpi	r17, 0x0A	; 10
    5b76:	b8 f3       	brcs	.-18     	; 0x5b66 <atol+0x26>
    5b78:	3e f4       	brtc	.+14     	; 0x5b88 <atol+0x48>
    5b7a:	90 95       	com	r25
    5b7c:	80 95       	com	r24
    5b7e:	70 95       	com	r23
    5b80:	61 95       	neg	r22
    5b82:	7f 4f       	sbci	r23, 0xFF	; 255
    5b84:	8f 4f       	sbci	r24, 0xFF	; 255
    5b86:	9f 4f       	sbci	r25, 0xFF	; 255
    5b88:	1f 91       	pop	r17
    5b8a:	08 95       	ret

00005b8c <memcpy>:
    5b8c:	fb 01       	movw	r30, r22
    5b8e:	dc 01       	movw	r26, r24
    5b90:	02 c0       	rjmp	.+4      	; 0x5b96 <memcpy+0xa>
    5b92:	01 90       	ld	r0, Z+
    5b94:	0d 92       	st	X+, r0
    5b96:	41 50       	subi	r20, 0x01	; 1
    5b98:	50 40       	sbci	r21, 0x00	; 0
    5b9a:	d8 f7       	brcc	.-10     	; 0x5b92 <memcpy+0x6>
    5b9c:	08 95       	ret

00005b9e <strcpy>:
    5b9e:	fb 01       	movw	r30, r22
    5ba0:	dc 01       	movw	r26, r24
    5ba2:	01 90       	ld	r0, Z+
    5ba4:	0d 92       	st	X+, r0
    5ba6:	00 20       	and	r0, r0
    5ba8:	e1 f7       	brne	.-8      	; 0x5ba2 <strcpy+0x4>
    5baa:	08 95       	ret

00005bac <__mulsi_const_10>:
    5bac:	59 2f       	mov	r21, r25
    5bae:	48 2f       	mov	r20, r24
    5bb0:	37 2f       	mov	r19, r23
    5bb2:	26 2f       	mov	r18, r22
    5bb4:	66 0f       	add	r22, r22
    5bb6:	77 1f       	adc	r23, r23
    5bb8:	88 1f       	adc	r24, r24
    5bba:	99 1f       	adc	r25, r25
    5bbc:	66 0f       	add	r22, r22
    5bbe:	77 1f       	adc	r23, r23
    5bc0:	88 1f       	adc	r24, r24
    5bc2:	99 1f       	adc	r25, r25
    5bc4:	62 0f       	add	r22, r18
    5bc6:	73 1f       	adc	r23, r19
    5bc8:	84 1f       	adc	r24, r20
    5bca:	95 1f       	adc	r25, r21
    5bcc:	66 0f       	add	r22, r22
    5bce:	77 1f       	adc	r23, r23
    5bd0:	88 1f       	adc	r24, r24
    5bd2:	99 1f       	adc	r25, r25
    5bd4:	08 95       	ret

00005bd6 <_exit>:
    5bd6:	f8 94       	cli

00005bd8 <__stop_program>:
    5bd8:	ff cf       	rjmp	.-2      	; 0x5bd8 <__stop_program>
